ARM GAS  C:\Users\schmi\AppData\Local\Temp\ccz9gB8K.s 			page 1


   1              		.syntax unified
   2              		.cpu cortex-m3
   3              		.fpu softvfp
   4              		.eabi_attribute 20, 1
   5              		.eabi_attribute 21, 1
   6              		.eabi_attribute 23, 3
   7              		.eabi_attribute 24, 1
   8              		.eabi_attribute 25, 1
   9              		.eabi_attribute 26, 1
  10              		.eabi_attribute 30, 1
  11              		.eabi_attribute 34, 1
  12              		.eabi_attribute 18, 4
  13              		.thumb
  14              		.syntax unified
  15              		.file	"ADC_SAR_Seq_1_SAR.c"
  16              		.text
  17              	.Ltext0:
  18              		.cfi_sections	.debug_frame
  19              		.section	.text.ADC_SAR_Seq_1_SAR_CalcGain,"ax",%progbits
  20              		.align	2
  21              		.thumb
  22              		.thumb_func
  23              		.type	ADC_SAR_Seq_1_SAR_CalcGain, %function
  24              	ADC_SAR_Seq_1_SAR_CalcGain:
  25              	.LFB12:
  26              		.file 1 "Generated_Source\\PSoC5\\ADC_SAR_Seq_1_SAR.c"
   1:Generated_Source\PSoC5/ADC_SAR_Seq_1_SAR.c **** /*******************************************************************************
   2:Generated_Source\PSoC5/ADC_SAR_Seq_1_SAR.c **** * File Name: ADC_SAR_Seq_1_SAR.c
   3:Generated_Source\PSoC5/ADC_SAR_Seq_1_SAR.c **** * Version 3.10
   4:Generated_Source\PSoC5/ADC_SAR_Seq_1_SAR.c **** *
   5:Generated_Source\PSoC5/ADC_SAR_Seq_1_SAR.c **** * Description:
   6:Generated_Source\PSoC5/ADC_SAR_Seq_1_SAR.c **** *  This file provides the source code to the API for the Successive
   7:Generated_Source\PSoC5/ADC_SAR_Seq_1_SAR.c **** *  approximation ADC Component.
   8:Generated_Source\PSoC5/ADC_SAR_Seq_1_SAR.c **** *
   9:Generated_Source\PSoC5/ADC_SAR_Seq_1_SAR.c **** * Note:
  10:Generated_Source\PSoC5/ADC_SAR_Seq_1_SAR.c **** *
  11:Generated_Source\PSoC5/ADC_SAR_Seq_1_SAR.c **** ********************************************************************************
  12:Generated_Source\PSoC5/ADC_SAR_Seq_1_SAR.c **** * Copyright 2008-2015, Cypress Semiconductor Corporation.  All rights reserved.
  13:Generated_Source\PSoC5/ADC_SAR_Seq_1_SAR.c **** * You may use this file only in accordance with the license, terms, conditions,
  14:Generated_Source\PSoC5/ADC_SAR_Seq_1_SAR.c **** * disclaimers, and limitations in the end user license agreement accompanying
  15:Generated_Source\PSoC5/ADC_SAR_Seq_1_SAR.c **** * the software package with which this file was provided.
  16:Generated_Source\PSoC5/ADC_SAR_Seq_1_SAR.c **** *******************************************************************************/
  17:Generated_Source\PSoC5/ADC_SAR_Seq_1_SAR.c **** 
  18:Generated_Source\PSoC5/ADC_SAR_Seq_1_SAR.c **** #include "CyLib.h"
  19:Generated_Source\PSoC5/ADC_SAR_Seq_1_SAR.c **** #include "ADC_SAR_Seq_1_SAR.h"
  20:Generated_Source\PSoC5/ADC_SAR_Seq_1_SAR.c **** 
  21:Generated_Source\PSoC5/ADC_SAR_Seq_1_SAR.c **** #if(ADC_SAR_Seq_1_SAR_DEFAULT_INTERNAL_CLK)
  22:Generated_Source\PSoC5/ADC_SAR_Seq_1_SAR.c ****     #include "ADC_SAR_Seq_1_SAR_theACLK.h"
  23:Generated_Source\PSoC5/ADC_SAR_Seq_1_SAR.c **** #endif /* End ADC_SAR_Seq_1_SAR_DEFAULT_INTERNAL_CLK */
  24:Generated_Source\PSoC5/ADC_SAR_Seq_1_SAR.c **** 
  25:Generated_Source\PSoC5/ADC_SAR_Seq_1_SAR.c **** 
  26:Generated_Source\PSoC5/ADC_SAR_Seq_1_SAR.c **** /***************************************
  27:Generated_Source\PSoC5/ADC_SAR_Seq_1_SAR.c **** * Forward function references
  28:Generated_Source\PSoC5/ADC_SAR_Seq_1_SAR.c **** ***************************************/
  29:Generated_Source\PSoC5/ADC_SAR_Seq_1_SAR.c **** static void ADC_SAR_Seq_1_SAR_CalcGain(uint8 resolution);
  30:Generated_Source\PSoC5/ADC_SAR_Seq_1_SAR.c **** 
  31:Generated_Source\PSoC5/ADC_SAR_Seq_1_SAR.c **** 
ARM GAS  C:\Users\schmi\AppData\Local\Temp\ccz9gB8K.s 			page 2


  32:Generated_Source\PSoC5/ADC_SAR_Seq_1_SAR.c **** /***************************************
  33:Generated_Source\PSoC5/ADC_SAR_Seq_1_SAR.c **** * Global data allocation
  34:Generated_Source\PSoC5/ADC_SAR_Seq_1_SAR.c **** ***************************************/
  35:Generated_Source\PSoC5/ADC_SAR_Seq_1_SAR.c **** uint8 ADC_SAR_Seq_1_SAR_initVar = 0u;
  36:Generated_Source\PSoC5/ADC_SAR_Seq_1_SAR.c **** volatile int16 ADC_SAR_Seq_1_SAR_offset;
  37:Generated_Source\PSoC5/ADC_SAR_Seq_1_SAR.c **** volatile int16 ADC_SAR_Seq_1_SAR_countsPerVolt;     /* Obsolete Gain compensation */
  38:Generated_Source\PSoC5/ADC_SAR_Seq_1_SAR.c **** volatile int32 ADC_SAR_Seq_1_SAR_countsPer10Volt;   /* Gain compensation */
  39:Generated_Source\PSoC5/ADC_SAR_Seq_1_SAR.c **** volatile int16 ADC_SAR_Seq_1_SAR_shift;
  40:Generated_Source\PSoC5/ADC_SAR_Seq_1_SAR.c **** 
  41:Generated_Source\PSoC5/ADC_SAR_Seq_1_SAR.c **** 
  42:Generated_Source\PSoC5/ADC_SAR_Seq_1_SAR.c **** /*******************************************************************************
  43:Generated_Source\PSoC5/ADC_SAR_Seq_1_SAR.c **** * Function Name: ADC_SAR_Seq_1_SAR_Start
  44:Generated_Source\PSoC5/ADC_SAR_Seq_1_SAR.c **** ********************************************************************************
  45:Generated_Source\PSoC5/ADC_SAR_Seq_1_SAR.c **** *
  46:Generated_Source\PSoC5/ADC_SAR_Seq_1_SAR.c **** * Summary:
  47:Generated_Source\PSoC5/ADC_SAR_Seq_1_SAR.c **** *  This is the preferred method to begin component operation.
  48:Generated_Source\PSoC5/ADC_SAR_Seq_1_SAR.c **** *  ADC_SAR_Seq_1_SAR_Start() sets the initVar variable, calls the
  49:Generated_Source\PSoC5/ADC_SAR_Seq_1_SAR.c **** *  ADC_SAR_Seq_1_SAR_Init() function, and then calls the
  50:Generated_Source\PSoC5/ADC_SAR_Seq_1_SAR.c **** *  ADC_SAR_Seq_1_SAR_Enable() function.
  51:Generated_Source\PSoC5/ADC_SAR_Seq_1_SAR.c **** *
  52:Generated_Source\PSoC5/ADC_SAR_Seq_1_SAR.c **** * Parameters:
  53:Generated_Source\PSoC5/ADC_SAR_Seq_1_SAR.c **** *  None.
  54:Generated_Source\PSoC5/ADC_SAR_Seq_1_SAR.c **** *
  55:Generated_Source\PSoC5/ADC_SAR_Seq_1_SAR.c **** * Return:
  56:Generated_Source\PSoC5/ADC_SAR_Seq_1_SAR.c **** *  None.
  57:Generated_Source\PSoC5/ADC_SAR_Seq_1_SAR.c **** *
  58:Generated_Source\PSoC5/ADC_SAR_Seq_1_SAR.c **** * Global variables:
  59:Generated_Source\PSoC5/ADC_SAR_Seq_1_SAR.c **** *  The ADC_SAR_Seq_1_SAR_initVar variable is used to indicate when/if initial
  60:Generated_Source\PSoC5/ADC_SAR_Seq_1_SAR.c **** *  configuration of this component has happened. The variable is initialized to
  61:Generated_Source\PSoC5/ADC_SAR_Seq_1_SAR.c **** *  zero and set to 1 the first time ADC_Start() is called. This allows for
  62:Generated_Source\PSoC5/ADC_SAR_Seq_1_SAR.c **** *  component Re-Start without re-initialization in all subsequent calls to the
  63:Generated_Source\PSoC5/ADC_SAR_Seq_1_SAR.c **** *  ADC_SAR_Seq_1_SAR_Start() routine.
  64:Generated_Source\PSoC5/ADC_SAR_Seq_1_SAR.c **** *  If re-initialization of the component is required the variable should be set
  65:Generated_Source\PSoC5/ADC_SAR_Seq_1_SAR.c **** *  to zero before call of ADC_SAR_Seq_1_SAR_Start() routine, or the user may call
  66:Generated_Source\PSoC5/ADC_SAR_Seq_1_SAR.c **** *  ADC_SAR_Seq_1_SAR_Init() and ADC_SAR_Seq_1_SAR_Enable() as done in the
  67:Generated_Source\PSoC5/ADC_SAR_Seq_1_SAR.c **** *  ADC_SAR_Seq_1_SAR_Start() routine.
  68:Generated_Source\PSoC5/ADC_SAR_Seq_1_SAR.c **** *
  69:Generated_Source\PSoC5/ADC_SAR_Seq_1_SAR.c **** * Side Effect:
  70:Generated_Source\PSoC5/ADC_SAR_Seq_1_SAR.c **** *  If the initVar variable is already set, this function only calls the
  71:Generated_Source\PSoC5/ADC_SAR_Seq_1_SAR.c **** *  ADC_SAR_Seq_1_SAR_Enable() function.
  72:Generated_Source\PSoC5/ADC_SAR_Seq_1_SAR.c **** *
  73:Generated_Source\PSoC5/ADC_SAR_Seq_1_SAR.c **** *******************************************************************************/
  74:Generated_Source\PSoC5/ADC_SAR_Seq_1_SAR.c **** void ADC_SAR_Seq_1_SAR_Start(void)
  75:Generated_Source\PSoC5/ADC_SAR_Seq_1_SAR.c **** {
  76:Generated_Source\PSoC5/ADC_SAR_Seq_1_SAR.c **** 
  77:Generated_Source\PSoC5/ADC_SAR_Seq_1_SAR.c ****     /* If not Initialized then initialize all required hardware and software */
  78:Generated_Source\PSoC5/ADC_SAR_Seq_1_SAR.c ****     if(ADC_SAR_Seq_1_SAR_initVar == 0u)
  79:Generated_Source\PSoC5/ADC_SAR_Seq_1_SAR.c ****     {
  80:Generated_Source\PSoC5/ADC_SAR_Seq_1_SAR.c ****         ADC_SAR_Seq_1_SAR_Init();
  81:Generated_Source\PSoC5/ADC_SAR_Seq_1_SAR.c ****         ADC_SAR_Seq_1_SAR_initVar = 1u;
  82:Generated_Source\PSoC5/ADC_SAR_Seq_1_SAR.c ****     }
  83:Generated_Source\PSoC5/ADC_SAR_Seq_1_SAR.c ****     ADC_SAR_Seq_1_SAR_Enable();
  84:Generated_Source\PSoC5/ADC_SAR_Seq_1_SAR.c **** }
  85:Generated_Source\PSoC5/ADC_SAR_Seq_1_SAR.c **** 
  86:Generated_Source\PSoC5/ADC_SAR_Seq_1_SAR.c **** 
  87:Generated_Source\PSoC5/ADC_SAR_Seq_1_SAR.c **** /*******************************************************************************
  88:Generated_Source\PSoC5/ADC_SAR_Seq_1_SAR.c **** * Function Name: ADC_SAR_Seq_1_SAR_Init
ARM GAS  C:\Users\schmi\AppData\Local\Temp\ccz9gB8K.s 			page 3


  89:Generated_Source\PSoC5/ADC_SAR_Seq_1_SAR.c **** ********************************************************************************
  90:Generated_Source\PSoC5/ADC_SAR_Seq_1_SAR.c **** *
  91:Generated_Source\PSoC5/ADC_SAR_Seq_1_SAR.c **** * Summary:
  92:Generated_Source\PSoC5/ADC_SAR_Seq_1_SAR.c **** *  Initialize component's parameters to the parameters set by user in the
  93:Generated_Source\PSoC5/ADC_SAR_Seq_1_SAR.c **** *  customizer of the component placed onto schematic. Usually called in
  94:Generated_Source\PSoC5/ADC_SAR_Seq_1_SAR.c **** *  ADC_SAR_Seq_1_SAR_Start().
  95:Generated_Source\PSoC5/ADC_SAR_Seq_1_SAR.c **** *
  96:Generated_Source\PSoC5/ADC_SAR_Seq_1_SAR.c **** * Parameters:
  97:Generated_Source\PSoC5/ADC_SAR_Seq_1_SAR.c **** *  None.
  98:Generated_Source\PSoC5/ADC_SAR_Seq_1_SAR.c **** *
  99:Generated_Source\PSoC5/ADC_SAR_Seq_1_SAR.c **** * Return:
 100:Generated_Source\PSoC5/ADC_SAR_Seq_1_SAR.c **** *  None.
 101:Generated_Source\PSoC5/ADC_SAR_Seq_1_SAR.c **** *
 102:Generated_Source\PSoC5/ADC_SAR_Seq_1_SAR.c **** * Global variables:
 103:Generated_Source\PSoC5/ADC_SAR_Seq_1_SAR.c **** *  The ADC_SAR_Seq_1_SAR_offset variable is initialized to 0.
 104:Generated_Source\PSoC5/ADC_SAR_Seq_1_SAR.c **** *
 105:Generated_Source\PSoC5/ADC_SAR_Seq_1_SAR.c **** *******************************************************************************/
 106:Generated_Source\PSoC5/ADC_SAR_Seq_1_SAR.c **** void ADC_SAR_Seq_1_SAR_Init(void)
 107:Generated_Source\PSoC5/ADC_SAR_Seq_1_SAR.c **** {
 108:Generated_Source\PSoC5/ADC_SAR_Seq_1_SAR.c **** 
 109:Generated_Source\PSoC5/ADC_SAR_Seq_1_SAR.c ****     /* This is only valid if there is an internal clock */
 110:Generated_Source\PSoC5/ADC_SAR_Seq_1_SAR.c ****     #if(ADC_SAR_Seq_1_SAR_DEFAULT_INTERNAL_CLK)
 111:Generated_Source\PSoC5/ADC_SAR_Seq_1_SAR.c ****         ADC_SAR_Seq_1_SAR_theACLK_SetMode(CYCLK_DUTY);
 112:Generated_Source\PSoC5/ADC_SAR_Seq_1_SAR.c ****     #endif /* End ADC_SAR_Seq_1_SAR_DEFAULT_INTERNAL_CLK */
 113:Generated_Source\PSoC5/ADC_SAR_Seq_1_SAR.c **** 
 114:Generated_Source\PSoC5/ADC_SAR_Seq_1_SAR.c ****     #if(ADC_SAR_Seq_1_SAR_IRQ_REMOVE == 0u)
 115:Generated_Source\PSoC5/ADC_SAR_Seq_1_SAR.c ****         /* Start and set interrupt vector */
 116:Generated_Source\PSoC5/ADC_SAR_Seq_1_SAR.c ****         CyIntSetPriority(ADC_SAR_Seq_1_SAR_INTC_NUMBER, ADC_SAR_Seq_1_SAR_INTC_PRIOR_NUMBER);
 117:Generated_Source\PSoC5/ADC_SAR_Seq_1_SAR.c ****         (void)CyIntSetVector(ADC_SAR_Seq_1_SAR_INTC_NUMBER, &ADC_SAR_Seq_1_SAR_ISR);
 118:Generated_Source\PSoC5/ADC_SAR_Seq_1_SAR.c ****     #endif   /* End ADC_SAR_Seq_1_SAR_IRQ_REMOVE */
 119:Generated_Source\PSoC5/ADC_SAR_Seq_1_SAR.c **** 
 120:Generated_Source\PSoC5/ADC_SAR_Seq_1_SAR.c ****     /* Enable IRQ mode*/
 121:Generated_Source\PSoC5/ADC_SAR_Seq_1_SAR.c ****     ADC_SAR_Seq_1_SAR_SAR_CSR1_REG |= ADC_SAR_Seq_1_SAR_SAR_IRQ_MASK_EN | ADC_SAR_Seq_1_SAR_SAR_IRQ
 122:Generated_Source\PSoC5/ADC_SAR_Seq_1_SAR.c **** 
 123:Generated_Source\PSoC5/ADC_SAR_Seq_1_SAR.c ****     /*Set SAR ADC resolution ADC */
 124:Generated_Source\PSoC5/ADC_SAR_Seq_1_SAR.c ****     ADC_SAR_Seq_1_SAR_SetResolution(ADC_SAR_Seq_1_SAR_DEFAULT_RESOLUTION);
 125:Generated_Source\PSoC5/ADC_SAR_Seq_1_SAR.c ****     ADC_SAR_Seq_1_SAR_offset = 0;
 126:Generated_Source\PSoC5/ADC_SAR_Seq_1_SAR.c **** }
 127:Generated_Source\PSoC5/ADC_SAR_Seq_1_SAR.c **** 
 128:Generated_Source\PSoC5/ADC_SAR_Seq_1_SAR.c **** 
 129:Generated_Source\PSoC5/ADC_SAR_Seq_1_SAR.c **** /*******************************************************************************
 130:Generated_Source\PSoC5/ADC_SAR_Seq_1_SAR.c **** * Function Name: ADC_SAR_Seq_1_SAR_Enable
 131:Generated_Source\PSoC5/ADC_SAR_Seq_1_SAR.c **** ********************************************************************************
 132:Generated_Source\PSoC5/ADC_SAR_Seq_1_SAR.c **** *
 133:Generated_Source\PSoC5/ADC_SAR_Seq_1_SAR.c **** * Summary:
 134:Generated_Source\PSoC5/ADC_SAR_Seq_1_SAR.c **** *  Enables the reference, clock and power for SAR ADC.
 135:Generated_Source\PSoC5/ADC_SAR_Seq_1_SAR.c **** *
 136:Generated_Source\PSoC5/ADC_SAR_Seq_1_SAR.c **** * Parameters:
 137:Generated_Source\PSoC5/ADC_SAR_Seq_1_SAR.c **** *  None.
 138:Generated_Source\PSoC5/ADC_SAR_Seq_1_SAR.c **** *
 139:Generated_Source\PSoC5/ADC_SAR_Seq_1_SAR.c **** * Return:
 140:Generated_Source\PSoC5/ADC_SAR_Seq_1_SAR.c **** *  None.
 141:Generated_Source\PSoC5/ADC_SAR_Seq_1_SAR.c **** *
 142:Generated_Source\PSoC5/ADC_SAR_Seq_1_SAR.c **** *******************************************************************************/
 143:Generated_Source\PSoC5/ADC_SAR_Seq_1_SAR.c **** void ADC_SAR_Seq_1_SAR_Enable(void)
 144:Generated_Source\PSoC5/ADC_SAR_Seq_1_SAR.c **** {
 145:Generated_Source\PSoC5/ADC_SAR_Seq_1_SAR.c ****     uint8 tmpReg;
ARM GAS  C:\Users\schmi\AppData\Local\Temp\ccz9gB8K.s 			page 4


 146:Generated_Source\PSoC5/ADC_SAR_Seq_1_SAR.c ****     uint8 enableInterrupts;
 147:Generated_Source\PSoC5/ADC_SAR_Seq_1_SAR.c ****     enableInterrupts = CyEnterCriticalSection();
 148:Generated_Source\PSoC5/ADC_SAR_Seq_1_SAR.c **** 
 149:Generated_Source\PSoC5/ADC_SAR_Seq_1_SAR.c ****     /* Enable the SAR ADC block in Active Power Mode */
 150:Generated_Source\PSoC5/ADC_SAR_Seq_1_SAR.c ****     ADC_SAR_Seq_1_SAR_PWRMGR_SAR_REG |= ADC_SAR_Seq_1_SAR_ACT_PWR_SAR_EN;
 151:Generated_Source\PSoC5/ADC_SAR_Seq_1_SAR.c **** 
 152:Generated_Source\PSoC5/ADC_SAR_Seq_1_SAR.c ****      /* Enable the SAR ADC in Standby Power Mode*/
 153:Generated_Source\PSoC5/ADC_SAR_Seq_1_SAR.c ****     ADC_SAR_Seq_1_SAR_STBY_PWRMGR_SAR_REG |= ADC_SAR_Seq_1_SAR_STBY_PWR_SAR_EN;
 154:Generated_Source\PSoC5/ADC_SAR_Seq_1_SAR.c **** 
 155:Generated_Source\PSoC5/ADC_SAR_Seq_1_SAR.c ****     /* This is only valid if there is an internal clock */
 156:Generated_Source\PSoC5/ADC_SAR_Seq_1_SAR.c ****     #if(ADC_SAR_Seq_1_SAR_DEFAULT_INTERNAL_CLK)
 157:Generated_Source\PSoC5/ADC_SAR_Seq_1_SAR.c ****         ADC_SAR_Seq_1_SAR_PWRMGR_CLK_REG |= ADC_SAR_Seq_1_SAR_ACT_PWR_CLK_EN;
 158:Generated_Source\PSoC5/ADC_SAR_Seq_1_SAR.c ****         ADC_SAR_Seq_1_SAR_STBY_PWRMGR_CLK_REG |= ADC_SAR_Seq_1_SAR_STBY_PWR_CLK_EN;
 159:Generated_Source\PSoC5/ADC_SAR_Seq_1_SAR.c ****     #endif /* End ADC_SAR_Seq_1_SAR_DEFAULT_INTERNAL_CLK */
 160:Generated_Source\PSoC5/ADC_SAR_Seq_1_SAR.c **** 
 161:Generated_Source\PSoC5/ADC_SAR_Seq_1_SAR.c ****     /* Enable VCM buffer and Enable Int Ref Amp */
 162:Generated_Source\PSoC5/ADC_SAR_Seq_1_SAR.c ****     tmpReg = ADC_SAR_Seq_1_SAR_SAR_CSR3_REG;
 163:Generated_Source\PSoC5/ADC_SAR_Seq_1_SAR.c ****     tmpReg |= ADC_SAR_Seq_1_SAR_SAR_EN_BUF_VCM_EN;
 164:Generated_Source\PSoC5/ADC_SAR_Seq_1_SAR.c ****     /* PD_BUF_VREF is OFF in External reference or Vdda reference mode */
 165:Generated_Source\PSoC5/ADC_SAR_Seq_1_SAR.c ****     #if((ADC_SAR_Seq_1_SAR_DEFAULT_REFERENCE == ADC_SAR_Seq_1_SAR__EXT_REF) || \
 166:Generated_Source\PSoC5/ADC_SAR_Seq_1_SAR.c ****         (ADC_SAR_Seq_1_SAR_DEFAULT_RANGE == ADC_SAR_Seq_1_SAR__VNEG_VDDA_DIFF))
 167:Generated_Source\PSoC5/ADC_SAR_Seq_1_SAR.c ****         tmpReg &= (uint8)~ADC_SAR_Seq_1_SAR_SAR_EN_BUF_VREF_EN;
 168:Generated_Source\PSoC5/ADC_SAR_Seq_1_SAR.c ****     #else /* In INTREF or INTREF Bypassed this buffer is ON */
 169:Generated_Source\PSoC5/ADC_SAR_Seq_1_SAR.c ****         tmpReg |= ADC_SAR_Seq_1_SAR_SAR_EN_BUF_VREF_EN;
 170:Generated_Source\PSoC5/ADC_SAR_Seq_1_SAR.c ****     #endif /* ADC_SAR_Seq_1_SAR_DEFAULT_REFERENCE == ADC_SAR_Seq_1_SAR__EXT_REF */
 171:Generated_Source\PSoC5/ADC_SAR_Seq_1_SAR.c ****     ADC_SAR_Seq_1_SAR_SAR_CSR3_REG = tmpReg;
 172:Generated_Source\PSoC5/ADC_SAR_Seq_1_SAR.c **** 
 173:Generated_Source\PSoC5/ADC_SAR_Seq_1_SAR.c ****     /* Set reference for ADC */
 174:Generated_Source\PSoC5/ADC_SAR_Seq_1_SAR.c ****     #if(ADC_SAR_Seq_1_SAR_DEFAULT_RANGE == ADC_SAR_Seq_1_SAR__VNEG_VDDA_DIFF)
 175:Generated_Source\PSoC5/ADC_SAR_Seq_1_SAR.c ****         #if(ADC_SAR_Seq_1_SAR_DEFAULT_REFERENCE == ADC_SAR_Seq_1_SAR__EXT_REF)
 176:Generated_Source\PSoC5/ADC_SAR_Seq_1_SAR.c ****             ADC_SAR_Seq_1_SAR_SAR_CSR6_REG = ADC_SAR_Seq_1_SAR_INT_BYPASS_EXT_VREF; /* S2 */
 177:Generated_Source\PSoC5/ADC_SAR_Seq_1_SAR.c ****         #else /* Internal Vdda reference or obsolete bypass mode */
 178:Generated_Source\PSoC5/ADC_SAR_Seq_1_SAR.c ****             ADC_SAR_Seq_1_SAR_SAR_CSR6_REG = ADC_SAR_Seq_1_SAR_VDDA_VREF;           /* S7 */
 179:Generated_Source\PSoC5/ADC_SAR_Seq_1_SAR.c ****         #endif /* ADC_SAR_Seq_1_SAR_DEFAULT_REFERENCE == ADC_SAR_Seq_1_SAR__EXT_REF */
 180:Generated_Source\PSoC5/ADC_SAR_Seq_1_SAR.c ****     #else  /* Reference goes through internal buffer */
 181:Generated_Source\PSoC5/ADC_SAR_Seq_1_SAR.c ****         #if(ADC_SAR_Seq_1_SAR_DEFAULT_REFERENCE == ADC_SAR_Seq_1_SAR__INT_REF_NOT_BYPASSED)
 182:Generated_Source\PSoC5/ADC_SAR_Seq_1_SAR.c ****             ADC_SAR_Seq_1_SAR_SAR_CSR6_REG = ADC_SAR_Seq_1_SAR_INT_VREF;            /* S3 + S4 */
 183:Generated_Source\PSoC5/ADC_SAR_Seq_1_SAR.c ****         #else /* INTREF Bypassed of External */
 184:Generated_Source\PSoC5/ADC_SAR_Seq_1_SAR.c ****             ADC_SAR_Seq_1_SAR_SAR_CSR6_REG = ADC_SAR_Seq_1_SAR_INT_BYPASS_EXT_VREF; /* S2 */
 185:Generated_Source\PSoC5/ADC_SAR_Seq_1_SAR.c ****         #endif /* ADC_SAR_Seq_1_SAR_DEFAULT_REFERENCE == ADC_SAR_Seq_1_SAR__INT_REF_NOT_BYPASSED */
 186:Generated_Source\PSoC5/ADC_SAR_Seq_1_SAR.c ****     #endif /* VNEG_VDDA_DIFF */
 187:Generated_Source\PSoC5/ADC_SAR_Seq_1_SAR.c **** 
 188:Generated_Source\PSoC5/ADC_SAR_Seq_1_SAR.c ****     /* Low non-overlap delay for sampling clock signals (for 1MSPS) */
 189:Generated_Source\PSoC5/ADC_SAR_Seq_1_SAR.c ****     #if(ADC_SAR_Seq_1_SAR_HIGH_POWER_PULSE == 0u) /* MinPulseWidth <= 50 ns */
 190:Generated_Source\PSoC5/ADC_SAR_Seq_1_SAR.c ****         ADC_SAR_Seq_1_SAR_SAR_CSR5_REG &= (uint8)~ADC_SAR_Seq_1_SAR_SAR_DLY_INC;
 191:Generated_Source\PSoC5/ADC_SAR_Seq_1_SAR.c ****     #else /* Set High non-overlap delay for sampling clock signals (for <500KSPS)*/
 192:Generated_Source\PSoC5/ADC_SAR_Seq_1_SAR.c ****         ADC_SAR_Seq_1_SAR_SAR_CSR5_REG |= ADC_SAR_Seq_1_SAR_SAR_DLY_INC;
 193:Generated_Source\PSoC5/ADC_SAR_Seq_1_SAR.c ****     #endif /* ADC_SAR_Seq_1_SAR_HIGH_POWER_PULSE == 0u */
 194:Generated_Source\PSoC5/ADC_SAR_Seq_1_SAR.c **** 
 195:Generated_Source\PSoC5/ADC_SAR_Seq_1_SAR.c ****     /* Increase comparator latch enable delay by 20%, 
 196:Generated_Source\PSoC5/ADC_SAR_Seq_1_SAR.c ****     *  Increase comparator bias current by 30% without impacting delaysDelay 
 197:Generated_Source\PSoC5/ADC_SAR_Seq_1_SAR.c ****     *  Default for 1MSPS) 
 198:Generated_Source\PSoC5/ADC_SAR_Seq_1_SAR.c ****     */
 199:Generated_Source\PSoC5/ADC_SAR_Seq_1_SAR.c ****     #if(ADC_SAR_Seq_1_SAR_HIGH_POWER_PULSE == 0u)    /* MinPulseWidth <= 50 ns */
 200:Generated_Source\PSoC5/ADC_SAR_Seq_1_SAR.c ****         ADC_SAR_Seq_1_SAR_SAR_CSR5_REG |= ADC_SAR_Seq_1_SAR_SAR_SEL_CSEL_DFT_CHAR;
 201:Generated_Source\PSoC5/ADC_SAR_Seq_1_SAR.c ****     #else /* for <500ksps */
 202:Generated_Source\PSoC5/ADC_SAR_Seq_1_SAR.c ****         ADC_SAR_Seq_1_SAR_SAR_CSR5_REG &= (uint8)~ADC_SAR_Seq_1_SAR_SAR_SEL_CSEL_DFT_CHAR;
ARM GAS  C:\Users\schmi\AppData\Local\Temp\ccz9gB8K.s 			page 5


 203:Generated_Source\PSoC5/ADC_SAR_Seq_1_SAR.c ****     #endif /* ADC_SAR_Seq_1_SAR_HIGH_POWER_PULSE == 0u */
 204:Generated_Source\PSoC5/ADC_SAR_Seq_1_SAR.c **** 
 205:Generated_Source\PSoC5/ADC_SAR_Seq_1_SAR.c ****     /* Set default power and other configurations for control register 0 in multiple lines */
 206:Generated_Source\PSoC5/ADC_SAR_Seq_1_SAR.c ****     ADC_SAR_Seq_1_SAR_SAR_CSR0_REG = (uint8)((uint8)ADC_SAR_Seq_1_SAR_DEFAULT_POWER << ADC_SAR_Seq_
 207:Generated_Source\PSoC5/ADC_SAR_Seq_1_SAR.c ****     /* SAR_HIZ_CLEAR:   Should not be used for LP */
 208:Generated_Source\PSoC5/ADC_SAR_Seq_1_SAR.c ****     #if ((CY_PSOC5LP) || (ADC_SAR_Seq_1_SAR_DEFAULT_REFERENCE != ADC_SAR_Seq_1_SAR__EXT_REF))
 209:Generated_Source\PSoC5/ADC_SAR_Seq_1_SAR.c ****         | ADC_SAR_Seq_1_SAR_SAR_HIZ_CLEAR
 210:Generated_Source\PSoC5/ADC_SAR_Seq_1_SAR.c ****     #endif /* SAR_HIZ_CLEAR */
 211:Generated_Source\PSoC5/ADC_SAR_Seq_1_SAR.c ****     /*Set Convertion mode */
 212:Generated_Source\PSoC5/ADC_SAR_Seq_1_SAR.c ****     #if(ADC_SAR_Seq_1_SAR_DEFAULT_CONV_MODE != ADC_SAR_Seq_1_SAR__FREE_RUNNING)      /* If triggere
 213:Generated_Source\PSoC5/ADC_SAR_Seq_1_SAR.c ****         | ADC_SAR_Seq_1_SAR_SAR_MX_SOF_UDB           /* source: UDB */
 214:Generated_Source\PSoC5/ADC_SAR_Seq_1_SAR.c ****         | ADC_SAR_Seq_1_SAR_SAR_SOF_MODE_EDGE        /* Set edge-sensitive sof source */
 215:Generated_Source\PSoC5/ADC_SAR_Seq_1_SAR.c ****     #endif /* ADC_SAR_Seq_1_SAR_DEFAULT_CONV_MODE */
 216:Generated_Source\PSoC5/ADC_SAR_Seq_1_SAR.c ****     ; /* end of multiple line initialization */
 217:Generated_Source\PSoC5/ADC_SAR_Seq_1_SAR.c **** 
 218:Generated_Source\PSoC5/ADC_SAR_Seq_1_SAR.c ****     ADC_SAR_Seq_1_SAR_SAR_TR0_REG = ADC_SAR_Seq_1_SAR_SAR_CAP_TRIM_2;
 219:Generated_Source\PSoC5/ADC_SAR_Seq_1_SAR.c **** 
 220:Generated_Source\PSoC5/ADC_SAR_Seq_1_SAR.c ****     /* Enable clock for SAR ADC*/
 221:Generated_Source\PSoC5/ADC_SAR_Seq_1_SAR.c ****     ADC_SAR_Seq_1_SAR_SAR_CLK_REG |= ADC_SAR_Seq_1_SAR_SAR_MX_CLK_EN;
 222:Generated_Source\PSoC5/ADC_SAR_Seq_1_SAR.c **** 
 223:Generated_Source\PSoC5/ADC_SAR_Seq_1_SAR.c ****     CyDelayUs(10u); /* The block is ready to use 10 us after the enable signal is set high. */
 224:Generated_Source\PSoC5/ADC_SAR_Seq_1_SAR.c **** 
 225:Generated_Source\PSoC5/ADC_SAR_Seq_1_SAR.c ****     #if(ADC_SAR_Seq_1_SAR_IRQ_REMOVE == 0u)
 226:Generated_Source\PSoC5/ADC_SAR_Seq_1_SAR.c ****         /* Clear a pending interrupt */
 227:Generated_Source\PSoC5/ADC_SAR_Seq_1_SAR.c ****         CyIntClearPending(ADC_SAR_Seq_1_SAR_INTC_NUMBER);
 228:Generated_Source\PSoC5/ADC_SAR_Seq_1_SAR.c ****     #endif   /* End ADC_SAR_Seq_1_SAR_IRQ_REMOVE */
 229:Generated_Source\PSoC5/ADC_SAR_Seq_1_SAR.c **** 
 230:Generated_Source\PSoC5/ADC_SAR_Seq_1_SAR.c ****     CyExitCriticalSection(enableInterrupts);
 231:Generated_Source\PSoC5/ADC_SAR_Seq_1_SAR.c **** }
 232:Generated_Source\PSoC5/ADC_SAR_Seq_1_SAR.c **** 
 233:Generated_Source\PSoC5/ADC_SAR_Seq_1_SAR.c **** 
 234:Generated_Source\PSoC5/ADC_SAR_Seq_1_SAR.c **** /*******************************************************************************
 235:Generated_Source\PSoC5/ADC_SAR_Seq_1_SAR.c **** * Function Name: ADC_SAR_Seq_1_SAR_Stop
 236:Generated_Source\PSoC5/ADC_SAR_Seq_1_SAR.c **** ********************************************************************************
 237:Generated_Source\PSoC5/ADC_SAR_Seq_1_SAR.c **** *
 238:Generated_Source\PSoC5/ADC_SAR_Seq_1_SAR.c **** * Summary:
 239:Generated_Source\PSoC5/ADC_SAR_Seq_1_SAR.c **** *  Stops ADC conversions and puts the ADC into its lowest power mode.
 240:Generated_Source\PSoC5/ADC_SAR_Seq_1_SAR.c **** *
 241:Generated_Source\PSoC5/ADC_SAR_Seq_1_SAR.c **** * Parameters:
 242:Generated_Source\PSoC5/ADC_SAR_Seq_1_SAR.c **** *  None.
 243:Generated_Source\PSoC5/ADC_SAR_Seq_1_SAR.c **** *
 244:Generated_Source\PSoC5/ADC_SAR_Seq_1_SAR.c **** * Return:
 245:Generated_Source\PSoC5/ADC_SAR_Seq_1_SAR.c **** *  None.
 246:Generated_Source\PSoC5/ADC_SAR_Seq_1_SAR.c **** *
 247:Generated_Source\PSoC5/ADC_SAR_Seq_1_SAR.c **** *******************************************************************************/
 248:Generated_Source\PSoC5/ADC_SAR_Seq_1_SAR.c **** void ADC_SAR_Seq_1_SAR_Stop(void)
 249:Generated_Source\PSoC5/ADC_SAR_Seq_1_SAR.c **** {
 250:Generated_Source\PSoC5/ADC_SAR_Seq_1_SAR.c ****     uint8 enableInterrupts;
 251:Generated_Source\PSoC5/ADC_SAR_Seq_1_SAR.c ****     enableInterrupts = CyEnterCriticalSection();
 252:Generated_Source\PSoC5/ADC_SAR_Seq_1_SAR.c **** 
 253:Generated_Source\PSoC5/ADC_SAR_Seq_1_SAR.c ****     /* Stop all conversions */
 254:Generated_Source\PSoC5/ADC_SAR_Seq_1_SAR.c ****     ADC_SAR_Seq_1_SAR_SAR_CSR0_REG &= (uint8)~ADC_SAR_Seq_1_SAR_SAR_SOF_START_CONV;
 255:Generated_Source\PSoC5/ADC_SAR_Seq_1_SAR.c ****     /* Disable the SAR ADC block in Active Power Mode */
 256:Generated_Source\PSoC5/ADC_SAR_Seq_1_SAR.c ****     ADC_SAR_Seq_1_SAR_PWRMGR_SAR_REG &= (uint8)~ADC_SAR_Seq_1_SAR_ACT_PWR_SAR_EN;
 257:Generated_Source\PSoC5/ADC_SAR_Seq_1_SAR.c ****     /* Disable the SAR ADC in Standby Power Mode */
 258:Generated_Source\PSoC5/ADC_SAR_Seq_1_SAR.c ****     ADC_SAR_Seq_1_SAR_STBY_PWRMGR_SAR_REG &= (uint8)~ADC_SAR_Seq_1_SAR_STBY_PWR_SAR_EN;
 259:Generated_Source\PSoC5/ADC_SAR_Seq_1_SAR.c **** 
ARM GAS  C:\Users\schmi\AppData\Local\Temp\ccz9gB8K.s 			page 6


 260:Generated_Source\PSoC5/ADC_SAR_Seq_1_SAR.c ****     /* This is only valid if there is an internal clock */
 261:Generated_Source\PSoC5/ADC_SAR_Seq_1_SAR.c ****     #if(ADC_SAR_Seq_1_SAR_DEFAULT_INTERNAL_CLK)
 262:Generated_Source\PSoC5/ADC_SAR_Seq_1_SAR.c ****         ADC_SAR_Seq_1_SAR_PWRMGR_CLK_REG &= (uint8)~ADC_SAR_Seq_1_SAR_ACT_PWR_CLK_EN;
 263:Generated_Source\PSoC5/ADC_SAR_Seq_1_SAR.c ****         ADC_SAR_Seq_1_SAR_STBY_PWRMGR_CLK_REG &= (uint8)~ADC_SAR_Seq_1_SAR_STBY_PWR_CLK_EN;
 264:Generated_Source\PSoC5/ADC_SAR_Seq_1_SAR.c ****     #endif /* End ADC_SAR_Seq_1_SAR_DEFAULT_INTERNAL_CLK */
 265:Generated_Source\PSoC5/ADC_SAR_Seq_1_SAR.c **** 
 266:Generated_Source\PSoC5/ADC_SAR_Seq_1_SAR.c ****     CyExitCriticalSection(enableInterrupts);
 267:Generated_Source\PSoC5/ADC_SAR_Seq_1_SAR.c **** 
 268:Generated_Source\PSoC5/ADC_SAR_Seq_1_SAR.c **** }
 269:Generated_Source\PSoC5/ADC_SAR_Seq_1_SAR.c **** 
 270:Generated_Source\PSoC5/ADC_SAR_Seq_1_SAR.c **** 
 271:Generated_Source\PSoC5/ADC_SAR_Seq_1_SAR.c **** /*******************************************************************************
 272:Generated_Source\PSoC5/ADC_SAR_Seq_1_SAR.c **** * Function Name: ADC_SAR_Seq_1_SAR_SetPower
 273:Generated_Source\PSoC5/ADC_SAR_Seq_1_SAR.c **** ********************************************************************************
 274:Generated_Source\PSoC5/ADC_SAR_Seq_1_SAR.c **** *
 275:Generated_Source\PSoC5/ADC_SAR_Seq_1_SAR.c **** * Summary:
 276:Generated_Source\PSoC5/ADC_SAR_Seq_1_SAR.c **** *  Sets the operational power of the ADC. You should use the higher power
 277:Generated_Source\PSoC5/ADC_SAR_Seq_1_SAR.c **** *  settings with faster clock speeds.
 278:Generated_Source\PSoC5/ADC_SAR_Seq_1_SAR.c **** *
 279:Generated_Source\PSoC5/ADC_SAR_Seq_1_SAR.c **** * Parameters:
 280:Generated_Source\PSoC5/ADC_SAR_Seq_1_SAR.c **** *  power:  Power setting for ADC
 281:Generated_Source\PSoC5/ADC_SAR_Seq_1_SAR.c **** *  0 ->    Normal
 282:Generated_Source\PSoC5/ADC_SAR_Seq_1_SAR.c **** *  1 ->    Medium power
 283:Generated_Source\PSoC5/ADC_SAR_Seq_1_SAR.c **** *  2 ->    1.25 power
 284:Generated_Source\PSoC5/ADC_SAR_Seq_1_SAR.c **** *  3 ->    Minimum power.
 285:Generated_Source\PSoC5/ADC_SAR_Seq_1_SAR.c **** *
 286:Generated_Source\PSoC5/ADC_SAR_Seq_1_SAR.c **** * Return:
 287:Generated_Source\PSoC5/ADC_SAR_Seq_1_SAR.c **** *  None.
 288:Generated_Source\PSoC5/ADC_SAR_Seq_1_SAR.c **** *
 289:Generated_Source\PSoC5/ADC_SAR_Seq_1_SAR.c **** *******************************************************************************/
 290:Generated_Source\PSoC5/ADC_SAR_Seq_1_SAR.c **** void ADC_SAR_Seq_1_SAR_SetPower(uint8 power)
 291:Generated_Source\PSoC5/ADC_SAR_Seq_1_SAR.c **** {
 292:Generated_Source\PSoC5/ADC_SAR_Seq_1_SAR.c ****     uint8 tmpReg;
 293:Generated_Source\PSoC5/ADC_SAR_Seq_1_SAR.c **** 
 294:Generated_Source\PSoC5/ADC_SAR_Seq_1_SAR.c ****     /* mask off invalid power settings */
 295:Generated_Source\PSoC5/ADC_SAR_Seq_1_SAR.c ****     power &= ADC_SAR_Seq_1_SAR_SAR_API_POWER_MASK;
 296:Generated_Source\PSoC5/ADC_SAR_Seq_1_SAR.c **** 
 297:Generated_Source\PSoC5/ADC_SAR_Seq_1_SAR.c ****     /* Set Power parameter  */
 298:Generated_Source\PSoC5/ADC_SAR_Seq_1_SAR.c ****     tmpReg = ADC_SAR_Seq_1_SAR_SAR_CSR0_REG & (uint8)~ADC_SAR_Seq_1_SAR_SAR_POWER_MASK;
 299:Generated_Source\PSoC5/ADC_SAR_Seq_1_SAR.c ****     tmpReg |= (uint8)(power << ADC_SAR_Seq_1_SAR_SAR_POWER_SHIFT);
 300:Generated_Source\PSoC5/ADC_SAR_Seq_1_SAR.c ****     ADC_SAR_Seq_1_SAR_SAR_CSR0_REG = tmpReg;
 301:Generated_Source\PSoC5/ADC_SAR_Seq_1_SAR.c **** }
 302:Generated_Source\PSoC5/ADC_SAR_Seq_1_SAR.c **** 
 303:Generated_Source\PSoC5/ADC_SAR_Seq_1_SAR.c **** 
 304:Generated_Source\PSoC5/ADC_SAR_Seq_1_SAR.c **** /*******************************************************************************
 305:Generated_Source\PSoC5/ADC_SAR_Seq_1_SAR.c **** * Function Name: ADC_SAR_Seq_1_SAR_SetResolution
 306:Generated_Source\PSoC5/ADC_SAR_Seq_1_SAR.c **** ********************************************************************************
 307:Generated_Source\PSoC5/ADC_SAR_Seq_1_SAR.c **** *
 308:Generated_Source\PSoC5/ADC_SAR_Seq_1_SAR.c **** * Summary:
 309:Generated_Source\PSoC5/ADC_SAR_Seq_1_SAR.c **** *  Sets the Relution of the SAR.
 310:Generated_Source\PSoC5/ADC_SAR_Seq_1_SAR.c **** *
 311:Generated_Source\PSoC5/ADC_SAR_Seq_1_SAR.c **** * Parameters:
 312:Generated_Source\PSoC5/ADC_SAR_Seq_1_SAR.c **** *  resolution:
 313:Generated_Source\PSoC5/ADC_SAR_Seq_1_SAR.c **** *  12 ->    RES12
 314:Generated_Source\PSoC5/ADC_SAR_Seq_1_SAR.c **** *  10 ->    RES10
 315:Generated_Source\PSoC5/ADC_SAR_Seq_1_SAR.c **** *  8  ->    RES8
 316:Generated_Source\PSoC5/ADC_SAR_Seq_1_SAR.c **** *
ARM GAS  C:\Users\schmi\AppData\Local\Temp\ccz9gB8K.s 			page 7


 317:Generated_Source\PSoC5/ADC_SAR_Seq_1_SAR.c **** * Return:
 318:Generated_Source\PSoC5/ADC_SAR_Seq_1_SAR.c **** *  None.
 319:Generated_Source\PSoC5/ADC_SAR_Seq_1_SAR.c **** *
 320:Generated_Source\PSoC5/ADC_SAR_Seq_1_SAR.c **** * Side Effects:
 321:Generated_Source\PSoC5/ADC_SAR_Seq_1_SAR.c **** *  The ADC resolution cannot be changed during a conversion cycle. The
 322:Generated_Source\PSoC5/ADC_SAR_Seq_1_SAR.c **** *  recommended best practice is to stop conversions with
 323:Generated_Source\PSoC5/ADC_SAR_Seq_1_SAR.c **** *  ADC_StopConvert(), change the resolution, then restart the
 324:Generated_Source\PSoC5/ADC_SAR_Seq_1_SAR.c **** *  conversions with ADC_StartConvert().
 325:Generated_Source\PSoC5/ADC_SAR_Seq_1_SAR.c **** *  If you decide not to stop conversions before calling this API, you
 326:Generated_Source\PSoC5/ADC_SAR_Seq_1_SAR.c **** *  should use ADC_IsEndConversion() to wait until conversion is complete
 327:Generated_Source\PSoC5/ADC_SAR_Seq_1_SAR.c **** *  before changing the resolution.
 328:Generated_Source\PSoC5/ADC_SAR_Seq_1_SAR.c **** *  If you call ADC_SetResolution() during a conversion, the resolution will
 329:Generated_Source\PSoC5/ADC_SAR_Seq_1_SAR.c **** *  not be changed until the current conversion is complete. Data will not be
 330:Generated_Source\PSoC5/ADC_SAR_Seq_1_SAR.c **** *  available in the new resolution for another 6 + "New Resolution(in bits)"
 331:Generated_Source\PSoC5/ADC_SAR_Seq_1_SAR.c **** *  clock cycles.
 332:Generated_Source\PSoC5/ADC_SAR_Seq_1_SAR.c **** *  You may need add a delay of this number of clock cycles after
 333:Generated_Source\PSoC5/ADC_SAR_Seq_1_SAR.c **** *  ADC_SetResolution() is called before data is valid again.
 334:Generated_Source\PSoC5/ADC_SAR_Seq_1_SAR.c **** *  Affects ADC_CountsTo_Volts(), ADC_CountsTo_mVolts(), and
 335:Generated_Source\PSoC5/ADC_SAR_Seq_1_SAR.c **** *  ADC_CountsTo_uVolts() by calculating the correct conversion between ADC
 336:Generated_Source\PSoC5/ADC_SAR_Seq_1_SAR.c **** *  counts and the applied input voltage. Calculation depends on resolution,
 337:Generated_Source\PSoC5/ADC_SAR_Seq_1_SAR.c **** *  input range, and voltage reference.
 338:Generated_Source\PSoC5/ADC_SAR_Seq_1_SAR.c **** *
 339:Generated_Source\PSoC5/ADC_SAR_Seq_1_SAR.c **** *******************************************************************************/
 340:Generated_Source\PSoC5/ADC_SAR_Seq_1_SAR.c **** void ADC_SAR_Seq_1_SAR_SetResolution(uint8 resolution)
 341:Generated_Source\PSoC5/ADC_SAR_Seq_1_SAR.c **** {
 342:Generated_Source\PSoC5/ADC_SAR_Seq_1_SAR.c ****     uint8 tmpReg;
 343:Generated_Source\PSoC5/ADC_SAR_Seq_1_SAR.c **** 
 344:Generated_Source\PSoC5/ADC_SAR_Seq_1_SAR.c ****     /* Set SAR ADC resolution and sample width: 18 conversion cycles at 12bits + 1 gap */
 345:Generated_Source\PSoC5/ADC_SAR_Seq_1_SAR.c ****     switch (resolution)
 346:Generated_Source\PSoC5/ADC_SAR_Seq_1_SAR.c ****     {
 347:Generated_Source\PSoC5/ADC_SAR_Seq_1_SAR.c ****         case (uint8)ADC_SAR_Seq_1_SAR__BITS_12:
 348:Generated_Source\PSoC5/ADC_SAR_Seq_1_SAR.c ****             tmpReg = ADC_SAR_Seq_1_SAR_SAR_RESOLUTION_12BIT | ADC_SAR_Seq_1_SAR_SAR_SAMPLE_WIDTH;
 349:Generated_Source\PSoC5/ADC_SAR_Seq_1_SAR.c ****             break;
 350:Generated_Source\PSoC5/ADC_SAR_Seq_1_SAR.c ****         case (uint8)ADC_SAR_Seq_1_SAR__BITS_10:
 351:Generated_Source\PSoC5/ADC_SAR_Seq_1_SAR.c ****             tmpReg = ADC_SAR_Seq_1_SAR_SAR_RESOLUTION_10BIT | ADC_SAR_Seq_1_SAR_SAR_SAMPLE_WIDTH;
 352:Generated_Source\PSoC5/ADC_SAR_Seq_1_SAR.c ****             break;
 353:Generated_Source\PSoC5/ADC_SAR_Seq_1_SAR.c ****         case (uint8)ADC_SAR_Seq_1_SAR__BITS_8:
 354:Generated_Source\PSoC5/ADC_SAR_Seq_1_SAR.c ****             tmpReg = ADC_SAR_Seq_1_SAR_SAR_RESOLUTION_8BIT | ADC_SAR_Seq_1_SAR_SAR_SAMPLE_WIDTH;
 355:Generated_Source\PSoC5/ADC_SAR_Seq_1_SAR.c ****             break;
 356:Generated_Source\PSoC5/ADC_SAR_Seq_1_SAR.c ****         default:
 357:Generated_Source\PSoC5/ADC_SAR_Seq_1_SAR.c ****             tmpReg = ADC_SAR_Seq_1_SAR_SAR_RESOLUTION_12BIT | ADC_SAR_Seq_1_SAR_SAR_SAMPLE_WIDTH;
 358:Generated_Source\PSoC5/ADC_SAR_Seq_1_SAR.c ****             /* Halt CPU in debug mode if resolution is out of valid range */
 359:Generated_Source\PSoC5/ADC_SAR_Seq_1_SAR.c ****             CYASSERT(0u != 0u);
 360:Generated_Source\PSoC5/ADC_SAR_Seq_1_SAR.c ****             break;
 361:Generated_Source\PSoC5/ADC_SAR_Seq_1_SAR.c ****     }
 362:Generated_Source\PSoC5/ADC_SAR_Seq_1_SAR.c ****     ADC_SAR_Seq_1_SAR_SAR_CSR2_REG = tmpReg;
 363:Generated_Source\PSoC5/ADC_SAR_Seq_1_SAR.c **** 
 364:Generated_Source\PSoC5/ADC_SAR_Seq_1_SAR.c ****      /* Calculate gain for convert counts to volts */
 365:Generated_Source\PSoC5/ADC_SAR_Seq_1_SAR.c ****     ADC_SAR_Seq_1_SAR_CalcGain(resolution);
 366:Generated_Source\PSoC5/ADC_SAR_Seq_1_SAR.c **** }
 367:Generated_Source\PSoC5/ADC_SAR_Seq_1_SAR.c **** 
 368:Generated_Source\PSoC5/ADC_SAR_Seq_1_SAR.c **** 
 369:Generated_Source\PSoC5/ADC_SAR_Seq_1_SAR.c **** #if(ADC_SAR_Seq_1_SAR_DEFAULT_CONV_MODE != ADC_SAR_Seq_1_SAR__HARDWARE_TRIGGER)
 370:Generated_Source\PSoC5/ADC_SAR_Seq_1_SAR.c **** 
 371:Generated_Source\PSoC5/ADC_SAR_Seq_1_SAR.c **** 
 372:Generated_Source\PSoC5/ADC_SAR_Seq_1_SAR.c ****     /*******************************************************************************
 373:Generated_Source\PSoC5/ADC_SAR_Seq_1_SAR.c ****     * Function Name: ADC_SAR_Seq_1_SAR_StartConvert
ARM GAS  C:\Users\schmi\AppData\Local\Temp\ccz9gB8K.s 			page 8


 374:Generated_Source\PSoC5/ADC_SAR_Seq_1_SAR.c ****     ********************************************************************************
 375:Generated_Source\PSoC5/ADC_SAR_Seq_1_SAR.c ****     *
 376:Generated_Source\PSoC5/ADC_SAR_Seq_1_SAR.c ****     * Summary:
 377:Generated_Source\PSoC5/ADC_SAR_Seq_1_SAR.c ****     *  Forces the ADC to initiate a conversion. In free-running mode, the ADC runs
 378:Generated_Source\PSoC5/ADC_SAR_Seq_1_SAR.c ****     *  continuously. In software trigger mode, the function also acts as a software
 379:Generated_Source\PSoC5/ADC_SAR_Seq_1_SAR.c ****     *  version of the SOC and every conversion must be triggered by
 380:Generated_Source\PSoC5/ADC_SAR_Seq_1_SAR.c ****     *  ADC_SAR_Seq_1_SAR_StartConvert(). This function is not available when the
 381:Generated_Source\PSoC5/ADC_SAR_Seq_1_SAR.c ****     *  Hardware Trigger sample mode is selected.
 382:Generated_Source\PSoC5/ADC_SAR_Seq_1_SAR.c ****     *
 383:Generated_Source\PSoC5/ADC_SAR_Seq_1_SAR.c ****     * Parameters:
 384:Generated_Source\PSoC5/ADC_SAR_Seq_1_SAR.c ****     *  None.
 385:Generated_Source\PSoC5/ADC_SAR_Seq_1_SAR.c ****     *
 386:Generated_Source\PSoC5/ADC_SAR_Seq_1_SAR.c ****     * Return:
 387:Generated_Source\PSoC5/ADC_SAR_Seq_1_SAR.c ****     *  None.
 388:Generated_Source\PSoC5/ADC_SAR_Seq_1_SAR.c ****     *
 389:Generated_Source\PSoC5/ADC_SAR_Seq_1_SAR.c ****     * Theory:
 390:Generated_Source\PSoC5/ADC_SAR_Seq_1_SAR.c ****     *  Forces the ADC to initiate a conversion. In Free Running mode, the ADC will
 391:Generated_Source\PSoC5/ADC_SAR_Seq_1_SAR.c ****     *  run continuously. In a software trigger mode the function also acts as a
 392:Generated_Source\PSoC5/ADC_SAR_Seq_1_SAR.c ****     *  software version of the SOC. Here every conversion has to be triggered by
 393:Generated_Source\PSoC5/ADC_SAR_Seq_1_SAR.c ****     *  the routine. This writes into the SOC bit in SAR_CTRL reg.
 394:Generated_Source\PSoC5/ADC_SAR_Seq_1_SAR.c ****     *
 395:Generated_Source\PSoC5/ADC_SAR_Seq_1_SAR.c ****     * Side Effects:
 396:Generated_Source\PSoC5/ADC_SAR_Seq_1_SAR.c ****     *  In a software trigger mode the function switches source for SOF from the
 397:Generated_Source\PSoC5/ADC_SAR_Seq_1_SAR.c ****     *  external pin to the internal SOF generation. Application should not call
 398:Generated_Source\PSoC5/ADC_SAR_Seq_1_SAR.c ****     *  StartConvert if external source used for SOF.
 399:Generated_Source\PSoC5/ADC_SAR_Seq_1_SAR.c ****     *
 400:Generated_Source\PSoC5/ADC_SAR_Seq_1_SAR.c ****     *******************************************************************************/
 401:Generated_Source\PSoC5/ADC_SAR_Seq_1_SAR.c ****     void ADC_SAR_Seq_1_SAR_StartConvert(void)
 402:Generated_Source\PSoC5/ADC_SAR_Seq_1_SAR.c ****     {
 403:Generated_Source\PSoC5/ADC_SAR_Seq_1_SAR.c ****         #if(ADC_SAR_Seq_1_SAR_DEFAULT_CONV_MODE != ADC_SAR_Seq_1_SAR__FREE_RUNNING)  /* If software
 404:Generated_Source\PSoC5/ADC_SAR_Seq_1_SAR.c ****             ADC_SAR_Seq_1_SAR_SAR_CSR0_REG &= (uint8)~ADC_SAR_Seq_1_SAR_SAR_MX_SOF_UDB;   /* source
 405:Generated_Source\PSoC5/ADC_SAR_Seq_1_SAR.c ****         #endif /* End ADC_SAR_Seq_1_SAR_DEFAULT_CONV_MODE */
 406:Generated_Source\PSoC5/ADC_SAR_Seq_1_SAR.c **** 
 407:Generated_Source\PSoC5/ADC_SAR_Seq_1_SAR.c ****         /* Start the conversion */
 408:Generated_Source\PSoC5/ADC_SAR_Seq_1_SAR.c ****         ADC_SAR_Seq_1_SAR_SAR_CSR0_REG |= ADC_SAR_Seq_1_SAR_SAR_SOF_START_CONV;
 409:Generated_Source\PSoC5/ADC_SAR_Seq_1_SAR.c ****     }
 410:Generated_Source\PSoC5/ADC_SAR_Seq_1_SAR.c **** 
 411:Generated_Source\PSoC5/ADC_SAR_Seq_1_SAR.c **** 
 412:Generated_Source\PSoC5/ADC_SAR_Seq_1_SAR.c ****     /*******************************************************************************
 413:Generated_Source\PSoC5/ADC_SAR_Seq_1_SAR.c ****     * Function Name: ADC_SAR_Seq_1_SAR_StopConvert
 414:Generated_Source\PSoC5/ADC_SAR_Seq_1_SAR.c ****     ********************************************************************************
 415:Generated_Source\PSoC5/ADC_SAR_Seq_1_SAR.c ****     *
 416:Generated_Source\PSoC5/ADC_SAR_Seq_1_SAR.c ****     * Summary:
 417:Generated_Source\PSoC5/ADC_SAR_Seq_1_SAR.c ****     *  Forces the ADC to stop conversions. If a conversion is currently executing,
 418:Generated_Source\PSoC5/ADC_SAR_Seq_1_SAR.c ****     *  that conversion will complete, but no further conversions will occur. This
 419:Generated_Source\PSoC5/ADC_SAR_Seq_1_SAR.c ****     *  function is not available when the Hardware Trigger sample mode is selected.
 420:Generated_Source\PSoC5/ADC_SAR_Seq_1_SAR.c ****     *
 421:Generated_Source\PSoC5/ADC_SAR_Seq_1_SAR.c ****     * Parameters:
 422:Generated_Source\PSoC5/ADC_SAR_Seq_1_SAR.c ****     *  None.
 423:Generated_Source\PSoC5/ADC_SAR_Seq_1_SAR.c ****     *
 424:Generated_Source\PSoC5/ADC_SAR_Seq_1_SAR.c ****     * Return:
 425:Generated_Source\PSoC5/ADC_SAR_Seq_1_SAR.c ****     *  None.
 426:Generated_Source\PSoC5/ADC_SAR_Seq_1_SAR.c ****     *
 427:Generated_Source\PSoC5/ADC_SAR_Seq_1_SAR.c ****     * Theory:
 428:Generated_Source\PSoC5/ADC_SAR_Seq_1_SAR.c ****     *  Stops ADC conversion in Free Running mode.
 429:Generated_Source\PSoC5/ADC_SAR_Seq_1_SAR.c ****     *
 430:Generated_Source\PSoC5/ADC_SAR_Seq_1_SAR.c ****     * Side Effects:
ARM GAS  C:\Users\schmi\AppData\Local\Temp\ccz9gB8K.s 			page 9


 431:Generated_Source\PSoC5/ADC_SAR_Seq_1_SAR.c ****     *  In Software Trigger sample mode, this function sets a software version of the
 432:Generated_Source\PSoC5/ADC_SAR_Seq_1_SAR.c ****     *  SOC to low level and switches the SOC source to hardware SOC input.
 433:Generated_Source\PSoC5/ADC_SAR_Seq_1_SAR.c ****     *
 434:Generated_Source\PSoC5/ADC_SAR_Seq_1_SAR.c ****     *******************************************************************************/
 435:Generated_Source\PSoC5/ADC_SAR_Seq_1_SAR.c ****     void ADC_SAR_Seq_1_SAR_StopConvert(void)
 436:Generated_Source\PSoC5/ADC_SAR_Seq_1_SAR.c ****     {
 437:Generated_Source\PSoC5/ADC_SAR_Seq_1_SAR.c ****         /* Stop all conversions */
 438:Generated_Source\PSoC5/ADC_SAR_Seq_1_SAR.c ****         ADC_SAR_Seq_1_SAR_SAR_CSR0_REG &= (uint8)~ADC_SAR_Seq_1_SAR_SAR_SOF_START_CONV;
 439:Generated_Source\PSoC5/ADC_SAR_Seq_1_SAR.c **** 
 440:Generated_Source\PSoC5/ADC_SAR_Seq_1_SAR.c ****         #if(ADC_SAR_Seq_1_SAR_DEFAULT_CONV_MODE != ADC_SAR_Seq_1_SAR__FREE_RUNNING)  /* If software
 441:Generated_Source\PSoC5/ADC_SAR_Seq_1_SAR.c ****             /* Return source to UDB for hardware SOF signal */
 442:Generated_Source\PSoC5/ADC_SAR_Seq_1_SAR.c ****             ADC_SAR_Seq_1_SAR_SAR_CSR0_REG |= ADC_SAR_Seq_1_SAR_SAR_MX_SOF_UDB;    /* source: UDB *
 443:Generated_Source\PSoC5/ADC_SAR_Seq_1_SAR.c ****         #endif /* End ADC_SAR_Seq_1_SAR_DEFAULT_CONV_MODE */
 444:Generated_Source\PSoC5/ADC_SAR_Seq_1_SAR.c **** 
 445:Generated_Source\PSoC5/ADC_SAR_Seq_1_SAR.c ****     }
 446:Generated_Source\PSoC5/ADC_SAR_Seq_1_SAR.c **** 
 447:Generated_Source\PSoC5/ADC_SAR_Seq_1_SAR.c **** #endif /* End ADC_SAR_Seq_1_SAR_DEFAULT_CONV_MODE != ADC_SAR_Seq_1_SAR__HARDWARE_TRIGGER */
 448:Generated_Source\PSoC5/ADC_SAR_Seq_1_SAR.c **** 
 449:Generated_Source\PSoC5/ADC_SAR_Seq_1_SAR.c **** 
 450:Generated_Source\PSoC5/ADC_SAR_Seq_1_SAR.c **** /*******************************************************************************
 451:Generated_Source\PSoC5/ADC_SAR_Seq_1_SAR.c **** * Function Name: ADC_SAR_Seq_1_SAR_IsEndConversion
 452:Generated_Source\PSoC5/ADC_SAR_Seq_1_SAR.c **** ********************************************************************************
 453:Generated_Source\PSoC5/ADC_SAR_Seq_1_SAR.c **** *
 454:Generated_Source\PSoC5/ADC_SAR_Seq_1_SAR.c **** * Summary:
 455:Generated_Source\PSoC5/ADC_SAR_Seq_1_SAR.c **** *  Immediately returns the status of the conversion or does not return
 456:Generated_Source\PSoC5/ADC_SAR_Seq_1_SAR.c **** *  (blocking) until the conversion completes, depending on the retMode
 457:Generated_Source\PSoC5/ADC_SAR_Seq_1_SAR.c **** *  parameter.
 458:Generated_Source\PSoC5/ADC_SAR_Seq_1_SAR.c **** *
 459:Generated_Source\PSoC5/ADC_SAR_Seq_1_SAR.c **** * Parameters:
 460:Generated_Source\PSoC5/ADC_SAR_Seq_1_SAR.c **** *  retMode:  Check conversion return mode.
 461:Generated_Source\PSoC5/ADC_SAR_Seq_1_SAR.c **** *   ADC_SAR_Seq_1_SAR_RETURN_STATUS: Immediately returns the status. If the
 462:Generated_Source\PSoC5/ADC_SAR_Seq_1_SAR.c **** *     value returned is zero, the conversion is not complete, and this function
 463:Generated_Source\PSoC5/ADC_SAR_Seq_1_SAR.c **** *     should be retried until a nonzero result is returned.
 464:Generated_Source\PSoC5/ADC_SAR_Seq_1_SAR.c **** *   ADC_SAR_Seq_1_SAR_WAIT_FOR_RESULT: Does not return a result until the ADC
 465:Generated_Source\PSoC5/ADC_SAR_Seq_1_SAR.c **** *     conversion is complete.
 466:Generated_Source\PSoC5/ADC_SAR_Seq_1_SAR.c **** *
 467:Generated_Source\PSoC5/ADC_SAR_Seq_1_SAR.c **** * Return:
 468:Generated_Source\PSoC5/ADC_SAR_Seq_1_SAR.c **** *  (uint8)  0 =>  The ADC is still calculating the last result.
 469:Generated_Source\PSoC5/ADC_SAR_Seq_1_SAR.c **** *           1 =>  The last conversion is complete.
 470:Generated_Source\PSoC5/ADC_SAR_Seq_1_SAR.c **** *
 471:Generated_Source\PSoC5/ADC_SAR_Seq_1_SAR.c **** * Side Effects:
 472:Generated_Source\PSoC5/ADC_SAR_Seq_1_SAR.c **** *  This function reads the end of conversion status, which is cleared on read.
 473:Generated_Source\PSoC5/ADC_SAR_Seq_1_SAR.c **** *
 474:Generated_Source\PSoC5/ADC_SAR_Seq_1_SAR.c **** *******************************************************************************/
 475:Generated_Source\PSoC5/ADC_SAR_Seq_1_SAR.c **** uint8 ADC_SAR_Seq_1_SAR_IsEndConversion(uint8 retMode)
 476:Generated_Source\PSoC5/ADC_SAR_Seq_1_SAR.c **** {
 477:Generated_Source\PSoC5/ADC_SAR_Seq_1_SAR.c ****     uint8 status;
 478:Generated_Source\PSoC5/ADC_SAR_Seq_1_SAR.c **** 
 479:Generated_Source\PSoC5/ADC_SAR_Seq_1_SAR.c ****     do
 480:Generated_Source\PSoC5/ADC_SAR_Seq_1_SAR.c ****     {
 481:Generated_Source\PSoC5/ADC_SAR_Seq_1_SAR.c ****         status = ADC_SAR_Seq_1_SAR_SAR_CSR1_REG & ADC_SAR_Seq_1_SAR_SAR_EOF_1;
 482:Generated_Source\PSoC5/ADC_SAR_Seq_1_SAR.c ****     } while ((status != ADC_SAR_Seq_1_SAR_SAR_EOF_1) && (retMode == ADC_SAR_Seq_1_SAR_WAIT_FOR_RESU
 483:Generated_Source\PSoC5/ADC_SAR_Seq_1_SAR.c ****     /* If convertion complete, wait until EOF bit released */
 484:Generated_Source\PSoC5/ADC_SAR_Seq_1_SAR.c ****     if(status == ADC_SAR_Seq_1_SAR_SAR_EOF_1)
 485:Generated_Source\PSoC5/ADC_SAR_Seq_1_SAR.c ****     {
 486:Generated_Source\PSoC5/ADC_SAR_Seq_1_SAR.c ****         /* wait one ADC clock to let the EOC status bit release */
 487:Generated_Source\PSoC5/ADC_SAR_Seq_1_SAR.c ****         CyDelayUs(1u);
ARM GAS  C:\Users\schmi\AppData\Local\Temp\ccz9gB8K.s 			page 10


 488:Generated_Source\PSoC5/ADC_SAR_Seq_1_SAR.c ****         /* Do the unconditional read operation of the CSR1 register to make sure the EOC bit has be
 489:Generated_Source\PSoC5/ADC_SAR_Seq_1_SAR.c ****         CY_GET_REG8(ADC_SAR_Seq_1_SAR_SAR_CSR1_PTR);
 490:Generated_Source\PSoC5/ADC_SAR_Seq_1_SAR.c ****     }
 491:Generated_Source\PSoC5/ADC_SAR_Seq_1_SAR.c **** 
 492:Generated_Source\PSoC5/ADC_SAR_Seq_1_SAR.c ****     return(status);
 493:Generated_Source\PSoC5/ADC_SAR_Seq_1_SAR.c **** }
 494:Generated_Source\PSoC5/ADC_SAR_Seq_1_SAR.c **** 
 495:Generated_Source\PSoC5/ADC_SAR_Seq_1_SAR.c **** 
 496:Generated_Source\PSoC5/ADC_SAR_Seq_1_SAR.c **** /*******************************************************************************
 497:Generated_Source\PSoC5/ADC_SAR_Seq_1_SAR.c **** * Function Name: ADC_SAR_Seq_1_SAR_GetResult8
 498:Generated_Source\PSoC5/ADC_SAR_Seq_1_SAR.c **** ********************************************************************************
 499:Generated_Source\PSoC5/ADC_SAR_Seq_1_SAR.c **** *
 500:Generated_Source\PSoC5/ADC_SAR_Seq_1_SAR.c **** * Summary:
 501:Generated_Source\PSoC5/ADC_SAR_Seq_1_SAR.c **** *  Returns the result of an 8-bit conversion. If the resolution is set greater
 502:Generated_Source\PSoC5/ADC_SAR_Seq_1_SAR.c **** *  than 8 bits, the function returns the LSB of the result.
 503:Generated_Source\PSoC5/ADC_SAR_Seq_1_SAR.c **** *  ADC_SAR_Seq_1_SAR_IsEndConversion() should be called to verify that the data
 504:Generated_Source\PSoC5/ADC_SAR_Seq_1_SAR.c **** *   sample is ready.
 505:Generated_Source\PSoC5/ADC_SAR_Seq_1_SAR.c **** *
 506:Generated_Source\PSoC5/ADC_SAR_Seq_1_SAR.c **** * Parameters:
 507:Generated_Source\PSoC5/ADC_SAR_Seq_1_SAR.c **** *  None.
 508:Generated_Source\PSoC5/ADC_SAR_Seq_1_SAR.c **** *
 509:Generated_Source\PSoC5/ADC_SAR_Seq_1_SAR.c **** * Return:
 510:Generated_Source\PSoC5/ADC_SAR_Seq_1_SAR.c **** *  The LSB of the last ADC conversion.
 511:Generated_Source\PSoC5/ADC_SAR_Seq_1_SAR.c **** *
 512:Generated_Source\PSoC5/ADC_SAR_Seq_1_SAR.c **** * Global Variables:
 513:Generated_Source\PSoC5/ADC_SAR_Seq_1_SAR.c **** *  ADC_SAR_Seq_1_SAR_shift - used to convert the ADC counts to the 2s
 514:Generated_Source\PSoC5/ADC_SAR_Seq_1_SAR.c **** *  compliment form.
 515:Generated_Source\PSoC5/ADC_SAR_Seq_1_SAR.c **** *
 516:Generated_Source\PSoC5/ADC_SAR_Seq_1_SAR.c **** * Side Effects:
 517:Generated_Source\PSoC5/ADC_SAR_Seq_1_SAR.c **** *  Converts the ADC counts to the 2s complement form.
 518:Generated_Source\PSoC5/ADC_SAR_Seq_1_SAR.c **** *
 519:Generated_Source\PSoC5/ADC_SAR_Seq_1_SAR.c **** *******************************************************************************/
 520:Generated_Source\PSoC5/ADC_SAR_Seq_1_SAR.c **** int8 ADC_SAR_Seq_1_SAR_GetResult8( void )
 521:Generated_Source\PSoC5/ADC_SAR_Seq_1_SAR.c **** {
 522:Generated_Source\PSoC5/ADC_SAR_Seq_1_SAR.c ****     return( (int8)ADC_SAR_Seq_1_SAR_SAR_WRK0_REG - (int8)ADC_SAR_Seq_1_SAR_shift);
 523:Generated_Source\PSoC5/ADC_SAR_Seq_1_SAR.c **** }
 524:Generated_Source\PSoC5/ADC_SAR_Seq_1_SAR.c **** 
 525:Generated_Source\PSoC5/ADC_SAR_Seq_1_SAR.c **** 
 526:Generated_Source\PSoC5/ADC_SAR_Seq_1_SAR.c **** /*******************************************************************************
 527:Generated_Source\PSoC5/ADC_SAR_Seq_1_SAR.c **** * Function Name: ADC_SAR_Seq_1_SAR_GetResult16
 528:Generated_Source\PSoC5/ADC_SAR_Seq_1_SAR.c **** ********************************************************************************
 529:Generated_Source\PSoC5/ADC_SAR_Seq_1_SAR.c **** *
 530:Generated_Source\PSoC5/ADC_SAR_Seq_1_SAR.c **** * Summary:
 531:Generated_Source\PSoC5/ADC_SAR_Seq_1_SAR.c **** *  Returns a 16-bit result for a conversion with a result that has a resolution
 532:Generated_Source\PSoC5/ADC_SAR_Seq_1_SAR.c **** *  of 8 to 12 bits.
 533:Generated_Source\PSoC5/ADC_SAR_Seq_1_SAR.c **** *  ADC_SAR_Seq_1_SAR_IsEndConversion() should be called to verify that the data
 534:Generated_Source\PSoC5/ADC_SAR_Seq_1_SAR.c **** *   sample is ready
 535:Generated_Source\PSoC5/ADC_SAR_Seq_1_SAR.c **** *
 536:Generated_Source\PSoC5/ADC_SAR_Seq_1_SAR.c **** * Parameters:
 537:Generated_Source\PSoC5/ADC_SAR_Seq_1_SAR.c **** *  None.
 538:Generated_Source\PSoC5/ADC_SAR_Seq_1_SAR.c **** *
 539:Generated_Source\PSoC5/ADC_SAR_Seq_1_SAR.c **** * Return:
 540:Generated_Source\PSoC5/ADC_SAR_Seq_1_SAR.c **** *  The 16-bit result of the last ADC conversion
 541:Generated_Source\PSoC5/ADC_SAR_Seq_1_SAR.c **** *
 542:Generated_Source\PSoC5/ADC_SAR_Seq_1_SAR.c **** * Global Variables:
 543:Generated_Source\PSoC5/ADC_SAR_Seq_1_SAR.c **** *  ADC_SAR_Seq_1_SAR_shift - used to convert the ADC counts to the 2s
 544:Generated_Source\PSoC5/ADC_SAR_Seq_1_SAR.c **** *  compliment form.
ARM GAS  C:\Users\schmi\AppData\Local\Temp\ccz9gB8K.s 			page 11


 545:Generated_Source\PSoC5/ADC_SAR_Seq_1_SAR.c **** *
 546:Generated_Source\PSoC5/ADC_SAR_Seq_1_SAR.c **** * Side Effects:
 547:Generated_Source\PSoC5/ADC_SAR_Seq_1_SAR.c **** *  Converts the ADC counts to the 2s complement form.
 548:Generated_Source\PSoC5/ADC_SAR_Seq_1_SAR.c **** *
 549:Generated_Source\PSoC5/ADC_SAR_Seq_1_SAR.c **** *******************************************************************************/
 550:Generated_Source\PSoC5/ADC_SAR_Seq_1_SAR.c **** int16 ADC_SAR_Seq_1_SAR_GetResult16( void )
 551:Generated_Source\PSoC5/ADC_SAR_Seq_1_SAR.c **** {
 552:Generated_Source\PSoC5/ADC_SAR_Seq_1_SAR.c ****     uint16 res;
 553:Generated_Source\PSoC5/ADC_SAR_Seq_1_SAR.c **** 
 554:Generated_Source\PSoC5/ADC_SAR_Seq_1_SAR.c ****     res = CY_GET_REG16(ADC_SAR_Seq_1_SAR_SAR_WRK_PTR);
 555:Generated_Source\PSoC5/ADC_SAR_Seq_1_SAR.c **** 
 556:Generated_Source\PSoC5/ADC_SAR_Seq_1_SAR.c ****     return( (int16)res - ADC_SAR_Seq_1_SAR_shift );
 557:Generated_Source\PSoC5/ADC_SAR_Seq_1_SAR.c **** }
 558:Generated_Source\PSoC5/ADC_SAR_Seq_1_SAR.c **** 
 559:Generated_Source\PSoC5/ADC_SAR_Seq_1_SAR.c **** 
 560:Generated_Source\PSoC5/ADC_SAR_Seq_1_SAR.c **** /*******************************************************************************
 561:Generated_Source\PSoC5/ADC_SAR_Seq_1_SAR.c **** * Function Name: ADC_SAR_Seq_1_SAR_SetOffset
 562:Generated_Source\PSoC5/ADC_SAR_Seq_1_SAR.c **** ********************************************************************************
 563:Generated_Source\PSoC5/ADC_SAR_Seq_1_SAR.c **** *
 564:Generated_Source\PSoC5/ADC_SAR_Seq_1_SAR.c **** * Summary:
 565:Generated_Source\PSoC5/ADC_SAR_Seq_1_SAR.c **** *  Sets the ADC offset, which is used by ADC_SAR_Seq_1_SAR_CountsTo_Volts(),
 566:Generated_Source\PSoC5/ADC_SAR_Seq_1_SAR.c **** *  ADC_SAR_Seq_1_SAR_CountsTo_mVolts(), and ADC_SAR_Seq_1_SAR_CountsTo_uVolts()
 567:Generated_Source\PSoC5/ADC_SAR_Seq_1_SAR.c **** *  to subtract the offset from the given reading before calculating the voltage
 568:Generated_Source\PSoC5/ADC_SAR_Seq_1_SAR.c **** *  conversion.
 569:Generated_Source\PSoC5/ADC_SAR_Seq_1_SAR.c **** *
 570:Generated_Source\PSoC5/ADC_SAR_Seq_1_SAR.c **** * Parameters:
 571:Generated_Source\PSoC5/ADC_SAR_Seq_1_SAR.c **** *  int16: This value is measured when the inputs are shorted or connected to
 572:Generated_Source\PSoC5/ADC_SAR_Seq_1_SAR.c ****    the same input voltage.
 573:Generated_Source\PSoC5/ADC_SAR_Seq_1_SAR.c **** *
 574:Generated_Source\PSoC5/ADC_SAR_Seq_1_SAR.c **** * Return:
 575:Generated_Source\PSoC5/ADC_SAR_Seq_1_SAR.c **** *  None.
 576:Generated_Source\PSoC5/ADC_SAR_Seq_1_SAR.c **** *
 577:Generated_Source\PSoC5/ADC_SAR_Seq_1_SAR.c **** * Global Variables:
 578:Generated_Source\PSoC5/ADC_SAR_Seq_1_SAR.c **** *  The ADC_SAR_Seq_1_SAR_offset variable modified. This variable is used for
 579:Generated_Source\PSoC5/ADC_SAR_Seq_1_SAR.c **** *  offset calibration purpose.
 580:Generated_Source\PSoC5/ADC_SAR_Seq_1_SAR.c **** *  Affects the ADC_SAR_Seq_1_SAR_CountsTo_Volts,
 581:Generated_Source\PSoC5/ADC_SAR_Seq_1_SAR.c **** *  ADC_SAR_Seq_1_SAR_CountsTo_mVolts, ADC_SAR_Seq_1_SAR_CountsTo_uVolts functions
 582:Generated_Source\PSoC5/ADC_SAR_Seq_1_SAR.c **** *  by subtracting the given offset.
 583:Generated_Source\PSoC5/ADC_SAR_Seq_1_SAR.c **** *
 584:Generated_Source\PSoC5/ADC_SAR_Seq_1_SAR.c **** *******************************************************************************/
 585:Generated_Source\PSoC5/ADC_SAR_Seq_1_SAR.c **** void ADC_SAR_Seq_1_SAR_SetOffset(int16 offset)
 586:Generated_Source\PSoC5/ADC_SAR_Seq_1_SAR.c **** {
 587:Generated_Source\PSoC5/ADC_SAR_Seq_1_SAR.c ****     ADC_SAR_Seq_1_SAR_offset = offset;
 588:Generated_Source\PSoC5/ADC_SAR_Seq_1_SAR.c **** }
 589:Generated_Source\PSoC5/ADC_SAR_Seq_1_SAR.c **** 
 590:Generated_Source\PSoC5/ADC_SAR_Seq_1_SAR.c **** 
 591:Generated_Source\PSoC5/ADC_SAR_Seq_1_SAR.c **** /*******************************************************************************
 592:Generated_Source\PSoC5/ADC_SAR_Seq_1_SAR.c **** * Function Name: ADC_SAR_Seq_1_SAR_CalcGain
 593:Generated_Source\PSoC5/ADC_SAR_Seq_1_SAR.c **** ********************************************************************************
 594:Generated_Source\PSoC5/ADC_SAR_Seq_1_SAR.c **** *
 595:Generated_Source\PSoC5/ADC_SAR_Seq_1_SAR.c **** * Summary:
 596:Generated_Source\PSoC5/ADC_SAR_Seq_1_SAR.c **** *  This function calculates the ADC gain in counts per 10 volt.
 597:Generated_Source\PSoC5/ADC_SAR_Seq_1_SAR.c **** *
 598:Generated_Source\PSoC5/ADC_SAR_Seq_1_SAR.c **** * Parameters:
 599:Generated_Source\PSoC5/ADC_SAR_Seq_1_SAR.c **** *  uint8: resolution
 600:Generated_Source\PSoC5/ADC_SAR_Seq_1_SAR.c **** *
 601:Generated_Source\PSoC5/ADC_SAR_Seq_1_SAR.c **** * Return:
ARM GAS  C:\Users\schmi\AppData\Local\Temp\ccz9gB8K.s 			page 12


 602:Generated_Source\PSoC5/ADC_SAR_Seq_1_SAR.c **** *  None.
 603:Generated_Source\PSoC5/ADC_SAR_Seq_1_SAR.c **** *
 604:Generated_Source\PSoC5/ADC_SAR_Seq_1_SAR.c **** * Global Variables:
 605:Generated_Source\PSoC5/ADC_SAR_Seq_1_SAR.c **** *  ADC_SAR_Seq_1_SAR_shift variable initialized. This variable is used to
 606:Generated_Source\PSoC5/ADC_SAR_Seq_1_SAR.c **** *  convert the ADC counts to the 2s compliment form.
 607:Generated_Source\PSoC5/ADC_SAR_Seq_1_SAR.c **** *  ADC_SAR_Seq_1_SAR_countsPer10Volt variable initialized. This variable is used
 608:Generated_Source\PSoC5/ADC_SAR_Seq_1_SAR.c **** *  for gain calibration purpose.
 609:Generated_Source\PSoC5/ADC_SAR_Seq_1_SAR.c **** *
 610:Generated_Source\PSoC5/ADC_SAR_Seq_1_SAR.c **** *******************************************************************************/
 611:Generated_Source\PSoC5/ADC_SAR_Seq_1_SAR.c **** static void ADC_SAR_Seq_1_SAR_CalcGain( uint8 resolution )
 612:Generated_Source\PSoC5/ADC_SAR_Seq_1_SAR.c **** {
  27              		.loc 1 612 0
  28              		.cfi_startproc
  29              		@ args = 0, pretend = 0, frame = 0
  30              		@ frame_needed = 0, uses_anonymous_args = 0
  31              	.LVL0:
  32 0000 08B5     		push	{r3, lr}
  33              		.cfi_def_cfa_offset 8
  34              		.cfi_offset 3, -8
  35              		.cfi_offset 14, -4
 613:Generated_Source\PSoC5/ADC_SAR_Seq_1_SAR.c ****     int32 counts;
 614:Generated_Source\PSoC5/ADC_SAR_Seq_1_SAR.c ****     #if(!((ADC_SAR_Seq_1_SAR_DEFAULT_RANGE == ADC_SAR_Seq_1_SAR__VSS_TO_VREF) || \
 615:Generated_Source\PSoC5/ADC_SAR_Seq_1_SAR.c ****          (ADC_SAR_Seq_1_SAR_DEFAULT_RANGE == ADC_SAR_Seq_1_SAR__VSSA_TO_VDDA) || \
 616:Generated_Source\PSoC5/ADC_SAR_Seq_1_SAR.c ****          (ADC_SAR_Seq_1_SAR_DEFAULT_RANGE == ADC_SAR_Seq_1_SAR__VSSA_TO_VDAC)) )
 617:Generated_Source\PSoC5/ADC_SAR_Seq_1_SAR.c ****         uint16 diff_zero;
 618:Generated_Source\PSoC5/ADC_SAR_Seq_1_SAR.c ****     #endif /* End ADC_SAR_Seq_1_SAR_DEFAULT_RANGE */
 619:Generated_Source\PSoC5/ADC_SAR_Seq_1_SAR.c **** 
 620:Generated_Source\PSoC5/ADC_SAR_Seq_1_SAR.c ****     switch (resolution)
  36              		.loc 1 620 0
  37 0002 0A28     		cmp	r0, #10
  38 0004 13D0     		beq	.L7
  39 0006 0C28     		cmp	r0, #12
  40 0008 02D0     		beq	.L4
  41 000a 0828     		cmp	r0, #8
  42 000c 09D1     		bne	.L8
  43 000e 04E0     		b	.L5
  44              	.L4:
 621:Generated_Source\PSoC5/ADC_SAR_Seq_1_SAR.c ****     {
 622:Generated_Source\PSoC5/ADC_SAR_Seq_1_SAR.c ****         case (uint8)ADC_SAR_Seq_1_SAR__BITS_12:
 623:Generated_Source\PSoC5/ADC_SAR_Seq_1_SAR.c ****             counts = (int32)ADC_SAR_Seq_1_SAR_SAR_WRK_MAX_12BIT;
 624:Generated_Source\PSoC5/ADC_SAR_Seq_1_SAR.c ****             #if(!((ADC_SAR_Seq_1_SAR_DEFAULT_RANGE == ADC_SAR_Seq_1_SAR__VSS_TO_VREF) || \
 625:Generated_Source\PSoC5/ADC_SAR_Seq_1_SAR.c ****                  (ADC_SAR_Seq_1_SAR_DEFAULT_RANGE == ADC_SAR_Seq_1_SAR__VSSA_TO_VDDA) || \
 626:Generated_Source\PSoC5/ADC_SAR_Seq_1_SAR.c ****                  (ADC_SAR_Seq_1_SAR_DEFAULT_RANGE == ADC_SAR_Seq_1_SAR__VSSA_TO_VDAC)) )
 627:Generated_Source\PSoC5/ADC_SAR_Seq_1_SAR.c ****                 diff_zero = ADC_SAR_Seq_1_SAR_SAR_DIFF_SHIFT;
  45              		.loc 1 627 0
  46 0010 4FF40062 		mov	r2, #2048
 623:Generated_Source\PSoC5/ADC_SAR_Seq_1_SAR.c ****             #if(!((ADC_SAR_Seq_1_SAR_DEFAULT_RANGE == ADC_SAR_Seq_1_SAR__VSS_TO_VREF) || \
  47              		.loc 1 623 0
  48 0014 4FF48051 		mov	r1, #4096
  49 0018 0DE0     		b	.L3
  50              	.L5:
  51              	.LVL1:
 628:Generated_Source\PSoC5/ADC_SAR_Seq_1_SAR.c ****             #endif /* End ADC_SAR_Seq_1_SAR_DEFAULT_RANGE */
 629:Generated_Source\PSoC5/ADC_SAR_Seq_1_SAR.c ****             break;
 630:Generated_Source\PSoC5/ADC_SAR_Seq_1_SAR.c ****         case (uint8)ADC_SAR_Seq_1_SAR__BITS_10:
 631:Generated_Source\PSoC5/ADC_SAR_Seq_1_SAR.c ****             counts = (int32)ADC_SAR_Seq_1_SAR_SAR_WRK_MAX_10BIT;
 632:Generated_Source\PSoC5/ADC_SAR_Seq_1_SAR.c ****             #if(!((ADC_SAR_Seq_1_SAR_DEFAULT_RANGE == ADC_SAR_Seq_1_SAR__VSS_TO_VREF) || \
ARM GAS  C:\Users\schmi\AppData\Local\Temp\ccz9gB8K.s 			page 13


 633:Generated_Source\PSoC5/ADC_SAR_Seq_1_SAR.c ****                  (ADC_SAR_Seq_1_SAR_DEFAULT_RANGE == ADC_SAR_Seq_1_SAR__VSSA_TO_VDDA) || \
 634:Generated_Source\PSoC5/ADC_SAR_Seq_1_SAR.c ****                  (ADC_SAR_Seq_1_SAR_DEFAULT_RANGE == ADC_SAR_Seq_1_SAR__VSSA_TO_VDAC)) )
 635:Generated_Source\PSoC5/ADC_SAR_Seq_1_SAR.c ****                 diff_zero = ADC_SAR_Seq_1_SAR_SAR_DIFF_SHIFT >> 2u;
 636:Generated_Source\PSoC5/ADC_SAR_Seq_1_SAR.c ****             #endif /* End ADC_SAR_Seq_1_SAR_DEFAULT_RANGE */
 637:Generated_Source\PSoC5/ADC_SAR_Seq_1_SAR.c ****             break;
 638:Generated_Source\PSoC5/ADC_SAR_Seq_1_SAR.c ****         case (uint8)ADC_SAR_Seq_1_SAR__BITS_8:
 639:Generated_Source\PSoC5/ADC_SAR_Seq_1_SAR.c ****             counts = (int32)ADC_SAR_Seq_1_SAR_SAR_WRK_MAX_8BIT;
 640:Generated_Source\PSoC5/ADC_SAR_Seq_1_SAR.c ****             #if(!((ADC_SAR_Seq_1_SAR_DEFAULT_RANGE == ADC_SAR_Seq_1_SAR__VSS_TO_VREF) || \
 641:Generated_Source\PSoC5/ADC_SAR_Seq_1_SAR.c ****                  (ADC_SAR_Seq_1_SAR_DEFAULT_RANGE == ADC_SAR_Seq_1_SAR__VSSA_TO_VDDA) || \
 642:Generated_Source\PSoC5/ADC_SAR_Seq_1_SAR.c ****                  (ADC_SAR_Seq_1_SAR_DEFAULT_RANGE == ADC_SAR_Seq_1_SAR__VSSA_TO_VDAC)) )
 643:Generated_Source\PSoC5/ADC_SAR_Seq_1_SAR.c ****                 diff_zero = ADC_SAR_Seq_1_SAR_SAR_DIFF_SHIFT >> 4u;
  52              		.loc 1 643 0
  53 001a 8022     		movs	r2, #128
 639:Generated_Source\PSoC5/ADC_SAR_Seq_1_SAR.c ****             #if(!((ADC_SAR_Seq_1_SAR_DEFAULT_RANGE == ADC_SAR_Seq_1_SAR__VSS_TO_VREF) || \
  54              		.loc 1 639 0
  55 001c 4FF48071 		mov	r1, #256
 644:Generated_Source\PSoC5/ADC_SAR_Seq_1_SAR.c ****             #endif /* End ADC_SAR_Seq_1_SAR_DEFAULT_RANGE */
 645:Generated_Source\PSoC5/ADC_SAR_Seq_1_SAR.c ****             break;
  56              		.loc 1 645 0
  57 0020 09E0     		b	.L3
  58              	.LVL2:
  59              	.L8:
 646:Generated_Source\PSoC5/ADC_SAR_Seq_1_SAR.c ****         default: /* Halt CPU in debug mode if resolution is out of valid range */
 647:Generated_Source\PSoC5/ADC_SAR_Seq_1_SAR.c ****             counts = 0;
 648:Generated_Source\PSoC5/ADC_SAR_Seq_1_SAR.c ****             #if(!((ADC_SAR_Seq_1_SAR_DEFAULT_RANGE == ADC_SAR_Seq_1_SAR__VSS_TO_VREF) || \
 649:Generated_Source\PSoC5/ADC_SAR_Seq_1_SAR.c ****                  (ADC_SAR_Seq_1_SAR_DEFAULT_RANGE == ADC_SAR_Seq_1_SAR__VSSA_TO_VDDA) || \
 650:Generated_Source\PSoC5/ADC_SAR_Seq_1_SAR.c ****                  (ADC_SAR_Seq_1_SAR_DEFAULT_RANGE == ADC_SAR_Seq_1_SAR__VSSA_TO_VDAC)) )
 651:Generated_Source\PSoC5/ADC_SAR_Seq_1_SAR.c ****                 diff_zero = 0u;
 652:Generated_Source\PSoC5/ADC_SAR_Seq_1_SAR.c ****             #endif /* End ADC_SAR_Seq_1_SAR_DEFAULT_RANGE */
 653:Generated_Source\PSoC5/ADC_SAR_Seq_1_SAR.c ****             CYASSERT(0u != 0u);
  60              		.loc 1 653 0
  61 0022 0020     		movs	r0, #0
  62              	.LVL3:
  63 0024 FFF7FEFF 		bl	CyHalt
  64              	.LVL4:
 651:Generated_Source\PSoC5/ADC_SAR_Seq_1_SAR.c ****             #endif /* End ADC_SAR_Seq_1_SAR_DEFAULT_RANGE */
  65              		.loc 1 651 0
  66 0028 0022     		movs	r2, #0
 647:Generated_Source\PSoC5/ADC_SAR_Seq_1_SAR.c ****             #if(!((ADC_SAR_Seq_1_SAR_DEFAULT_RANGE == ADC_SAR_Seq_1_SAR__VSS_TO_VREF) || \
  67              		.loc 1 647 0
  68 002a 1146     		mov	r1, r2
  69 002c 03E0     		b	.L3
  70              	.LVL5:
  71              	.L7:
 635:Generated_Source\PSoC5/ADC_SAR_Seq_1_SAR.c ****             #endif /* End ADC_SAR_Seq_1_SAR_DEFAULT_RANGE */
  72              		.loc 1 635 0
  73 002e 4FF40072 		mov	r2, #512
 631:Generated_Source\PSoC5/ADC_SAR_Seq_1_SAR.c ****             #if(!((ADC_SAR_Seq_1_SAR_DEFAULT_RANGE == ADC_SAR_Seq_1_SAR__VSS_TO_VREF) || \
  74              		.loc 1 631 0
  75 0032 4FF48061 		mov	r1, #1024
  76              	.LVL6:
  77              	.L3:
 654:Generated_Source\PSoC5/ADC_SAR_Seq_1_SAR.c ****             break;
 655:Generated_Source\PSoC5/ADC_SAR_Seq_1_SAR.c ****     }
 656:Generated_Source\PSoC5/ADC_SAR_Seq_1_SAR.c ****     ADC_SAR_Seq_1_SAR_countsPerVolt = 0; /* Clear obsolete variable */
  78              		.loc 1 656 0
  79 0036 0020     		movs	r0, #0
ARM GAS  C:\Users\schmi\AppData\Local\Temp\ccz9gB8K.s 			page 14


  80 0038 084B     		ldr	r3, .L10
  81 003a 1880     		strh	r0, [r3]	@ movhi
 657:Generated_Source\PSoC5/ADC_SAR_Seq_1_SAR.c ****     /* Calculate gain in counts per 10 volts with rounding */
 658:Generated_Source\PSoC5/ADC_SAR_Seq_1_SAR.c ****     ADC_SAR_Seq_1_SAR_countsPer10Volt = (((counts * ADC_SAR_Seq_1_SAR_10MV_COUNTS) +
  82              		.loc 1 658 0
  83 003c 42F21073 		movw	r3, #10000
  84 0040 03FB01F3 		mul	r3, r3, r1
 659:Generated_Source\PSoC5/ADC_SAR_Seq_1_SAR.c ****                         ADC_SAR_Seq_1_SAR_DEFAULT_REF_VOLTAGE_MV) / (ADC_SAR_Seq_1_SAR_DEFAULT_REF_
  85              		.loc 1 659 0
  86 0044 13F58063 		adds	r3, r3, #1024
  87 0048 01D5     		bpl	.L6
  88 004a 03F2FF73 		addw	r3, r3, #2047
  89              	.L6:
  90 004e DB12     		asrs	r3, r3, #11
 658:Generated_Source\PSoC5/ADC_SAR_Seq_1_SAR.c ****                         ADC_SAR_Seq_1_SAR_DEFAULT_REF_VOLTAGE_MV) / (ADC_SAR_Seq_1_SAR_DEFAULT_REF_
  91              		.loc 1 658 0
  92 0050 0349     		ldr	r1, .L10+4
  93              	.LVL7:
  94 0052 0B60     		str	r3, [r1]
 660:Generated_Source\PSoC5/ADC_SAR_Seq_1_SAR.c **** 
 661:Generated_Source\PSoC5/ADC_SAR_Seq_1_SAR.c ****     #if( (ADC_SAR_Seq_1_SAR_DEFAULT_RANGE == ADC_SAR_Seq_1_SAR__VSS_TO_VREF) || \
 662:Generated_Source\PSoC5/ADC_SAR_Seq_1_SAR.c ****          (ADC_SAR_Seq_1_SAR_DEFAULT_RANGE == ADC_SAR_Seq_1_SAR__VSSA_TO_VDDA) || \
 663:Generated_Source\PSoC5/ADC_SAR_Seq_1_SAR.c ****          (ADC_SAR_Seq_1_SAR_DEFAULT_RANGE == ADC_SAR_Seq_1_SAR__VSSA_TO_VDAC) )
 664:Generated_Source\PSoC5/ADC_SAR_Seq_1_SAR.c ****         ADC_SAR_Seq_1_SAR_shift = 0;
 665:Generated_Source\PSoC5/ADC_SAR_Seq_1_SAR.c ****     #else
 666:Generated_Source\PSoC5/ADC_SAR_Seq_1_SAR.c ****         ADC_SAR_Seq_1_SAR_shift = diff_zero;
  95              		.loc 1 666 0
  96 0054 12B2     		sxth	r2, r2
  97 0056 034B     		ldr	r3, .L10+8
  98 0058 1A80     		strh	r2, [r3]	@ movhi
  99 005a 08BD     		pop	{r3, pc}
 100              	.L11:
 101              		.align	2
 102              	.L10:
 103 005c 00000000 		.word	ADC_SAR_Seq_1_SAR_countsPerVolt
 104 0060 00000000 		.word	ADC_SAR_Seq_1_SAR_countsPer10Volt
 105 0064 00000000 		.word	ADC_SAR_Seq_1_SAR_shift
 106              		.cfi_endproc
 107              	.LFE12:
 108              		.size	ADC_SAR_Seq_1_SAR_CalcGain, .-ADC_SAR_Seq_1_SAR_CalcGain
 109              		.section	.text.ADC_SAR_Seq_1_SAR_Enable,"ax",%progbits
 110              		.align	2
 111              		.global	ADC_SAR_Seq_1_SAR_Enable
 112              		.thumb
 113              		.thumb_func
 114              		.type	ADC_SAR_Seq_1_SAR_Enable, %function
 115              	ADC_SAR_Seq_1_SAR_Enable:
 116              	.LFB2:
 144:Generated_Source\PSoC5/ADC_SAR_Seq_1_SAR.c ****     uint8 tmpReg;
 117              		.loc 1 144 0
 118              		.cfi_startproc
 119              		@ args = 0, pretend = 0, frame = 0
 120              		@ frame_needed = 0, uses_anonymous_args = 0
 121 0000 10B5     		push	{r4, lr}
 122              		.cfi_def_cfa_offset 8
 123              		.cfi_offset 4, -8
 124              		.cfi_offset 14, -4
ARM GAS  C:\Users\schmi\AppData\Local\Temp\ccz9gB8K.s 			page 15


 147:Generated_Source\PSoC5/ADC_SAR_Seq_1_SAR.c **** 
 125              		.loc 1 147 0
 126 0002 FFF7FEFF 		bl	CyEnterCriticalSection
 127              	.LVL8:
 128 0006 0446     		mov	r4, r0
 129              	.LVL9:
 150:Generated_Source\PSoC5/ADC_SAR_Seq_1_SAR.c **** 
 130              		.loc 1 150 0
 131 0008 184A     		ldr	r2, .L14
 132 000a 1378     		ldrb	r3, [r2]	@ zero_extendqisi2
 133 000c 43F00103 		orr	r3, r3, #1
 134 0010 1370     		strb	r3, [r2]
 153:Generated_Source\PSoC5/ADC_SAR_Seq_1_SAR.c **** 
 135              		.loc 1 153 0
 136 0012 1032     		adds	r2, r2, #16
 137 0014 1378     		ldrb	r3, [r2]	@ zero_extendqisi2
 138 0016 43F00103 		orr	r3, r3, #1
 139 001a 1370     		strb	r3, [r2]
 162:Generated_Source\PSoC5/ADC_SAR_Seq_1_SAR.c ****     tmpReg |= ADC_SAR_Seq_1_SAR_SAR_EN_BUF_VCM_EN;
 140              		.loc 1 162 0
 141 001c 02F5AA52 		add	r2, r2, #5440
 142 0020 0832     		adds	r2, r2, #8
 143 0022 1378     		ldrb	r3, [r2]	@ zero_extendqisi2
 144              	.LVL10:
 169:Generated_Source\PSoC5/ADC_SAR_Seq_1_SAR.c ****     #endif /* ADC_SAR_Seq_1_SAR_DEFAULT_REFERENCE == ADC_SAR_Seq_1_SAR__EXT_REF */
 145              		.loc 1 169 0
 146 0024 43F00303 		orr	r3, r3, #3
 147              	.LVL11:
 171:Generated_Source\PSoC5/ADC_SAR_Seq_1_SAR.c **** 
 148              		.loc 1 171 0
 149 0028 1370     		strb	r3, [r2]
 182:Generated_Source\PSoC5/ADC_SAR_Seq_1_SAR.c ****         #else /* INTREF Bypassed of External */
 150              		.loc 1 182 0
 151 002a 1822     		movs	r2, #24
 152 002c 104B     		ldr	r3, .L14+4
 153              	.LVL12:
 154 002e 1A70     		strb	r2, [r3]
 155              	.LVL13:
 192:Generated_Source\PSoC5/ADC_SAR_Seq_1_SAR.c ****     #endif /* ADC_SAR_Seq_1_SAR_HIGH_POWER_PULSE == 0u */
 156              		.loc 1 192 0
 157 0030 013B     		subs	r3, r3, #1
 158 0032 1A78     		ldrb	r2, [r3]	@ zero_extendqisi2
 159 0034 42F04002 		orr	r2, r2, #64
 160 0038 1A70     		strb	r2, [r3]
 202:Generated_Source\PSoC5/ADC_SAR_Seq_1_SAR.c ****     #endif /* ADC_SAR_Seq_1_SAR_HIGH_POWER_PULSE == 0u */
 161              		.loc 1 202 0
 162 003a 1A78     		ldrb	r2, [r3]	@ zero_extendqisi2
 163 003c 02F0FC02 		and	r2, r2, #252
 164 0040 1A70     		strb	r2, [r3]
 206:Generated_Source\PSoC5/ADC_SAR_Seq_1_SAR.c ****     /* SAR_HIZ_CLEAR:   Should not be used for LP */
 165              		.loc 1 206 0
 166 0042 C822     		movs	r2, #200
 167 0044 053B     		subs	r3, r3, #5
 168 0046 1A70     		strb	r2, [r3]
 218:Generated_Source\PSoC5/ADC_SAR_Seq_1_SAR.c **** 
 169              		.loc 1 218 0
 170 0048 0222     		movs	r2, #2
ARM GAS  C:\Users\schmi\AppData\Local\Temp\ccz9gB8K.s 			page 16


 171 004a A3F59753 		sub	r3, r3, #4832
 172 004e 0C3B     		subs	r3, r3, #12
 173 0050 1A70     		strb	r2, [r3]
 221:Generated_Source\PSoC5/ADC_SAR_Seq_1_SAR.c **** 
 174              		.loc 1 221 0
 175 0052 084A     		ldr	r2, .L14+8
 176 0054 1378     		ldrb	r3, [r2]	@ zero_extendqisi2
 177 0056 43F00803 		orr	r3, r3, #8
 178 005a 1370     		strb	r3, [r2]
 223:Generated_Source\PSoC5/ADC_SAR_Seq_1_SAR.c **** 
 179              		.loc 1 223 0
 180 005c 0A20     		movs	r0, #10
 181 005e FFF7FEFF 		bl	CyDelayUs
 182              	.LVL14:
 230:Generated_Source\PSoC5/ADC_SAR_Seq_1_SAR.c **** }
 183              		.loc 1 230 0
 184 0062 2046     		mov	r0, r4
 185 0064 FFF7FEFF 		bl	CyExitCriticalSection
 186              	.LVL15:
 187 0068 10BD     		pop	{r4, pc}
 188              	.LVL16:
 189              	.L15:
 190 006a 00BF     		.align	2
 191              	.L14:
 192 006c AB430040 		.word	1073759147
 193 0070 06590040 		.word	1073764614
 194 0074 275B0040 		.word	1073765159
 195              		.cfi_endproc
 196              	.LFE2:
 197              		.size	ADC_SAR_Seq_1_SAR_Enable, .-ADC_SAR_Seq_1_SAR_Enable
 198              		.section	.text.ADC_SAR_Seq_1_SAR_Stop,"ax",%progbits
 199              		.align	2
 200              		.global	ADC_SAR_Seq_1_SAR_Stop
 201              		.thumb
 202              		.thumb_func
 203              		.type	ADC_SAR_Seq_1_SAR_Stop, %function
 204              	ADC_SAR_Seq_1_SAR_Stop:
 205              	.LFB3:
 249:Generated_Source\PSoC5/ADC_SAR_Seq_1_SAR.c ****     uint8 enableInterrupts;
 206              		.loc 1 249 0
 207              		.cfi_startproc
 208              		@ args = 0, pretend = 0, frame = 0
 209              		@ frame_needed = 0, uses_anonymous_args = 0
 210 0000 08B5     		push	{r3, lr}
 211              		.cfi_def_cfa_offset 8
 212              		.cfi_offset 3, -8
 213              		.cfi_offset 14, -4
 251:Generated_Source\PSoC5/ADC_SAR_Seq_1_SAR.c **** 
 214              		.loc 1 251 0
 215 0002 FFF7FEFF 		bl	CyEnterCriticalSection
 216              	.LVL17:
 254:Generated_Source\PSoC5/ADC_SAR_Seq_1_SAR.c ****     /* Disable the SAR ADC block in Active Power Mode */
 217              		.loc 1 254 0
 218 0006 0A4A     		ldr	r2, .L18
 219 0008 1378     		ldrb	r3, [r2]	@ zero_extendqisi2
 220 000a 03F0FE03 		and	r3, r3, #254
 221 000e 1370     		strb	r3, [r2]
ARM GAS  C:\Users\schmi\AppData\Local\Temp\ccz9gB8K.s 			page 17


 256:Generated_Source\PSoC5/ADC_SAR_Seq_1_SAR.c ****     /* Disable the SAR ADC in Standby Power Mode */
 222              		.loc 1 256 0
 223 0010 A2F5AA52 		sub	r2, r2, #5440
 224 0014 153A     		subs	r2, r2, #21
 225 0016 1378     		ldrb	r3, [r2]	@ zero_extendqisi2
 226 0018 03F0FE03 		and	r3, r3, #254
 227 001c 1370     		strb	r3, [r2]
 258:Generated_Source\PSoC5/ADC_SAR_Seq_1_SAR.c **** 
 228              		.loc 1 258 0
 229 001e 1032     		adds	r2, r2, #16
 230 0020 1378     		ldrb	r3, [r2]	@ zero_extendqisi2
 231 0022 03F0FE03 		and	r3, r3, #254
 232 0026 1370     		strb	r3, [r2]
 266:Generated_Source\PSoC5/ADC_SAR_Seq_1_SAR.c **** 
 233              		.loc 1 266 0
 234 0028 FFF7FEFF 		bl	CyExitCriticalSection
 235              	.LVL18:
 236 002c 08BD     		pop	{r3, pc}
 237              	.L19:
 238 002e 00BF     		.align	2
 239              	.L18:
 240 0030 00590040 		.word	1073764608
 241              		.cfi_endproc
 242              	.LFE3:
 243              		.size	ADC_SAR_Seq_1_SAR_Stop, .-ADC_SAR_Seq_1_SAR_Stop
 244              		.section	.text.ADC_SAR_Seq_1_SAR_SetPower,"ax",%progbits
 245              		.align	2
 246              		.global	ADC_SAR_Seq_1_SAR_SetPower
 247              		.thumb
 248              		.thumb_func
 249              		.type	ADC_SAR_Seq_1_SAR_SetPower, %function
 250              	ADC_SAR_Seq_1_SAR_SetPower:
 251              	.LFB4:
 291:Generated_Source\PSoC5/ADC_SAR_Seq_1_SAR.c ****     uint8 tmpReg;
 252              		.loc 1 291 0
 253              		.cfi_startproc
 254              		@ args = 0, pretend = 0, frame = 0
 255              		@ frame_needed = 0, uses_anonymous_args = 0
 256              		@ link register save eliminated.
 257              	.LVL19:
 298:Generated_Source\PSoC5/ADC_SAR_Seq_1_SAR.c ****     tmpReg |= (uint8)(power << ADC_SAR_Seq_1_SAR_SAR_POWER_SHIFT);
 258              		.loc 1 298 0
 259 0000 044A     		ldr	r2, .L21
 260 0002 1378     		ldrb	r3, [r2]	@ zero_extendqisi2
 261 0004 03F03F03 		and	r3, r3, #63
 262              	.LVL20:
 299:Generated_Source\PSoC5/ADC_SAR_Seq_1_SAR.c ****     ADC_SAR_Seq_1_SAR_SAR_CSR0_REG = tmpReg;
 263              		.loc 1 299 0
 264 0008 43EA8010 		orr	r0, r3, r0, lsl #6
 265              	.LVL21:
 266 000c C0B2     		uxtb	r0, r0
 267              	.LVL22:
 300:Generated_Source\PSoC5/ADC_SAR_Seq_1_SAR.c **** }
 268              		.loc 1 300 0
 269 000e 1070     		strb	r0, [r2]
 270 0010 7047     		bx	lr
 271              	.L22:
ARM GAS  C:\Users\schmi\AppData\Local\Temp\ccz9gB8K.s 			page 18


 272 0012 00BF     		.align	2
 273              	.L21:
 274 0014 00590040 		.word	1073764608
 275              		.cfi_endproc
 276              	.LFE4:
 277              		.size	ADC_SAR_Seq_1_SAR_SetPower, .-ADC_SAR_Seq_1_SAR_SetPower
 278              		.section	.text.ADC_SAR_Seq_1_SAR_SetResolution,"ax",%progbits
 279              		.align	2
 280              		.global	ADC_SAR_Seq_1_SAR_SetResolution
 281              		.thumb
 282              		.thumb_func
 283              		.type	ADC_SAR_Seq_1_SAR_SetResolution, %function
 284              	ADC_SAR_Seq_1_SAR_SetResolution:
 285              	.LFB5:
 341:Generated_Source\PSoC5/ADC_SAR_Seq_1_SAR.c ****     uint8 tmpReg;
 286              		.loc 1 341 0
 287              		.cfi_startproc
 288              		@ args = 0, pretend = 0, frame = 0
 289              		@ frame_needed = 0, uses_anonymous_args = 0
 290              	.LVL23:
 291 0000 10B5     		push	{r4, lr}
 292              		.cfi_def_cfa_offset 8
 293              		.cfi_offset 4, -8
 294              		.cfi_offset 14, -4
 295 0002 0446     		mov	r4, r0
 345:Generated_Source\PSoC5/ADC_SAR_Seq_1_SAR.c ****     {
 296              		.loc 1 345 0
 297 0004 0A28     		cmp	r0, #10
 298 0006 0DD0     		beq	.L28
 299 0008 0C28     		cmp	r0, #12
 300 000a 02D0     		beq	.L26
 301 000c 0828     		cmp	r0, #8
 302 000e 04D1     		bne	.L29
 303 0010 01E0     		b	.L27
 304              	.L26:
 348:Generated_Source\PSoC5/ADC_SAR_Seq_1_SAR.c ****             break;
 305              		.loc 1 348 0
 306 0012 C222     		movs	r2, #194
 307 0014 07E0     		b	.L25
 308              	.L27:
 309              	.LVL24:
 354:Generated_Source\PSoC5/ADC_SAR_Seq_1_SAR.c ****             break;
 310              		.loc 1 354 0
 311 0016 4222     		movs	r2, #66
 355:Generated_Source\PSoC5/ADC_SAR_Seq_1_SAR.c ****         default:
 312              		.loc 1 355 0
 313 0018 05E0     		b	.L25
 314              	.LVL25:
 315              	.L29:
 359:Generated_Source\PSoC5/ADC_SAR_Seq_1_SAR.c ****             break;
 316              		.loc 1 359 0
 317 001a 0020     		movs	r0, #0
 318              	.LVL26:
 319 001c FFF7FEFF 		bl	CyHalt
 320              	.LVL27:
 357:Generated_Source\PSoC5/ADC_SAR_Seq_1_SAR.c ****             /* Halt CPU in debug mode if resolution is out of valid range */
 321              		.loc 1 357 0
ARM GAS  C:\Users\schmi\AppData\Local\Temp\ccz9gB8K.s 			page 19


 322 0020 C222     		movs	r2, #194
 323 0022 00E0     		b	.L25
 324              	.LVL28:
 325              	.L28:
 351:Generated_Source\PSoC5/ADC_SAR_Seq_1_SAR.c ****             break;
 326              		.loc 1 351 0
 327 0024 8222     		movs	r2, #130
 328              	.LVL29:
 329              	.L25:
 362:Generated_Source\PSoC5/ADC_SAR_Seq_1_SAR.c **** 
 330              		.loc 1 362 0
 331 0026 034B     		ldr	r3, .L31
 332 0028 1A70     		strb	r2, [r3]
 365:Generated_Source\PSoC5/ADC_SAR_Seq_1_SAR.c **** }
 333              		.loc 1 365 0
 334 002a 2046     		mov	r0, r4
 335 002c FFF7FEFF 		bl	ADC_SAR_Seq_1_SAR_CalcGain
 336              	.LVL30:
 337 0030 10BD     		pop	{r4, pc}
 338              	.L32:
 339 0032 00BF     		.align	2
 340              	.L31:
 341 0034 02590040 		.word	1073764610
 342              		.cfi_endproc
 343              	.LFE5:
 344              		.size	ADC_SAR_Seq_1_SAR_SetResolution, .-ADC_SAR_Seq_1_SAR_SetResolution
 345              		.section	.text.ADC_SAR_Seq_1_SAR_Init,"ax",%progbits
 346              		.align	2
 347              		.global	ADC_SAR_Seq_1_SAR_Init
 348              		.thumb
 349              		.thumb_func
 350              		.type	ADC_SAR_Seq_1_SAR_Init, %function
 351              	ADC_SAR_Seq_1_SAR_Init:
 352              	.LFB1:
 107:Generated_Source\PSoC5/ADC_SAR_Seq_1_SAR.c **** 
 353              		.loc 1 107 0
 354              		.cfi_startproc
 355              		@ args = 0, pretend = 0, frame = 0
 356              		@ frame_needed = 0, uses_anonymous_args = 0
 357 0000 08B5     		push	{r3, lr}
 358              		.cfi_def_cfa_offset 8
 359              		.cfi_offset 3, -8
 360              		.cfi_offset 14, -4
 121:Generated_Source\PSoC5/ADC_SAR_Seq_1_SAR.c **** 
 361              		.loc 1 121 0
 362 0002 064A     		ldr	r2, .L35
 363 0004 1378     		ldrb	r3, [r2]	@ zero_extendqisi2
 364 0006 43F00603 		orr	r3, r3, #6
 365 000a 1370     		strb	r3, [r2]
 124:Generated_Source\PSoC5/ADC_SAR_Seq_1_SAR.c ****     ADC_SAR_Seq_1_SAR_offset = 0;
 366              		.loc 1 124 0
 367 000c 0C20     		movs	r0, #12
 368 000e FFF7FEFF 		bl	ADC_SAR_Seq_1_SAR_SetResolution
 369              	.LVL31:
 125:Generated_Source\PSoC5/ADC_SAR_Seq_1_SAR.c **** }
 370              		.loc 1 125 0
 371 0012 0022     		movs	r2, #0
ARM GAS  C:\Users\schmi\AppData\Local\Temp\ccz9gB8K.s 			page 20


 372 0014 024B     		ldr	r3, .L35+4
 373 0016 1A80     		strh	r2, [r3]	@ movhi
 374 0018 08BD     		pop	{r3, pc}
 375              	.L36:
 376 001a 00BF     		.align	2
 377              	.L35:
 378 001c 01590040 		.word	1073764609
 379 0020 00000000 		.word	ADC_SAR_Seq_1_SAR_offset
 380              		.cfi_endproc
 381              	.LFE1:
 382              		.size	ADC_SAR_Seq_1_SAR_Init, .-ADC_SAR_Seq_1_SAR_Init
 383              		.section	.text.ADC_SAR_Seq_1_SAR_Start,"ax",%progbits
 384              		.align	2
 385              		.global	ADC_SAR_Seq_1_SAR_Start
 386              		.thumb
 387              		.thumb_func
 388              		.type	ADC_SAR_Seq_1_SAR_Start, %function
 389              	ADC_SAR_Seq_1_SAR_Start:
 390              	.LFB0:
  75:Generated_Source\PSoC5/ADC_SAR_Seq_1_SAR.c **** 
 391              		.loc 1 75 0
 392              		.cfi_startproc
 393              		@ args = 0, pretend = 0, frame = 0
 394              		@ frame_needed = 0, uses_anonymous_args = 0
 395 0000 08B5     		push	{r3, lr}
 396              		.cfi_def_cfa_offset 8
 397              		.cfi_offset 3, -8
 398              		.cfi_offset 14, -4
  78:Generated_Source\PSoC5/ADC_SAR_Seq_1_SAR.c ****     {
 399              		.loc 1 78 0
 400 0002 054B     		ldr	r3, .L40
 401 0004 1B78     		ldrb	r3, [r3]	@ zero_extendqisi2
 402 0006 23B9     		cbnz	r3, .L38
  80:Generated_Source\PSoC5/ADC_SAR_Seq_1_SAR.c ****         ADC_SAR_Seq_1_SAR_initVar = 1u;
 403              		.loc 1 80 0
 404 0008 FFF7FEFF 		bl	ADC_SAR_Seq_1_SAR_Init
 405              	.LVL32:
  81:Generated_Source\PSoC5/ADC_SAR_Seq_1_SAR.c ****     }
 406              		.loc 1 81 0
 407 000c 0122     		movs	r2, #1
 408 000e 024B     		ldr	r3, .L40
 409 0010 1A70     		strb	r2, [r3]
 410              	.L38:
  83:Generated_Source\PSoC5/ADC_SAR_Seq_1_SAR.c **** }
 411              		.loc 1 83 0
 412 0012 FFF7FEFF 		bl	ADC_SAR_Seq_1_SAR_Enable
 413              	.LVL33:
 414 0016 08BD     		pop	{r3, pc}
 415              	.L41:
 416              		.align	2
 417              	.L40:
 418 0018 00000000 		.word	.LANCHOR0
 419              		.cfi_endproc
 420              	.LFE0:
 421              		.size	ADC_SAR_Seq_1_SAR_Start, .-ADC_SAR_Seq_1_SAR_Start
 422              		.section	.text.ADC_SAR_Seq_1_SAR_StartConvert,"ax",%progbits
 423              		.align	2
ARM GAS  C:\Users\schmi\AppData\Local\Temp\ccz9gB8K.s 			page 21


 424              		.global	ADC_SAR_Seq_1_SAR_StartConvert
 425              		.thumb
 426              		.thumb_func
 427              		.type	ADC_SAR_Seq_1_SAR_StartConvert, %function
 428              	ADC_SAR_Seq_1_SAR_StartConvert:
 429              	.LFB6:
 402:Generated_Source\PSoC5/ADC_SAR_Seq_1_SAR.c ****         #if(ADC_SAR_Seq_1_SAR_DEFAULT_CONV_MODE != ADC_SAR_Seq_1_SAR__FREE_RUNNING)  /* If software
 430              		.loc 1 402 0
 431              		.cfi_startproc
 432              		@ args = 0, pretend = 0, frame = 0
 433              		@ frame_needed = 0, uses_anonymous_args = 0
 434              		@ link register save eliminated.
 408:Generated_Source\PSoC5/ADC_SAR_Seq_1_SAR.c ****     }
 435              		.loc 1 408 0
 436 0000 024A     		ldr	r2, .L43
 437 0002 1378     		ldrb	r3, [r2]	@ zero_extendqisi2
 438 0004 43F00103 		orr	r3, r3, #1
 439 0008 1370     		strb	r3, [r2]
 440 000a 7047     		bx	lr
 441              	.L44:
 442              		.align	2
 443              	.L43:
 444 000c 00590040 		.word	1073764608
 445              		.cfi_endproc
 446              	.LFE6:
 447              		.size	ADC_SAR_Seq_1_SAR_StartConvert, .-ADC_SAR_Seq_1_SAR_StartConvert
 448              		.section	.text.ADC_SAR_Seq_1_SAR_StopConvert,"ax",%progbits
 449              		.align	2
 450              		.global	ADC_SAR_Seq_1_SAR_StopConvert
 451              		.thumb
 452              		.thumb_func
 453              		.type	ADC_SAR_Seq_1_SAR_StopConvert, %function
 454              	ADC_SAR_Seq_1_SAR_StopConvert:
 455              	.LFB7:
 436:Generated_Source\PSoC5/ADC_SAR_Seq_1_SAR.c ****         /* Stop all conversions */
 456              		.loc 1 436 0
 457              		.cfi_startproc
 458              		@ args = 0, pretend = 0, frame = 0
 459              		@ frame_needed = 0, uses_anonymous_args = 0
 460              		@ link register save eliminated.
 438:Generated_Source\PSoC5/ADC_SAR_Seq_1_SAR.c **** 
 461              		.loc 1 438 0
 462 0000 024A     		ldr	r2, .L46
 463 0002 1378     		ldrb	r3, [r2]	@ zero_extendqisi2
 464 0004 03F0FE03 		and	r3, r3, #254
 465 0008 1370     		strb	r3, [r2]
 466 000a 7047     		bx	lr
 467              	.L47:
 468              		.align	2
 469              	.L46:
 470 000c 00590040 		.word	1073764608
 471              		.cfi_endproc
 472              	.LFE7:
 473              		.size	ADC_SAR_Seq_1_SAR_StopConvert, .-ADC_SAR_Seq_1_SAR_StopConvert
 474              		.section	.text.ADC_SAR_Seq_1_SAR_IsEndConversion,"ax",%progbits
 475              		.align	2
 476              		.global	ADC_SAR_Seq_1_SAR_IsEndConversion
ARM GAS  C:\Users\schmi\AppData\Local\Temp\ccz9gB8K.s 			page 22


 477              		.thumb
 478              		.thumb_func
 479              		.type	ADC_SAR_Seq_1_SAR_IsEndConversion, %function
 480              	ADC_SAR_Seq_1_SAR_IsEndConversion:
 481              	.LFB8:
 476:Generated_Source\PSoC5/ADC_SAR_Seq_1_SAR.c ****     uint8 status;
 482              		.loc 1 476 0
 483              		.cfi_startproc
 484              		@ args = 0, pretend = 0, frame = 0
 485              		@ frame_needed = 0, uses_anonymous_args = 0
 486              	.LVL34:
 487 0000 10B5     		push	{r4, lr}
 488              		.cfi_def_cfa_offset 8
 489              		.cfi_offset 4, -8
 490              		.cfi_offset 14, -4
 491              	.L50:
 481:Generated_Source\PSoC5/ADC_SAR_Seq_1_SAR.c ****     } while ((status != ADC_SAR_Seq_1_SAR_SAR_EOF_1) && (retMode == ADC_SAR_Seq_1_SAR_WAIT_FOR_RESU
 492              		.loc 1 481 0 discriminator 2
 493 0002 074B     		ldr	r3, .L53
 494 0004 1B78     		ldrb	r3, [r3]	@ zero_extendqisi2
 495              	.LVL35:
 482:Generated_Source\PSoC5/ADC_SAR_Seq_1_SAR.c ****     /* If convertion complete, wait until EOF bit released */
 496              		.loc 1 482 0 discriminator 2
 497 0006 13F00104 		ands	r4, r3, #1
 498 000a 01D1     		bne	.L49
 482:Generated_Source\PSoC5/ADC_SAR_Seq_1_SAR.c ****     /* If convertion complete, wait until EOF bit released */
 499              		.loc 1 482 0 is_stmt 0 discriminator 1
 500 000c 0028     		cmp	r0, #0
 501 000e F8D0     		beq	.L50
 502              	.L49:
 484:Generated_Source\PSoC5/ADC_SAR_Seq_1_SAR.c ****     {
 503              		.loc 1 484 0 is_stmt 1
 504 0010 24B1     		cbz	r4, .L51
 487:Generated_Source\PSoC5/ADC_SAR_Seq_1_SAR.c ****         /* Do the unconditional read operation of the CSR1 register to make sure the EOC bit has be
 505              		.loc 1 487 0
 506 0012 0120     		movs	r0, #1
 507              	.LVL36:
 508 0014 FFF7FEFF 		bl	CyDelayUs
 509              	.LVL37:
 489:Generated_Source\PSoC5/ADC_SAR_Seq_1_SAR.c ****     }
 510              		.loc 1 489 0
 511 0018 014B     		ldr	r3, .L53
 512 001a 1B78     		ldrb	r3, [r3]	@ zero_extendqisi2
 513              	.L51:
 493:Generated_Source\PSoC5/ADC_SAR_Seq_1_SAR.c **** 
 514              		.loc 1 493 0
 515 001c 2046     		mov	r0, r4
 516 001e 10BD     		pop	{r4, pc}
 517              	.L54:
 518              		.align	2
 519              	.L53:
 520 0020 01590040 		.word	1073764609
 521              		.cfi_endproc
 522              	.LFE8:
 523              		.size	ADC_SAR_Seq_1_SAR_IsEndConversion, .-ADC_SAR_Seq_1_SAR_IsEndConversion
 524              		.section	.text.ADC_SAR_Seq_1_SAR_GetResult8,"ax",%progbits
 525              		.align	2
ARM GAS  C:\Users\schmi\AppData\Local\Temp\ccz9gB8K.s 			page 23


 526              		.global	ADC_SAR_Seq_1_SAR_GetResult8
 527              		.thumb
 528              		.thumb_func
 529              		.type	ADC_SAR_Seq_1_SAR_GetResult8, %function
 530              	ADC_SAR_Seq_1_SAR_GetResult8:
 531              	.LFB9:
 521:Generated_Source\PSoC5/ADC_SAR_Seq_1_SAR.c ****     return( (int8)ADC_SAR_Seq_1_SAR_SAR_WRK0_REG - (int8)ADC_SAR_Seq_1_SAR_shift);
 532              		.loc 1 521 0
 533              		.cfi_startproc
 534              		@ args = 0, pretend = 0, frame = 0
 535              		@ frame_needed = 0, uses_anonymous_args = 0
 536              		@ link register save eliminated.
 522:Generated_Source\PSoC5/ADC_SAR_Seq_1_SAR.c **** }
 537              		.loc 1 522 0
 538 0000 034B     		ldr	r3, .L56
 539 0002 1B78     		ldrb	r3, [r3]	@ zero_extendqisi2
 540 0004 034A     		ldr	r2, .L56+4
 541 0006 1088     		ldrh	r0, [r2]
 542 0008 00B2     		sxth	r0, r0
 543 000a 181A     		subs	r0, r3, r0
 523:Generated_Source\PSoC5/ADC_SAR_Seq_1_SAR.c **** 
 544              		.loc 1 523 0
 545 000c 40B2     		sxtb	r0, r0
 546 000e 7047     		bx	lr
 547              	.L57:
 548              		.align	2
 549              	.L56:
 550 0010 A05B0040 		.word	1073765280
 551 0014 00000000 		.word	ADC_SAR_Seq_1_SAR_shift
 552              		.cfi_endproc
 553              	.LFE9:
 554              		.size	ADC_SAR_Seq_1_SAR_GetResult8, .-ADC_SAR_Seq_1_SAR_GetResult8
 555              		.section	.text.ADC_SAR_Seq_1_SAR_GetResult16,"ax",%progbits
 556              		.align	2
 557              		.global	ADC_SAR_Seq_1_SAR_GetResult16
 558              		.thumb
 559              		.thumb_func
 560              		.type	ADC_SAR_Seq_1_SAR_GetResult16, %function
 561              	ADC_SAR_Seq_1_SAR_GetResult16:
 562              	.LFB10:
 551:Generated_Source\PSoC5/ADC_SAR_Seq_1_SAR.c ****     uint16 res;
 563              		.loc 1 551 0
 564              		.cfi_startproc
 565              		@ args = 0, pretend = 0, frame = 0
 566              		@ frame_needed = 0, uses_anonymous_args = 0
 567              		@ link register save eliminated.
 554:Generated_Source\PSoC5/ADC_SAR_Seq_1_SAR.c **** 
 568              		.loc 1 554 0
 569 0000 034B     		ldr	r3, .L59
 570 0002 1888     		ldrh	r0, [r3]
 571 0004 80B2     		uxth	r0, r0
 572              	.LVL38:
 556:Generated_Source\PSoC5/ADC_SAR_Seq_1_SAR.c **** }
 573              		.loc 1 556 0
 574 0006 034B     		ldr	r3, .L59+4
 575 0008 1B88     		ldrh	r3, [r3]
 576 000a C01A     		subs	r0, r0, r3
ARM GAS  C:\Users\schmi\AppData\Local\Temp\ccz9gB8K.s 			page 24


 577              	.LVL39:
 557:Generated_Source\PSoC5/ADC_SAR_Seq_1_SAR.c **** 
 578              		.loc 1 557 0
 579 000c 00B2     		sxth	r0, r0
 580 000e 7047     		bx	lr
 581              	.L60:
 582              		.align	2
 583              	.L59:
 584 0010 A05B0040 		.word	1073765280
 585 0014 00000000 		.word	ADC_SAR_Seq_1_SAR_shift
 586              		.cfi_endproc
 587              	.LFE10:
 588              		.size	ADC_SAR_Seq_1_SAR_GetResult16, .-ADC_SAR_Seq_1_SAR_GetResult16
 589              		.section	.text.ADC_SAR_Seq_1_SAR_SetOffset,"ax",%progbits
 590              		.align	2
 591              		.global	ADC_SAR_Seq_1_SAR_SetOffset
 592              		.thumb
 593              		.thumb_func
 594              		.type	ADC_SAR_Seq_1_SAR_SetOffset, %function
 595              	ADC_SAR_Seq_1_SAR_SetOffset:
 596              	.LFB11:
 586:Generated_Source\PSoC5/ADC_SAR_Seq_1_SAR.c ****     ADC_SAR_Seq_1_SAR_offset = offset;
 597              		.loc 1 586 0
 598              		.cfi_startproc
 599              		@ args = 0, pretend = 0, frame = 0
 600              		@ frame_needed = 0, uses_anonymous_args = 0
 601              		@ link register save eliminated.
 602              	.LVL40:
 587:Generated_Source\PSoC5/ADC_SAR_Seq_1_SAR.c **** }
 603              		.loc 1 587 0
 604 0000 014B     		ldr	r3, .L62
 605 0002 1880     		strh	r0, [r3]	@ movhi
 606 0004 7047     		bx	lr
 607              	.L63:
 608 0006 00BF     		.align	2
 609              	.L62:
 610 0008 00000000 		.word	ADC_SAR_Seq_1_SAR_offset
 611              		.cfi_endproc
 612              	.LFE11:
 613              		.size	ADC_SAR_Seq_1_SAR_SetOffset, .-ADC_SAR_Seq_1_SAR_SetOffset
 614              		.section	.text.ADC_SAR_Seq_1_SAR_SetGain,"ax",%progbits
 615              		.align	2
 616              		.global	ADC_SAR_Seq_1_SAR_SetGain
 617              		.thumb
 618              		.thumb_func
 619              		.type	ADC_SAR_Seq_1_SAR_SetGain, %function
 620              	ADC_SAR_Seq_1_SAR_SetGain:
 621              	.LFB13:
 667:Generated_Source\PSoC5/ADC_SAR_Seq_1_SAR.c ****     #endif /* End ADC_SAR_Seq_1_SAR_DEFAULT_RANGE */
 668:Generated_Source\PSoC5/ADC_SAR_Seq_1_SAR.c **** }
 669:Generated_Source\PSoC5/ADC_SAR_Seq_1_SAR.c **** 
 670:Generated_Source\PSoC5/ADC_SAR_Seq_1_SAR.c **** 
 671:Generated_Source\PSoC5/ADC_SAR_Seq_1_SAR.c **** /*******************************************************************************
 672:Generated_Source\PSoC5/ADC_SAR_Seq_1_SAR.c **** * Function Name: ADC_SAR_Seq_1_SAR_SetGain
 673:Generated_Source\PSoC5/ADC_SAR_Seq_1_SAR.c **** ********************************************************************************
 674:Generated_Source\PSoC5/ADC_SAR_Seq_1_SAR.c **** *
 675:Generated_Source\PSoC5/ADC_SAR_Seq_1_SAR.c **** * Summary:
ARM GAS  C:\Users\schmi\AppData\Local\Temp\ccz9gB8K.s 			page 25


 676:Generated_Source\PSoC5/ADC_SAR_Seq_1_SAR.c **** *  Sets the ADC gain in counts per volt for the voltage conversion functions
 677:Generated_Source\PSoC5/ADC_SAR_Seq_1_SAR.c **** *  that follow. This value is set by default by the reference and input range
 678:Generated_Source\PSoC5/ADC_SAR_Seq_1_SAR.c **** *  settings. It should only be used to further calibrate the ADC with a known
 679:Generated_Source\PSoC5/ADC_SAR_Seq_1_SAR.c **** *  input or if the ADC is using an external reference.
 680:Generated_Source\PSoC5/ADC_SAR_Seq_1_SAR.c **** *
 681:Generated_Source\PSoC5/ADC_SAR_Seq_1_SAR.c **** * Parameters:
 682:Generated_Source\PSoC5/ADC_SAR_Seq_1_SAR.c **** *  int16 adcGain counts per volt
 683:Generated_Source\PSoC5/ADC_SAR_Seq_1_SAR.c **** *
 684:Generated_Source\PSoC5/ADC_SAR_Seq_1_SAR.c **** * Return:
 685:Generated_Source\PSoC5/ADC_SAR_Seq_1_SAR.c **** *  None.
 686:Generated_Source\PSoC5/ADC_SAR_Seq_1_SAR.c **** *
 687:Generated_Source\PSoC5/ADC_SAR_Seq_1_SAR.c **** * Global Variables:
 688:Generated_Source\PSoC5/ADC_SAR_Seq_1_SAR.c **** *  ADC_SAR_Seq_1_SAR_countsPer10Volt variable modified. This variable is used
 689:Generated_Source\PSoC5/ADC_SAR_Seq_1_SAR.c **** *  for gain calibration purpose.
 690:Generated_Source\PSoC5/ADC_SAR_Seq_1_SAR.c **** *
 691:Generated_Source\PSoC5/ADC_SAR_Seq_1_SAR.c **** *******************************************************************************/
 692:Generated_Source\PSoC5/ADC_SAR_Seq_1_SAR.c **** void ADC_SAR_Seq_1_SAR_SetGain(int16 adcGain)
 693:Generated_Source\PSoC5/ADC_SAR_Seq_1_SAR.c **** {
 622              		.loc 1 693 0
 623              		.cfi_startproc
 624              		@ args = 0, pretend = 0, frame = 0
 625              		@ frame_needed = 0, uses_anonymous_args = 0
 626              		@ link register save eliminated.
 627              	.LVL41:
 694:Generated_Source\PSoC5/ADC_SAR_Seq_1_SAR.c ****     ADC_SAR_Seq_1_SAR_countsPer10Volt = (int32)adcGain * 10;
 628              		.loc 1 694 0
 629 0000 00EB8000 		add	r0, r0, r0, lsl #2
 630              	.LVL42:
 631 0004 4300     		lsls	r3, r0, #1
 632 0006 014A     		ldr	r2, .L65
 633 0008 1360     		str	r3, [r2]
 634 000a 7047     		bx	lr
 635              	.L66:
 636              		.align	2
 637              	.L65:
 638 000c 00000000 		.word	ADC_SAR_Seq_1_SAR_countsPer10Volt
 639              		.cfi_endproc
 640              	.LFE13:
 641              		.size	ADC_SAR_Seq_1_SAR_SetGain, .-ADC_SAR_Seq_1_SAR_SetGain
 642              		.section	.text.ADC_SAR_Seq_1_SAR_SetScaledGain,"ax",%progbits
 643              		.align	2
 644              		.global	ADC_SAR_Seq_1_SAR_SetScaledGain
 645              		.thumb
 646              		.thumb_func
 647              		.type	ADC_SAR_Seq_1_SAR_SetScaledGain, %function
 648              	ADC_SAR_Seq_1_SAR_SetScaledGain:
 649              	.LFB14:
 695:Generated_Source\PSoC5/ADC_SAR_Seq_1_SAR.c **** }
 696:Generated_Source\PSoC5/ADC_SAR_Seq_1_SAR.c **** 
 697:Generated_Source\PSoC5/ADC_SAR_Seq_1_SAR.c **** 
 698:Generated_Source\PSoC5/ADC_SAR_Seq_1_SAR.c **** /*******************************************************************************
 699:Generated_Source\PSoC5/ADC_SAR_Seq_1_SAR.c **** * Function Name: ADC_SAR_Seq_1_SAR_SetScaledGain
 700:Generated_Source\PSoC5/ADC_SAR_Seq_1_SAR.c **** ********************************************************************************
 701:Generated_Source\PSoC5/ADC_SAR_Seq_1_SAR.c **** *
 702:Generated_Source\PSoC5/ADC_SAR_Seq_1_SAR.c **** * Summary:
 703:Generated_Source\PSoC5/ADC_SAR_Seq_1_SAR.c **** *  Sets the ADC gain in counts per 10 volt for the voltage conversion functions
 704:Generated_Source\PSoC5/ADC_SAR_Seq_1_SAR.c **** *  that follow. This value is set by default by the reference and input range
ARM GAS  C:\Users\schmi\AppData\Local\Temp\ccz9gB8K.s 			page 26


 705:Generated_Source\PSoC5/ADC_SAR_Seq_1_SAR.c **** *  settings. It should only be used to further calibrate the ADC with a known
 706:Generated_Source\PSoC5/ADC_SAR_Seq_1_SAR.c **** *  input or if the ADC is using an external reference.
 707:Generated_Source\PSoC5/ADC_SAR_Seq_1_SAR.c **** *
 708:Generated_Source\PSoC5/ADC_SAR_Seq_1_SAR.c **** * Parameters:
 709:Generated_Source\PSoC5/ADC_SAR_Seq_1_SAR.c **** *  int32 adcGain  counts per 10 volt
 710:Generated_Source\PSoC5/ADC_SAR_Seq_1_SAR.c **** *
 711:Generated_Source\PSoC5/ADC_SAR_Seq_1_SAR.c **** * Return:
 712:Generated_Source\PSoC5/ADC_SAR_Seq_1_SAR.c **** *  None.
 713:Generated_Source\PSoC5/ADC_SAR_Seq_1_SAR.c **** *
 714:Generated_Source\PSoC5/ADC_SAR_Seq_1_SAR.c **** * Global Variables:
 715:Generated_Source\PSoC5/ADC_SAR_Seq_1_SAR.c **** *  ADC_SAR_Seq_1_SAR_countsPer10Volt variable modified. This variable is used
 716:Generated_Source\PSoC5/ADC_SAR_Seq_1_SAR.c **** *  for gain calibration purpose.
 717:Generated_Source\PSoC5/ADC_SAR_Seq_1_SAR.c **** *
 718:Generated_Source\PSoC5/ADC_SAR_Seq_1_SAR.c **** *******************************************************************************/
 719:Generated_Source\PSoC5/ADC_SAR_Seq_1_SAR.c **** void ADC_SAR_Seq_1_SAR_SetScaledGain(int32 adcGain)
 720:Generated_Source\PSoC5/ADC_SAR_Seq_1_SAR.c **** {
 650              		.loc 1 720 0
 651              		.cfi_startproc
 652              		@ args = 0, pretend = 0, frame = 0
 653              		@ frame_needed = 0, uses_anonymous_args = 0
 654              		@ link register save eliminated.
 655              	.LVL43:
 721:Generated_Source\PSoC5/ADC_SAR_Seq_1_SAR.c ****     ADC_SAR_Seq_1_SAR_countsPer10Volt = adcGain;
 656              		.loc 1 721 0
 657 0000 014B     		ldr	r3, .L68
 658 0002 1860     		str	r0, [r3]
 659 0004 7047     		bx	lr
 660              	.L69:
 661 0006 00BF     		.align	2
 662              	.L68:
 663 0008 00000000 		.word	ADC_SAR_Seq_1_SAR_countsPer10Volt
 664              		.cfi_endproc
 665              	.LFE14:
 666              		.size	ADC_SAR_Seq_1_SAR_SetScaledGain, .-ADC_SAR_Seq_1_SAR_SetScaledGain
 667              		.section	.text.ADC_SAR_Seq_1_SAR_CountsTo_mVolts,"ax",%progbits
 668              		.align	2
 669              		.global	ADC_SAR_Seq_1_SAR_CountsTo_mVolts
 670              		.thumb
 671              		.thumb_func
 672              		.type	ADC_SAR_Seq_1_SAR_CountsTo_mVolts, %function
 673              	ADC_SAR_Seq_1_SAR_CountsTo_mVolts:
 674              	.LFB15:
 722:Generated_Source\PSoC5/ADC_SAR_Seq_1_SAR.c **** }
 723:Generated_Source\PSoC5/ADC_SAR_Seq_1_SAR.c **** 
 724:Generated_Source\PSoC5/ADC_SAR_Seq_1_SAR.c **** 
 725:Generated_Source\PSoC5/ADC_SAR_Seq_1_SAR.c **** /*******************************************************************************
 726:Generated_Source\PSoC5/ADC_SAR_Seq_1_SAR.c **** * Function Name: ADC_SAR_Seq_1_SAR_CountsTo_mVolts
 727:Generated_Source\PSoC5/ADC_SAR_Seq_1_SAR.c **** ********************************************************************************
 728:Generated_Source\PSoC5/ADC_SAR_Seq_1_SAR.c **** *
 729:Generated_Source\PSoC5/ADC_SAR_Seq_1_SAR.c **** * Summary:
 730:Generated_Source\PSoC5/ADC_SAR_Seq_1_SAR.c **** *  Converts the ADC output to millivolts as a 16-bit integer.
 731:Generated_Source\PSoC5/ADC_SAR_Seq_1_SAR.c **** *
 732:Generated_Source\PSoC5/ADC_SAR_Seq_1_SAR.c **** * Parameters:
 733:Generated_Source\PSoC5/ADC_SAR_Seq_1_SAR.c **** *  int16 adcCounts:  Result from the ADC conversion
 734:Generated_Source\PSoC5/ADC_SAR_Seq_1_SAR.c **** *
 735:Generated_Source\PSoC5/ADC_SAR_Seq_1_SAR.c **** * Return:
 736:Generated_Source\PSoC5/ADC_SAR_Seq_1_SAR.c **** *  int16 Result in mVolts
ARM GAS  C:\Users\schmi\AppData\Local\Temp\ccz9gB8K.s 			page 27


 737:Generated_Source\PSoC5/ADC_SAR_Seq_1_SAR.c **** *
 738:Generated_Source\PSoC5/ADC_SAR_Seq_1_SAR.c **** * Global Variables:
 739:Generated_Source\PSoC5/ADC_SAR_Seq_1_SAR.c **** *  ADC_SAR_Seq_1_SAR_offset variable used.
 740:Generated_Source\PSoC5/ADC_SAR_Seq_1_SAR.c **** *  ADC_SAR_Seq_1_SAR_countsPer10Volt variable used.
 741:Generated_Source\PSoC5/ADC_SAR_Seq_1_SAR.c **** *
 742:Generated_Source\PSoC5/ADC_SAR_Seq_1_SAR.c **** *******************************************************************************/
 743:Generated_Source\PSoC5/ADC_SAR_Seq_1_SAR.c **** int16 ADC_SAR_Seq_1_SAR_CountsTo_mVolts(int16 adcCounts)
 744:Generated_Source\PSoC5/ADC_SAR_Seq_1_SAR.c **** {
 675              		.loc 1 744 0
 676              		.cfi_startproc
 677              		@ args = 0, pretend = 0, frame = 0
 678              		@ frame_needed = 0, uses_anonymous_args = 0
 679              		@ link register save eliminated.
 680              	.LVL44:
 681 0000 10B4     		push	{r4}
 682              		.cfi_def_cfa_offset 4
 683              		.cfi_offset 4, -4
 745:Generated_Source\PSoC5/ADC_SAR_Seq_1_SAR.c ****     int16 mVolts;
 746:Generated_Source\PSoC5/ADC_SAR_Seq_1_SAR.c ****     int32 countsPer10Volt;
 747:Generated_Source\PSoC5/ADC_SAR_Seq_1_SAR.c **** 
 748:Generated_Source\PSoC5/ADC_SAR_Seq_1_SAR.c ****     if(ADC_SAR_Seq_1_SAR_countsPerVolt != 0)
 684              		.loc 1 748 0
 685 0002 124B     		ldr	r3, .L76
 686 0004 1B88     		ldrh	r3, [r3]
 687 0006 1BB2     		sxth	r3, r3
 688 0008 33B1     		cbz	r3, .L71
 749:Generated_Source\PSoC5/ADC_SAR_Seq_1_SAR.c ****     {   /* Support obsolete method */
 750:Generated_Source\PSoC5/ADC_SAR_Seq_1_SAR.c ****         countsPer10Volt = (int32)ADC_SAR_Seq_1_SAR_countsPerVolt * 10;
 689              		.loc 1 750 0
 690 000a 104B     		ldr	r3, .L76
 691 000c 1B88     		ldrh	r3, [r3]
 692 000e 1BB2     		sxth	r3, r3
 693 0010 03EB8303 		add	r3, r3, r3, lsl #2
 694 0014 5C00     		lsls	r4, r3, #1
 695              	.LVL45:
 696 0016 01E0     		b	.L72
 697              	.LVL46:
 698              	.L71:
 751:Generated_Source\PSoC5/ADC_SAR_Seq_1_SAR.c ****     }
 752:Generated_Source\PSoC5/ADC_SAR_Seq_1_SAR.c ****     else
 753:Generated_Source\PSoC5/ADC_SAR_Seq_1_SAR.c ****     {
 754:Generated_Source\PSoC5/ADC_SAR_Seq_1_SAR.c ****         countsPer10Volt = ADC_SAR_Seq_1_SAR_countsPer10Volt;
 699              		.loc 1 754 0
 700 0018 0D4B     		ldr	r3, .L76+4
 701 001a 1C68     		ldr	r4, [r3]
 702              	.LVL47:
 703              	.L72:
 755:Generated_Source\PSoC5/ADC_SAR_Seq_1_SAR.c ****     }
 756:Generated_Source\PSoC5/ADC_SAR_Seq_1_SAR.c **** 
 757:Generated_Source\PSoC5/ADC_SAR_Seq_1_SAR.c ****     /* Subtract ADC offset */
 758:Generated_Source\PSoC5/ADC_SAR_Seq_1_SAR.c ****     adcCounts -= ADC_SAR_Seq_1_SAR_offset;
 704              		.loc 1 758 0
 705 001c 0D4B     		ldr	r3, .L76+8
 706 001e 1988     		ldrh	r1, [r3]
 707 0020 411A     		subs	r1, r0, r1
 708 0022 09B2     		sxth	r1, r1
 709              	.LVL48:
ARM GAS  C:\Users\schmi\AppData\Local\Temp\ccz9gB8K.s 			page 28


 759:Generated_Source\PSoC5/ADC_SAR_Seq_1_SAR.c ****     /* Convert to millivolts with rounding */
 760:Generated_Source\PSoC5/ADC_SAR_Seq_1_SAR.c ****     mVolts = (int16)( (( (int32)adcCounts * ADC_SAR_Seq_1_SAR_10MV_COUNTS ) + ( (adcCounts > 0) ?
 710              		.loc 1 760 0
 711 0024 42F21073 		movw	r3, #10000
 712 0028 03FB01F2 		mul	r2, r3, r1
 761:Generated_Source\PSoC5/ADC_SAR_Seq_1_SAR.c ****                        (countsPer10Volt / 2) : (-(countsPer10Volt / 2)) )) / countsPer10Volt);
 713              		.loc 1 761 0
 714 002c 0029     		cmp	r1, #0
 715 002e 03DD     		ble	.L73
 716              		.loc 1 761 0 is_stmt 0 discriminator 1
 717 0030 04EBD470 		add	r0, r4, r4, lsr #31
 718 0034 4010     		asrs	r0, r0, #1
 719 0036 03E0     		b	.L74
 720              	.L73:
 721              		.loc 1 761 0 discriminator 2
 722 0038 04EBD470 		add	r0, r4, r4, lsr #31
 723 003c 4010     		asrs	r0, r0, #1
 724 003e 4042     		negs	r0, r0
 725              	.L74:
 760:Generated_Source\PSoC5/ADC_SAR_Seq_1_SAR.c ****                        (countsPer10Volt / 2) : (-(countsPer10Volt / 2)) )) / countsPer10Volt);
 726              		.loc 1 760 0 is_stmt 1
 727 0040 8318     		adds	r3, r0, r2
 728              		.loc 1 761 0
 729 0042 93FBF4F0 		sdiv	r0, r3, r4
 730              	.LVL49:
 762:Generated_Source\PSoC5/ADC_SAR_Seq_1_SAR.c **** 
 763:Generated_Source\PSoC5/ADC_SAR_Seq_1_SAR.c ****     return( mVolts );
 764:Generated_Source\PSoC5/ADC_SAR_Seq_1_SAR.c **** }
 731              		.loc 1 764 0
 732 0046 00B2     		sxth	r0, r0
 733 0048 10BC     		pop	{r4}
 734              		.cfi_restore 4
 735              		.cfi_def_cfa_offset 0
 736              	.LVL50:
 737 004a 7047     		bx	lr
 738              	.L77:
 739              		.align	2
 740              	.L76:
 741 004c 00000000 		.word	ADC_SAR_Seq_1_SAR_countsPerVolt
 742 0050 00000000 		.word	ADC_SAR_Seq_1_SAR_countsPer10Volt
 743 0054 00000000 		.word	ADC_SAR_Seq_1_SAR_offset
 744              		.cfi_endproc
 745              	.LFE15:
 746              		.size	ADC_SAR_Seq_1_SAR_CountsTo_mVolts, .-ADC_SAR_Seq_1_SAR_CountsTo_mVolts
 747              		.global	__aeabi_ldivmod
 748              		.section	.text.ADC_SAR_Seq_1_SAR_CountsTo_uVolts,"ax",%progbits
 749              		.align	2
 750              		.global	ADC_SAR_Seq_1_SAR_CountsTo_uVolts
 751              		.thumb
 752              		.thumb_func
 753              		.type	ADC_SAR_Seq_1_SAR_CountsTo_uVolts, %function
 754              	ADC_SAR_Seq_1_SAR_CountsTo_uVolts:
 755              	.LFB16:
 765:Generated_Source\PSoC5/ADC_SAR_Seq_1_SAR.c **** 
 766:Generated_Source\PSoC5/ADC_SAR_Seq_1_SAR.c **** 
 767:Generated_Source\PSoC5/ADC_SAR_Seq_1_SAR.c **** /*******************************************************************************
 768:Generated_Source\PSoC5/ADC_SAR_Seq_1_SAR.c **** * Function Name: ADC_SAR_Seq_1_SAR_CountsTo_uVolts
ARM GAS  C:\Users\schmi\AppData\Local\Temp\ccz9gB8K.s 			page 29


 769:Generated_Source\PSoC5/ADC_SAR_Seq_1_SAR.c **** ********************************************************************************
 770:Generated_Source\PSoC5/ADC_SAR_Seq_1_SAR.c **** *
 771:Generated_Source\PSoC5/ADC_SAR_Seq_1_SAR.c **** * Summary:
 772:Generated_Source\PSoC5/ADC_SAR_Seq_1_SAR.c **** *  Converts the ADC output to microvolts as a 32-bit integer.
 773:Generated_Source\PSoC5/ADC_SAR_Seq_1_SAR.c **** *
 774:Generated_Source\PSoC5/ADC_SAR_Seq_1_SAR.c **** * Parameters:
 775:Generated_Source\PSoC5/ADC_SAR_Seq_1_SAR.c **** *  int16 adcCounts: Result from the ADC conversion
 776:Generated_Source\PSoC5/ADC_SAR_Seq_1_SAR.c **** *
 777:Generated_Source\PSoC5/ADC_SAR_Seq_1_SAR.c **** * Return:
 778:Generated_Source\PSoC5/ADC_SAR_Seq_1_SAR.c **** *  int32 Result in micro Volts
 779:Generated_Source\PSoC5/ADC_SAR_Seq_1_SAR.c **** *
 780:Generated_Source\PSoC5/ADC_SAR_Seq_1_SAR.c **** * Global Variables:
 781:Generated_Source\PSoC5/ADC_SAR_Seq_1_SAR.c **** *  ADC_SAR_Seq_1_SAR_offset variable used.
 782:Generated_Source\PSoC5/ADC_SAR_Seq_1_SAR.c **** *  ADC_SAR_Seq_1_SAR_countsPer10Volt used to convert ADC counts to uVolts.
 783:Generated_Source\PSoC5/ADC_SAR_Seq_1_SAR.c **** *
 784:Generated_Source\PSoC5/ADC_SAR_Seq_1_SAR.c **** *******************************************************************************/
 785:Generated_Source\PSoC5/ADC_SAR_Seq_1_SAR.c **** int32 ADC_SAR_Seq_1_SAR_CountsTo_uVolts(int16 adcCounts)
 786:Generated_Source\PSoC5/ADC_SAR_Seq_1_SAR.c **** {
 756              		.loc 1 786 0
 757              		.cfi_startproc
 758              		@ args = 0, pretend = 0, frame = 0
 759              		@ frame_needed = 0, uses_anonymous_args = 0
 760              	.LVL51:
 761 0000 38B5     		push	{r3, r4, r5, lr}
 762              		.cfi_def_cfa_offset 16
 763              		.cfi_offset 3, -16
 764              		.cfi_offset 4, -12
 765              		.cfi_offset 5, -8
 766              		.cfi_offset 14, -4
 787:Generated_Source\PSoC5/ADC_SAR_Seq_1_SAR.c **** 
 788:Generated_Source\PSoC5/ADC_SAR_Seq_1_SAR.c ****     int64 uVolts;
 789:Generated_Source\PSoC5/ADC_SAR_Seq_1_SAR.c ****     int32 countsPer10Volt;
 790:Generated_Source\PSoC5/ADC_SAR_Seq_1_SAR.c **** 
 791:Generated_Source\PSoC5/ADC_SAR_Seq_1_SAR.c ****     if(ADC_SAR_Seq_1_SAR_countsPerVolt != 0)
 767              		.loc 1 791 0
 768 0002 0D4B     		ldr	r3, .L82
 769 0004 1B88     		ldrh	r3, [r3]
 770 0006 1BB2     		sxth	r3, r3
 771 0008 33B1     		cbz	r3, .L79
 792:Generated_Source\PSoC5/ADC_SAR_Seq_1_SAR.c ****     {   /* Support obsolete method */
 793:Generated_Source\PSoC5/ADC_SAR_Seq_1_SAR.c ****         countsPer10Volt = (int32)ADC_SAR_Seq_1_SAR_countsPerVolt * 10;
 772              		.loc 1 793 0
 773 000a 0B4B     		ldr	r3, .L82
 774 000c 1B88     		ldrh	r3, [r3]
 775 000e 1BB2     		sxth	r3, r3
 776 0010 03EB8303 		add	r3, r3, r3, lsl #2
 777 0014 5A00     		lsls	r2, r3, #1
 778              	.LVL52:
 779 0016 01E0     		b	.L80
 780              	.LVL53:
 781              	.L79:
 794:Generated_Source\PSoC5/ADC_SAR_Seq_1_SAR.c ****     }
 795:Generated_Source\PSoC5/ADC_SAR_Seq_1_SAR.c ****     else
 796:Generated_Source\PSoC5/ADC_SAR_Seq_1_SAR.c ****     {
 797:Generated_Source\PSoC5/ADC_SAR_Seq_1_SAR.c ****         countsPer10Volt = ADC_SAR_Seq_1_SAR_countsPer10Volt;
 782              		.loc 1 797 0
 783 0018 084B     		ldr	r3, .L82+4
ARM GAS  C:\Users\schmi\AppData\Local\Temp\ccz9gB8K.s 			page 30


 784 001a 1A68     		ldr	r2, [r3]
 785              	.LVL54:
 786              	.L80:
 798:Generated_Source\PSoC5/ADC_SAR_Seq_1_SAR.c ****     }
 799:Generated_Source\PSoC5/ADC_SAR_Seq_1_SAR.c **** 
 800:Generated_Source\PSoC5/ADC_SAR_Seq_1_SAR.c ****     /* Subtract ADC offset */
 801:Generated_Source\PSoC5/ADC_SAR_Seq_1_SAR.c ****     adcCounts -= ADC_SAR_Seq_1_SAR_offset;
 787              		.loc 1 801 0
 788 001c 084B     		ldr	r3, .L82+8
 789 001e 1C88     		ldrh	r4, [r3]
 790 0020 041B     		subs	r4, r0, r4
 791              	.LVL55:
 802:Generated_Source\PSoC5/ADC_SAR_Seq_1_SAR.c ****     /* To convert adcCounts to microVolts it is required to be multiplied
 803:Generated_Source\PSoC5/ADC_SAR_Seq_1_SAR.c ****     *  on 10 million and later divide on gain in counts per 10V.
 804:Generated_Source\PSoC5/ADC_SAR_Seq_1_SAR.c ****     */
 805:Generated_Source\PSoC5/ADC_SAR_Seq_1_SAR.c ****     uVolts = (( (int64)adcCounts * ADC_SAR_Seq_1_SAR_10UV_COUNTS ) / countsPer10Volt);
 792              		.loc 1 805 0
 793 0022 24B2     		sxth	r4, r4
 794 0024 E517     		asrs	r5, r4, #31
 795 0026 074B     		ldr	r3, .L82+12
 796 0028 A4FB0301 		umull	r0, r1, r4, r3
 797 002c 03FB0511 		mla	r1, r3, r5, r1
 798 0030 D317     		asrs	r3, r2, #31
 799 0032 FFF7FEFF 		bl	__aeabi_ldivmod
 800              	.LVL56:
 806:Generated_Source\PSoC5/ADC_SAR_Seq_1_SAR.c **** 
 807:Generated_Source\PSoC5/ADC_SAR_Seq_1_SAR.c ****     return((int32) uVolts );
 808:Generated_Source\PSoC5/ADC_SAR_Seq_1_SAR.c **** }
 801              		.loc 1 808 0
 802 0036 38BD     		pop	{r3, r4, r5, pc}
 803              	.LVL57:
 804              	.L83:
 805              		.align	2
 806              	.L82:
 807 0038 00000000 		.word	ADC_SAR_Seq_1_SAR_countsPerVolt
 808 003c 00000000 		.word	ADC_SAR_Seq_1_SAR_countsPer10Volt
 809 0040 00000000 		.word	ADC_SAR_Seq_1_SAR_offset
 810 0044 80969800 		.word	10000000
 811              		.cfi_endproc
 812              	.LFE16:
 813              		.size	ADC_SAR_Seq_1_SAR_CountsTo_uVolts, .-ADC_SAR_Seq_1_SAR_CountsTo_uVolts
 814              		.global	__aeabi_i2f
 815              		.global	__aeabi_fmul
 816              		.global	__aeabi_fdiv
 817              		.section	.text.ADC_SAR_Seq_1_SAR_CountsTo_Volts,"ax",%progbits
 818              		.align	2
 819              		.global	ADC_SAR_Seq_1_SAR_CountsTo_Volts
 820              		.thumb
 821              		.thumb_func
 822              		.type	ADC_SAR_Seq_1_SAR_CountsTo_Volts, %function
 823              	ADC_SAR_Seq_1_SAR_CountsTo_Volts:
 824              	.LFB17:
 809:Generated_Source\PSoC5/ADC_SAR_Seq_1_SAR.c **** 
 810:Generated_Source\PSoC5/ADC_SAR_Seq_1_SAR.c **** 
 811:Generated_Source\PSoC5/ADC_SAR_Seq_1_SAR.c **** /*******************************************************************************
 812:Generated_Source\PSoC5/ADC_SAR_Seq_1_SAR.c **** * Function Name: ADC_SAR_Seq_1_SAR_CountsTo_Volts
 813:Generated_Source\PSoC5/ADC_SAR_Seq_1_SAR.c **** ********************************************************************************
ARM GAS  C:\Users\schmi\AppData\Local\Temp\ccz9gB8K.s 			page 31


 814:Generated_Source\PSoC5/ADC_SAR_Seq_1_SAR.c **** *
 815:Generated_Source\PSoC5/ADC_SAR_Seq_1_SAR.c **** * Summary:
 816:Generated_Source\PSoC5/ADC_SAR_Seq_1_SAR.c **** *  Converts the ADC output to volts as a floating-point number.
 817:Generated_Source\PSoC5/ADC_SAR_Seq_1_SAR.c **** *
 818:Generated_Source\PSoC5/ADC_SAR_Seq_1_SAR.c **** * Parameters:
 819:Generated_Source\PSoC5/ADC_SAR_Seq_1_SAR.c **** *  int16 adcCounts: Result from the ADC conversion
 820:Generated_Source\PSoC5/ADC_SAR_Seq_1_SAR.c **** *
 821:Generated_Source\PSoC5/ADC_SAR_Seq_1_SAR.c **** * Return:
 822:Generated_Source\PSoC5/ADC_SAR_Seq_1_SAR.c **** *  float Result in Volts
 823:Generated_Source\PSoC5/ADC_SAR_Seq_1_SAR.c **** *
 824:Generated_Source\PSoC5/ADC_SAR_Seq_1_SAR.c **** * Global Variables:
 825:Generated_Source\PSoC5/ADC_SAR_Seq_1_SAR.c **** *  ADC_SAR_Seq_1_SAR_offset variable used.
 826:Generated_Source\PSoC5/ADC_SAR_Seq_1_SAR.c **** *  ADC_SAR_Seq_1_SAR_countsPer10Volt used to convert ADC counts to Volts.
 827:Generated_Source\PSoC5/ADC_SAR_Seq_1_SAR.c **** *
 828:Generated_Source\PSoC5/ADC_SAR_Seq_1_SAR.c **** *******************************************************************************/
 829:Generated_Source\PSoC5/ADC_SAR_Seq_1_SAR.c **** float32 ADC_SAR_Seq_1_SAR_CountsTo_Volts(int16 adcCounts)
 830:Generated_Source\PSoC5/ADC_SAR_Seq_1_SAR.c **** {
 825              		.loc 1 830 0
 826              		.cfi_startproc
 827              		@ args = 0, pretend = 0, frame = 0
 828              		@ frame_needed = 0, uses_anonymous_args = 0
 829              	.LVL58:
 830 0000 38B5     		push	{r3, r4, r5, lr}
 831              		.cfi_def_cfa_offset 16
 832              		.cfi_offset 3, -16
 833              		.cfi_offset 4, -12
 834              		.cfi_offset 5, -8
 835              		.cfi_offset 14, -4
 831:Generated_Source\PSoC5/ADC_SAR_Seq_1_SAR.c ****     float32 volts;
 832:Generated_Source\PSoC5/ADC_SAR_Seq_1_SAR.c ****     int32 countsPer10Volt;
 833:Generated_Source\PSoC5/ADC_SAR_Seq_1_SAR.c **** 
 834:Generated_Source\PSoC5/ADC_SAR_Seq_1_SAR.c ****     if(ADC_SAR_Seq_1_SAR_countsPerVolt != 0)
 836              		.loc 1 834 0
 837 0002 0F4B     		ldr	r3, .L88
 838 0004 1B88     		ldrh	r3, [r3]
 839 0006 1BB2     		sxth	r3, r3
 840 0008 33B1     		cbz	r3, .L85
 835:Generated_Source\PSoC5/ADC_SAR_Seq_1_SAR.c ****     {   /* Support obsolete method */
 836:Generated_Source\PSoC5/ADC_SAR_Seq_1_SAR.c ****         countsPer10Volt = (int32)ADC_SAR_Seq_1_SAR_countsPerVolt * 10;
 841              		.loc 1 836 0
 842 000a 0D4B     		ldr	r3, .L88
 843 000c 1B88     		ldrh	r3, [r3]
 844 000e 1BB2     		sxth	r3, r3
 845 0010 03EB8303 		add	r3, r3, r3, lsl #2
 846 0014 5C00     		lsls	r4, r3, #1
 847              	.LVL59:
 848 0016 01E0     		b	.L86
 849              	.LVL60:
 850              	.L85:
 837:Generated_Source\PSoC5/ADC_SAR_Seq_1_SAR.c ****     }
 838:Generated_Source\PSoC5/ADC_SAR_Seq_1_SAR.c ****     else
 839:Generated_Source\PSoC5/ADC_SAR_Seq_1_SAR.c ****     {
 840:Generated_Source\PSoC5/ADC_SAR_Seq_1_SAR.c ****         countsPer10Volt = ADC_SAR_Seq_1_SAR_countsPer10Volt;
 851              		.loc 1 840 0
 852 0018 0A4B     		ldr	r3, .L88+4
 853 001a 1C68     		ldr	r4, [r3]
 854              	.LVL61:
ARM GAS  C:\Users\schmi\AppData\Local\Temp\ccz9gB8K.s 			page 32


 855              	.L86:
 841:Generated_Source\PSoC5/ADC_SAR_Seq_1_SAR.c ****     }
 842:Generated_Source\PSoC5/ADC_SAR_Seq_1_SAR.c **** 
 843:Generated_Source\PSoC5/ADC_SAR_Seq_1_SAR.c ****     /* Subtract ADC offset */
 844:Generated_Source\PSoC5/ADC_SAR_Seq_1_SAR.c ****     adcCounts -= ADC_SAR_Seq_1_SAR_offset;
 856              		.loc 1 844 0
 857 001c 0A4B     		ldr	r3, .L88+8
 858 001e 1B88     		ldrh	r3, [r3]
 859 0020 C01A     		subs	r0, r0, r3
 860              	.LVL62:
 845:Generated_Source\PSoC5/ADC_SAR_Seq_1_SAR.c **** 
 846:Generated_Source\PSoC5/ADC_SAR_Seq_1_SAR.c ****     volts = ((float32)adcCounts * ADC_SAR_Seq_1_SAR_10V_COUNTS) / (float32)countsPer10Volt;
 861              		.loc 1 846 0
 862 0022 00B2     		sxth	r0, r0
 863 0024 FFF7FEFF 		bl	__aeabi_i2f
 864              	.LVL63:
 865 0028 0849     		ldr	r1, .L88+12
 866 002a FFF7FEFF 		bl	__aeabi_fmul
 867              	.LVL64:
 868 002e 0546     		mov	r5, r0
 869 0030 2046     		mov	r0, r4
 870 0032 FFF7FEFF 		bl	__aeabi_i2f
 871              	.LVL65:
 872 0036 0146     		mov	r1, r0
 873 0038 2846     		mov	r0, r5
 874 003a FFF7FEFF 		bl	__aeabi_fdiv
 875              	.LVL66:
 847:Generated_Source\PSoC5/ADC_SAR_Seq_1_SAR.c **** 
 848:Generated_Source\PSoC5/ADC_SAR_Seq_1_SAR.c ****     return( volts );
 849:Generated_Source\PSoC5/ADC_SAR_Seq_1_SAR.c **** }
 876              		.loc 1 849 0
 877 003e 38BD     		pop	{r3, r4, r5, pc}
 878              	.LVL67:
 879              	.L89:
 880              		.align	2
 881              	.L88:
 882 0040 00000000 		.word	ADC_SAR_Seq_1_SAR_countsPerVolt
 883 0044 00000000 		.word	ADC_SAR_Seq_1_SAR_countsPer10Volt
 884 0048 00000000 		.word	ADC_SAR_Seq_1_SAR_offset
 885 004c 00002041 		.word	1092616192
 886              		.cfi_endproc
 887              	.LFE17:
 888              		.size	ADC_SAR_Seq_1_SAR_CountsTo_Volts, .-ADC_SAR_Seq_1_SAR_CountsTo_Volts
 889              		.comm	ADC_SAR_Seq_1_SAR_shift,2,2
 890              		.comm	ADC_SAR_Seq_1_SAR_countsPer10Volt,4,4
 891              		.comm	ADC_SAR_Seq_1_SAR_countsPerVolt,2,2
 892              		.comm	ADC_SAR_Seq_1_SAR_offset,2,2
 893              		.global	ADC_SAR_Seq_1_SAR_initVar
 894              		.bss
 895              		.set	.LANCHOR0,. + 0
 896              		.type	ADC_SAR_Seq_1_SAR_initVar, %object
 897              		.size	ADC_SAR_Seq_1_SAR_initVar, 1
 898              	ADC_SAR_Seq_1_SAR_initVar:
 899 0000 00       		.space	1
 900              		.text
 901              	.Letext0:
 902              		.file 2 "Generated_Source\\PSoC5\\cytypes.h"
ARM GAS  C:\Users\schmi\AppData\Local\Temp\ccz9gB8K.s 			page 33


 903              		.file 3 "Generated_Source\\PSoC5\\CyLib.h"