ARM GAS  C:\Users\schmi\AppData\Local\Temp\ccNdEXbE.s 			page 1


   1              		.syntax unified
   2              		.cpu cortex-m3
   3              		.fpu softvfp
   4              		.eabi_attribute 20, 1
   5              		.eabi_attribute 21, 1
   6              		.eabi_attribute 23, 3
   7              		.eabi_attribute 24, 1
   8              		.eabi_attribute 25, 1
   9              		.eabi_attribute 26, 1
  10              		.eabi_attribute 30, 6
  11              		.eabi_attribute 34, 1
  12              		.eabi_attribute 18, 4
  13              		.thumb
  14              		.syntax unified
  15              		.file	"drawer.c"
  16              		.text
  17              	.Ltext0:
  18              		.cfi_sections	.debug_frame
  19              		.comm	drawer_commands,70,4
  20              		.section	.text.dw_ringbufferInit,"ax",%progbits
  21              		.align	2
  22              		.global	dw_ringbufferInit
  23              		.thumb
  24              		.thumb_func
  25              		.type	dw_ringbufferInit, %function
  26              	dw_ringbufferInit:
  27              	.LFB111:
  28              		.file 1 "drawer.c"
   1:drawer.c      **** /* ========================================
   2:drawer.c      ****  *
   3:drawer.c      ****  * Copyright YOUR COMPANY, THE YEAR
   4:drawer.c      ****  * All Rights Reserved
   5:drawer.c      ****  * UNPUBLISHED, LICENSED SOFTWARE.
   6:drawer.c      ****  *
   7:drawer.c      ****  * CONFIDENTIAL AND PROPRIETARY INFORMATION
   8:drawer.c      ****  * WHICH IS THE PROPERTY OF your company.
   9:drawer.c      ****  *
  10:drawer.c      ****  * ========================================
  11:drawer.c      **** */
  12:drawer.c      **** 
  13:drawer.c      **** #include "drawer.h"
  14:drawer.c      **** 
  15:drawer.c      **** RC_t dw_ringbufferInit(dw_Ringbuffer_t* const me){
  29              		.loc 1 15 0
  30              		.cfi_startproc
  31              		@ args = 0, pretend = 0, frame = 8
  32              		@ frame_needed = 1, uses_anonymous_args = 0
  33              		@ link register save eliminated.
  34 0000 80B4     		push	{r7}
  35              		.cfi_def_cfa_offset 4
  36              		.cfi_offset 7, -4
  37 0002 83B0     		sub	sp, sp, #12
  38              		.cfi_def_cfa_offset 16
  39 0004 00AF     		add	r7, sp, #0
  40              		.cfi_def_cfa_register 7
  41 0006 7860     		str	r0, [r7, #4]
  16:drawer.c      ****     me->dw_readIndex = 0;
ARM GAS  C:\Users\schmi\AppData\Local\Temp\ccNdEXbE.s 			page 2


  42              		.loc 1 16 0
  43 0008 7B68     		ldr	r3, [r7, #4]
  44 000a 0022     		movs	r2, #0
  45 000c 9A87     		strh	r2, [r3, #60]	@ movhi
  17:drawer.c      ****     me->dw_writeIndex = 0;
  46              		.loc 1 17 0
  47 000e 7B68     		ldr	r3, [r7, #4]
  48 0010 0022     		movs	r2, #0
  49 0012 DA87     		strh	r2, [r3, #62]	@ movhi
  18:drawer.c      ****     me->dw_fillLevel = 0;
  50              		.loc 1 18 0
  51 0014 7B68     		ldr	r3, [r7, #4]
  52 0016 0022     		movs	r2, #0
  53 0018 A3F84020 		strh	r2, [r3, #64]	@ movhi
  19:drawer.c      ****     me->dw_size = DRAWER_SIZE;
  54              		.loc 1 19 0
  55 001c 7B68     		ldr	r3, [r7, #4]
  56 001e 0A22     		movs	r2, #10
  57 0020 A3F84220 		strh	r2, [r3, #66]	@ movhi
  20:drawer.c      ****     me->dw_type = T_DRAWER;
  58              		.loc 1 20 0
  59 0024 7B68     		ldr	r3, [r7, #4]
  60 0026 0022     		movs	r2, #0
  61 0028 83F84420 		strb	r2, [r3, #68]
  21:drawer.c      ****     return RC_SUCCESS;   
  62              		.loc 1 21 0
  63 002c 0023     		movs	r3, #0
  22:drawer.c      **** }
  64              		.loc 1 22 0
  65 002e 1846     		mov	r0, r3
  66 0030 0C37     		adds	r7, r7, #12
  67              		.cfi_def_cfa_offset 4
  68 0032 BD46     		mov	sp, r7
  69              		.cfi_def_cfa_register 13
  70              		@ sp needed
  71 0034 80BC     		pop	{r7}
  72              		.cfi_restore 7
  73              		.cfi_def_cfa_offset 0
  74 0036 7047     		bx	lr
  75              		.cfi_endproc
  76              	.LFE111:
  77              		.size	dw_ringbufferInit, .-dw_ringbufferInit
  78              		.section	.text.dw_writeToRingbuffer,"ax",%progbits
  79              		.align	2
  80              		.global	dw_writeToRingbuffer
  81              		.thumb
  82              		.thumb_func
  83              		.type	dw_writeToRingbuffer, %function
  84              	dw_writeToRingbuffer:
  85              	.LFB112:
  23:drawer.c      **** 
  24:drawer.c      **** RC_t dw_writeToRingbuffer(dw_Ringbuffer_t* const me, Drawer_t byteToWrite){
  86              		.loc 1 24 0
  87              		.cfi_startproc
  88              		@ args = 0, pretend = 0, frame = 16
  89              		@ frame_needed = 1, uses_anonymous_args = 0
  90 0000 80B5     		push	{r7, lr}
ARM GAS  C:\Users\schmi\AppData\Local\Temp\ccNdEXbE.s 			page 3


  91              		.cfi_def_cfa_offset 8
  92              		.cfi_offset 7, -8
  93              		.cfi_offset 14, -4
  94 0002 84B0     		sub	sp, sp, #16
  95              		.cfi_def_cfa_offset 24
  96 0004 00AF     		add	r7, sp, #0
  97              		.cfi_def_cfa_register 7
  98 0006 F860     		str	r0, [r7, #12]
  99 0008 3B1D     		adds	r3, r7, #4
 100 000a 83E80600 		stmia	r3, {r1, r2}
  25:drawer.c      ****     GetResource(res_drawer_RB);
 101              		.loc 1 25 0
 102 000e 0220     		movs	r0, #2
 103 0010 FFF7FEFF 		bl	EE_oo_GetResource
  26:drawer.c      ****     if(me->dw_fillLevel < me->dw_size - 1){
 104              		.loc 1 26 0
 105 0014 FB68     		ldr	r3, [r7, #12]
 106 0016 B3F84030 		ldrh	r3, [r3, #64]
 107 001a 1A46     		mov	r2, r3
 108 001c FB68     		ldr	r3, [r7, #12]
 109 001e B3F84230 		ldrh	r3, [r3, #66]
 110 0022 013B     		subs	r3, r3, #1
 111 0024 9A42     		cmp	r2, r3
 112 0026 29DA     		bge	.L4
  27:drawer.c      ****         me->dw_buffer[(me->dw_writeIndex++)%DRAWER_SIZE] = byteToWrite;
 113              		.loc 1 27 0
 114 0028 FB68     		ldr	r3, [r7, #12]
 115 002a DA8F     		ldrh	r2, [r3, #62]
 116 002c 531C     		adds	r3, r2, #1
 117 002e 99B2     		uxth	r1, r3
 118 0030 FB68     		ldr	r3, [r7, #12]
 119 0032 D987     		strh	r1, [r3, #62]	@ movhi
 120 0034 144B     		ldr	r3, .L7
 121 0036 A3FB0213 		umull	r1, r3, r3, r2
 122 003a D908     		lsrs	r1, r3, #3
 123 003c 0B46     		mov	r3, r1
 124 003e 9B00     		lsls	r3, r3, #2
 125 0040 0B44     		add	r3, r3, r1
 126 0042 5B00     		lsls	r3, r3, #1
 127 0044 D31A     		subs	r3, r2, r3
 128 0046 9BB2     		uxth	r3, r3
 129 0048 1946     		mov	r1, r3
 130 004a FA68     		ldr	r2, [r7, #12]
 131 004c 0B46     		mov	r3, r1
 132 004e 5B00     		lsls	r3, r3, #1
 133 0050 0B44     		add	r3, r3, r1
 134 0052 5B00     		lsls	r3, r3, #1
 135 0054 1344     		add	r3, r3, r2
 136 0056 1A46     		mov	r2, r3
 137 0058 3B1D     		adds	r3, r7, #4
 138 005a 1868     		ldr	r0, [r3]	@ unaligned
 139 005c 1060     		str	r0, [r2]	@ unaligned
 140 005e 9B88     		ldrh	r3, [r3, #4]	@ unaligned
 141 0060 9380     		strh	r3, [r2, #4]	@ unaligned
  28:drawer.c      ****         me->dw_fillLevel++;
 142              		.loc 1 28 0
 143 0062 FB68     		ldr	r3, [r7, #12]
ARM GAS  C:\Users\schmi\AppData\Local\Temp\ccNdEXbE.s 			page 4


 144 0064 B3F84030 		ldrh	r3, [r3, #64]
 145 0068 0133     		adds	r3, r3, #1
 146 006a 9AB2     		uxth	r2, r3
 147 006c FB68     		ldr	r3, [r7, #12]
 148 006e A3F84020 		strh	r2, [r3, #64]	@ movhi
  29:drawer.c      ****     }else{
  30:drawer.c      ****         return RC_ERROR_OVERRUN;
  31:drawer.c      ****     }
  32:drawer.c      ****     ReleaseResource(res_drawer_RB);
 149              		.loc 1 32 0
 150 0072 0220     		movs	r0, #2
 151 0074 FFF7FEFF 		bl	EE_oo_ReleaseResource
  33:drawer.c      ****     return RC_SUCCESS;
 152              		.loc 1 33 0
 153 0078 0023     		movs	r3, #0
 154 007a 01E0     		b	.L6
 155              	.L4:
  30:drawer.c      ****     }
 156              		.loc 1 30 0
 157 007c 6FF00503 		mvn	r3, #5
 158              	.L6:
  34:drawer.c      **** }
 159              		.loc 1 34 0
 160 0080 1846     		mov	r0, r3
 161 0082 1037     		adds	r7, r7, #16
 162              		.cfi_def_cfa_offset 8
 163 0084 BD46     		mov	sp, r7
 164              		.cfi_def_cfa_register 13
 165              		@ sp needed
 166 0086 80BD     		pop	{r7, pc}
 167              	.L8:
 168              		.align	2
 169              	.L7:
 170 0088 CDCCCCCC 		.word	-858993459
 171              		.cfi_endproc
 172              	.LFE112:
 173              		.size	dw_writeToRingbuffer, .-dw_writeToRingbuffer
 174              		.section	.text.dw_readFromRingbuffer,"ax",%progbits
 175              		.align	2
 176              		.global	dw_readFromRingbuffer
 177              		.thumb
 178              		.thumb_func
 179              		.type	dw_readFromRingbuffer, %function
 180              	dw_readFromRingbuffer:
 181              	.LFB113:
  35:drawer.c      **** 
  36:drawer.c      **** RC_t dw_readFromRingbuffer(dw_Ringbuffer_t * const me, Drawer_t* buffer_data){
 182              		.loc 1 36 0
 183              		.cfi_startproc
 184              		@ args = 0, pretend = 0, frame = 16
 185              		@ frame_needed = 1, uses_anonymous_args = 0
 186 0000 80B5     		push	{r7, lr}
 187              		.cfi_def_cfa_offset 8
 188              		.cfi_offset 7, -8
 189              		.cfi_offset 14, -4
 190 0002 84B0     		sub	sp, sp, #16
 191              		.cfi_def_cfa_offset 24
ARM GAS  C:\Users\schmi\AppData\Local\Temp\ccNdEXbE.s 			page 5


 192 0004 00AF     		add	r7, sp, #0
 193              		.cfi_def_cfa_register 7
 194 0006 7860     		str	r0, [r7, #4]
 195 0008 3960     		str	r1, [r7]
  37:drawer.c      ****     RC_t ret = RC_SUCCESS;
 196              		.loc 1 37 0
 197 000a 0023     		movs	r3, #0
 198 000c FB73     		strb	r3, [r7, #15]
  38:drawer.c      ****     GetResource(res_drawer_RB);
 199              		.loc 1 38 0
 200 000e 0220     		movs	r0, #2
 201 0010 FFF7FEFF 		bl	EE_oo_GetResource
  39:drawer.c      ****     if(me->dw_fillLevel > 0){
 202              		.loc 1 39 0
 203 0014 7B68     		ldr	r3, [r7, #4]
 204 0016 B3F84030 		ldrh	r3, [r3, #64]
 205 001a 002B     		cmp	r3, #0
 206 001c 25D0     		beq	.L10
  40:drawer.c      ****        *buffer_data = me->dw_buffer[(me->dw_readIndex++)%DRAWER_SIZE];
 207              		.loc 1 40 0
 208 001e 7B68     		ldr	r3, [r7, #4]
 209 0020 9A8F     		ldrh	r2, [r3, #60]
 210 0022 531C     		adds	r3, r2, #1
 211 0024 99B2     		uxth	r1, r3
 212 0026 7B68     		ldr	r3, [r7, #4]
 213 0028 9987     		strh	r1, [r3, #60]	@ movhi
 214 002a 154B     		ldr	r3, .L13
 215 002c A3FB0213 		umull	r1, r3, r3, r2
 216 0030 D908     		lsrs	r1, r3, #3
 217 0032 0B46     		mov	r3, r1
 218 0034 9B00     		lsls	r3, r3, #2
 219 0036 0B44     		add	r3, r3, r1
 220 0038 5B00     		lsls	r3, r3, #1
 221 003a D31A     		subs	r3, r2, r3
 222 003c 9BB2     		uxth	r3, r3
 223 003e 1946     		mov	r1, r3
 224 0040 3868     		ldr	r0, [r7]
 225 0042 7A68     		ldr	r2, [r7, #4]
 226 0044 0B46     		mov	r3, r1
 227 0046 5B00     		lsls	r3, r3, #1
 228 0048 0B44     		add	r3, r3, r1
 229 004a 5B00     		lsls	r3, r3, #1
 230 004c 1A44     		add	r2, r2, r3
 231 004e 0346     		mov	r3, r0
 232 0050 1168     		ldr	r1, [r2]	@ unaligned
 233 0052 1960     		str	r1, [r3]	@ unaligned
 234 0054 9288     		ldrh	r2, [r2, #4]	@ unaligned
 235 0056 9A80     		strh	r2, [r3, #4]	@ unaligned
  41:drawer.c      ****         me->dw_fillLevel--;
 236              		.loc 1 41 0
 237 0058 7B68     		ldr	r3, [r7, #4]
 238 005a B3F84030 		ldrh	r3, [r3, #64]
 239 005e 013B     		subs	r3, r3, #1
 240 0060 9AB2     		uxth	r2, r3
 241 0062 7B68     		ldr	r3, [r7, #4]
 242 0064 A3F84020 		strh	r2, [r3, #64]	@ movhi
 243 0068 01E0     		b	.L11
ARM GAS  C:\Users\schmi\AppData\Local\Temp\ccNdEXbE.s 			page 6


 244              	.L10:
  42:drawer.c      ****     }else{
  43:drawer.c      ****         ret = RC_ERROR_BUFFER_EMTPY;
 245              		.loc 1 43 0
 246 006a F723     		movs	r3, #247
 247 006c FB73     		strb	r3, [r7, #15]
 248              	.L11:
  44:drawer.c      ****     }
  45:drawer.c      ****     ReleaseResource(res_drawer_RB);
 249              		.loc 1 45 0
 250 006e 0220     		movs	r0, #2
 251 0070 FFF7FEFF 		bl	EE_oo_ReleaseResource
  46:drawer.c      ****     return ret;
 252              		.loc 1 46 0
 253 0074 97F90F30 		ldrsb	r3, [r7, #15]
  47:drawer.c      **** }
 254              		.loc 1 47 0
 255 0078 1846     		mov	r0, r3
 256 007a 1037     		adds	r7, r7, #16
 257              		.cfi_def_cfa_offset 8
 258 007c BD46     		mov	sp, r7
 259              		.cfi_def_cfa_register 13
 260              		@ sp needed
 261 007e 80BD     		pop	{r7, pc}
 262              	.L14:
 263              		.align	2
 264              	.L13:
 265 0080 CDCCCCCC 		.word	-858993459
 266              		.cfi_endproc
 267              	.LFE113:
 268              		.size	dw_readFromRingbuffer, .-dw_readFromRingbuffer
 269              		.section	.text.dw_readSetFromRingbuffer,"ax",%progbits
 270              		.align	2
 271              		.global	dw_readSetFromRingbuffer
 272              		.thumb
 273              		.thumb_func
 274              		.type	dw_readSetFromRingbuffer, %function
 275              	dw_readSetFromRingbuffer:
 276              	.LFB114:
  48:drawer.c      **** 
  49:drawer.c      **** RC_t dw_readSetFromRingbuffer(dw_Ringbuffer_t* const me, Drawer_t* drawerSet){
 277              		.loc 1 49 0
 278              		.cfi_startproc
 279              		@ args = 0, pretend = 0, frame = 16
 280              		@ frame_needed = 1, uses_anonymous_args = 0
 281 0000 80B5     		push	{r7, lr}
 282              		.cfi_def_cfa_offset 8
 283              		.cfi_offset 7, -8
 284              		.cfi_offset 14, -4
 285 0002 84B0     		sub	sp, sp, #16
 286              		.cfi_def_cfa_offset 24
 287 0004 00AF     		add	r7, sp, #0
 288              		.cfi_def_cfa_register 7
 289 0006 7860     		str	r0, [r7, #4]
 290 0008 3960     		str	r1, [r7]
  50:drawer.c      ****     uint16_t set_index = 0;
 291              		.loc 1 50 0
ARM GAS  C:\Users\schmi\AppData\Local\Temp\ccNdEXbE.s 			page 7


 292 000a 0023     		movs	r3, #0
 293 000c FB81     		strh	r3, [r7, #14]	@ movhi
  51:drawer.c      ****     GetResource(res_drawer_RB);
 294              		.loc 1 51 0
 295 000e 0220     		movs	r0, #2
 296 0010 FFF7FEFF 		bl	EE_oo_GetResource
  52:drawer.c      ****     while(me->dw_writeIndex != me->dw_readIndex){
 297              		.loc 1 52 0
 298 0014 0EE0     		b	.L16
 299              	.L17:
  53:drawer.c      ****         dw_readFromRingbuffer(me,&drawerSet[set_index++]);   
 300              		.loc 1 53 0
 301 0016 FB89     		ldrh	r3, [r7, #14]
 302 0018 5A1C     		adds	r2, r3, #1
 303 001a FA81     		strh	r2, [r7, #14]	@ movhi
 304 001c 1A46     		mov	r2, r3
 305 001e 1346     		mov	r3, r2
 306 0020 5B00     		lsls	r3, r3, #1
 307 0022 1344     		add	r3, r3, r2
 308 0024 5B00     		lsls	r3, r3, #1
 309 0026 1A46     		mov	r2, r3
 310 0028 3B68     		ldr	r3, [r7]
 311 002a 1344     		add	r3, r3, r2
 312 002c 1946     		mov	r1, r3
 313 002e 7868     		ldr	r0, [r7, #4]
 314 0030 FFF7FEFF 		bl	dw_readFromRingbuffer
 315              	.L16:
  52:drawer.c      ****     while(me->dw_writeIndex != me->dw_readIndex){
 316              		.loc 1 52 0
 317 0034 7B68     		ldr	r3, [r7, #4]
 318 0036 DA8F     		ldrh	r2, [r3, #62]
 319 0038 7B68     		ldr	r3, [r7, #4]
 320 003a 9B8F     		ldrh	r3, [r3, #60]
 321 003c 9A42     		cmp	r2, r3
 322 003e EAD1     		bne	.L17
  54:drawer.c      ****     }
  55:drawer.c      ****     ReleaseResource(res_drawer_RB);
 323              		.loc 1 55 0
 324 0040 0220     		movs	r0, #2
 325 0042 FFF7FEFF 		bl	EE_oo_ReleaseResource
  56:drawer.c      ****     return RC_SUCCESS;   
 326              		.loc 1 56 0
 327 0046 0023     		movs	r3, #0
  57:drawer.c      **** }
 328              		.loc 1 57 0
 329 0048 1846     		mov	r0, r3
 330 004a 1037     		adds	r7, r7, #16
 331              		.cfi_def_cfa_offset 8
 332 004c BD46     		mov	sp, r7
 333              		.cfi_def_cfa_register 13
 334              		@ sp needed
 335 004e 80BD     		pop	{r7, pc}
 336              		.cfi_endproc
 337              	.LFE114:
 338              		.size	dw_readSetFromRingbuffer, .-dw_readSetFromRingbuffer
 339              		.section	.text.dw_getBufferType,"ax",%progbits
 340              		.align	2
ARM GAS  C:\Users\schmi\AppData\Local\Temp\ccNdEXbE.s 			page 8


 341              		.global	dw_getBufferType
 342              		.thumb
 343              		.thumb_func
 344              		.type	dw_getBufferType, %function
 345              	dw_getBufferType:
 346              	.LFB115:
  58:drawer.c      **** 
  59:drawer.c      **** RingBuffer_type dw_getBufferType(dw_Ringbuffer_t* const me){
 347              		.loc 1 59 0
 348              		.cfi_startproc
 349              		@ args = 0, pretend = 0, frame = 8
 350              		@ frame_needed = 1, uses_anonymous_args = 0
 351              		@ link register save eliminated.
 352 0000 80B4     		push	{r7}
 353              		.cfi_def_cfa_offset 4
 354              		.cfi_offset 7, -4
 355 0002 83B0     		sub	sp, sp, #12
 356              		.cfi_def_cfa_offset 16
 357 0004 00AF     		add	r7, sp, #0
 358              		.cfi_def_cfa_register 7
 359 0006 7860     		str	r0, [r7, #4]
  60:drawer.c      ****     return me->dw_type;
 360              		.loc 1 60 0
 361 0008 7B68     		ldr	r3, [r7, #4]
 362 000a 93F84430 		ldrb	r3, [r3, #68]	@ zero_extendqisi2
  61:drawer.c      **** }
 363              		.loc 1 61 0
 364 000e 1846     		mov	r0, r3
 365 0010 0C37     		adds	r7, r7, #12
 366              		.cfi_def_cfa_offset 4
 367 0012 BD46     		mov	sp, r7
 368              		.cfi_def_cfa_register 13
 369              		@ sp needed
 370 0014 80BC     		pop	{r7}
 371              		.cfi_restore 7
 372              		.cfi_def_cfa_offset 0
 373 0016 7047     		bx	lr
 374              		.cfi_endproc
 375              	.LFE115:
 376              		.size	dw_getBufferType, .-dw_getBufferType
 377              		.section	.text.dw_setBufferType,"ax",%progbits
 378              		.align	2
 379              		.global	dw_setBufferType
 380              		.thumb
 381              		.thumb_func
 382              		.type	dw_setBufferType, %function
 383              	dw_setBufferType:
 384              	.LFB116:
  62:drawer.c      **** 
  63:drawer.c      **** void dw_setBufferType(dw_Ringbuffer_t * const me, RingBuffer_type type){
 385              		.loc 1 63 0
 386              		.cfi_startproc
 387              		@ args = 0, pretend = 0, frame = 8
 388              		@ frame_needed = 1, uses_anonymous_args = 0
 389 0000 80B5     		push	{r7, lr}
 390              		.cfi_def_cfa_offset 8
 391              		.cfi_offset 7, -8
ARM GAS  C:\Users\schmi\AppData\Local\Temp\ccNdEXbE.s 			page 9


 392              		.cfi_offset 14, -4
 393 0002 82B0     		sub	sp, sp, #8
 394              		.cfi_def_cfa_offset 16
 395 0004 00AF     		add	r7, sp, #0
 396              		.cfi_def_cfa_register 7
 397 0006 7860     		str	r0, [r7, #4]
 398 0008 0B46     		mov	r3, r1
 399 000a FB70     		strb	r3, [r7, #3]
  64:drawer.c      ****     GetResource(res_drawer_RB);
 400              		.loc 1 64 0
 401 000c 0220     		movs	r0, #2
 402 000e FFF7FEFF 		bl	EE_oo_GetResource
  65:drawer.c      ****     me->dw_type = type;
 403              		.loc 1 65 0
 404 0012 7B68     		ldr	r3, [r7, #4]
 405 0014 FA78     		ldrb	r2, [r7, #3]
 406 0016 83F84420 		strb	r2, [r3, #68]
  66:drawer.c      ****     ReleaseResource(res_drawer_RB);
 407              		.loc 1 66 0
 408 001a 0220     		movs	r0, #2
 409 001c FFF7FEFF 		bl	EE_oo_ReleaseResource
  67:drawer.c      ****     return;
 410              		.loc 1 67 0
 411 0020 00BF     		nop
  68:drawer.c      **** }
 412              		.loc 1 68 0
 413 0022 0837     		adds	r7, r7, #8
 414              		.cfi_def_cfa_offset 8
 415 0024 BD46     		mov	sp, r7
 416              		.cfi_def_cfa_register 13
 417              		@ sp needed
 418 0026 80BD     		pop	{r7, pc}
 419              		.cfi_endproc
 420              	.LFE116:
 421              		.size	dw_setBufferType, .-dw_setBufferType
 422              		.text
 423              	.Letext0:
 424              		.file 2 ".\\source\\bsw/global.h"
 425              		.file 3 "c:\\program files (x86)\\cypress\\psoc creator\\4.4\\psoc creator\\import\\gnu\\arm\\5.4.
 426              		.file 4 "c:\\program files (x86)\\cypress\\psoc creator\\4.4\\psoc creator\\import\\gnu\\arm\\5.4.
 427              		.file 5 ".\\source\\bsw\\tft/tft.h"
 428              		.file 6 "Generated_Source\\PSoC5/ErikaOS_1_common_ee_types.inc"
 429              		.file 7 "Generated_Source\\PSoC5/ErikaOS_1_cortex_mx_ee_cpu.inc"
 430              		.file 8 "bufferTypes.h"
 431              		.file 9 "drawer.h"
 432              		.file 10 "Generated_Source\\PSoC5/ErikaOS_1_ee_oo_intfunc.inc"
 433              		.file 11 "Generated_Source\\PSoC5/ErikaOS_1_cortex_mx_ee_context.inc"
 434              		.file 12 "Generated_Source\\PSoC5/ErikaOS_1_common_ee_primitives.inc"
 435              		.file 13 "Generated_Source\\PSoC5/core_cm3.h"