ARM GAS  C:\Users\schmi\AppData\Local\Temp\ccHoEDzi.s 			page 1


   1              		.syntax unified
   2              		.cpu cortex-m3
   3              		.fpu softvfp
   4              		.eabi_attribute 20, 1
   5              		.eabi_attribute 21, 1
   6              		.eabi_attribute 23, 3
   7              		.eabi_attribute 24, 1
   8              		.eabi_attribute 25, 1
   9              		.eabi_attribute 26, 1
  10              		.eabi_attribute 30, 6
  11              		.eabi_attribute 34, 1
  12              		.eabi_attribute 18, 4
  13              		.thumb
  14              		.syntax unified
  15              		.file	"ErikaOS_1_cortex_mx_ee_utils.c"
  16              		.text
  17              	.Ltext0:
  18              		.cfi_sections	.debug_frame
  19              		.section	.text.EE_cortex_mx_resumeIRQ,"ax",%progbits
  20              		.align	2
  21              		.thumb
  22              		.thumb_func
  23              		.type	EE_cortex_mx_resumeIRQ, %function
  24              	EE_cortex_mx_resumeIRQ:
  25              	.LFB11:
  26              		.file 1 "Generated_Source\\PSoC5\\ErikaOS_1_cortex_mx_ee_cpu.inc"
   1:Generated_Source\PSoC5/ErikaOS_1_cortex_mx_ee_cpu.inc **** /* ###*B*###
   2:Generated_Source\PSoC5/ErikaOS_1_cortex_mx_ee_cpu.inc ****  * ERIKA Enterprise - a tiny RTOS for small microcontrollers
   3:Generated_Source\PSoC5/ErikaOS_1_cortex_mx_ee_cpu.inc ****  *
   4:Generated_Source\PSoC5/ErikaOS_1_cortex_mx_ee_cpu.inc ****  * Copyright (C) 2002-2011  Evidence Srl
   5:Generated_Source\PSoC5/ErikaOS_1_cortex_mx_ee_cpu.inc ****  *
   6:Generated_Source\PSoC5/ErikaOS_1_cortex_mx_ee_cpu.inc ****  * This file is part of ERIKA Enterprise.
   7:Generated_Source\PSoC5/ErikaOS_1_cortex_mx_ee_cpu.inc ****  *
   8:Generated_Source\PSoC5/ErikaOS_1_cortex_mx_ee_cpu.inc ****  * ERIKA Enterprise is free software; you can redistribute it
   9:Generated_Source\PSoC5/ErikaOS_1_cortex_mx_ee_cpu.inc ****  * and/or modify it under the terms of the GNU General Public License
  10:Generated_Source\PSoC5/ErikaOS_1_cortex_mx_ee_cpu.inc ****  * version 2 as published by the Free Software Foundation, 
  11:Generated_Source\PSoC5/ErikaOS_1_cortex_mx_ee_cpu.inc ****  * (with a special exception described below).
  12:Generated_Source\PSoC5/ErikaOS_1_cortex_mx_ee_cpu.inc ****  *
  13:Generated_Source\PSoC5/ErikaOS_1_cortex_mx_ee_cpu.inc ****  * Linking this code statically or dynamically with other modules is
  14:Generated_Source\PSoC5/ErikaOS_1_cortex_mx_ee_cpu.inc ****  * making a combined work based on this code.  Thus, the terms and
  15:Generated_Source\PSoC5/ErikaOS_1_cortex_mx_ee_cpu.inc ****  * conditions of the GNU General Public License cover the whole
  16:Generated_Source\PSoC5/ErikaOS_1_cortex_mx_ee_cpu.inc ****  * combination.
  17:Generated_Source\PSoC5/ErikaOS_1_cortex_mx_ee_cpu.inc ****  *
  18:Generated_Source\PSoC5/ErikaOS_1_cortex_mx_ee_cpu.inc ****  * As a special exception, the copyright holders of this library give you
  19:Generated_Source\PSoC5/ErikaOS_1_cortex_mx_ee_cpu.inc ****  * permission to link this code with independent modules to produce an
  20:Generated_Source\PSoC5/ErikaOS_1_cortex_mx_ee_cpu.inc ****  * executable, regardless of the license terms of these independent
  21:Generated_Source\PSoC5/ErikaOS_1_cortex_mx_ee_cpu.inc ****  * modules, and to copy and distribute the resulting executable under
  22:Generated_Source\PSoC5/ErikaOS_1_cortex_mx_ee_cpu.inc ****  * terms of your choice, provided that you also meet, for each linked
  23:Generated_Source\PSoC5/ErikaOS_1_cortex_mx_ee_cpu.inc ****  * independent module, the terms and conditions of the license of that
  24:Generated_Source\PSoC5/ErikaOS_1_cortex_mx_ee_cpu.inc ****  * module.  An independent module is a module which is not derived from
  25:Generated_Source\PSoC5/ErikaOS_1_cortex_mx_ee_cpu.inc ****  * or based on this library.  If you modify this code, you may extend
  26:Generated_Source\PSoC5/ErikaOS_1_cortex_mx_ee_cpu.inc ****  * this exception to your version of the code, but you are not
  27:Generated_Source\PSoC5/ErikaOS_1_cortex_mx_ee_cpu.inc ****  * obligated to do so.  If you do not wish to do so, delete this
  28:Generated_Source\PSoC5/ErikaOS_1_cortex_mx_ee_cpu.inc ****  * exception statement from your version.
  29:Generated_Source\PSoC5/ErikaOS_1_cortex_mx_ee_cpu.inc ****  *
  30:Generated_Source\PSoC5/ErikaOS_1_cortex_mx_ee_cpu.inc ****  * ERIKA Enterprise is distributed in the hope that it will be
  31:Generated_Source\PSoC5/ErikaOS_1_cortex_mx_ee_cpu.inc ****  * useful, but WITHOUT ANY WARRANTY; without even the implied warranty
ARM GAS  C:\Users\schmi\AppData\Local\Temp\ccHoEDzi.s 			page 2


  32:Generated_Source\PSoC5/ErikaOS_1_cortex_mx_ee_cpu.inc ****  * of MERCHANTABILITY or FITNESS FOR A PARTICULAR PURPOSE.  See the
  33:Generated_Source\PSoC5/ErikaOS_1_cortex_mx_ee_cpu.inc ****  * GNU General Public License version 2 for more details.
  34:Generated_Source\PSoC5/ErikaOS_1_cortex_mx_ee_cpu.inc ****  *
  35:Generated_Source\PSoC5/ErikaOS_1_cortex_mx_ee_cpu.inc ****  * You should have received a copy of the GNU General Public License
  36:Generated_Source\PSoC5/ErikaOS_1_cortex_mx_ee_cpu.inc ****  * version 2 along with ERIKA Enterprise; if not, write to the
  37:Generated_Source\PSoC5/ErikaOS_1_cortex_mx_ee_cpu.inc ****  * Free Software Foundation, Inc., 51 Franklin Street, Fifth Floor,
  38:Generated_Source\PSoC5/ErikaOS_1_cortex_mx_ee_cpu.inc ****  * Boston, MA 02110-1301 USA.
  39:Generated_Source\PSoC5/ErikaOS_1_cortex_mx_ee_cpu.inc ****  * ###*E*### */
  40:Generated_Source\PSoC5/ErikaOS_1_cortex_mx_ee_cpu.inc **** 
  41:Generated_Source\PSoC5/ErikaOS_1_cortex_mx_ee_cpu.inc **** /** 
  42:Generated_Source\PSoC5/ErikaOS_1_cortex_mx_ee_cpu.inc **** 	@file ee_cpu.h
  43:Generated_Source\PSoC5/ErikaOS_1_cortex_mx_ee_cpu.inc **** 	@brief CPU-dependent part of HAL. Derived from pkg/cpu/pic30/inc/ee_cpu.h
  44:Generated_Source\PSoC5/ErikaOS_1_cortex_mx_ee_cpu.inc **** 	@author Gianluca Franchino
  45:Generated_Source\PSoC5/ErikaOS_1_cortex_mx_ee_cpu.inc **** 	@author Giuseppe Serano
  46:Generated_Source\PSoC5/ErikaOS_1_cortex_mx_ee_cpu.inc **** 	@date 2011
  47:Generated_Source\PSoC5/ErikaOS_1_cortex_mx_ee_cpu.inc **** */ 
  48:Generated_Source\PSoC5/ErikaOS_1_cortex_mx_ee_cpu.inc ****     
  49:Generated_Source\PSoC5/ErikaOS_1_cortex_mx_ee_cpu.inc **** /*
  50:Generated_Source\PSoC5/ErikaOS_1_cortex_mx_ee_cpu.inc ****  * PSoC Port and API Generation
  51:Generated_Source\PSoC5/ErikaOS_1_cortex_mx_ee_cpu.inc ****  * Carlos Fernando Meier Martinez
  52:Generated_Source\PSoC5/ErikaOS_1_cortex_mx_ee_cpu.inc ****  * Hochschule Darmstadt, Germany. 2017.
  53:Generated_Source\PSoC5/ErikaOS_1_cortex_mx_ee_cpu.inc ****  */
  54:Generated_Source\PSoC5/ErikaOS_1_cortex_mx_ee_cpu.inc **** 
  55:Generated_Source\PSoC5/ErikaOS_1_cortex_mx_ee_cpu.inc **** #ifndef __INCLUDE_CORTEX_MX_EE_CPU_H__
  56:Generated_Source\PSoC5/ErikaOS_1_cortex_mx_ee_cpu.inc **** #define __INCLUDE_CORTEX_MX_EE_CPU_H__
  57:Generated_Source\PSoC5/ErikaOS_1_cortex_mx_ee_cpu.inc **** 
  58:Generated_Source\PSoC5/ErikaOS_1_cortex_mx_ee_cpu.inc **** #include "ErikaOS_1_eecfg.inc"
  59:Generated_Source\PSoC5/ErikaOS_1_cortex_mx_ee_cpu.inc **** 
  60:Generated_Source\PSoC5/ErikaOS_1_cortex_mx_ee_cpu.inc **** 
  61:Generated_Source\PSoC5/ErikaOS_1_cortex_mx_ee_cpu.inc **** #ifdef __GNU__
  62:Generated_Source\PSoC5/ErikaOS_1_cortex_mx_ee_cpu.inc **** #include "ErikaOS_1_common_ee_compiler_gcc.inc"
  63:Generated_Source\PSoC5/ErikaOS_1_cortex_mx_ee_cpu.inc **** #endif
  64:Generated_Source\PSoC5/ErikaOS_1_cortex_mx_ee_cpu.inc **** 
  65:Generated_Source\PSoC5/ErikaOS_1_cortex_mx_ee_cpu.inc **** /* Initial stack offset (in words): Used in multistack. */
  66:Generated_Source\PSoC5/ErikaOS_1_cortex_mx_ee_cpu.inc **** #ifndef CORTEX_MX_INIT_TOS_OFFSET
  67:Generated_Source\PSoC5/ErikaOS_1_cortex_mx_ee_cpu.inc **** #define CORTEX_MX_INIT_TOS_OFFSET 10
  68:Generated_Source\PSoC5/ErikaOS_1_cortex_mx_ee_cpu.inc **** #endif
  69:Generated_Source\PSoC5/ErikaOS_1_cortex_mx_ee_cpu.inc **** 
  70:Generated_Source\PSoC5/ErikaOS_1_cortex_mx_ee_cpu.inc **** /*************************************************************************
  71:Generated_Source\PSoC5/ErikaOS_1_cortex_mx_ee_cpu.inc ****  HAL Types and structures
  72:Generated_Source\PSoC5/ErikaOS_1_cortex_mx_ee_cpu.inc ****  *************************************************************************/
  73:Generated_Source\PSoC5/ErikaOS_1_cortex_mx_ee_cpu.inc **** 
  74:Generated_Source\PSoC5/ErikaOS_1_cortex_mx_ee_cpu.inc **** /* Primitive data types */
  75:Generated_Source\PSoC5/ErikaOS_1_cortex_mx_ee_cpu.inc **** #include "ErikaOS_1_common_ee_types.inc"
  76:Generated_Source\PSoC5/ErikaOS_1_cortex_mx_ee_cpu.inc **** 
  77:Generated_Source\PSoC5/ErikaOS_1_cortex_mx_ee_cpu.inc **** typedef EE_UINT32 EE_UREG;
  78:Generated_Source\PSoC5/ErikaOS_1_cortex_mx_ee_cpu.inc **** typedef EE_INT32  EE_SREG;
  79:Generated_Source\PSoC5/ErikaOS_1_cortex_mx_ee_cpu.inc **** typedef EE_UINT32 EE_FREG;
  80:Generated_Source\PSoC5/ErikaOS_1_cortex_mx_ee_cpu.inc **** #define EE_UREG_SIZE 4
  81:Generated_Source\PSoC5/ErikaOS_1_cortex_mx_ee_cpu.inc **** 
  82:Generated_Source\PSoC5/ErikaOS_1_cortex_mx_ee_cpu.inc **** /* boolean type */
  83:Generated_Source\PSoC5/ErikaOS_1_cortex_mx_ee_cpu.inc **** #ifndef EE_TYPEBOOL
  84:Generated_Source\PSoC5/ErikaOS_1_cortex_mx_ee_cpu.inc **** typedef EE_UREG EE_TYPEBOOL;
  85:Generated_Source\PSoC5/ErikaOS_1_cortex_mx_ee_cpu.inc **** #endif
  86:Generated_Source\PSoC5/ErikaOS_1_cortex_mx_ee_cpu.inc **** 
  87:Generated_Source\PSoC5/ErikaOS_1_cortex_mx_ee_cpu.inc **** /* boolean true define */
  88:Generated_Source\PSoC5/ErikaOS_1_cortex_mx_ee_cpu.inc **** #ifndef EE_TRUE
ARM GAS  C:\Users\schmi\AppData\Local\Temp\ccHoEDzi.s 			page 3


  89:Generated_Source\PSoC5/ErikaOS_1_cortex_mx_ee_cpu.inc **** #define EE_TRUE ((EE_TYPEBOOL)1U)
  90:Generated_Source\PSoC5/ErikaOS_1_cortex_mx_ee_cpu.inc **** #endif
  91:Generated_Source\PSoC5/ErikaOS_1_cortex_mx_ee_cpu.inc **** 
  92:Generated_Source\PSoC5/ErikaOS_1_cortex_mx_ee_cpu.inc **** /* boolean false define */
  93:Generated_Source\PSoC5/ErikaOS_1_cortex_mx_ee_cpu.inc **** #ifndef EE_FALSE
  94:Generated_Source\PSoC5/ErikaOS_1_cortex_mx_ee_cpu.inc **** #define EE_FALSE ((EE_TYPEBOOL)0U)
  95:Generated_Source\PSoC5/ErikaOS_1_cortex_mx_ee_cpu.inc **** #endif
  96:Generated_Source\PSoC5/ErikaOS_1_cortex_mx_ee_cpu.inc **** 
  97:Generated_Source\PSoC5/ErikaOS_1_cortex_mx_ee_cpu.inc **** #define	EE_HWREG_PTR		volatile EE_UREG *
  98:Generated_Source\PSoC5/ErikaOS_1_cortex_mx_ee_cpu.inc **** #define	EE_HWREG_ADDR(x)	((EE_HWREG_PTR)(x))
  99:Generated_Source\PSoC5/ErikaOS_1_cortex_mx_ee_cpu.inc **** #define	EE_HWREG(x)		(*EE_HWREG_ADDR(x))
 100:Generated_Source\PSoC5/ErikaOS_1_cortex_mx_ee_cpu.inc **** 
 101:Generated_Source\PSoC5/ErikaOS_1_cortex_mx_ee_cpu.inc **** #ifdef __GNU__
 102:Generated_Source\PSoC5/ErikaOS_1_cortex_mx_ee_cpu.inc **** 
 103:Generated_Source\PSoC5/ErikaOS_1_cortex_mx_ee_cpu.inc **** /* Get current SP */
 104:Generated_Source\PSoC5/ErikaOS_1_cortex_mx_ee_cpu.inc **** __INLINE__ EE_UINT32  __current_sp(void)
 105:Generated_Source\PSoC5/ErikaOS_1_cortex_mx_ee_cpu.inc **** {
 106:Generated_Source\PSoC5/ErikaOS_1_cortex_mx_ee_cpu.inc **** EE_UINT32 temp;
 107:Generated_Source\PSoC5/ErikaOS_1_cortex_mx_ee_cpu.inc **** __ASM ("mov %0, sp" : "=r" (temp) : );
 108:Generated_Source\PSoC5/ErikaOS_1_cortex_mx_ee_cpu.inc **** return temp;
 109:Generated_Source\PSoC5/ErikaOS_1_cortex_mx_ee_cpu.inc **** }
 110:Generated_Source\PSoC5/ErikaOS_1_cortex_mx_ee_cpu.inc **** 
 111:Generated_Source\PSoC5/ErikaOS_1_cortex_mx_ee_cpu.inc **** /* Set a breakpoint */
 112:Generated_Source\PSoC5/ErikaOS_1_cortex_mx_ee_cpu.inc **** #define __breakpoint(value)	__ASM ("bkpt "#value)
 113:Generated_Source\PSoC5/ErikaOS_1_cortex_mx_ee_cpu.inc **** 
 114:Generated_Source\PSoC5/ErikaOS_1_cortex_mx_ee_cpu.inc **** #endif
 115:Generated_Source\PSoC5/ErikaOS_1_cortex_mx_ee_cpu.inc **** 
 116:Generated_Source\PSoC5/ErikaOS_1_cortex_mx_ee_cpu.inc **** /* ISR Priority representation type */
 117:Generated_Source\PSoC5/ErikaOS_1_cortex_mx_ee_cpu.inc **** typedef EE_UREG EE_TYPEISR2PRIO;
 118:Generated_Source\PSoC5/ErikaOS_1_cortex_mx_ee_cpu.inc **** 
 119:Generated_Source\PSoC5/ErikaOS_1_cortex_mx_ee_cpu.inc **** /* Thread IDs */
 120:Generated_Source\PSoC5/ErikaOS_1_cortex_mx_ee_cpu.inc **** typedef EE_INT32 EE_TID;
 121:Generated_Source\PSoC5/ErikaOS_1_cortex_mx_ee_cpu.inc **** 
 122:Generated_Source\PSoC5/ErikaOS_1_cortex_mx_ee_cpu.inc **** /* Thread IDs - unsigned version*/
 123:Generated_Source\PSoC5/ErikaOS_1_cortex_mx_ee_cpu.inc **** typedef EE_UINT32 EE_UTID;
 124:Generated_Source\PSoC5/ErikaOS_1_cortex_mx_ee_cpu.inc **** 
 125:Generated_Source\PSoC5/ErikaOS_1_cortex_mx_ee_cpu.inc **** /* Used by the common layer to decide whether to start a new thread */
 126:Generated_Source\PSoC5/ErikaOS_1_cortex_mx_ee_cpu.inc **** #define TID_IS_STACKED_MARK 0x80000000
 127:Generated_Source\PSoC5/ErikaOS_1_cortex_mx_ee_cpu.inc **** 
 128:Generated_Source\PSoC5/ErikaOS_1_cortex_mx_ee_cpu.inc **** /* EE_TYPEIRQ is currently unused */
 129:Generated_Source\PSoC5/ErikaOS_1_cortex_mx_ee_cpu.inc **** 
 130:Generated_Source\PSoC5/ErikaOS_1_cortex_mx_ee_cpu.inc **** /* XXX: define EE_TIME? */
 131:Generated_Source\PSoC5/ErikaOS_1_cortex_mx_ee_cpu.inc **** 
 132:Generated_Source\PSoC5/ErikaOS_1_cortex_mx_ee_cpu.inc **** /* Use the "standard" implementation */
 133:Generated_Source\PSoC5/ErikaOS_1_cortex_mx_ee_cpu.inc **** #include "ErikaOS_1_common_ee_hal_structs.inc"
 134:Generated_Source\PSoC5/ErikaOS_1_cortex_mx_ee_cpu.inc **** 
 135:Generated_Source\PSoC5/ErikaOS_1_cortex_mx_ee_cpu.inc **** /******************************************************************************
 136:Generated_Source\PSoC5/ErikaOS_1_cortex_mx_ee_cpu.inc ****  Application dependent data types
 137:Generated_Source\PSoC5/ErikaOS_1_cortex_mx_ee_cpu.inc ****  ******************************************************************************/
 138:Generated_Source\PSoC5/ErikaOS_1_cortex_mx_ee_cpu.inc **** 
 139:Generated_Source\PSoC5/ErikaOS_1_cortex_mx_ee_cpu.inc **** #ifdef	__HAS_TYPES_H__
 140:Generated_Source\PSoC5/ErikaOS_1_cortex_mx_ee_cpu.inc **** #include	"types.h"
 141:Generated_Source\PSoC5/ErikaOS_1_cortex_mx_ee_cpu.inc **** #endif
 142:Generated_Source\PSoC5/ErikaOS_1_cortex_mx_ee_cpu.inc **** 
 143:Generated_Source\PSoC5/ErikaOS_1_cortex_mx_ee_cpu.inc **** /******************************************************************************
 144:Generated_Source\PSoC5/ErikaOS_1_cortex_mx_ee_cpu.inc ****  CPU Peripherals
 145:Generated_Source\PSoC5/ErikaOS_1_cortex_mx_ee_cpu.inc ****  ******************************************************************************/
ARM GAS  C:\Users\schmi\AppData\Local\Temp\ccHoEDzi.s 			page 4


 146:Generated_Source\PSoC5/ErikaOS_1_cortex_mx_ee_cpu.inc **** 
 147:Generated_Source\PSoC5/ErikaOS_1_cortex_mx_ee_cpu.inc **** #ifdef __CORTEX_MX__
 148:Generated_Source\PSoC5/ErikaOS_1_cortex_mx_ee_cpu.inc **** #include "ErikaOS_1_cortex_mx_ee_nvic.inc"
 149:Generated_Source\PSoC5/ErikaOS_1_cortex_mx_ee_cpu.inc **** #include "ErikaOS_1_cortex_mx_ee_systick.inc"
 150:Generated_Source\PSoC5/ErikaOS_1_cortex_mx_ee_cpu.inc **** #endif
 151:Generated_Source\PSoC5/ErikaOS_1_cortex_mx_ee_cpu.inc **** 
 152:Generated_Source\PSoC5/ErikaOS_1_cortex_mx_ee_cpu.inc **** /******************************************************************************
 153:Generated_Source\PSoC5/ErikaOS_1_cortex_mx_ee_cpu.inc ****  HAL Variables
 154:Generated_Source\PSoC5/ErikaOS_1_cortex_mx_ee_cpu.inc ****  ******************************************************************************/
 155:Generated_Source\PSoC5/ErikaOS_1_cortex_mx_ee_cpu.inc **** 
 156:Generated_Source\PSoC5/ErikaOS_1_cortex_mx_ee_cpu.inc **** #ifdef __MULTI__
 157:Generated_Source\PSoC5/ErikaOS_1_cortex_mx_ee_cpu.inc **** 
 158:Generated_Source\PSoC5/ErikaOS_1_cortex_mx_ee_cpu.inc **** /* Top-of-stack of each private stack */
 159:Generated_Source\PSoC5/ErikaOS_1_cortex_mx_ee_cpu.inc **** extern struct EE_TOS EE_cortex_mx_system_tos[];
 160:Generated_Source\PSoC5/ErikaOS_1_cortex_mx_ee_cpu.inc **** //#define	EE_std_system_tos EE_cortex_mx_system_tos
 161:Generated_Source\PSoC5/ErikaOS_1_cortex_mx_ee_cpu.inc **** 
 162:Generated_Source\PSoC5/ErikaOS_1_cortex_mx_ee_cpu.inc **** /* Index of the current stack */
 163:Generated_Source\PSoC5/ErikaOS_1_cortex_mx_ee_cpu.inc **** extern EE_UREG EE_cortex_mx_active_tos;
 164:Generated_Source\PSoC5/ErikaOS_1_cortex_mx_ee_cpu.inc **** #define	EE_hal_active_tos EE_cortex_mx_active_tos
 165:Generated_Source\PSoC5/ErikaOS_1_cortex_mx_ee_cpu.inc **** 
 166:Generated_Source\PSoC5/ErikaOS_1_cortex_mx_ee_cpu.inc **** /*extern	EE_UREG EE_pic30_thread_tos[];
 167:Generated_Source\PSoC5/ErikaOS_1_cortex_mx_ee_cpu.inc **** #define	EE_std_thread_tos EE_pic30_thread_tos */
 168:Generated_Source\PSoC5/ErikaOS_1_cortex_mx_ee_cpu.inc **** #endif /* __MULTI__ */
 169:Generated_Source\PSoC5/ErikaOS_1_cortex_mx_ee_cpu.inc **** 
 170:Generated_Source\PSoC5/ErikaOS_1_cortex_mx_ee_cpu.inc **** /*********************************************************************
 171:Generated_Source\PSoC5/ErikaOS_1_cortex_mx_ee_cpu.inc ****  Cortex M0 interrupt disabling/enabling
 172:Generated_Source\PSoC5/ErikaOS_1_cortex_mx_ee_cpu.inc ****  *********************************************************************/
 173:Generated_Source\PSoC5/ErikaOS_1_cortex_mx_ee_cpu.inc **** 
 174:Generated_Source\PSoC5/ErikaOS_1_cortex_mx_ee_cpu.inc **** /* Used to check the value returned by EE_cortex_mx_disableIRQ */
 175:Generated_Source\PSoC5/ErikaOS_1_cortex_mx_ee_cpu.inc **** #define EE_cortex_mx_are_IRQs_enabled(ie) ((ie) ^ 1)
 176:Generated_Source\PSoC5/ErikaOS_1_cortex_mx_ee_cpu.inc **** 
 177:Generated_Source\PSoC5/ErikaOS_1_cortex_mx_ee_cpu.inc **** /**
 178:Generated_Source\PSoC5/ErikaOS_1_cortex_mx_ee_cpu.inc ****  * Enable interrupts
 179:Generated_Source\PSoC5/ErikaOS_1_cortex_mx_ee_cpu.inc ****  */
 180:Generated_Source\PSoC5/ErikaOS_1_cortex_mx_ee_cpu.inc **** __INLINE__ void  EE_cortex_mx_enableIRQ(void)
 181:Generated_Source\PSoC5/ErikaOS_1_cortex_mx_ee_cpu.inc **** {
 182:Generated_Source\PSoC5/ErikaOS_1_cortex_mx_ee_cpu.inc **** #ifdef __IAR__
 183:Generated_Source\PSoC5/ErikaOS_1_cortex_mx_ee_cpu.inc **** 	__ASM ("cpsie i");
 184:Generated_Source\PSoC5/ErikaOS_1_cortex_mx_ee_cpu.inc **** #else	/* __IAR__ */
 185:Generated_Source\PSoC5/ErikaOS_1_cortex_mx_ee_cpu.inc **** #ifdef __CCS__
 186:Generated_Source\PSoC5/ErikaOS_1_cortex_mx_ee_cpu.inc **** 	__ASM ("    cpsie    i\n");
 187:Generated_Source\PSoC5/ErikaOS_1_cortex_mx_ee_cpu.inc **** #else	/* __CCS__ */
 188:Generated_Source\PSoC5/ErikaOS_1_cortex_mx_ee_cpu.inc **** #ifdef __KEIL__
 189:Generated_Source\PSoC5/ErikaOS_1_cortex_mx_ee_cpu.inc **** 	__enable_irq();
 190:Generated_Source\PSoC5/ErikaOS_1_cortex_mx_ee_cpu.inc **** #else	/* __KEIL__ */
 191:Generated_Source\PSoC5/ErikaOS_1_cortex_mx_ee_cpu.inc **** 	__ASM volatile("cpsie i");
 192:Generated_Source\PSoC5/ErikaOS_1_cortex_mx_ee_cpu.inc **** #endif	/* !__KEIL__ */
 193:Generated_Source\PSoC5/ErikaOS_1_cortex_mx_ee_cpu.inc **** #endif	/* !__CCS__ */
 194:Generated_Source\PSoC5/ErikaOS_1_cortex_mx_ee_cpu.inc **** #endif	/* !__IAR__ */
 195:Generated_Source\PSoC5/ErikaOS_1_cortex_mx_ee_cpu.inc **** }
 196:Generated_Source\PSoC5/ErikaOS_1_cortex_mx_ee_cpu.inc **** 
 197:Generated_Source\PSoC5/ErikaOS_1_cortex_mx_ee_cpu.inc **** /**
 198:Generated_Source\PSoC5/ErikaOS_1_cortex_mx_ee_cpu.inc ****  * Disable interrupts
 199:Generated_Source\PSoC5/ErikaOS_1_cortex_mx_ee_cpu.inc ****  */
 200:Generated_Source\PSoC5/ErikaOS_1_cortex_mx_ee_cpu.inc **** __INLINE__ void  EE_cortex_mx_disableIRQ(void)
 201:Generated_Source\PSoC5/ErikaOS_1_cortex_mx_ee_cpu.inc **** {
 202:Generated_Source\PSoC5/ErikaOS_1_cortex_mx_ee_cpu.inc **** #ifdef __IAR__
ARM GAS  C:\Users\schmi\AppData\Local\Temp\ccHoEDzi.s 			page 5


 203:Generated_Source\PSoC5/ErikaOS_1_cortex_mx_ee_cpu.inc **** 	__ASM ("cpsid i");
 204:Generated_Source\PSoC5/ErikaOS_1_cortex_mx_ee_cpu.inc **** #else	/* __IAR__ */
 205:Generated_Source\PSoC5/ErikaOS_1_cortex_mx_ee_cpu.inc **** #ifdef __CCS__
 206:Generated_Source\PSoC5/ErikaOS_1_cortex_mx_ee_cpu.inc **** 	__ASM ("    cpsid    i\n");
 207:Generated_Source\PSoC5/ErikaOS_1_cortex_mx_ee_cpu.inc **** #else	/* __CCS__ */
 208:Generated_Source\PSoC5/ErikaOS_1_cortex_mx_ee_cpu.inc **** #ifdef __KEIL__
 209:Generated_Source\PSoC5/ErikaOS_1_cortex_mx_ee_cpu.inc **** 	__disable_irq();
 210:Generated_Source\PSoC5/ErikaOS_1_cortex_mx_ee_cpu.inc **** #else	/* __KEIL__ */
 211:Generated_Source\PSoC5/ErikaOS_1_cortex_mx_ee_cpu.inc **** 	__ASM volatile("cpsid i");
 212:Generated_Source\PSoC5/ErikaOS_1_cortex_mx_ee_cpu.inc **** #endif	/* !__KEIL__ */
 213:Generated_Source\PSoC5/ErikaOS_1_cortex_mx_ee_cpu.inc **** #endif	/* !__CCS__ */
 214:Generated_Source\PSoC5/ErikaOS_1_cortex_mx_ee_cpu.inc **** #endif	/* !__IAR__ */
 215:Generated_Source\PSoC5/ErikaOS_1_cortex_mx_ee_cpu.inc **** }
 216:Generated_Source\PSoC5/ErikaOS_1_cortex_mx_ee_cpu.inc **** 
 217:Generated_Source\PSoC5/ErikaOS_1_cortex_mx_ee_cpu.inc **** /**
 218:Generated_Source\PSoC5/ErikaOS_1_cortex_mx_ee_cpu.inc ****  * Resume interrupts
 219:Generated_Source\PSoC5/ErikaOS_1_cortex_mx_ee_cpu.inc ****  */
 220:Generated_Source\PSoC5/ErikaOS_1_cortex_mx_ee_cpu.inc **** __INLINE__ void  EE_cortex_mx_resumeIRQ(EE_FREG f)
 221:Generated_Source\PSoC5/ErikaOS_1_cortex_mx_ee_cpu.inc **** {
  27              		.loc 1 221 0
  28              		.cfi_startproc
  29              		@ args = 0, pretend = 0, frame = 8
  30              		@ frame_needed = 1, uses_anonymous_args = 0
  31              		@ link register save eliminated.
  32 0000 80B4     		push	{r7}
  33              		.cfi_def_cfa_offset 4
  34              		.cfi_offset 7, -4
  35 0002 83B0     		sub	sp, sp, #12
  36              		.cfi_def_cfa_offset 16
  37 0004 00AF     		add	r7, sp, #0
  38              		.cfi_def_cfa_register 7
  39 0006 7860     		str	r0, [r7, #4]
 222:Generated_Source\PSoC5/ErikaOS_1_cortex_mx_ee_cpu.inc **** #ifdef __IAR__
 223:Generated_Source\PSoC5/ErikaOS_1_cortex_mx_ee_cpu.inc **** 	__set_PRIMASK(f);
 224:Generated_Source\PSoC5/ErikaOS_1_cortex_mx_ee_cpu.inc **** #else	/* __IAR__ */
 225:Generated_Source\PSoC5/ErikaOS_1_cortex_mx_ee_cpu.inc **** #ifdef __CCS__
 226:Generated_Source\PSoC5/ErikaOS_1_cortex_mx_ee_cpu.inc **** 	__ASM ("    msr    primask, r0\n");
 227:Generated_Source\PSoC5/ErikaOS_1_cortex_mx_ee_cpu.inc **** #else	/* __CCS__ */
 228:Generated_Source\PSoC5/ErikaOS_1_cortex_mx_ee_cpu.inc **** #ifdef __KEIL__
 229:Generated_Source\PSoC5/ErikaOS_1_cortex_mx_ee_cpu.inc **** 	register EE_FREG PRIMASK __ASM("primask");
 230:Generated_Source\PSoC5/ErikaOS_1_cortex_mx_ee_cpu.inc **** 	PRIMASK = f;
 231:Generated_Source\PSoC5/ErikaOS_1_cortex_mx_ee_cpu.inc **** #else	/* __KEIL__ */
 232:Generated_Source\PSoC5/ErikaOS_1_cortex_mx_ee_cpu.inc **** 	__ASM volatile("msr primask, %0" :: "r" (f));
  40              		.loc 1 232 0
  41 0008 7B68     		ldr	r3, [r7, #4]
  42              		.syntax unified
  43              	@ 232 "Generated_Source\PSoC5\ErikaOS_1_cortex_mx_ee_cpu.inc" 1
  44 000a 83F31088 		msr primask, r3
  45              	@ 0 "" 2
 233:Generated_Source\PSoC5/ErikaOS_1_cortex_mx_ee_cpu.inc **** #endif	/* !__KEIL__ */
 234:Generated_Source\PSoC5/ErikaOS_1_cortex_mx_ee_cpu.inc **** #endif	/* !__CCS__ */
 235:Generated_Source\PSoC5/ErikaOS_1_cortex_mx_ee_cpu.inc **** #endif	/* !__IAR__ */
 236:Generated_Source\PSoC5/ErikaOS_1_cortex_mx_ee_cpu.inc **** }
  46              		.loc 1 236 0
  47              		.thumb
  48              		.syntax unified
  49 000e 00BF     		nop
ARM GAS  C:\Users\schmi\AppData\Local\Temp\ccHoEDzi.s 			page 6


  50 0010 0C37     		adds	r7, r7, #12
  51              		.cfi_def_cfa_offset 4
  52 0012 BD46     		mov	sp, r7
  53              		.cfi_def_cfa_register 13
  54              		@ sp needed
  55 0014 80BC     		pop	{r7}
  56              		.cfi_restore 7
  57              		.cfi_def_cfa_offset 0
  58 0016 7047     		bx	lr
  59              		.cfi_endproc
  60              	.LFE11:
  61              		.size	EE_cortex_mx_resumeIRQ, .-EE_cortex_mx_resumeIRQ
  62              		.section	.text.EE_cortex_mx_suspendIRQ,"ax",%progbits
  63              		.align	2
  64              		.thumb
  65              		.thumb_func
  66              		.type	EE_cortex_mx_suspendIRQ, %function
  67              	EE_cortex_mx_suspendIRQ:
  68              	.LFB12:
 237:Generated_Source\PSoC5/ErikaOS_1_cortex_mx_ee_cpu.inc **** 
 238:Generated_Source\PSoC5/ErikaOS_1_cortex_mx_ee_cpu.inc **** /**
 239:Generated_Source\PSoC5/ErikaOS_1_cortex_mx_ee_cpu.inc ****  * Suspend interrupts
 240:Generated_Source\PSoC5/ErikaOS_1_cortex_mx_ee_cpu.inc ****  */
 241:Generated_Source\PSoC5/ErikaOS_1_cortex_mx_ee_cpu.inc **** __INLINE__ EE_FREG  EE_cortex_mx_suspendIRQ(void)
 242:Generated_Source\PSoC5/ErikaOS_1_cortex_mx_ee_cpu.inc **** {
  69              		.loc 1 242 0
  70              		.cfi_startproc
  71              		@ args = 0, pretend = 0, frame = 8
  72              		@ frame_needed = 1, uses_anonymous_args = 0
  73              		@ link register save eliminated.
  74 0000 80B4     		push	{r7}
  75              		.cfi_def_cfa_offset 4
  76              		.cfi_offset 7, -4
  77 0002 83B0     		sub	sp, sp, #12
  78              		.cfi_def_cfa_offset 16
  79 0004 00AF     		add	r7, sp, #0
  80              		.cfi_def_cfa_register 7
 243:Generated_Source\PSoC5/ErikaOS_1_cortex_mx_ee_cpu.inc **** #ifndef __CCS__
 244:Generated_Source\PSoC5/ErikaOS_1_cortex_mx_ee_cpu.inc **** 	EE_FREG istat;
 245:Generated_Source\PSoC5/ErikaOS_1_cortex_mx_ee_cpu.inc **** #endif
 246:Generated_Source\PSoC5/ErikaOS_1_cortex_mx_ee_cpu.inc **** #ifdef __IAR__
 247:Generated_Source\PSoC5/ErikaOS_1_cortex_mx_ee_cpu.inc **** 	 istat = __get_PRIMASK();
 248:Generated_Source\PSoC5/ErikaOS_1_cortex_mx_ee_cpu.inc **** 	__ASM ("cpsid i");
 249:Generated_Source\PSoC5/ErikaOS_1_cortex_mx_ee_cpu.inc **** #else	/* __IAR__ */
 250:Generated_Source\PSoC5/ErikaOS_1_cortex_mx_ee_cpu.inc **** #ifdef __CCS__
 251:Generated_Source\PSoC5/ErikaOS_1_cortex_mx_ee_cpu.inc **** 	__ASM ("    mrs     r0, primask\n"
 252:Generated_Source\PSoC5/ErikaOS_1_cortex_mx_ee_cpu.inc **** 	       "    cpsid   i\n"
 253:Generated_Source\PSoC5/ErikaOS_1_cortex_mx_ee_cpu.inc **** 	       "    bx      lr\n");
 254:Generated_Source\PSoC5/ErikaOS_1_cortex_mx_ee_cpu.inc **** #else	/* __CCS__ */
 255:Generated_Source\PSoC5/ErikaOS_1_cortex_mx_ee_cpu.inc **** #ifdef __KEIL__
 256:Generated_Source\PSoC5/ErikaOS_1_cortex_mx_ee_cpu.inc **** 	register EE_FREG PRIMASK __ASM("primask");
 257:Generated_Source\PSoC5/ErikaOS_1_cortex_mx_ee_cpu.inc **** 	istat = PRIMASK;
 258:Generated_Source\PSoC5/ErikaOS_1_cortex_mx_ee_cpu.inc **** 	__disable_irq();
 259:Generated_Source\PSoC5/ErikaOS_1_cortex_mx_ee_cpu.inc **** #else	/* __KEIL__ */
 260:Generated_Source\PSoC5/ErikaOS_1_cortex_mx_ee_cpu.inc **** 	__ASM volatile ("mrs %0, primask" : "=r" (istat) );
  81              		.loc 1 260 0
  82              		.syntax unified
ARM GAS  C:\Users\schmi\AppData\Local\Temp\ccHoEDzi.s 			page 7


  83              	@ 260 "Generated_Source\PSoC5\ErikaOS_1_cortex_mx_ee_cpu.inc" 1
  84 0006 EFF31083 		mrs r3, primask
  85              	@ 0 "" 2
  86              		.thumb
  87              		.syntax unified
  88 000a 7B60     		str	r3, [r7, #4]
 261:Generated_Source\PSoC5/ErikaOS_1_cortex_mx_ee_cpu.inc **** 	__ASM volatile ("cpsid i");
  89              		.loc 1 261 0
  90              		.syntax unified
  91              	@ 261 "Generated_Source\PSoC5\ErikaOS_1_cortex_mx_ee_cpu.inc" 1
  92 000c 72B6     		cpsid i
  93              	@ 0 "" 2
 262:Generated_Source\PSoC5/ErikaOS_1_cortex_mx_ee_cpu.inc **** #endif	/* !__KEIL__ */
 263:Generated_Source\PSoC5/ErikaOS_1_cortex_mx_ee_cpu.inc **** #endif	/* !__CCS__ */
 264:Generated_Source\PSoC5/ErikaOS_1_cortex_mx_ee_cpu.inc **** #endif	/* !__IAR__ */
 265:Generated_Source\PSoC5/ErikaOS_1_cortex_mx_ee_cpu.inc **** #ifdef __CCS__
 266:Generated_Source\PSoC5/ErikaOS_1_cortex_mx_ee_cpu.inc **** 	return 0;
 267:Generated_Source\PSoC5/ErikaOS_1_cortex_mx_ee_cpu.inc **** #else
 268:Generated_Source\PSoC5/ErikaOS_1_cortex_mx_ee_cpu.inc **** 	return istat;
  94              		.loc 1 268 0
  95              		.thumb
  96              		.syntax unified
  97 000e 7B68     		ldr	r3, [r7, #4]
 269:Generated_Source\PSoC5/ErikaOS_1_cortex_mx_ee_cpu.inc **** #endif
 270:Generated_Source\PSoC5/ErikaOS_1_cortex_mx_ee_cpu.inc **** }
  98              		.loc 1 270 0
  99 0010 1846     		mov	r0, r3
 100 0012 0C37     		adds	r7, r7, #12
 101              		.cfi_def_cfa_offset 4
 102 0014 BD46     		mov	sp, r7
 103              		.cfi_def_cfa_register 13
 104              		@ sp needed
 105 0016 80BC     		pop	{r7}
 106              		.cfi_restore 7
 107              		.cfi_def_cfa_offset 0
 108 0018 7047     		bx	lr
 109              		.cfi_endproc
 110              	.LFE12:
 111              		.size	EE_cortex_mx_suspendIRQ, .-EE_cortex_mx_suspendIRQ
 112              		.section	.text.EE_hal_resumeIRQ,"ax",%progbits
 113              		.align	2
 114              		.thumb
 115              		.thumb_func
 116              		.type	EE_hal_resumeIRQ, %function
 117              	EE_hal_resumeIRQ:
 118              	.LFB19:
 271:Generated_Source\PSoC5/ErikaOS_1_cortex_mx_ee_cpu.inc **** 
 272:Generated_Source\PSoC5/ErikaOS_1_cortex_mx_ee_cpu.inc **** /**
 273:Generated_Source\PSoC5/ErikaOS_1_cortex_mx_ee_cpu.inc ****  * Return true (not 0) if IRQs are enabled, 0 (false) if IRQ are disabled.
 274:Generated_Source\PSoC5/ErikaOS_1_cortex_mx_ee_cpu.inc ****  */
 275:Generated_Source\PSoC5/ErikaOS_1_cortex_mx_ee_cpu.inc **** __INLINE__ EE_UINT32  EE_cortex_mx_get_IRQ_enabled(void)
 276:Generated_Source\PSoC5/ErikaOS_1_cortex_mx_ee_cpu.inc **** {
 277:Generated_Source\PSoC5/ErikaOS_1_cortex_mx_ee_cpu.inc **** #ifndef __CCS__
 278:Generated_Source\PSoC5/ErikaOS_1_cortex_mx_ee_cpu.inc **** 	EE_UREG ie;
 279:Generated_Source\PSoC5/ErikaOS_1_cortex_mx_ee_cpu.inc **** #endif
 280:Generated_Source\PSoC5/ErikaOS_1_cortex_mx_ee_cpu.inc **** #ifdef __IAR__
 281:Generated_Source\PSoC5/ErikaOS_1_cortex_mx_ee_cpu.inc **** 	ie = __get_PRIMASK();
ARM GAS  C:\Users\schmi\AppData\Local\Temp\ccHoEDzi.s 			page 8


 282:Generated_Source\PSoC5/ErikaOS_1_cortex_mx_ee_cpu.inc **** #else	/* __IAR__ */
 283:Generated_Source\PSoC5/ErikaOS_1_cortex_mx_ee_cpu.inc **** #ifdef __CCS__
 284:Generated_Source\PSoC5/ErikaOS_1_cortex_mx_ee_cpu.inc **** 	__ASM ("    MRS     r0, PRIMASK\n"
 285:Generated_Source\PSoC5/ErikaOS_1_cortex_mx_ee_cpu.inc **** 	       "    EOR     r0, #1\n"
 286:Generated_Source\PSoC5/ErikaOS_1_cortex_mx_ee_cpu.inc **** 	       "    bx      lr\n");
 287:Generated_Source\PSoC5/ErikaOS_1_cortex_mx_ee_cpu.inc **** #else	/* __CCS__ */
 288:Generated_Source\PSoC5/ErikaOS_1_cortex_mx_ee_cpu.inc **** #ifdef __KEIL__
 289:Generated_Source\PSoC5/ErikaOS_1_cortex_mx_ee_cpu.inc **** 	register EE_FREG PRIMASK __ASM("primask");
 290:Generated_Source\PSoC5/ErikaOS_1_cortex_mx_ee_cpu.inc **** 	ie = PRIMASK;
 291:Generated_Source\PSoC5/ErikaOS_1_cortex_mx_ee_cpu.inc **** #else	/* __KEIL__ */
 292:Generated_Source\PSoC5/ErikaOS_1_cortex_mx_ee_cpu.inc **** 	__ASM volatile ("MRS %0, primask" : "=r" (ie) );
 293:Generated_Source\PSoC5/ErikaOS_1_cortex_mx_ee_cpu.inc **** #endif	/* !__KEIL__ */
 294:Generated_Source\PSoC5/ErikaOS_1_cortex_mx_ee_cpu.inc **** #endif	/* !__CCS__ */
 295:Generated_Source\PSoC5/ErikaOS_1_cortex_mx_ee_cpu.inc **** #endif	/* !__IAR__ */
 296:Generated_Source\PSoC5/ErikaOS_1_cortex_mx_ee_cpu.inc **** #ifdef __CCS__
 297:Generated_Source\PSoC5/ErikaOS_1_cortex_mx_ee_cpu.inc **** 	return 0;
 298:Generated_Source\PSoC5/ErikaOS_1_cortex_mx_ee_cpu.inc **** #else
 299:Generated_Source\PSoC5/ErikaOS_1_cortex_mx_ee_cpu.inc **** 	return EE_cortex_mx_are_IRQs_enabled(ie);
 300:Generated_Source\PSoC5/ErikaOS_1_cortex_mx_ee_cpu.inc **** #endif
 301:Generated_Source\PSoC5/ErikaOS_1_cortex_mx_ee_cpu.inc **** }
 302:Generated_Source\PSoC5/ErikaOS_1_cortex_mx_ee_cpu.inc **** 
 303:Generated_Source\PSoC5/ErikaOS_1_cortex_mx_ee_cpu.inc **** __INLINE__ EE_TYPEISR2PRIO  EE_cortex_mx_get_int_prio(void)
 304:Generated_Source\PSoC5/ErikaOS_1_cortex_mx_ee_cpu.inc **** {
 305:Generated_Source\PSoC5/ErikaOS_1_cortex_mx_ee_cpu.inc **** #ifdef __CORTEX_M4__
 306:Generated_Source\PSoC5/ErikaOS_1_cortex_mx_ee_cpu.inc **** 
 307:Generated_Source\PSoC5/ErikaOS_1_cortex_mx_ee_cpu.inc **** #ifndef __CCS__
 308:Generated_Source\PSoC5/ErikaOS_1_cortex_mx_ee_cpu.inc **** 	register EE_UREG prio;
 309:Generated_Source\PSoC5/ErikaOS_1_cortex_mx_ee_cpu.inc **** #ifdef	__KEIL__
 310:Generated_Source\PSoC5/ErikaOS_1_cortex_mx_ee_cpu.inc **** 	register EE_FREG BASEPRI __ASM("basepri");
 311:Generated_Source\PSoC5/ErikaOS_1_cortex_mx_ee_cpu.inc **** #endif
 312:Generated_Source\PSoC5/ErikaOS_1_cortex_mx_ee_cpu.inc **** 
 313:Generated_Source\PSoC5/ErikaOS_1_cortex_mx_ee_cpu.inc **** #endif
 314:Generated_Source\PSoC5/ErikaOS_1_cortex_mx_ee_cpu.inc **** 
 315:Generated_Source\PSoC5/ErikaOS_1_cortex_mx_ee_cpu.inc **** #ifdef __CCS__
 316:Generated_Source\PSoC5/ErikaOS_1_cortex_mx_ee_cpu.inc **** 	/* NVIC_INT_PRI_S = 5 */
 317:Generated_Source\PSoC5/ErikaOS_1_cortex_mx_ee_cpu.inc **** 	__ASM ("    MRS     R0, BASEPRI\n"
 318:Generated_Source\PSoC5/ErikaOS_1_cortex_mx_ee_cpu.inc **** 	       "    ASR     R0, #5\n"
 319:Generated_Source\PSoC5/ErikaOS_1_cortex_mx_ee_cpu.inc **** 	       "    BLX     LR\n");
 320:Generated_Source\PSoC5/ErikaOS_1_cortex_mx_ee_cpu.inc **** #else	/* __CCS__ */
 321:Generated_Source\PSoC5/ErikaOS_1_cortex_mx_ee_cpu.inc **** #ifdef __KEIL__
 322:Generated_Source\PSoC5/ErikaOS_1_cortex_mx_ee_cpu.inc **** 	prio = BASEPRI;
 323:Generated_Source\PSoC5/ErikaOS_1_cortex_mx_ee_cpu.inc **** #else	/* __KEIL__ */
 324:Generated_Source\PSoC5/ErikaOS_1_cortex_mx_ee_cpu.inc **** #ifdef __GNU__
 325:Generated_Source\PSoC5/ErikaOS_1_cortex_mx_ee_cpu.inc **** 	__ASM volatile("MRS %0, BASEPRI" : "=r" (prio) :: );
 326:Generated_Source\PSoC5/ErikaOS_1_cortex_mx_ee_cpu.inc **** #else
 327:Generated_Source\PSoC5/ErikaOS_1_cortex_mx_ee_cpu.inc **** 	__ASM volatile("MRS %0, BASEPRI" :: "=r" (prio));
 328:Generated_Source\PSoC5/ErikaOS_1_cortex_mx_ee_cpu.inc **** #endif	/* !__GNU__ */
 329:Generated_Source\PSoC5/ErikaOS_1_cortex_mx_ee_cpu.inc **** #endif	/* !__KEIL__ */
 330:Generated_Source\PSoC5/ErikaOS_1_cortex_mx_ee_cpu.inc **** #endif	/* !__CCS__ */
 331:Generated_Source\PSoC5/ErikaOS_1_cortex_mx_ee_cpu.inc **** 
 332:Generated_Source\PSoC5/ErikaOS_1_cortex_mx_ee_cpu.inc **** #ifdef __CCS__
 333:Generated_Source\PSoC5/ErikaOS_1_cortex_mx_ee_cpu.inc **** 	return 0;
 334:Generated_Source\PSoC5/ErikaOS_1_cortex_mx_ee_cpu.inc **** #else
 335:Generated_Source\PSoC5/ErikaOS_1_cortex_mx_ee_cpu.inc **** 	return prio >> NVIC_INT_PRI_S;
 336:Generated_Source\PSoC5/ErikaOS_1_cortex_mx_ee_cpu.inc **** #endif
 337:Generated_Source\PSoC5/ErikaOS_1_cortex_mx_ee_cpu.inc **** 
 338:Generated_Source\PSoC5/ErikaOS_1_cortex_mx_ee_cpu.inc **** #else	/* __CORTEX_M4__ */
ARM GAS  C:\Users\schmi\AppData\Local\Temp\ccHoEDzi.s 			page 9


 339:Generated_Source\PSoC5/ErikaOS_1_cortex_mx_ee_cpu.inc **** 	return 0;
 340:Generated_Source\PSoC5/ErikaOS_1_cortex_mx_ee_cpu.inc **** #endif	/* !__CORTEX_M4__ */
 341:Generated_Source\PSoC5/ErikaOS_1_cortex_mx_ee_cpu.inc **** }
 342:Generated_Source\PSoC5/ErikaOS_1_cortex_mx_ee_cpu.inc **** 
 343:Generated_Source\PSoC5/ErikaOS_1_cortex_mx_ee_cpu.inc **** __INLINE__ void  EE_cortex_mx_set_int_prio(
 344:Generated_Source\PSoC5/ErikaOS_1_cortex_mx_ee_cpu.inc ****   EE_TYPEISR2PRIO prio
 345:Generated_Source\PSoC5/ErikaOS_1_cortex_mx_ee_cpu.inc **** )
 346:Generated_Source\PSoC5/ErikaOS_1_cortex_mx_ee_cpu.inc **** {
 347:Generated_Source\PSoC5/ErikaOS_1_cortex_mx_ee_cpu.inc **** #ifdef __CORTEX_M4__
 348:Generated_Source\PSoC5/ErikaOS_1_cortex_mx_ee_cpu.inc **** #ifdef __CCS__
 349:Generated_Source\PSoC5/ErikaOS_1_cortex_mx_ee_cpu.inc **** 	/* NVIC_INT_PRI_S = 5 */
 350:Generated_Source\PSoC5/ErikaOS_1_cortex_mx_ee_cpu.inc **** 	__ASM ("    LSL    R0, #5\n"
 351:Generated_Source\PSoC5/ErikaOS_1_cortex_mx_ee_cpu.inc **** 	       "    MSR    BASEPRI, R0\n");
 352:Generated_Source\PSoC5/ErikaOS_1_cortex_mx_ee_cpu.inc **** #else	/* __CCS__ */
 353:Generated_Source\PSoC5/ErikaOS_1_cortex_mx_ee_cpu.inc **** #ifdef __KEIL__
 354:Generated_Source\PSoC5/ErikaOS_1_cortex_mx_ee_cpu.inc **** 	register EE_FREG BASEPRI __ASM("basepri");
 355:Generated_Source\PSoC5/ErikaOS_1_cortex_mx_ee_cpu.inc **** 	BASEPRI = (prio << NVIC_INT_PRI_S);
 356:Generated_Source\PSoC5/ErikaOS_1_cortex_mx_ee_cpu.inc **** #else	/* __KEIL__ */
 357:Generated_Source\PSoC5/ErikaOS_1_cortex_mx_ee_cpu.inc **** #ifdef __GNU__
 358:Generated_Source\PSoC5/ErikaOS_1_cortex_mx_ee_cpu.inc **** 	__ASM volatile("MSR BASEPRI, %0" :: "r" (prio << NVIC_INT_PRI_S) : );
 359:Generated_Source\PSoC5/ErikaOS_1_cortex_mx_ee_cpu.inc **** #else
 360:Generated_Source\PSoC5/ErikaOS_1_cortex_mx_ee_cpu.inc **** 	__ASM volatile("MSR BASEPRI, %0" :: "r" (prio << NVIC_INT_PRI_S));
 361:Generated_Source\PSoC5/ErikaOS_1_cortex_mx_ee_cpu.inc **** #endif	/* !__GNU__ */
 362:Generated_Source\PSoC5/ErikaOS_1_cortex_mx_ee_cpu.inc **** #endif	/* !__KEIL__ */
 363:Generated_Source\PSoC5/ErikaOS_1_cortex_mx_ee_cpu.inc **** #endif	/* !__CCS__ */
 364:Generated_Source\PSoC5/ErikaOS_1_cortex_mx_ee_cpu.inc **** #endif	/* __CORTEX_M4__ */
 365:Generated_Source\PSoC5/ErikaOS_1_cortex_mx_ee_cpu.inc **** }
 366:Generated_Source\PSoC5/ErikaOS_1_cortex_mx_ee_cpu.inc **** 
 367:Generated_Source\PSoC5/ErikaOS_1_cortex_mx_ee_cpu.inc **** __INLINE__ EE_TYPEISR2PRIO  EE_cortex_mx_get_isr_prio(
 368:Generated_Source\PSoC5/ErikaOS_1_cortex_mx_ee_cpu.inc ****   void
 369:Generated_Source\PSoC5/ErikaOS_1_cortex_mx_ee_cpu.inc **** )
 370:Generated_Source\PSoC5/ErikaOS_1_cortex_mx_ee_cpu.inc **** {
 371:Generated_Source\PSoC5/ErikaOS_1_cortex_mx_ee_cpu.inc **** #ifdef __CORTEX_M4__
 372:Generated_Source\PSoC5/ErikaOS_1_cortex_mx_ee_cpu.inc ****   register EE_UREG vectact = NVIC_INT_CTRL_R & NVIC_INT_CTRL_VEC_ACT_M;
 373:Generated_Source\PSoC5/ErikaOS_1_cortex_mx_ee_cpu.inc ****   register EE_TYPEISR2PRIO prio = 0;
 374:Generated_Source\PSoC5/ErikaOS_1_cortex_mx_ee_cpu.inc **** 
 375:Generated_Source\PSoC5/ErikaOS_1_cortex_mx_ee_cpu.inc ****   if (vectact > EE_CORTEX_MX_SYSTICK_EXC_NUM) {
 376:Generated_Source\PSoC5/ErikaOS_1_cortex_mx_ee_cpu.inc ****     vectact -= EE_CORTEX_MX_SYSTICK_EXC_NUM + 1;
 377:Generated_Source\PSoC5/ErikaOS_1_cortex_mx_ee_cpu.inc ****     prio = NVIC_GET_PRI(vectact);
 378:Generated_Source\PSoC5/ErikaOS_1_cortex_mx_ee_cpu.inc ****   }
 379:Generated_Source\PSoC5/ErikaOS_1_cortex_mx_ee_cpu.inc **** #ifdef	__USE_SYSTICK__
 380:Generated_Source\PSoC5/ErikaOS_1_cortex_mx_ee_cpu.inc ****   else if (vectact == EE_CORTEX_MX_SYSTICK_EXC_NUM) {
 381:Generated_Source\PSoC5/ErikaOS_1_cortex_mx_ee_cpu.inc ****     prio = NVIC_SYS_PRI3_R >> NVIC_SYS_PRI3_TICK_S;
 382:Generated_Source\PSoC5/ErikaOS_1_cortex_mx_ee_cpu.inc ****   }
 383:Generated_Source\PSoC5/ErikaOS_1_cortex_mx_ee_cpu.inc **** #endif
 384:Generated_Source\PSoC5/ErikaOS_1_cortex_mx_ee_cpu.inc **** #ifdef	__USE_SVC__
 385:Generated_Source\PSoC5/ErikaOS_1_cortex_mx_ee_cpu.inc ****   else if (vectact == EE_CORTEX_MX_SVCALL_EXC_NUM) {
 386:Generated_Source\PSoC5/ErikaOS_1_cortex_mx_ee_cpu.inc ****     prio = NVIC_SYS_PRI2_R >> NVIC_SYS_PRI2_SVC_S;
 387:Generated_Source\PSoC5/ErikaOS_1_cortex_mx_ee_cpu.inc ****   }
 388:Generated_Source\PSoC5/ErikaOS_1_cortex_mx_ee_cpu.inc **** #endif
 389:Generated_Source\PSoC5/ErikaOS_1_cortex_mx_ee_cpu.inc **** 
 390:Generated_Source\PSoC5/ErikaOS_1_cortex_mx_ee_cpu.inc ****   return prio;
 391:Generated_Source\PSoC5/ErikaOS_1_cortex_mx_ee_cpu.inc **** 
 392:Generated_Source\PSoC5/ErikaOS_1_cortex_mx_ee_cpu.inc **** #else	/* __CORTEX_M4__ */
 393:Generated_Source\PSoC5/ErikaOS_1_cortex_mx_ee_cpu.inc ****   return 0;
 394:Generated_Source\PSoC5/ErikaOS_1_cortex_mx_ee_cpu.inc **** #endif	/* !__CORTEX_M4__ */
 395:Generated_Source\PSoC5/ErikaOS_1_cortex_mx_ee_cpu.inc **** }
ARM GAS  C:\Users\schmi\AppData\Local\Temp\ccHoEDzi.s 			page 10


 396:Generated_Source\PSoC5/ErikaOS_1_cortex_mx_ee_cpu.inc **** 
 397:Generated_Source\PSoC5/ErikaOS_1_cortex_mx_ee_cpu.inc **** /*************************************************************************
 398:Generated_Source\PSoC5/ErikaOS_1_cortex_mx_ee_cpu.inc ****  Functions exported by the HAL to the kernel
 399:Generated_Source\PSoC5/ErikaOS_1_cortex_mx_ee_cpu.inc ****  *************************************************************************/
 400:Generated_Source\PSoC5/ErikaOS_1_cortex_mx_ee_cpu.inc **** 
 401:Generated_Source\PSoC5/ErikaOS_1_cortex_mx_ee_cpu.inc **** /* 
 402:Generated_Source\PSoC5/ErikaOS_1_cortex_mx_ee_cpu.inc ****  * Interrupt Handling
 403:Generated_Source\PSoC5/ErikaOS_1_cortex_mx_ee_cpu.inc ****  */
 404:Generated_Source\PSoC5/ErikaOS_1_cortex_mx_ee_cpu.inc **** 
 405:Generated_Source\PSoC5/ErikaOS_1_cortex_mx_ee_cpu.inc **** /** Hal Enable Interrupts */
 406:Generated_Source\PSoC5/ErikaOS_1_cortex_mx_ee_cpu.inc **** __INLINE__ void  EE_hal_enableIRQ(void)
 407:Generated_Source\PSoC5/ErikaOS_1_cortex_mx_ee_cpu.inc **** {
 408:Generated_Source\PSoC5/ErikaOS_1_cortex_mx_ee_cpu.inc ****     EE_cortex_mx_enableIRQ();
 409:Generated_Source\PSoC5/ErikaOS_1_cortex_mx_ee_cpu.inc **** }
 410:Generated_Source\PSoC5/ErikaOS_1_cortex_mx_ee_cpu.inc **** 
 411:Generated_Source\PSoC5/ErikaOS_1_cortex_mx_ee_cpu.inc **** /** Hal Disable Interrupts */
 412:Generated_Source\PSoC5/ErikaOS_1_cortex_mx_ee_cpu.inc **** __INLINE__ void  EE_hal_disableIRQ(void)
 413:Generated_Source\PSoC5/ErikaOS_1_cortex_mx_ee_cpu.inc **** {
 414:Generated_Source\PSoC5/ErikaOS_1_cortex_mx_ee_cpu.inc ****     EE_cortex_mx_disableIRQ();
 415:Generated_Source\PSoC5/ErikaOS_1_cortex_mx_ee_cpu.inc **** }
 416:Generated_Source\PSoC5/ErikaOS_1_cortex_mx_ee_cpu.inc **** 
 417:Generated_Source\PSoC5/ErikaOS_1_cortex_mx_ee_cpu.inc **** /** Hal Resume Interrupts */
 418:Generated_Source\PSoC5/ErikaOS_1_cortex_mx_ee_cpu.inc **** __INLINE__ void  EE_hal_resumeIRQ(EE_FREG f)
 419:Generated_Source\PSoC5/ErikaOS_1_cortex_mx_ee_cpu.inc **** {
 119              		.loc 1 419 0
 120              		.cfi_startproc
 121              		@ args = 0, pretend = 0, frame = 8
 122              		@ frame_needed = 1, uses_anonymous_args = 0
 123 0000 80B5     		push	{r7, lr}
 124              		.cfi_def_cfa_offset 8
 125              		.cfi_offset 7, -8
 126              		.cfi_offset 14, -4
 127 0002 82B0     		sub	sp, sp, #8
 128              		.cfi_def_cfa_offset 16
 129 0004 00AF     		add	r7, sp, #0
 130              		.cfi_def_cfa_register 7
 131 0006 7860     		str	r0, [r7, #4]
 420:Generated_Source\PSoC5/ErikaOS_1_cortex_mx_ee_cpu.inc ****     EE_cortex_mx_resumeIRQ(f);
 132              		.loc 1 420 0
 133 0008 7868     		ldr	r0, [r7, #4]
 134 000a FFF7FEFF 		bl	EE_cortex_mx_resumeIRQ
 421:Generated_Source\PSoC5/ErikaOS_1_cortex_mx_ee_cpu.inc **** }
 135              		.loc 1 421 0
 136 000e 00BF     		nop
 137 0010 0837     		adds	r7, r7, #8
 138              		.cfi_def_cfa_offset 8
 139 0012 BD46     		mov	sp, r7
 140              		.cfi_def_cfa_register 13
 141              		@ sp needed
 142 0014 80BD     		pop	{r7, pc}
 143              		.cfi_endproc
 144              	.LFE19:
 145              		.size	EE_hal_resumeIRQ, .-EE_hal_resumeIRQ
 146 0016 00BF     		.section	.text.EE_hal_suspendIRQ,"ax",%progbits
 147              		.align	2
 148              		.thumb
 149              		.thumb_func
ARM GAS  C:\Users\schmi\AppData\Local\Temp\ccHoEDzi.s 			page 11


 150              		.type	EE_hal_suspendIRQ, %function
 151              	EE_hal_suspendIRQ:
 152              	.LFB20:
 422:Generated_Source\PSoC5/ErikaOS_1_cortex_mx_ee_cpu.inc **** 
 423:Generated_Source\PSoC5/ErikaOS_1_cortex_mx_ee_cpu.inc **** /** Hal Suspend Interrupts */
 424:Generated_Source\PSoC5/ErikaOS_1_cortex_mx_ee_cpu.inc **** __INLINE__ EE_FREG  EE_hal_suspendIRQ(void)
 425:Generated_Source\PSoC5/ErikaOS_1_cortex_mx_ee_cpu.inc **** {
 153              		.loc 1 425 0
 154              		.cfi_startproc
 155              		@ args = 0, pretend = 0, frame = 0
 156              		@ frame_needed = 1, uses_anonymous_args = 0
 157 0000 80B5     		push	{r7, lr}
 158              		.cfi_def_cfa_offset 8
 159              		.cfi_offset 7, -8
 160              		.cfi_offset 14, -4
 161 0002 00AF     		add	r7, sp, #0
 162              		.cfi_def_cfa_register 7
 426:Generated_Source\PSoC5/ErikaOS_1_cortex_mx_ee_cpu.inc ****     return EE_cortex_mx_suspendIRQ();
 163              		.loc 1 426 0
 164 0004 FFF7FEFF 		bl	EE_cortex_mx_suspendIRQ
 165 0008 0346     		mov	r3, r0
 427:Generated_Source\PSoC5/ErikaOS_1_cortex_mx_ee_cpu.inc **** }
 166              		.loc 1 427 0
 167 000a 1846     		mov	r0, r3
 168 000c 80BD     		pop	{r7, pc}
 169              		.cfi_endproc
 170              	.LFE20:
 171              		.size	EE_hal_suspendIRQ, .-EE_hal_suspendIRQ
 172 000e 00BF     		.section	.text.EE_system_init,"ax",%progbits
 173              		.align	2
 174              		.global	EE_system_init
 175              		.thumb
 176              		.thumb_func
 177              		.type	EE_system_init, %function
 178              	EE_system_init:
 179              	.LFB76:
 180              		.file 2 "Generated_Source\\PSoC5\\ErikaOS_1_cortex_mx_ee_utils.c"
   1:Generated_Source\PSoC5/ErikaOS_1_cortex_mx_ee_utils.c **** /* ###*B*###
   2:Generated_Source\PSoC5/ErikaOS_1_cortex_mx_ee_utils.c ****  * ERIKA Enterprise - a tiny RTOS for small microcontrollers
   3:Generated_Source\PSoC5/ErikaOS_1_cortex_mx_ee_utils.c ****  *
   4:Generated_Source\PSoC5/ErikaOS_1_cortex_mx_ee_utils.c ****  * Copyright (C) 2002-2011  Evidence Srl
   5:Generated_Source\PSoC5/ErikaOS_1_cortex_mx_ee_utils.c ****  *
   6:Generated_Source\PSoC5/ErikaOS_1_cortex_mx_ee_utils.c ****  * This file is part of ERIKA Enterprise.
   7:Generated_Source\PSoC5/ErikaOS_1_cortex_mx_ee_utils.c ****  *
   8:Generated_Source\PSoC5/ErikaOS_1_cortex_mx_ee_utils.c ****  * ERIKA Enterprise is free software; you can redistribute it
   9:Generated_Source\PSoC5/ErikaOS_1_cortex_mx_ee_utils.c ****  * and/or modify it under the terms of the GNU General Public License
  10:Generated_Source\PSoC5/ErikaOS_1_cortex_mx_ee_utils.c ****  * version 2 as published by the Free Software Foundation, 
  11:Generated_Source\PSoC5/ErikaOS_1_cortex_mx_ee_utils.c ****  * (with a special exception described below).
  12:Generated_Source\PSoC5/ErikaOS_1_cortex_mx_ee_utils.c ****  *
  13:Generated_Source\PSoC5/ErikaOS_1_cortex_mx_ee_utils.c ****  * Linking this code statically or dynamically with other modules is
  14:Generated_Source\PSoC5/ErikaOS_1_cortex_mx_ee_utils.c ****  * making a combined work based on this code.  Thus, the terms and
  15:Generated_Source\PSoC5/ErikaOS_1_cortex_mx_ee_utils.c ****  * conditions of the GNU General Public License cover the whole
  16:Generated_Source\PSoC5/ErikaOS_1_cortex_mx_ee_utils.c ****  * combination.
  17:Generated_Source\PSoC5/ErikaOS_1_cortex_mx_ee_utils.c ****  *
  18:Generated_Source\PSoC5/ErikaOS_1_cortex_mx_ee_utils.c ****  * As a special exception, the copyright holders of this library give you
  19:Generated_Source\PSoC5/ErikaOS_1_cortex_mx_ee_utils.c ****  * permission to link this code with independent modules to produce an
  20:Generated_Source\PSoC5/ErikaOS_1_cortex_mx_ee_utils.c ****  * executable, regardless of the license terms of these independent
ARM GAS  C:\Users\schmi\AppData\Local\Temp\ccHoEDzi.s 			page 12


  21:Generated_Source\PSoC5/ErikaOS_1_cortex_mx_ee_utils.c ****  * modules, and to copy and distribute the resulting executable under
  22:Generated_Source\PSoC5/ErikaOS_1_cortex_mx_ee_utils.c ****  * terms of your choice, provided that you also meet, for each linked
  23:Generated_Source\PSoC5/ErikaOS_1_cortex_mx_ee_utils.c ****  * independent module, the terms and conditions of the license of that
  24:Generated_Source\PSoC5/ErikaOS_1_cortex_mx_ee_utils.c ****  * module.  An independent module is a module which is not derived from
  25:Generated_Source\PSoC5/ErikaOS_1_cortex_mx_ee_utils.c ****  * or based on this library.  If you modify this code, you may extend
  26:Generated_Source\PSoC5/ErikaOS_1_cortex_mx_ee_utils.c ****  * this exception to your version of the code, but you are not
  27:Generated_Source\PSoC5/ErikaOS_1_cortex_mx_ee_utils.c ****  * obligated to do so.  If you do not wish to do so, delete this
  28:Generated_Source\PSoC5/ErikaOS_1_cortex_mx_ee_utils.c ****  * exception statement from your version.
  29:Generated_Source\PSoC5/ErikaOS_1_cortex_mx_ee_utils.c ****  *
  30:Generated_Source\PSoC5/ErikaOS_1_cortex_mx_ee_utils.c ****  * ERIKA Enterprise is distributed in the hope that it will be
  31:Generated_Source\PSoC5/ErikaOS_1_cortex_mx_ee_utils.c ****  * useful, but WITHOUT ANY WARRANTY; without even the implied warranty
  32:Generated_Source\PSoC5/ErikaOS_1_cortex_mx_ee_utils.c ****  * of MERCHANTABILITY or FITNESS FOR A PARTICULAR PURPOSE.  See the
  33:Generated_Source\PSoC5/ErikaOS_1_cortex_mx_ee_utils.c ****  * GNU General Public License version 2 for more details.
  34:Generated_Source\PSoC5/ErikaOS_1_cortex_mx_ee_utils.c ****  *
  35:Generated_Source\PSoC5/ErikaOS_1_cortex_mx_ee_utils.c ****  * You should have received a copy of the GNU General Public License
  36:Generated_Source\PSoC5/ErikaOS_1_cortex_mx_ee_utils.c ****  * version 2 along with ERIKA Enterprise; if not, write to the
  37:Generated_Source\PSoC5/ErikaOS_1_cortex_mx_ee_utils.c ****  * Free Software Foundation, Inc., 51 Franklin Street, Fifth Floor,
  38:Generated_Source\PSoC5/ErikaOS_1_cortex_mx_ee_utils.c ****  * Boston, MA 02110-1301 USA.
  39:Generated_Source\PSoC5/ErikaOS_1_cortex_mx_ee_utils.c ****  * ###*E*### */
  40:Generated_Source\PSoC5/ErikaOS_1_cortex_mx_ee_utils.c **** 
  41:Generated_Source\PSoC5/ErikaOS_1_cortex_mx_ee_utils.c **** /** 
  42:Generated_Source\PSoC5/ErikaOS_1_cortex_mx_ee_utils.c **** 	@file ee_utils.c
  43:Generated_Source\PSoC5/ErikaOS_1_cortex_mx_ee_utils.c **** 	@brief Functions to initialize the RTOS services
  44:Generated_Source\PSoC5/ErikaOS_1_cortex_mx_ee_utils.c **** 	@author Gianluca Franchino
  45:Generated_Source\PSoC5/ErikaOS_1_cortex_mx_ee_utils.c **** 	@author Giuseppe Serano
  46:Generated_Source\PSoC5/ErikaOS_1_cortex_mx_ee_utils.c **** 	@date 2011
  47:Generated_Source\PSoC5/ErikaOS_1_cortex_mx_ee_utils.c **** */ 
  48:Generated_Source\PSoC5/ErikaOS_1_cortex_mx_ee_utils.c ****     
  49:Generated_Source\PSoC5/ErikaOS_1_cortex_mx_ee_utils.c **** /*
  50:Generated_Source\PSoC5/ErikaOS_1_cortex_mx_ee_utils.c ****  * PSoC Port and API Generation
  51:Generated_Source\PSoC5/ErikaOS_1_cortex_mx_ee_utils.c ****  * Carlos Fernando Meier Martinez
  52:Generated_Source\PSoC5/ErikaOS_1_cortex_mx_ee_utils.c ****  * P. Fromm 2020
  53:Generated_Source\PSoC5/ErikaOS_1_cortex_mx_ee_utils.c ****  * Hochschule Darmstadt, Germany. 2017.
  54:Generated_Source\PSoC5/ErikaOS_1_cortex_mx_ee_utils.c ****  */
  55:Generated_Source\PSoC5/ErikaOS_1_cortex_mx_ee_utils.c **** 
  56:Generated_Source\PSoC5/ErikaOS_1_cortex_mx_ee_utils.c **** #include "ErikaOS_1_ee_internal.inc"
  57:Generated_Source\PSoC5/ErikaOS_1_cortex_mx_ee_utils.c **** #include "ErikaOS_1_ee_irq.inc"
  58:Generated_Source\PSoC5/ErikaOS_1_cortex_mx_ee_utils.c **** //~ #include "ErikaOS_1_cortex_mx_ee_nvic.inc"
  59:Generated_Source\PSoC5/ErikaOS_1_cortex_mx_ee_utils.c **** #include "cyfitter.h"
  60:Generated_Source\PSoC5/ErikaOS_1_cortex_mx_ee_utils.c **** #include "cylib.h"
  61:Generated_Source\PSoC5/ErikaOS_1_cortex_mx_ee_utils.c **** 
  62:Generated_Source\PSoC5/ErikaOS_1_cortex_mx_ee_utils.c **** //PF v2.5.3
  63:Generated_Source\PSoC5/ErikaOS_1_cortex_mx_ee_utils.c **** //We have to translate the Erika Priorities from 1..16 to 0..7
  64:Generated_Source\PSoC5/ErikaOS_1_cortex_mx_ee_utils.c **** //We probably should not set the priority to 0 (highest), as this might interfear with the systick 
  65:Generated_Source\PSoC5/ErikaOS_1_cortex_mx_ee_utils.c **** //#define ISR_SCALE(prio) ((prio-1)>>1)
  66:Generated_Source\PSoC5/ErikaOS_1_cortex_mx_ee_utils.c **** 
  67:Generated_Source\PSoC5/ErikaOS_1_cortex_mx_ee_utils.c **** //Update for Release v2.5.3 - The GUI has been modified, only allowing values between 1..7
  68:Generated_Source\PSoC5/ErikaOS_1_cortex_mx_ee_utils.c **** //i.e. the value can be takes as it is
  69:Generated_Source\PSoC5/ErikaOS_1_cortex_mx_ee_utils.c **** #define ISR_SCALE(prio) (prio)
  70:Generated_Source\PSoC5/ErikaOS_1_cortex_mx_ee_utils.c **** 
  71:Generated_Source\PSoC5/ErikaOS_1_cortex_mx_ee_utils.c **** #define Number_of_ISRs  1
  72:Generated_Source\PSoC5/ErikaOS_1_cortex_mx_ee_utils.c **** 
  73:Generated_Source\PSoC5/ErikaOS_1_cortex_mx_ee_utils.c **** extern void EE_set_switch_context_pri(void);
  74:Generated_Source\PSoC5/ErikaOS_1_cortex_mx_ee_utils.c **** 
  75:Generated_Source\PSoC5/ErikaOS_1_cortex_mx_ee_utils.c **** /* Function used to calculate the initialize the system */
  76:Generated_Source\PSoC5/ErikaOS_1_cortex_mx_ee_utils.c **** void EE_system_init(void)
  77:Generated_Source\PSoC5/ErikaOS_1_cortex_mx_ee_utils.c **** {
ARM GAS  C:\Users\schmi\AppData\Local\Temp\ccHoEDzi.s 			page 13


 181              		.loc 2 77 0
 182              		.cfi_startproc
 183              		@ args = 0, pretend = 0, frame = 8
 184              		@ frame_needed = 1, uses_anonymous_args = 0
 185 0000 90B5     		push	{r4, r7, lr}
 186              		.cfi_def_cfa_offset 12
 187              		.cfi_offset 4, -12
 188              		.cfi_offset 7, -8
 189              		.cfi_offset 14, -4
 190 0002 83B0     		sub	sp, sp, #12
 191              		.cfi_def_cfa_offset 24
 192 0004 00AF     		add	r7, sp, #0
 193              		.cfi_def_cfa_register 7
  78:Generated_Source\PSoC5/ErikaOS_1_cortex_mx_ee_utils.c **** #if (Number_of_ISRs > 0)
  79:Generated_Source\PSoC5/ErikaOS_1_cortex_mx_ee_utils.c ****   cyisraddress *ramVectorTable = *CY_INT_VECT_TABLE;
 194              		.loc 2 79 0
 195 0006 114B     		ldr	r3, .L8
 196 0008 1B68     		ldr	r3, [r3]
 197 000a 7B60     		str	r3, [r7, #4]
  80:Generated_Source\PSoC5/ErikaOS_1_cortex_mx_ee_utils.c **** #endif
  81:Generated_Source\PSoC5/ErikaOS_1_cortex_mx_ee_utils.c ****   register EE_UREG flags;
  82:Generated_Source\PSoC5/ErikaOS_1_cortex_mx_ee_utils.c **** 
  83:Generated_Source\PSoC5/ErikaOS_1_cortex_mx_ee_utils.c ****   flags = EE_hal_suspendIRQ();
 198              		.loc 2 83 0
 199 000c FFF7FEFF 		bl	EE_hal_suspendIRQ
 200 0010 0446     		mov	r4, r0
  84:Generated_Source\PSoC5/ErikaOS_1_cortex_mx_ee_utils.c **** 
  85:Generated_Source\PSoC5/ErikaOS_1_cortex_mx_ee_utils.c **** 	/* 
  86:Generated_Source\PSoC5/ErikaOS_1_cortex_mx_ee_utils.c **** 	 * Set the priority of PendSV to the minimum one
  87:Generated_Source\PSoC5/ErikaOS_1_cortex_mx_ee_utils.c **** 	 * PendSV is the software interrupt used for context switch
  88:Generated_Source\PSoC5/ErikaOS_1_cortex_mx_ee_utils.c **** 	 */
  89:Generated_Source\PSoC5/ErikaOS_1_cortex_mx_ee_utils.c **** 	EE_set_switch_context_pri();
 201              		.loc 2 89 0
 202 0012 FFF7FEFF 		bl	EE_set_switch_context_pri
  90:Generated_Source\PSoC5/ErikaOS_1_cortex_mx_ee_utils.c **** 
  91:Generated_Source\PSoC5/ErikaOS_1_cortex_mx_ee_utils.c **** #ifdef	__CORTEX_MX__
  92:Generated_Source\PSoC5/ErikaOS_1_cortex_mx_ee_utils.c **** 
  93:Generated_Source\PSoC5/ErikaOS_1_cortex_mx_ee_utils.c **** #ifdef	EE_CORTEX_MX_SYSTICK_ISR
  94:Generated_Source\PSoC5/ErikaOS_1_cortex_mx_ee_utils.c **** #ifdef	EE_CORTEX_MX_SYSTICK_ISR_PRI
  95:Generated_Source\PSoC5/ErikaOS_1_cortex_mx_ee_utils.c **** 	NVIC_SYS_PRI3_R |= (
 203              		.loc 2 95 0
 204 0016 0E4A     		ldr	r2, .L8+4
 205 0018 0D4B     		ldr	r3, .L8+4
 206 001a 1B68     		ldr	r3, [r3]
 207 001c 43F07F43 		orr	r3, r3, #-16777216
 208 0020 1360     		str	r3, [r2]
  96:Generated_Source\PSoC5/ErikaOS_1_cortex_mx_ee_utils.c **** 	  EE_CORTEX_MX_SYSTICK_ISR_PRI << NVIC_SYS_PRI3_TICK_S
  97:Generated_Source\PSoC5/ErikaOS_1_cortex_mx_ee_utils.c **** 	);
  98:Generated_Source\PSoC5/ErikaOS_1_cortex_mx_ee_utils.c **** #endif
  99:Generated_Source\PSoC5/ErikaOS_1_cortex_mx_ee_utils.c **** #endif
 100:Generated_Source\PSoC5/ErikaOS_1_cortex_mx_ee_utils.c **** 
 101:Generated_Source\PSoC5/ErikaOS_1_cortex_mx_ee_utils.c **** #define ISR_MIN_PRI 48
 102:Generated_Source\PSoC5/ErikaOS_1_cortex_mx_ee_utils.c **** 
 103:Generated_Source\PSoC5/ErikaOS_1_cortex_mx_ee_utils.c **** #if (Number_of_ISRs > 0) && defined isr_log_rx__INTC_NUMBER
 104:Generated_Source\PSoC5/ErikaOS_1_cortex_mx_ee_utils.c ****     ramVectorTable[CY_INT_IRQ_BASE + (isr_log_rx__INTC_NUMBER & CY_INT_NUMBER_MASK)] = isr_log_rx;
 209              		.loc 2 104 0
 210 0022 7B68     		ldr	r3, [r7, #4]
ARM GAS  C:\Users\schmi\AppData\Local\Temp\ccHoEDzi.s 			page 14


 211 0024 4833     		adds	r3, r3, #72
 212 0026 0B4A     		ldr	r2, .L8+8
 213 0028 1A60     		str	r2, [r3]
 105:Generated_Source\PSoC5/ErikaOS_1_cortex_mx_ee_utils.c **** 	//PF v2.5.3
 106:Generated_Source\PSoC5/ErikaOS_1_cortex_mx_ee_utils.c ****     //NVIC_SET_PRI(isr_log_rx__INTC_NUMBER, (ISR_MIN_PRI - 1));
 107:Generated_Source\PSoC5/ErikaOS_1_cortex_mx_ee_utils.c ****     CyIntSetPriority(isr_log_rx__INTC_NUMBER, ISR_SCALE(1));
 214              		.loc 2 107 0
 215 002a 0121     		movs	r1, #1
 216 002c 0220     		movs	r0, #2
 217 002e FFF7FEFF 		bl	CyIntSetPriority
 108:Generated_Source\PSoC5/ErikaOS_1_cortex_mx_ee_utils.c ****     //\PF
 109:Generated_Source\PSoC5/ErikaOS_1_cortex_mx_ee_utils.c **** 	NVIC_INT_ENABLE(isr_log_rx__INTC_NUMBER);
 218              		.loc 2 109 0
 219 0032 094A     		ldr	r2, .L8+12
 220 0034 084B     		ldr	r3, .L8+12
 221 0036 1B68     		ldr	r3, [r3]
 222 0038 43F00403 		orr	r3, r3, #4
 223 003c 1360     		str	r3, [r2]
 110:Generated_Source\PSoC5/ErikaOS_1_cortex_mx_ee_utils.c **** #elif Number_of_ISRs > 0
 111:Generated_Source\PSoC5/ErikaOS_1_cortex_mx_ee_utils.c **** #error  The Interrupt isr_log_rx could not be found. Make sure the name in the OS config exactly ma
 112:Generated_Source\PSoC5/ErikaOS_1_cortex_mx_ee_utils.c **** #endif	/* isr_log_rx */
 113:Generated_Source\PSoC5/ErikaOS_1_cortex_mx_ee_utils.c **** 
 114:Generated_Source\PSoC5/ErikaOS_1_cortex_mx_ee_utils.c **** #if (Number_of_ISRs > 1) && defined ISR_2__INTC_NUMBER
 115:Generated_Source\PSoC5/ErikaOS_1_cortex_mx_ee_utils.c ****     ramVectorTable[CY_INT_IRQ_BASE + (ISR_2__INTC_NUMBER & CY_INT_NUMBER_MASK)] = ISR_2;
 116:Generated_Source\PSoC5/ErikaOS_1_cortex_mx_ee_utils.c **** 	//PF v2.5.3
 117:Generated_Source\PSoC5/ErikaOS_1_cortex_mx_ee_utils.c ****     //NVIC_SET_PRI(ISR_2__INTC_NUMBER, (ISR_MIN_PRI - 0));
 118:Generated_Source\PSoC5/ErikaOS_1_cortex_mx_ee_utils.c ****     CyIntSetPriority(ISR_2__INTC_NUMBER, ISR_SCALE(0));
 119:Generated_Source\PSoC5/ErikaOS_1_cortex_mx_ee_utils.c ****     //\PF
 120:Generated_Source\PSoC5/ErikaOS_1_cortex_mx_ee_utils.c **** 	NVIC_INT_ENABLE(ISR_2__INTC_NUMBER);
 121:Generated_Source\PSoC5/ErikaOS_1_cortex_mx_ee_utils.c **** #elif Number_of_ISRs > 1
 122:Generated_Source\PSoC5/ErikaOS_1_cortex_mx_ee_utils.c **** #error  The Interrupt ISR_2 could not be found. Make sure the name in the OS config exactly matches
 123:Generated_Source\PSoC5/ErikaOS_1_cortex_mx_ee_utils.c **** #endif	/* ISR_2 */
 124:Generated_Source\PSoC5/ErikaOS_1_cortex_mx_ee_utils.c **** 
 125:Generated_Source\PSoC5/ErikaOS_1_cortex_mx_ee_utils.c **** #if (Number_of_ISRs > 2) && defined ISR_3__INTC_NUMBER
 126:Generated_Source\PSoC5/ErikaOS_1_cortex_mx_ee_utils.c ****     ramVectorTable[CY_INT_IRQ_BASE + (ISR_3__INTC_NUMBER & CY_INT_NUMBER_MASK)] = ISR_3;
 127:Generated_Source\PSoC5/ErikaOS_1_cortex_mx_ee_utils.c **** 	//PF v2.5.3
 128:Generated_Source\PSoC5/ErikaOS_1_cortex_mx_ee_utils.c ****     //NVIC_SET_PRI(ISR_3__INTC_NUMBER, (ISR_MIN_PRI - 0));
 129:Generated_Source\PSoC5/ErikaOS_1_cortex_mx_ee_utils.c ****     CyIntSetPriority(ISR_3__INTC_NUMBER, ISR_SCALE(0));
 130:Generated_Source\PSoC5/ErikaOS_1_cortex_mx_ee_utils.c ****     //\PF
 131:Generated_Source\PSoC5/ErikaOS_1_cortex_mx_ee_utils.c **** 	NVIC_INT_ENABLE(ISR_3__INTC_NUMBER);
 132:Generated_Source\PSoC5/ErikaOS_1_cortex_mx_ee_utils.c **** #elif Number_of_ISRs > 2
 133:Generated_Source\PSoC5/ErikaOS_1_cortex_mx_ee_utils.c **** #error  The Interrupt ISR_3 could not be found. Make sure the name in the OS config exactly matches
 134:Generated_Source\PSoC5/ErikaOS_1_cortex_mx_ee_utils.c **** #endif	/* ISR_3 */
 135:Generated_Source\PSoC5/ErikaOS_1_cortex_mx_ee_utils.c **** 
 136:Generated_Source\PSoC5/ErikaOS_1_cortex_mx_ee_utils.c **** #if (Number_of_ISRs > 3) && defined ISR_4__INTC_NUMBER
 137:Generated_Source\PSoC5/ErikaOS_1_cortex_mx_ee_utils.c ****     ramVectorTable[CY_INT_IRQ_BASE + (ISR_4__INTC_NUMBER & CY_INT_NUMBER_MASK)] = ISR_4;
 138:Generated_Source\PSoC5/ErikaOS_1_cortex_mx_ee_utils.c **** 	//PF v2.5.3
 139:Generated_Source\PSoC5/ErikaOS_1_cortex_mx_ee_utils.c ****     //NVIC_SET_PRI(ISR_4__INTC_NUMBER, (ISR_MIN_PRI - 0));
 140:Generated_Source\PSoC5/ErikaOS_1_cortex_mx_ee_utils.c ****     CyIntSetPriority(ISR_4__INTC_NUMBER, ISR_SCALE(0));
 141:Generated_Source\PSoC5/ErikaOS_1_cortex_mx_ee_utils.c ****     //\PF
 142:Generated_Source\PSoC5/ErikaOS_1_cortex_mx_ee_utils.c **** 	NVIC_INT_ENABLE(ISR_4__INTC_NUMBER);
 143:Generated_Source\PSoC5/ErikaOS_1_cortex_mx_ee_utils.c **** #elif Number_of_ISRs > 3
 144:Generated_Source\PSoC5/ErikaOS_1_cortex_mx_ee_utils.c **** #error  The Interrupt ISR_4 could not be found. Make sure the name in the OS config exactly matches
 145:Generated_Source\PSoC5/ErikaOS_1_cortex_mx_ee_utils.c **** #endif	/* ISR_4 */
 146:Generated_Source\PSoC5/ErikaOS_1_cortex_mx_ee_utils.c **** 
 147:Generated_Source\PSoC5/ErikaOS_1_cortex_mx_ee_utils.c **** #if (Number_of_ISRs > 4) && defined ISR_5__INTC_NUMBER
 148:Generated_Source\PSoC5/ErikaOS_1_cortex_mx_ee_utils.c ****     ramVectorTable[CY_INT_IRQ_BASE + (ISR_5__INTC_NUMBER & CY_INT_NUMBER_MASK)] = ISR_5;
ARM GAS  C:\Users\schmi\AppData\Local\Temp\ccHoEDzi.s 			page 15


 149:Generated_Source\PSoC5/ErikaOS_1_cortex_mx_ee_utils.c **** 	//PF v2.5.3
 150:Generated_Source\PSoC5/ErikaOS_1_cortex_mx_ee_utils.c ****     //NVIC_SET_PRI(ISR_5__INTC_NUMBER, (ISR_MIN_PRI - 0));
 151:Generated_Source\PSoC5/ErikaOS_1_cortex_mx_ee_utils.c ****     CyIntSetPriority(ISR_5__INTC_NUMBER, ISR_SCALE(0));
 152:Generated_Source\PSoC5/ErikaOS_1_cortex_mx_ee_utils.c ****     //\PF
 153:Generated_Source\PSoC5/ErikaOS_1_cortex_mx_ee_utils.c **** 	NVIC_INT_ENABLE(ISR_5__INTC_NUMBER);
 154:Generated_Source\PSoC5/ErikaOS_1_cortex_mx_ee_utils.c **** #elif Number_of_ISRs > 4
 155:Generated_Source\PSoC5/ErikaOS_1_cortex_mx_ee_utils.c **** #error  The Interrupt ISR_5 could not be found. Make sure the name in the OS config exactly matches
 156:Generated_Source\PSoC5/ErikaOS_1_cortex_mx_ee_utils.c **** #endif	/* ISR_5 */
 157:Generated_Source\PSoC5/ErikaOS_1_cortex_mx_ee_utils.c **** 
 158:Generated_Source\PSoC5/ErikaOS_1_cortex_mx_ee_utils.c **** #if (Number_of_ISRs > 5) && defined ISR_6__INTC_NUMBER
 159:Generated_Source\PSoC5/ErikaOS_1_cortex_mx_ee_utils.c ****     ramVectorTable[CY_INT_IRQ_BASE + (ISR_6__INTC_NUMBER & CY_INT_NUMBER_MASK)] = ISR_6;
 160:Generated_Source\PSoC5/ErikaOS_1_cortex_mx_ee_utils.c **** 	//PF v2.5.3
 161:Generated_Source\PSoC5/ErikaOS_1_cortex_mx_ee_utils.c ****     //NVIC_SET_PRI(ISR_6__INTC_NUMBER, (ISR_MIN_PRI - 0));
 162:Generated_Source\PSoC5/ErikaOS_1_cortex_mx_ee_utils.c ****     CyIntSetPriority(ISR_6__INTC_NUMBER, ISR_SCALE(0));
 163:Generated_Source\PSoC5/ErikaOS_1_cortex_mx_ee_utils.c ****     //\PF
 164:Generated_Source\PSoC5/ErikaOS_1_cortex_mx_ee_utils.c **** 	NVIC_INT_ENABLE(ISR_6__INTC_NUMBER);
 165:Generated_Source\PSoC5/ErikaOS_1_cortex_mx_ee_utils.c **** #elif Number_of_ISRs > 5
 166:Generated_Source\PSoC5/ErikaOS_1_cortex_mx_ee_utils.c **** #error  The Interrupt ISR_6 could not be found. Make sure the name in the OS config exactly matches
 167:Generated_Source\PSoC5/ErikaOS_1_cortex_mx_ee_utils.c **** #endif	/* ISR_6 */
 168:Generated_Source\PSoC5/ErikaOS_1_cortex_mx_ee_utils.c **** 
 169:Generated_Source\PSoC5/ErikaOS_1_cortex_mx_ee_utils.c **** #if (Number_of_ISRs > 6) && defined ISR_7__INTC_NUMBER
 170:Generated_Source\PSoC5/ErikaOS_1_cortex_mx_ee_utils.c ****     ramVectorTable[CY_INT_IRQ_BASE + (ISR_7__INTC_NUMBER & CY_INT_NUMBER_MASK)] = ISR_7;
 171:Generated_Source\PSoC5/ErikaOS_1_cortex_mx_ee_utils.c **** 	//PF v2.5.3
 172:Generated_Source\PSoC5/ErikaOS_1_cortex_mx_ee_utils.c ****     //NVIC_SET_PRI(ISR_7__INTC_NUMBER, (ISR_MIN_PRI - 0));
 173:Generated_Source\PSoC5/ErikaOS_1_cortex_mx_ee_utils.c ****     CyIntSetPriority(ISR_7__INTC_NUMBER, ISR_SCALE(0));
 174:Generated_Source\PSoC5/ErikaOS_1_cortex_mx_ee_utils.c ****     //\PF
 175:Generated_Source\PSoC5/ErikaOS_1_cortex_mx_ee_utils.c **** 	NVIC_INT_ENABLE(ISR_7__INTC_NUMBER);
 176:Generated_Source\PSoC5/ErikaOS_1_cortex_mx_ee_utils.c **** #elif Number_of_ISRs > 6
 177:Generated_Source\PSoC5/ErikaOS_1_cortex_mx_ee_utils.c **** #error  The Interrupt ISR_7 could not be found. Make sure the name in the OS config exactly matches
 178:Generated_Source\PSoC5/ErikaOS_1_cortex_mx_ee_utils.c **** #endif	/* ISR_7 */
 179:Generated_Source\PSoC5/ErikaOS_1_cortex_mx_ee_utils.c **** 
 180:Generated_Source\PSoC5/ErikaOS_1_cortex_mx_ee_utils.c **** #if (Number_of_ISRs > 7) && defined ISR_8__INTC_NUMBER
 181:Generated_Source\PSoC5/ErikaOS_1_cortex_mx_ee_utils.c ****     ramVectorTable[CY_INT_IRQ_BASE + (ISR_8__INTC_NUMBER & CY_INT_NUMBER_MASK)] = ISR_8;
 182:Generated_Source\PSoC5/ErikaOS_1_cortex_mx_ee_utils.c **** 	//PF v2.5.3
 183:Generated_Source\PSoC5/ErikaOS_1_cortex_mx_ee_utils.c ****     //NVIC_SET_PRI(ISR_8__INTC_NUMBER, (ISR_MIN_PRI - 0));
 184:Generated_Source\PSoC5/ErikaOS_1_cortex_mx_ee_utils.c ****     CyIntSetPriority(ISR_8__INTC_NUMBER, ISR_SCALE(0));
 185:Generated_Source\PSoC5/ErikaOS_1_cortex_mx_ee_utils.c ****     //\PF
 186:Generated_Source\PSoC5/ErikaOS_1_cortex_mx_ee_utils.c **** 	NVIC_INT_ENABLE(ISR_8__INTC_NUMBER);
 187:Generated_Source\PSoC5/ErikaOS_1_cortex_mx_ee_utils.c **** #elif Number_of_ISRs > 7
 188:Generated_Source\PSoC5/ErikaOS_1_cortex_mx_ee_utils.c **** #error  The Interrupt ISR_8 could not be found. Make sure the name in the OS config exactly matches
 189:Generated_Source\PSoC5/ErikaOS_1_cortex_mx_ee_utils.c **** #endif	/* ISR_8 */
 190:Generated_Source\PSoC5/ErikaOS_1_cortex_mx_ee_utils.c **** 
 191:Generated_Source\PSoC5/ErikaOS_1_cortex_mx_ee_utils.c **** #if (Number_of_ISRs > 8) && defined ISR_9__INTC_NUMBER
 192:Generated_Source\PSoC5/ErikaOS_1_cortex_mx_ee_utils.c ****     ramVectorTable[CY_INT_IRQ_BASE + (ISR_9__INTC_NUMBER & CY_INT_NUMBER_MASK)] = ISR_9;
 193:Generated_Source\PSoC5/ErikaOS_1_cortex_mx_ee_utils.c **** 	//PF v2.5.3
 194:Generated_Source\PSoC5/ErikaOS_1_cortex_mx_ee_utils.c ****     //NVIC_SET_PRI(ISR_9__INTC_NUMBER, (ISR_MIN_PRI - 0));
 195:Generated_Source\PSoC5/ErikaOS_1_cortex_mx_ee_utils.c ****     CyIntSetPriority(ISR_9__INTC_NUMBER, ISR_SCALE(0));
 196:Generated_Source\PSoC5/ErikaOS_1_cortex_mx_ee_utils.c ****     //\PF
 197:Generated_Source\PSoC5/ErikaOS_1_cortex_mx_ee_utils.c **** 	NVIC_INT_ENABLE(ISR_9__INTC_NUMBER);
 198:Generated_Source\PSoC5/ErikaOS_1_cortex_mx_ee_utils.c **** #elif Number_of_ISRs > 8
 199:Generated_Source\PSoC5/ErikaOS_1_cortex_mx_ee_utils.c **** #error  The Interrupt ISR_9 could not be found. Make sure the name in the OS config exactly matches
 200:Generated_Source\PSoC5/ErikaOS_1_cortex_mx_ee_utils.c **** #endif	/* ISR_9 */
 201:Generated_Source\PSoC5/ErikaOS_1_cortex_mx_ee_utils.c **** 
 202:Generated_Source\PSoC5/ErikaOS_1_cortex_mx_ee_utils.c **** #if (Number_of_ISRs > 9) && defined ISR_10__INTC_NUMBER
 203:Generated_Source\PSoC5/ErikaOS_1_cortex_mx_ee_utils.c ****     ramVectorTable[CY_INT_IRQ_BASE + (ISR_10__INTC_NUMBER & CY_INT_NUMBER_MASK)] = ISR_10;
 204:Generated_Source\PSoC5/ErikaOS_1_cortex_mx_ee_utils.c **** 	//PF v2.5.3
 205:Generated_Source\PSoC5/ErikaOS_1_cortex_mx_ee_utils.c ****     //NVIC_SET_PRI(ISR_10__INTC_NUMBER, (ISR_MIN_PRI - 0));
ARM GAS  C:\Users\schmi\AppData\Local\Temp\ccHoEDzi.s 			page 16


 206:Generated_Source\PSoC5/ErikaOS_1_cortex_mx_ee_utils.c ****     CyIntSetPriority(ISR_10__INTC_NUMBER, ISR_SCALE(0));
 207:Generated_Source\PSoC5/ErikaOS_1_cortex_mx_ee_utils.c ****     //\PF
 208:Generated_Source\PSoC5/ErikaOS_1_cortex_mx_ee_utils.c **** 	NVIC_INT_ENABLE(ISR_10__INTC_NUMBER);
 209:Generated_Source\PSoC5/ErikaOS_1_cortex_mx_ee_utils.c **** #elif Number_of_ISRs > 9
 210:Generated_Source\PSoC5/ErikaOS_1_cortex_mx_ee_utils.c **** #error  The Interrupt ISR_10 could not be found. Make sure the name in the OS config exactly matche
 211:Generated_Source\PSoC5/ErikaOS_1_cortex_mx_ee_utils.c **** #endif	/* ISR_10 */
 212:Generated_Source\PSoC5/ErikaOS_1_cortex_mx_ee_utils.c **** 
 213:Generated_Source\PSoC5/ErikaOS_1_cortex_mx_ee_utils.c **** #if (Number_of_ISRs > 10) && defined ISR_11__INTC_NUMBER
 214:Generated_Source\PSoC5/ErikaOS_1_cortex_mx_ee_utils.c ****     ramVectorTable[CY_INT_IRQ_BASE + (ISR_11__INTC_NUMBER & CY_INT_NUMBER_MASK)] = ISR_11;
 215:Generated_Source\PSoC5/ErikaOS_1_cortex_mx_ee_utils.c **** 	//PF v2.5.3
 216:Generated_Source\PSoC5/ErikaOS_1_cortex_mx_ee_utils.c ****     //NVIC_SET_PRI(ISR_11__INTC_NUMBER, (ISR_MIN_PRI - 0));
 217:Generated_Source\PSoC5/ErikaOS_1_cortex_mx_ee_utils.c ****     CyIntSetPriority(ISR_11__INTC_NUMBER, ISR_SCALE(0));
 218:Generated_Source\PSoC5/ErikaOS_1_cortex_mx_ee_utils.c ****     //\PF
 219:Generated_Source\PSoC5/ErikaOS_1_cortex_mx_ee_utils.c **** 	NVIC_INT_ENABLE(ISR_11__INTC_NUMBER);
 220:Generated_Source\PSoC5/ErikaOS_1_cortex_mx_ee_utils.c **** #elif Number_of_ISRs > 10
 221:Generated_Source\PSoC5/ErikaOS_1_cortex_mx_ee_utils.c **** #error  The Interrupt ISR_11 could not be found. Make sure the name in the OS config exactly matche
 222:Generated_Source\PSoC5/ErikaOS_1_cortex_mx_ee_utils.c **** #endif	/* ISR_11 */
 223:Generated_Source\PSoC5/ErikaOS_1_cortex_mx_ee_utils.c **** 
 224:Generated_Source\PSoC5/ErikaOS_1_cortex_mx_ee_utils.c **** #if (Number_of_ISRs > 11) && defined ISR_12__INTC_NUMBER
 225:Generated_Source\PSoC5/ErikaOS_1_cortex_mx_ee_utils.c ****     ramVectorTable[CY_INT_IRQ_BASE + (ISR_12__INTC_NUMBER & CY_INT_NUMBER_MASK)] = ISR_12;
 226:Generated_Source\PSoC5/ErikaOS_1_cortex_mx_ee_utils.c **** 	//PF v2.5.3
 227:Generated_Source\PSoC5/ErikaOS_1_cortex_mx_ee_utils.c ****     //NVIC_SET_PRI(ISR_12__INTC_NUMBER, (ISR_MIN_PRI - 0));
 228:Generated_Source\PSoC5/ErikaOS_1_cortex_mx_ee_utils.c ****     CyIntSetPriority(ISR_12__INTC_NUMBER, ISR_SCALE(0));
 229:Generated_Source\PSoC5/ErikaOS_1_cortex_mx_ee_utils.c ****     //\PF
 230:Generated_Source\PSoC5/ErikaOS_1_cortex_mx_ee_utils.c **** 	NVIC_INT_ENABLE(ISR_12__INTC_NUMBER);
 231:Generated_Source\PSoC5/ErikaOS_1_cortex_mx_ee_utils.c **** #elif Number_of_ISRs > 11
 232:Generated_Source\PSoC5/ErikaOS_1_cortex_mx_ee_utils.c **** #error  The Interrupt ISR_12 could not be found. Make sure the name in the OS config exactly matche
 233:Generated_Source\PSoC5/ErikaOS_1_cortex_mx_ee_utils.c **** #endif	/* ISR_12 */
 234:Generated_Source\PSoC5/ErikaOS_1_cortex_mx_ee_utils.c **** 
 235:Generated_Source\PSoC5/ErikaOS_1_cortex_mx_ee_utils.c **** #if (Number_of_ISRs > 12) && defined ISR_13__INTC_NUMBER
 236:Generated_Source\PSoC5/ErikaOS_1_cortex_mx_ee_utils.c ****     ramVectorTable[CY_INT_IRQ_BASE + (ISR_13__INTC_NUMBER & CY_INT_NUMBER_MASK)] = ISR_13;
 237:Generated_Source\PSoC5/ErikaOS_1_cortex_mx_ee_utils.c **** 	//PF v2.5.3
 238:Generated_Source\PSoC5/ErikaOS_1_cortex_mx_ee_utils.c ****     //NVIC_SET_PRI(ISR_13__INTC_NUMBER, (ISR_MIN_PRI - 0));
 239:Generated_Source\PSoC5/ErikaOS_1_cortex_mx_ee_utils.c ****     CyIntSetPriority(ISR_13__INTC_NUMBER, ISR_SCALE(0));
 240:Generated_Source\PSoC5/ErikaOS_1_cortex_mx_ee_utils.c ****     //\PF
 241:Generated_Source\PSoC5/ErikaOS_1_cortex_mx_ee_utils.c **** 	NVIC_INT_ENABLE(ISR_13__INTC_NUMBER);
 242:Generated_Source\PSoC5/ErikaOS_1_cortex_mx_ee_utils.c **** #elif Number_of_ISRs > 12
 243:Generated_Source\PSoC5/ErikaOS_1_cortex_mx_ee_utils.c **** #error  The Interrupt ISR_13 could not be found. Make sure the name in the OS config exactly matche
 244:Generated_Source\PSoC5/ErikaOS_1_cortex_mx_ee_utils.c **** #endif	/* ISR_13 */
 245:Generated_Source\PSoC5/ErikaOS_1_cortex_mx_ee_utils.c **** 
 246:Generated_Source\PSoC5/ErikaOS_1_cortex_mx_ee_utils.c **** #if (Number_of_ISRs > 13) && defined ISR_14__INTC_NUMBER
 247:Generated_Source\PSoC5/ErikaOS_1_cortex_mx_ee_utils.c ****     ramVectorTable[CY_INT_IRQ_BASE + (ISR_14__INTC_NUMBER & CY_INT_NUMBER_MASK)] = ISR_14;
 248:Generated_Source\PSoC5/ErikaOS_1_cortex_mx_ee_utils.c **** 	//PF v2.5.3
 249:Generated_Source\PSoC5/ErikaOS_1_cortex_mx_ee_utils.c ****     //NVIC_SET_PRI(ISR_14__INTC_NUMBER, (ISR_MIN_PRI - 0));
 250:Generated_Source\PSoC5/ErikaOS_1_cortex_mx_ee_utils.c ****     CyIntSetPriority(ISR_14__INTC_NUMBER, ISR_SCALE(0));
 251:Generated_Source\PSoC5/ErikaOS_1_cortex_mx_ee_utils.c ****     //\PF
 252:Generated_Source\PSoC5/ErikaOS_1_cortex_mx_ee_utils.c **** 	NVIC_INT_ENABLE(ISR_14__INTC_NUMBER);
 253:Generated_Source\PSoC5/ErikaOS_1_cortex_mx_ee_utils.c **** #elif Number_of_ISRs > 13
 254:Generated_Source\PSoC5/ErikaOS_1_cortex_mx_ee_utils.c **** #error  The Interrupt ISR_14 could not be found. Make sure the name in the OS config exactly matche
 255:Generated_Source\PSoC5/ErikaOS_1_cortex_mx_ee_utils.c **** #endif	/* ISR_14 */
 256:Generated_Source\PSoC5/ErikaOS_1_cortex_mx_ee_utils.c **** 
 257:Generated_Source\PSoC5/ErikaOS_1_cortex_mx_ee_utils.c **** #if (Number_of_ISRs > 14) && defined ISR_15__INTC_NUMBER
 258:Generated_Source\PSoC5/ErikaOS_1_cortex_mx_ee_utils.c ****     ramVectorTable[CY_INT_IRQ_BASE + (ISR_15__INTC_NUMBER & CY_INT_NUMBER_MASK)] = ISR_15;
 259:Generated_Source\PSoC5/ErikaOS_1_cortex_mx_ee_utils.c **** 	//PF v2.5.3
 260:Generated_Source\PSoC5/ErikaOS_1_cortex_mx_ee_utils.c ****     //NVIC_SET_PRI(ISR_15__INTC_NUMBER, (ISR_MIN_PRI - 0));
 261:Generated_Source\PSoC5/ErikaOS_1_cortex_mx_ee_utils.c ****     CyIntSetPriority(ISR_15__INTC_NUMBER, ISR_SCALE(0));
 262:Generated_Source\PSoC5/ErikaOS_1_cortex_mx_ee_utils.c ****     //\PF
ARM GAS  C:\Users\schmi\AppData\Local\Temp\ccHoEDzi.s 			page 17


 263:Generated_Source\PSoC5/ErikaOS_1_cortex_mx_ee_utils.c **** 	NVIC_INT_ENABLE(ISR_15__INTC_NUMBER);
 264:Generated_Source\PSoC5/ErikaOS_1_cortex_mx_ee_utils.c **** #elif Number_of_ISRs > 14
 265:Generated_Source\PSoC5/ErikaOS_1_cortex_mx_ee_utils.c **** #error  The Interrupt ISR_15 could not be found. Make sure the name in the OS config exactly matche
 266:Generated_Source\PSoC5/ErikaOS_1_cortex_mx_ee_utils.c **** #endif	/* ISR_15 */
 267:Generated_Source\PSoC5/ErikaOS_1_cortex_mx_ee_utils.c **** 
 268:Generated_Source\PSoC5/ErikaOS_1_cortex_mx_ee_utils.c **** #if (Number_of_ISRs > 15) && defined ISR_16__INTC_NUMBER
 269:Generated_Source\PSoC5/ErikaOS_1_cortex_mx_ee_utils.c ****     ramVectorTable[CY_INT_IRQ_BASE + (ISR_16__INTC_NUMBER & CY_INT_NUMBER_MASK)] = ISR_16;
 270:Generated_Source\PSoC5/ErikaOS_1_cortex_mx_ee_utils.c **** 	//PF v2.5.3
 271:Generated_Source\PSoC5/ErikaOS_1_cortex_mx_ee_utils.c ****     //NVIC_SET_PRI(ISR_16__INTC_NUMBER, (ISR_MIN_PRI - 0));
 272:Generated_Source\PSoC5/ErikaOS_1_cortex_mx_ee_utils.c ****     CyIntSetPriority(ISR_16__INTC_NUMBER, ISR_SCALE(0));
 273:Generated_Source\PSoC5/ErikaOS_1_cortex_mx_ee_utils.c ****     //\PF
 274:Generated_Source\PSoC5/ErikaOS_1_cortex_mx_ee_utils.c **** 	NVIC_INT_ENABLE(ISR_16__INTC_NUMBER);
 275:Generated_Source\PSoC5/ErikaOS_1_cortex_mx_ee_utils.c **** #elif Number_of_ISRs > 15
 276:Generated_Source\PSoC5/ErikaOS_1_cortex_mx_ee_utils.c **** #error  The Interrupt ISR_16 could not be found. Make sure the name in the OS config exactly matche
 277:Generated_Source\PSoC5/ErikaOS_1_cortex_mx_ee_utils.c **** #endif	/* ISR_16 */
 278:Generated_Source\PSoC5/ErikaOS_1_cortex_mx_ee_utils.c **** 
 279:Generated_Source\PSoC5/ErikaOS_1_cortex_mx_ee_utils.c **** #endif	/* __CORTEX_MX__ */
 280:Generated_Source\PSoC5/ErikaOS_1_cortex_mx_ee_utils.c **** 
 281:Generated_Source\PSoC5/ErikaOS_1_cortex_mx_ee_utils.c ****   EE_hal_resumeIRQ(flags);
 224              		.loc 2 281 0
 225 003e 2046     		mov	r0, r4
 226 0040 FFF7FEFF 		bl	EE_hal_resumeIRQ
 282:Generated_Source\PSoC5/ErikaOS_1_cortex_mx_ee_utils.c **** 
 283:Generated_Source\PSoC5/ErikaOS_1_cortex_mx_ee_utils.c **** }
 227              		.loc 2 283 0
 228 0044 00BF     		nop
 229 0046 0C37     		adds	r7, r7, #12
 230              		.cfi_def_cfa_offset 12
 231 0048 BD46     		mov	sp, r7
 232              		.cfi_def_cfa_register 13
 233              		@ sp needed
 234 004a 90BD     		pop	{r4, r7, pc}
 235              	.L9:
 236              		.align	2
 237              	.L8:
 238 004c 08ED00E0 		.word	-536810232
 239 0050 20ED00E0 		.word	-536810208
 240 0054 00000000 		.word	isr_log_rx
 241 0058 00E100E0 		.word	-536813312
 242              		.cfi_endproc
 243              	.LFE76:
 244              		.size	EE_system_init, .-EE_system_init
 245              		.text
 246              	.Letext0:
 247              		.file 3 "Generated_Source\\PSoC5\\ErikaOS_1_common_ee_types.inc"
 248              		.file 4 "Generated_Source\\PSoC5\\ErikaOS_1_ee_oo_common.inc"
 249              		.file 5 "Generated_Source\\PSoC5\\cytypes.h"
 250              		.file 6 "Generated_Source\\PSoC5\\ErikaOS_1_common_ee_primitives.inc"
 251              		.file 7 "Generated_Source\\PSoC5\\ErikaOS_1_cortex_mx_ee_context.inc"
 252              		.file 8 "Generated_Source\\PSoC5\\ErikaOS_1_ee_oo_intfunc.inc"
 253              		.file 9 "Generated_Source\\PSoC5\\ErikaOS_1_ee_oo_internal.inc"