ARM GAS  C:\Users\schmi\AppData\Local\Temp\ccLEO1Pj.s 			page 1


   1              		.syntax unified
   2              		.cpu cortex-m3
   3              		.fpu softvfp
   4              		.eabi_attribute 20, 1
   5              		.eabi_attribute 21, 1
   6              		.eabi_attribute 23, 3
   7              		.eabi_attribute 24, 1
   8              		.eabi_attribute 25, 1
   9              		.eabi_attribute 26, 1
  10              		.eabi_attribute 30, 6
  11              		.eabi_attribute 34, 1
  12              		.eabi_attribute 18, 4
  13              		.thumb
  14              		.syntax unified
  15              		.file	"ErikaOS_1_ee_alsetrel.c"
  16              		.text
  17              	.Ltext0:
  18              		.cfi_sections	.debug_frame
  19              		.section	.text.EE_cortex_mx_resumeIRQ,"ax",%progbits
  20              		.align	2
  21              		.thumb
  22              		.thumb_func
  23              		.type	EE_cortex_mx_resumeIRQ, %function
  24              	EE_cortex_mx_resumeIRQ:
  25              	.LFB11:
  26              		.file 1 "Generated_Source\\PSoC5\\ErikaOS_1_cortex_mx_ee_cpu.inc"
   1:Generated_Source\PSoC5/ErikaOS_1_cortex_mx_ee_cpu.inc **** /* ###*B*###
   2:Generated_Source\PSoC5/ErikaOS_1_cortex_mx_ee_cpu.inc ****  * ERIKA Enterprise - a tiny RTOS for small microcontrollers
   3:Generated_Source\PSoC5/ErikaOS_1_cortex_mx_ee_cpu.inc ****  *
   4:Generated_Source\PSoC5/ErikaOS_1_cortex_mx_ee_cpu.inc ****  * Copyright (C) 2002-2011  Evidence Srl
   5:Generated_Source\PSoC5/ErikaOS_1_cortex_mx_ee_cpu.inc ****  *
   6:Generated_Source\PSoC5/ErikaOS_1_cortex_mx_ee_cpu.inc ****  * This file is part of ERIKA Enterprise.
   7:Generated_Source\PSoC5/ErikaOS_1_cortex_mx_ee_cpu.inc ****  *
   8:Generated_Source\PSoC5/ErikaOS_1_cortex_mx_ee_cpu.inc ****  * ERIKA Enterprise is free software; you can redistribute it
   9:Generated_Source\PSoC5/ErikaOS_1_cortex_mx_ee_cpu.inc ****  * and/or modify it under the terms of the GNU General Public License
  10:Generated_Source\PSoC5/ErikaOS_1_cortex_mx_ee_cpu.inc ****  * version 2 as published by the Free Software Foundation, 
  11:Generated_Source\PSoC5/ErikaOS_1_cortex_mx_ee_cpu.inc ****  * (with a special exception described below).
  12:Generated_Source\PSoC5/ErikaOS_1_cortex_mx_ee_cpu.inc ****  *
  13:Generated_Source\PSoC5/ErikaOS_1_cortex_mx_ee_cpu.inc ****  * Linking this code statically or dynamically with other modules is
  14:Generated_Source\PSoC5/ErikaOS_1_cortex_mx_ee_cpu.inc ****  * making a combined work based on this code.  Thus, the terms and
  15:Generated_Source\PSoC5/ErikaOS_1_cortex_mx_ee_cpu.inc ****  * conditions of the GNU General Public License cover the whole
  16:Generated_Source\PSoC5/ErikaOS_1_cortex_mx_ee_cpu.inc ****  * combination.
  17:Generated_Source\PSoC5/ErikaOS_1_cortex_mx_ee_cpu.inc ****  *
  18:Generated_Source\PSoC5/ErikaOS_1_cortex_mx_ee_cpu.inc ****  * As a special exception, the copyright holders of this library give you
  19:Generated_Source\PSoC5/ErikaOS_1_cortex_mx_ee_cpu.inc ****  * permission to link this code with independent modules to produce an
  20:Generated_Source\PSoC5/ErikaOS_1_cortex_mx_ee_cpu.inc ****  * executable, regardless of the license terms of these independent
  21:Generated_Source\PSoC5/ErikaOS_1_cortex_mx_ee_cpu.inc ****  * modules, and to copy and distribute the resulting executable under
  22:Generated_Source\PSoC5/ErikaOS_1_cortex_mx_ee_cpu.inc ****  * terms of your choice, provided that you also meet, for each linked
  23:Generated_Source\PSoC5/ErikaOS_1_cortex_mx_ee_cpu.inc ****  * independent module, the terms and conditions of the license of that
  24:Generated_Source\PSoC5/ErikaOS_1_cortex_mx_ee_cpu.inc ****  * module.  An independent module is a module which is not derived from
  25:Generated_Source\PSoC5/ErikaOS_1_cortex_mx_ee_cpu.inc ****  * or based on this library.  If you modify this code, you may extend
  26:Generated_Source\PSoC5/ErikaOS_1_cortex_mx_ee_cpu.inc ****  * this exception to your version of the code, but you are not
  27:Generated_Source\PSoC5/ErikaOS_1_cortex_mx_ee_cpu.inc ****  * obligated to do so.  If you do not wish to do so, delete this
  28:Generated_Source\PSoC5/ErikaOS_1_cortex_mx_ee_cpu.inc ****  * exception statement from your version.
  29:Generated_Source\PSoC5/ErikaOS_1_cortex_mx_ee_cpu.inc ****  *
  30:Generated_Source\PSoC5/ErikaOS_1_cortex_mx_ee_cpu.inc ****  * ERIKA Enterprise is distributed in the hope that it will be
  31:Generated_Source\PSoC5/ErikaOS_1_cortex_mx_ee_cpu.inc ****  * useful, but WITHOUT ANY WARRANTY; without even the implied warranty
ARM GAS  C:\Users\schmi\AppData\Local\Temp\ccLEO1Pj.s 			page 2


  32:Generated_Source\PSoC5/ErikaOS_1_cortex_mx_ee_cpu.inc ****  * of MERCHANTABILITY or FITNESS FOR A PARTICULAR PURPOSE.  See the
  33:Generated_Source\PSoC5/ErikaOS_1_cortex_mx_ee_cpu.inc ****  * GNU General Public License version 2 for more details.
  34:Generated_Source\PSoC5/ErikaOS_1_cortex_mx_ee_cpu.inc ****  *
  35:Generated_Source\PSoC5/ErikaOS_1_cortex_mx_ee_cpu.inc ****  * You should have received a copy of the GNU General Public License
  36:Generated_Source\PSoC5/ErikaOS_1_cortex_mx_ee_cpu.inc ****  * version 2 along with ERIKA Enterprise; if not, write to the
  37:Generated_Source\PSoC5/ErikaOS_1_cortex_mx_ee_cpu.inc ****  * Free Software Foundation, Inc., 51 Franklin Street, Fifth Floor,
  38:Generated_Source\PSoC5/ErikaOS_1_cortex_mx_ee_cpu.inc ****  * Boston, MA 02110-1301 USA.
  39:Generated_Source\PSoC5/ErikaOS_1_cortex_mx_ee_cpu.inc ****  * ###*E*### */
  40:Generated_Source\PSoC5/ErikaOS_1_cortex_mx_ee_cpu.inc **** 
  41:Generated_Source\PSoC5/ErikaOS_1_cortex_mx_ee_cpu.inc **** /** 
  42:Generated_Source\PSoC5/ErikaOS_1_cortex_mx_ee_cpu.inc **** 	@file ee_cpu.h
  43:Generated_Source\PSoC5/ErikaOS_1_cortex_mx_ee_cpu.inc **** 	@brief CPU-dependent part of HAL. Derived from pkg/cpu/pic30/inc/ee_cpu.h
  44:Generated_Source\PSoC5/ErikaOS_1_cortex_mx_ee_cpu.inc **** 	@author Gianluca Franchino
  45:Generated_Source\PSoC5/ErikaOS_1_cortex_mx_ee_cpu.inc **** 	@author Giuseppe Serano
  46:Generated_Source\PSoC5/ErikaOS_1_cortex_mx_ee_cpu.inc **** 	@date 2011
  47:Generated_Source\PSoC5/ErikaOS_1_cortex_mx_ee_cpu.inc **** */ 
  48:Generated_Source\PSoC5/ErikaOS_1_cortex_mx_ee_cpu.inc ****     
  49:Generated_Source\PSoC5/ErikaOS_1_cortex_mx_ee_cpu.inc **** /*
  50:Generated_Source\PSoC5/ErikaOS_1_cortex_mx_ee_cpu.inc ****  * PSoC Port and API Generation
  51:Generated_Source\PSoC5/ErikaOS_1_cortex_mx_ee_cpu.inc ****  * Carlos Fernando Meier Martinez
  52:Generated_Source\PSoC5/ErikaOS_1_cortex_mx_ee_cpu.inc ****  * Hochschule Darmstadt, Germany. 2017.
  53:Generated_Source\PSoC5/ErikaOS_1_cortex_mx_ee_cpu.inc ****  */
  54:Generated_Source\PSoC5/ErikaOS_1_cortex_mx_ee_cpu.inc **** 
  55:Generated_Source\PSoC5/ErikaOS_1_cortex_mx_ee_cpu.inc **** #ifndef __INCLUDE_CORTEX_MX_EE_CPU_H__
  56:Generated_Source\PSoC5/ErikaOS_1_cortex_mx_ee_cpu.inc **** #define __INCLUDE_CORTEX_MX_EE_CPU_H__
  57:Generated_Source\PSoC5/ErikaOS_1_cortex_mx_ee_cpu.inc **** 
  58:Generated_Source\PSoC5/ErikaOS_1_cortex_mx_ee_cpu.inc **** #include "ErikaOS_1_eecfg.inc"
  59:Generated_Source\PSoC5/ErikaOS_1_cortex_mx_ee_cpu.inc **** 
  60:Generated_Source\PSoC5/ErikaOS_1_cortex_mx_ee_cpu.inc **** 
  61:Generated_Source\PSoC5/ErikaOS_1_cortex_mx_ee_cpu.inc **** #ifdef __GNU__
  62:Generated_Source\PSoC5/ErikaOS_1_cortex_mx_ee_cpu.inc **** #include "ErikaOS_1_common_ee_compiler_gcc.inc"
  63:Generated_Source\PSoC5/ErikaOS_1_cortex_mx_ee_cpu.inc **** #endif
  64:Generated_Source\PSoC5/ErikaOS_1_cortex_mx_ee_cpu.inc **** 
  65:Generated_Source\PSoC5/ErikaOS_1_cortex_mx_ee_cpu.inc **** /* Initial stack offset (in words): Used in multistack. */
  66:Generated_Source\PSoC5/ErikaOS_1_cortex_mx_ee_cpu.inc **** #ifndef CORTEX_MX_INIT_TOS_OFFSET
  67:Generated_Source\PSoC5/ErikaOS_1_cortex_mx_ee_cpu.inc **** #define CORTEX_MX_INIT_TOS_OFFSET 10
  68:Generated_Source\PSoC5/ErikaOS_1_cortex_mx_ee_cpu.inc **** #endif
  69:Generated_Source\PSoC5/ErikaOS_1_cortex_mx_ee_cpu.inc **** 
  70:Generated_Source\PSoC5/ErikaOS_1_cortex_mx_ee_cpu.inc **** /*************************************************************************
  71:Generated_Source\PSoC5/ErikaOS_1_cortex_mx_ee_cpu.inc ****  HAL Types and structures
  72:Generated_Source\PSoC5/ErikaOS_1_cortex_mx_ee_cpu.inc ****  *************************************************************************/
  73:Generated_Source\PSoC5/ErikaOS_1_cortex_mx_ee_cpu.inc **** 
  74:Generated_Source\PSoC5/ErikaOS_1_cortex_mx_ee_cpu.inc **** /* Primitive data types */
  75:Generated_Source\PSoC5/ErikaOS_1_cortex_mx_ee_cpu.inc **** #include "ErikaOS_1_common_ee_types.inc"
  76:Generated_Source\PSoC5/ErikaOS_1_cortex_mx_ee_cpu.inc **** 
  77:Generated_Source\PSoC5/ErikaOS_1_cortex_mx_ee_cpu.inc **** typedef EE_UINT32 EE_UREG;
  78:Generated_Source\PSoC5/ErikaOS_1_cortex_mx_ee_cpu.inc **** typedef EE_INT32  EE_SREG;
  79:Generated_Source\PSoC5/ErikaOS_1_cortex_mx_ee_cpu.inc **** typedef EE_UINT32 EE_FREG;
  80:Generated_Source\PSoC5/ErikaOS_1_cortex_mx_ee_cpu.inc **** #define EE_UREG_SIZE 4
  81:Generated_Source\PSoC5/ErikaOS_1_cortex_mx_ee_cpu.inc **** 
  82:Generated_Source\PSoC5/ErikaOS_1_cortex_mx_ee_cpu.inc **** /* boolean type */
  83:Generated_Source\PSoC5/ErikaOS_1_cortex_mx_ee_cpu.inc **** #ifndef EE_TYPEBOOL
  84:Generated_Source\PSoC5/ErikaOS_1_cortex_mx_ee_cpu.inc **** typedef EE_UREG EE_TYPEBOOL;
  85:Generated_Source\PSoC5/ErikaOS_1_cortex_mx_ee_cpu.inc **** #endif
  86:Generated_Source\PSoC5/ErikaOS_1_cortex_mx_ee_cpu.inc **** 
  87:Generated_Source\PSoC5/ErikaOS_1_cortex_mx_ee_cpu.inc **** /* boolean true define */
  88:Generated_Source\PSoC5/ErikaOS_1_cortex_mx_ee_cpu.inc **** #ifndef EE_TRUE
ARM GAS  C:\Users\schmi\AppData\Local\Temp\ccLEO1Pj.s 			page 3


  89:Generated_Source\PSoC5/ErikaOS_1_cortex_mx_ee_cpu.inc **** #define EE_TRUE ((EE_TYPEBOOL)1U)
  90:Generated_Source\PSoC5/ErikaOS_1_cortex_mx_ee_cpu.inc **** #endif
  91:Generated_Source\PSoC5/ErikaOS_1_cortex_mx_ee_cpu.inc **** 
  92:Generated_Source\PSoC5/ErikaOS_1_cortex_mx_ee_cpu.inc **** /* boolean false define */
  93:Generated_Source\PSoC5/ErikaOS_1_cortex_mx_ee_cpu.inc **** #ifndef EE_FALSE
  94:Generated_Source\PSoC5/ErikaOS_1_cortex_mx_ee_cpu.inc **** #define EE_FALSE ((EE_TYPEBOOL)0U)
  95:Generated_Source\PSoC5/ErikaOS_1_cortex_mx_ee_cpu.inc **** #endif
  96:Generated_Source\PSoC5/ErikaOS_1_cortex_mx_ee_cpu.inc **** 
  97:Generated_Source\PSoC5/ErikaOS_1_cortex_mx_ee_cpu.inc **** #define	EE_HWREG_PTR		volatile EE_UREG *
  98:Generated_Source\PSoC5/ErikaOS_1_cortex_mx_ee_cpu.inc **** #define	EE_HWREG_ADDR(x)	((EE_HWREG_PTR)(x))
  99:Generated_Source\PSoC5/ErikaOS_1_cortex_mx_ee_cpu.inc **** #define	EE_HWREG(x)		(*EE_HWREG_ADDR(x))
 100:Generated_Source\PSoC5/ErikaOS_1_cortex_mx_ee_cpu.inc **** 
 101:Generated_Source\PSoC5/ErikaOS_1_cortex_mx_ee_cpu.inc **** #ifdef __GNU__
 102:Generated_Source\PSoC5/ErikaOS_1_cortex_mx_ee_cpu.inc **** 
 103:Generated_Source\PSoC5/ErikaOS_1_cortex_mx_ee_cpu.inc **** /* Get current SP */
 104:Generated_Source\PSoC5/ErikaOS_1_cortex_mx_ee_cpu.inc **** __INLINE__ EE_UINT32  __current_sp(void)
 105:Generated_Source\PSoC5/ErikaOS_1_cortex_mx_ee_cpu.inc **** {
 106:Generated_Source\PSoC5/ErikaOS_1_cortex_mx_ee_cpu.inc **** EE_UINT32 temp;
 107:Generated_Source\PSoC5/ErikaOS_1_cortex_mx_ee_cpu.inc **** __ASM ("mov %0, sp" : "=r" (temp) : );
 108:Generated_Source\PSoC5/ErikaOS_1_cortex_mx_ee_cpu.inc **** return temp;
 109:Generated_Source\PSoC5/ErikaOS_1_cortex_mx_ee_cpu.inc **** }
 110:Generated_Source\PSoC5/ErikaOS_1_cortex_mx_ee_cpu.inc **** 
 111:Generated_Source\PSoC5/ErikaOS_1_cortex_mx_ee_cpu.inc **** /* Set a breakpoint */
 112:Generated_Source\PSoC5/ErikaOS_1_cortex_mx_ee_cpu.inc **** #define __breakpoint(value)	__ASM ("bkpt "#value)
 113:Generated_Source\PSoC5/ErikaOS_1_cortex_mx_ee_cpu.inc **** 
 114:Generated_Source\PSoC5/ErikaOS_1_cortex_mx_ee_cpu.inc **** #endif
 115:Generated_Source\PSoC5/ErikaOS_1_cortex_mx_ee_cpu.inc **** 
 116:Generated_Source\PSoC5/ErikaOS_1_cortex_mx_ee_cpu.inc **** /* ISR Priority representation type */
 117:Generated_Source\PSoC5/ErikaOS_1_cortex_mx_ee_cpu.inc **** typedef EE_UREG EE_TYPEISR2PRIO;
 118:Generated_Source\PSoC5/ErikaOS_1_cortex_mx_ee_cpu.inc **** 
 119:Generated_Source\PSoC5/ErikaOS_1_cortex_mx_ee_cpu.inc **** /* Thread IDs */
 120:Generated_Source\PSoC5/ErikaOS_1_cortex_mx_ee_cpu.inc **** typedef EE_INT32 EE_TID;
 121:Generated_Source\PSoC5/ErikaOS_1_cortex_mx_ee_cpu.inc **** 
 122:Generated_Source\PSoC5/ErikaOS_1_cortex_mx_ee_cpu.inc **** /* Thread IDs - unsigned version*/
 123:Generated_Source\PSoC5/ErikaOS_1_cortex_mx_ee_cpu.inc **** typedef EE_UINT32 EE_UTID;
 124:Generated_Source\PSoC5/ErikaOS_1_cortex_mx_ee_cpu.inc **** 
 125:Generated_Source\PSoC5/ErikaOS_1_cortex_mx_ee_cpu.inc **** /* Used by the common layer to decide whether to start a new thread */
 126:Generated_Source\PSoC5/ErikaOS_1_cortex_mx_ee_cpu.inc **** #define TID_IS_STACKED_MARK 0x80000000
 127:Generated_Source\PSoC5/ErikaOS_1_cortex_mx_ee_cpu.inc **** 
 128:Generated_Source\PSoC5/ErikaOS_1_cortex_mx_ee_cpu.inc **** /* EE_TYPEIRQ is currently unused */
 129:Generated_Source\PSoC5/ErikaOS_1_cortex_mx_ee_cpu.inc **** 
 130:Generated_Source\PSoC5/ErikaOS_1_cortex_mx_ee_cpu.inc **** /* XXX: define EE_TIME? */
 131:Generated_Source\PSoC5/ErikaOS_1_cortex_mx_ee_cpu.inc **** 
 132:Generated_Source\PSoC5/ErikaOS_1_cortex_mx_ee_cpu.inc **** /* Use the "standard" implementation */
 133:Generated_Source\PSoC5/ErikaOS_1_cortex_mx_ee_cpu.inc **** #include "ErikaOS_1_common_ee_hal_structs.inc"
 134:Generated_Source\PSoC5/ErikaOS_1_cortex_mx_ee_cpu.inc **** 
 135:Generated_Source\PSoC5/ErikaOS_1_cortex_mx_ee_cpu.inc **** /******************************************************************************
 136:Generated_Source\PSoC5/ErikaOS_1_cortex_mx_ee_cpu.inc ****  Application dependent data types
 137:Generated_Source\PSoC5/ErikaOS_1_cortex_mx_ee_cpu.inc ****  ******************************************************************************/
 138:Generated_Source\PSoC5/ErikaOS_1_cortex_mx_ee_cpu.inc **** 
 139:Generated_Source\PSoC5/ErikaOS_1_cortex_mx_ee_cpu.inc **** #ifdef	__HAS_TYPES_H__
 140:Generated_Source\PSoC5/ErikaOS_1_cortex_mx_ee_cpu.inc **** #include	"types.h"
 141:Generated_Source\PSoC5/ErikaOS_1_cortex_mx_ee_cpu.inc **** #endif
 142:Generated_Source\PSoC5/ErikaOS_1_cortex_mx_ee_cpu.inc **** 
 143:Generated_Source\PSoC5/ErikaOS_1_cortex_mx_ee_cpu.inc **** /******************************************************************************
 144:Generated_Source\PSoC5/ErikaOS_1_cortex_mx_ee_cpu.inc ****  CPU Peripherals
 145:Generated_Source\PSoC5/ErikaOS_1_cortex_mx_ee_cpu.inc ****  ******************************************************************************/
ARM GAS  C:\Users\schmi\AppData\Local\Temp\ccLEO1Pj.s 			page 4


 146:Generated_Source\PSoC5/ErikaOS_1_cortex_mx_ee_cpu.inc **** 
 147:Generated_Source\PSoC5/ErikaOS_1_cortex_mx_ee_cpu.inc **** #ifdef __CORTEX_MX__
 148:Generated_Source\PSoC5/ErikaOS_1_cortex_mx_ee_cpu.inc **** #include "ErikaOS_1_cortex_mx_ee_nvic.inc"
 149:Generated_Source\PSoC5/ErikaOS_1_cortex_mx_ee_cpu.inc **** #include "ErikaOS_1_cortex_mx_ee_systick.inc"
 150:Generated_Source\PSoC5/ErikaOS_1_cortex_mx_ee_cpu.inc **** #endif
 151:Generated_Source\PSoC5/ErikaOS_1_cortex_mx_ee_cpu.inc **** 
 152:Generated_Source\PSoC5/ErikaOS_1_cortex_mx_ee_cpu.inc **** /******************************************************************************
 153:Generated_Source\PSoC5/ErikaOS_1_cortex_mx_ee_cpu.inc ****  HAL Variables
 154:Generated_Source\PSoC5/ErikaOS_1_cortex_mx_ee_cpu.inc ****  ******************************************************************************/
 155:Generated_Source\PSoC5/ErikaOS_1_cortex_mx_ee_cpu.inc **** 
 156:Generated_Source\PSoC5/ErikaOS_1_cortex_mx_ee_cpu.inc **** #ifdef __MULTI__
 157:Generated_Source\PSoC5/ErikaOS_1_cortex_mx_ee_cpu.inc **** 
 158:Generated_Source\PSoC5/ErikaOS_1_cortex_mx_ee_cpu.inc **** /* Top-of-stack of each private stack */
 159:Generated_Source\PSoC5/ErikaOS_1_cortex_mx_ee_cpu.inc **** extern struct EE_TOS EE_cortex_mx_system_tos[];
 160:Generated_Source\PSoC5/ErikaOS_1_cortex_mx_ee_cpu.inc **** //#define	EE_std_system_tos EE_cortex_mx_system_tos
 161:Generated_Source\PSoC5/ErikaOS_1_cortex_mx_ee_cpu.inc **** 
 162:Generated_Source\PSoC5/ErikaOS_1_cortex_mx_ee_cpu.inc **** /* Index of the current stack */
 163:Generated_Source\PSoC5/ErikaOS_1_cortex_mx_ee_cpu.inc **** extern EE_UREG EE_cortex_mx_active_tos;
 164:Generated_Source\PSoC5/ErikaOS_1_cortex_mx_ee_cpu.inc **** #define	EE_hal_active_tos EE_cortex_mx_active_tos
 165:Generated_Source\PSoC5/ErikaOS_1_cortex_mx_ee_cpu.inc **** 
 166:Generated_Source\PSoC5/ErikaOS_1_cortex_mx_ee_cpu.inc **** /*extern	EE_UREG EE_pic30_thread_tos[];
 167:Generated_Source\PSoC5/ErikaOS_1_cortex_mx_ee_cpu.inc **** #define	EE_std_thread_tos EE_pic30_thread_tos */
 168:Generated_Source\PSoC5/ErikaOS_1_cortex_mx_ee_cpu.inc **** #endif /* __MULTI__ */
 169:Generated_Source\PSoC5/ErikaOS_1_cortex_mx_ee_cpu.inc **** 
 170:Generated_Source\PSoC5/ErikaOS_1_cortex_mx_ee_cpu.inc **** /*********************************************************************
 171:Generated_Source\PSoC5/ErikaOS_1_cortex_mx_ee_cpu.inc ****  Cortex M0 interrupt disabling/enabling
 172:Generated_Source\PSoC5/ErikaOS_1_cortex_mx_ee_cpu.inc ****  *********************************************************************/
 173:Generated_Source\PSoC5/ErikaOS_1_cortex_mx_ee_cpu.inc **** 
 174:Generated_Source\PSoC5/ErikaOS_1_cortex_mx_ee_cpu.inc **** /* Used to check the value returned by EE_cortex_mx_disableIRQ */
 175:Generated_Source\PSoC5/ErikaOS_1_cortex_mx_ee_cpu.inc **** #define EE_cortex_mx_are_IRQs_enabled(ie) ((ie) ^ 1)
 176:Generated_Source\PSoC5/ErikaOS_1_cortex_mx_ee_cpu.inc **** 
 177:Generated_Source\PSoC5/ErikaOS_1_cortex_mx_ee_cpu.inc **** /**
 178:Generated_Source\PSoC5/ErikaOS_1_cortex_mx_ee_cpu.inc ****  * Enable interrupts
 179:Generated_Source\PSoC5/ErikaOS_1_cortex_mx_ee_cpu.inc ****  */
 180:Generated_Source\PSoC5/ErikaOS_1_cortex_mx_ee_cpu.inc **** __INLINE__ void  EE_cortex_mx_enableIRQ(void)
 181:Generated_Source\PSoC5/ErikaOS_1_cortex_mx_ee_cpu.inc **** {
 182:Generated_Source\PSoC5/ErikaOS_1_cortex_mx_ee_cpu.inc **** #ifdef __IAR__
 183:Generated_Source\PSoC5/ErikaOS_1_cortex_mx_ee_cpu.inc **** 	__ASM ("cpsie i");
 184:Generated_Source\PSoC5/ErikaOS_1_cortex_mx_ee_cpu.inc **** #else	/* __IAR__ */
 185:Generated_Source\PSoC5/ErikaOS_1_cortex_mx_ee_cpu.inc **** #ifdef __CCS__
 186:Generated_Source\PSoC5/ErikaOS_1_cortex_mx_ee_cpu.inc **** 	__ASM ("    cpsie    i\n");
 187:Generated_Source\PSoC5/ErikaOS_1_cortex_mx_ee_cpu.inc **** #else	/* __CCS__ */
 188:Generated_Source\PSoC5/ErikaOS_1_cortex_mx_ee_cpu.inc **** #ifdef __KEIL__
 189:Generated_Source\PSoC5/ErikaOS_1_cortex_mx_ee_cpu.inc **** 	__enable_irq();
 190:Generated_Source\PSoC5/ErikaOS_1_cortex_mx_ee_cpu.inc **** #else	/* __KEIL__ */
 191:Generated_Source\PSoC5/ErikaOS_1_cortex_mx_ee_cpu.inc **** 	__ASM volatile("cpsie i");
 192:Generated_Source\PSoC5/ErikaOS_1_cortex_mx_ee_cpu.inc **** #endif	/* !__KEIL__ */
 193:Generated_Source\PSoC5/ErikaOS_1_cortex_mx_ee_cpu.inc **** #endif	/* !__CCS__ */
 194:Generated_Source\PSoC5/ErikaOS_1_cortex_mx_ee_cpu.inc **** #endif	/* !__IAR__ */
 195:Generated_Source\PSoC5/ErikaOS_1_cortex_mx_ee_cpu.inc **** }
 196:Generated_Source\PSoC5/ErikaOS_1_cortex_mx_ee_cpu.inc **** 
 197:Generated_Source\PSoC5/ErikaOS_1_cortex_mx_ee_cpu.inc **** /**
 198:Generated_Source\PSoC5/ErikaOS_1_cortex_mx_ee_cpu.inc ****  * Disable interrupts
 199:Generated_Source\PSoC5/ErikaOS_1_cortex_mx_ee_cpu.inc ****  */
 200:Generated_Source\PSoC5/ErikaOS_1_cortex_mx_ee_cpu.inc **** __INLINE__ void  EE_cortex_mx_disableIRQ(void)
 201:Generated_Source\PSoC5/ErikaOS_1_cortex_mx_ee_cpu.inc **** {
 202:Generated_Source\PSoC5/ErikaOS_1_cortex_mx_ee_cpu.inc **** #ifdef __IAR__
ARM GAS  C:\Users\schmi\AppData\Local\Temp\ccLEO1Pj.s 			page 5


 203:Generated_Source\PSoC5/ErikaOS_1_cortex_mx_ee_cpu.inc **** 	__ASM ("cpsid i");
 204:Generated_Source\PSoC5/ErikaOS_1_cortex_mx_ee_cpu.inc **** #else	/* __IAR__ */
 205:Generated_Source\PSoC5/ErikaOS_1_cortex_mx_ee_cpu.inc **** #ifdef __CCS__
 206:Generated_Source\PSoC5/ErikaOS_1_cortex_mx_ee_cpu.inc **** 	__ASM ("    cpsid    i\n");
 207:Generated_Source\PSoC5/ErikaOS_1_cortex_mx_ee_cpu.inc **** #else	/* __CCS__ */
 208:Generated_Source\PSoC5/ErikaOS_1_cortex_mx_ee_cpu.inc **** #ifdef __KEIL__
 209:Generated_Source\PSoC5/ErikaOS_1_cortex_mx_ee_cpu.inc **** 	__disable_irq();
 210:Generated_Source\PSoC5/ErikaOS_1_cortex_mx_ee_cpu.inc **** #else	/* __KEIL__ */
 211:Generated_Source\PSoC5/ErikaOS_1_cortex_mx_ee_cpu.inc **** 	__ASM volatile("cpsid i");
 212:Generated_Source\PSoC5/ErikaOS_1_cortex_mx_ee_cpu.inc **** #endif	/* !__KEIL__ */
 213:Generated_Source\PSoC5/ErikaOS_1_cortex_mx_ee_cpu.inc **** #endif	/* !__CCS__ */
 214:Generated_Source\PSoC5/ErikaOS_1_cortex_mx_ee_cpu.inc **** #endif	/* !__IAR__ */
 215:Generated_Source\PSoC5/ErikaOS_1_cortex_mx_ee_cpu.inc **** }
 216:Generated_Source\PSoC5/ErikaOS_1_cortex_mx_ee_cpu.inc **** 
 217:Generated_Source\PSoC5/ErikaOS_1_cortex_mx_ee_cpu.inc **** /**
 218:Generated_Source\PSoC5/ErikaOS_1_cortex_mx_ee_cpu.inc ****  * Resume interrupts
 219:Generated_Source\PSoC5/ErikaOS_1_cortex_mx_ee_cpu.inc ****  */
 220:Generated_Source\PSoC5/ErikaOS_1_cortex_mx_ee_cpu.inc **** __INLINE__ void  EE_cortex_mx_resumeIRQ(EE_FREG f)
 221:Generated_Source\PSoC5/ErikaOS_1_cortex_mx_ee_cpu.inc **** {
  27              		.loc 1 221 0
  28              		.cfi_startproc
  29              		@ args = 0, pretend = 0, frame = 8
  30              		@ frame_needed = 1, uses_anonymous_args = 0
  31              		@ link register save eliminated.
  32 0000 80B4     		push	{r7}
  33              		.cfi_def_cfa_offset 4
  34              		.cfi_offset 7, -4
  35 0002 83B0     		sub	sp, sp, #12
  36              		.cfi_def_cfa_offset 16
  37 0004 00AF     		add	r7, sp, #0
  38              		.cfi_def_cfa_register 7
  39 0006 7860     		str	r0, [r7, #4]
 222:Generated_Source\PSoC5/ErikaOS_1_cortex_mx_ee_cpu.inc **** #ifdef __IAR__
 223:Generated_Source\PSoC5/ErikaOS_1_cortex_mx_ee_cpu.inc **** 	__set_PRIMASK(f);
 224:Generated_Source\PSoC5/ErikaOS_1_cortex_mx_ee_cpu.inc **** #else	/* __IAR__ */
 225:Generated_Source\PSoC5/ErikaOS_1_cortex_mx_ee_cpu.inc **** #ifdef __CCS__
 226:Generated_Source\PSoC5/ErikaOS_1_cortex_mx_ee_cpu.inc **** 	__ASM ("    msr    primask, r0\n");
 227:Generated_Source\PSoC5/ErikaOS_1_cortex_mx_ee_cpu.inc **** #else	/* __CCS__ */
 228:Generated_Source\PSoC5/ErikaOS_1_cortex_mx_ee_cpu.inc **** #ifdef __KEIL__
 229:Generated_Source\PSoC5/ErikaOS_1_cortex_mx_ee_cpu.inc **** 	register EE_FREG PRIMASK __ASM("primask");
 230:Generated_Source\PSoC5/ErikaOS_1_cortex_mx_ee_cpu.inc **** 	PRIMASK = f;
 231:Generated_Source\PSoC5/ErikaOS_1_cortex_mx_ee_cpu.inc **** #else	/* __KEIL__ */
 232:Generated_Source\PSoC5/ErikaOS_1_cortex_mx_ee_cpu.inc **** 	__ASM volatile("msr primask, %0" :: "r" (f));
  40              		.loc 1 232 0
  41 0008 7B68     		ldr	r3, [r7, #4]
  42              		.syntax unified
  43              	@ 232 "Generated_Source\PSoC5\ErikaOS_1_cortex_mx_ee_cpu.inc" 1
  44 000a 83F31088 		msr primask, r3
  45              	@ 0 "" 2
 233:Generated_Source\PSoC5/ErikaOS_1_cortex_mx_ee_cpu.inc **** #endif	/* !__KEIL__ */
 234:Generated_Source\PSoC5/ErikaOS_1_cortex_mx_ee_cpu.inc **** #endif	/* !__CCS__ */
 235:Generated_Source\PSoC5/ErikaOS_1_cortex_mx_ee_cpu.inc **** #endif	/* !__IAR__ */
 236:Generated_Source\PSoC5/ErikaOS_1_cortex_mx_ee_cpu.inc **** }
  46              		.loc 1 236 0
  47              		.thumb
  48              		.syntax unified
  49 000e 00BF     		nop
ARM GAS  C:\Users\schmi\AppData\Local\Temp\ccLEO1Pj.s 			page 6


  50 0010 0C37     		adds	r7, r7, #12
  51              		.cfi_def_cfa_offset 4
  52 0012 BD46     		mov	sp, r7
  53              		.cfi_def_cfa_register 13
  54              		@ sp needed
  55 0014 80BC     		pop	{r7}
  56              		.cfi_restore 7
  57              		.cfi_def_cfa_offset 0
  58 0016 7047     		bx	lr
  59              		.cfi_endproc
  60              	.LFE11:
  61              		.size	EE_cortex_mx_resumeIRQ, .-EE_cortex_mx_resumeIRQ
  62              		.section	.text.EE_cortex_mx_suspendIRQ,"ax",%progbits
  63              		.align	2
  64              		.thumb
  65              		.thumb_func
  66              		.type	EE_cortex_mx_suspendIRQ, %function
  67              	EE_cortex_mx_suspendIRQ:
  68              	.LFB12:
 237:Generated_Source\PSoC5/ErikaOS_1_cortex_mx_ee_cpu.inc **** 
 238:Generated_Source\PSoC5/ErikaOS_1_cortex_mx_ee_cpu.inc **** /**
 239:Generated_Source\PSoC5/ErikaOS_1_cortex_mx_ee_cpu.inc ****  * Suspend interrupts
 240:Generated_Source\PSoC5/ErikaOS_1_cortex_mx_ee_cpu.inc ****  */
 241:Generated_Source\PSoC5/ErikaOS_1_cortex_mx_ee_cpu.inc **** __INLINE__ EE_FREG  EE_cortex_mx_suspendIRQ(void)
 242:Generated_Source\PSoC5/ErikaOS_1_cortex_mx_ee_cpu.inc **** {
  69              		.loc 1 242 0
  70              		.cfi_startproc
  71              		@ args = 0, pretend = 0, frame = 8
  72              		@ frame_needed = 1, uses_anonymous_args = 0
  73              		@ link register save eliminated.
  74 0000 80B4     		push	{r7}
  75              		.cfi_def_cfa_offset 4
  76              		.cfi_offset 7, -4
  77 0002 83B0     		sub	sp, sp, #12
  78              		.cfi_def_cfa_offset 16
  79 0004 00AF     		add	r7, sp, #0
  80              		.cfi_def_cfa_register 7
 243:Generated_Source\PSoC5/ErikaOS_1_cortex_mx_ee_cpu.inc **** #ifndef __CCS__
 244:Generated_Source\PSoC5/ErikaOS_1_cortex_mx_ee_cpu.inc **** 	EE_FREG istat;
 245:Generated_Source\PSoC5/ErikaOS_1_cortex_mx_ee_cpu.inc **** #endif
 246:Generated_Source\PSoC5/ErikaOS_1_cortex_mx_ee_cpu.inc **** #ifdef __IAR__
 247:Generated_Source\PSoC5/ErikaOS_1_cortex_mx_ee_cpu.inc **** 	 istat = __get_PRIMASK();
 248:Generated_Source\PSoC5/ErikaOS_1_cortex_mx_ee_cpu.inc **** 	__ASM ("cpsid i");
 249:Generated_Source\PSoC5/ErikaOS_1_cortex_mx_ee_cpu.inc **** #else	/* __IAR__ */
 250:Generated_Source\PSoC5/ErikaOS_1_cortex_mx_ee_cpu.inc **** #ifdef __CCS__
 251:Generated_Source\PSoC5/ErikaOS_1_cortex_mx_ee_cpu.inc **** 	__ASM ("    mrs     r0, primask\n"
 252:Generated_Source\PSoC5/ErikaOS_1_cortex_mx_ee_cpu.inc **** 	       "    cpsid   i\n"
 253:Generated_Source\PSoC5/ErikaOS_1_cortex_mx_ee_cpu.inc **** 	       "    bx      lr\n");
 254:Generated_Source\PSoC5/ErikaOS_1_cortex_mx_ee_cpu.inc **** #else	/* __CCS__ */
 255:Generated_Source\PSoC5/ErikaOS_1_cortex_mx_ee_cpu.inc **** #ifdef __KEIL__
 256:Generated_Source\PSoC5/ErikaOS_1_cortex_mx_ee_cpu.inc **** 	register EE_FREG PRIMASK __ASM("primask");
 257:Generated_Source\PSoC5/ErikaOS_1_cortex_mx_ee_cpu.inc **** 	istat = PRIMASK;
 258:Generated_Source\PSoC5/ErikaOS_1_cortex_mx_ee_cpu.inc **** 	__disable_irq();
 259:Generated_Source\PSoC5/ErikaOS_1_cortex_mx_ee_cpu.inc **** #else	/* __KEIL__ */
 260:Generated_Source\PSoC5/ErikaOS_1_cortex_mx_ee_cpu.inc **** 	__ASM volatile ("mrs %0, primask" : "=r" (istat) );
  81              		.loc 1 260 0
  82              		.syntax unified
ARM GAS  C:\Users\schmi\AppData\Local\Temp\ccLEO1Pj.s 			page 7


  83              	@ 260 "Generated_Source\PSoC5\ErikaOS_1_cortex_mx_ee_cpu.inc" 1
  84 0006 EFF31083 		mrs r3, primask
  85              	@ 0 "" 2
  86              		.thumb
  87              		.syntax unified
  88 000a 7B60     		str	r3, [r7, #4]
 261:Generated_Source\PSoC5/ErikaOS_1_cortex_mx_ee_cpu.inc **** 	__ASM volatile ("cpsid i");
  89              		.loc 1 261 0
  90              		.syntax unified
  91              	@ 261 "Generated_Source\PSoC5\ErikaOS_1_cortex_mx_ee_cpu.inc" 1
  92 000c 72B6     		cpsid i
  93              	@ 0 "" 2
 262:Generated_Source\PSoC5/ErikaOS_1_cortex_mx_ee_cpu.inc **** #endif	/* !__KEIL__ */
 263:Generated_Source\PSoC5/ErikaOS_1_cortex_mx_ee_cpu.inc **** #endif	/* !__CCS__ */
 264:Generated_Source\PSoC5/ErikaOS_1_cortex_mx_ee_cpu.inc **** #endif	/* !__IAR__ */
 265:Generated_Source\PSoC5/ErikaOS_1_cortex_mx_ee_cpu.inc **** #ifdef __CCS__
 266:Generated_Source\PSoC5/ErikaOS_1_cortex_mx_ee_cpu.inc **** 	return 0;
 267:Generated_Source\PSoC5/ErikaOS_1_cortex_mx_ee_cpu.inc **** #else
 268:Generated_Source\PSoC5/ErikaOS_1_cortex_mx_ee_cpu.inc **** 	return istat;
  94              		.loc 1 268 0
  95              		.thumb
  96              		.syntax unified
  97 000e 7B68     		ldr	r3, [r7, #4]
 269:Generated_Source\PSoC5/ErikaOS_1_cortex_mx_ee_cpu.inc **** #endif
 270:Generated_Source\PSoC5/ErikaOS_1_cortex_mx_ee_cpu.inc **** }
  98              		.loc 1 270 0
  99 0010 1846     		mov	r0, r3
 100 0012 0C37     		adds	r7, r7, #12
 101              		.cfi_def_cfa_offset 4
 102 0014 BD46     		mov	sp, r7
 103              		.cfi_def_cfa_register 13
 104              		@ sp needed
 105 0016 80BC     		pop	{r7}
 106              		.cfi_restore 7
 107              		.cfi_def_cfa_offset 0
 108 0018 7047     		bx	lr
 109              		.cfi_endproc
 110              	.LFE12:
 111              		.size	EE_cortex_mx_suspendIRQ, .-EE_cortex_mx_suspendIRQ
 112              		.section	.text.EE_hal_begin_nested_primitive,"ax",%progbits
 113              		.align	2
 114              		.thumb
 115              		.thumb_func
 116              		.type	EE_hal_begin_nested_primitive, %function
 117              	EE_hal_begin_nested_primitive:
 118              	.LFB25:
 119              		.file 2 "Generated_Source\\PSoC5\\ErikaOS_1_cortex_mx_ee_internal.inc"
   1:Generated_Source\PSoC5/ErikaOS_1_cortex_mx_ee_internal.inc **** /* ###*B*###
   2:Generated_Source\PSoC5/ErikaOS_1_cortex_mx_ee_internal.inc ****  * ERIKA Enterprise - a tiny RTOS for small microcontrollers
   3:Generated_Source\PSoC5/ErikaOS_1_cortex_mx_ee_internal.inc ****  *
   4:Generated_Source\PSoC5/ErikaOS_1_cortex_mx_ee_internal.inc ****  * Copyright (C) 2002-2011  Evidence Srl
   5:Generated_Source\PSoC5/ErikaOS_1_cortex_mx_ee_internal.inc ****  *
   6:Generated_Source\PSoC5/ErikaOS_1_cortex_mx_ee_internal.inc ****  * This file is part of ERIKA Enterprise.
   7:Generated_Source\PSoC5/ErikaOS_1_cortex_mx_ee_internal.inc ****  *
   8:Generated_Source\PSoC5/ErikaOS_1_cortex_mx_ee_internal.inc ****  * ERIKA Enterprise is free software; you can redistribute it
   9:Generated_Source\PSoC5/ErikaOS_1_cortex_mx_ee_internal.inc ****  * and/or modify it under the terms of the GNU General Public License
  10:Generated_Source\PSoC5/ErikaOS_1_cortex_mx_ee_internal.inc ****  * version 2 as published by the Free Software Foundation, 
ARM GAS  C:\Users\schmi\AppData\Local\Temp\ccLEO1Pj.s 			page 8


  11:Generated_Source\PSoC5/ErikaOS_1_cortex_mx_ee_internal.inc ****  * (with a special exception described below).
  12:Generated_Source\PSoC5/ErikaOS_1_cortex_mx_ee_internal.inc ****  *
  13:Generated_Source\PSoC5/ErikaOS_1_cortex_mx_ee_internal.inc ****  * Linking this code statically or dynamically with other modules is
  14:Generated_Source\PSoC5/ErikaOS_1_cortex_mx_ee_internal.inc ****  * making a combined work based on this code.  Thus, the terms and
  15:Generated_Source\PSoC5/ErikaOS_1_cortex_mx_ee_internal.inc ****  * conditions of the GNU General Public License cover the whole
  16:Generated_Source\PSoC5/ErikaOS_1_cortex_mx_ee_internal.inc ****  * combination.
  17:Generated_Source\PSoC5/ErikaOS_1_cortex_mx_ee_internal.inc ****  *
  18:Generated_Source\PSoC5/ErikaOS_1_cortex_mx_ee_internal.inc ****  * As a special exception, the copyright holders of this library give you
  19:Generated_Source\PSoC5/ErikaOS_1_cortex_mx_ee_internal.inc ****  * permission to link this code with independent modules to produce an
  20:Generated_Source\PSoC5/ErikaOS_1_cortex_mx_ee_internal.inc ****  * executable, regardless of the license terms of these independent
  21:Generated_Source\PSoC5/ErikaOS_1_cortex_mx_ee_internal.inc ****  * modules, and to copy and distribute the resulting executable under
  22:Generated_Source\PSoC5/ErikaOS_1_cortex_mx_ee_internal.inc ****  * terms of your choice, provided that you also meet, for each linked
  23:Generated_Source\PSoC5/ErikaOS_1_cortex_mx_ee_internal.inc ****  * independent module, the terms and conditions of the license of that
  24:Generated_Source\PSoC5/ErikaOS_1_cortex_mx_ee_internal.inc ****  * module.  An independent module is a module which is not derived from
  25:Generated_Source\PSoC5/ErikaOS_1_cortex_mx_ee_internal.inc ****  * or based on this library.  If you modify this code, you may extend
  26:Generated_Source\PSoC5/ErikaOS_1_cortex_mx_ee_internal.inc ****  * this exception to your version of the code, but you are not
  27:Generated_Source\PSoC5/ErikaOS_1_cortex_mx_ee_internal.inc ****  * obligated to do so.  If you do not wish to do so, delete this
  28:Generated_Source\PSoC5/ErikaOS_1_cortex_mx_ee_internal.inc ****  * exception statement from your version.
  29:Generated_Source\PSoC5/ErikaOS_1_cortex_mx_ee_internal.inc ****  *
  30:Generated_Source\PSoC5/ErikaOS_1_cortex_mx_ee_internal.inc ****  * ERIKA Enterprise is distributed in the hope that it will be
  31:Generated_Source\PSoC5/ErikaOS_1_cortex_mx_ee_internal.inc ****  * useful, but WITHOUT ANY WARRANTY; without even the implied warranty
  32:Generated_Source\PSoC5/ErikaOS_1_cortex_mx_ee_internal.inc ****  * of MERCHANTABILITY or FITNESS FOR A PARTICULAR PURPOSE.  See the
  33:Generated_Source\PSoC5/ErikaOS_1_cortex_mx_ee_internal.inc ****  * GNU General Public License version 2 for more details.
  34:Generated_Source\PSoC5/ErikaOS_1_cortex_mx_ee_internal.inc ****  *
  35:Generated_Source\PSoC5/ErikaOS_1_cortex_mx_ee_internal.inc ****  * You should have received a copy of the GNU General Public License
  36:Generated_Source\PSoC5/ErikaOS_1_cortex_mx_ee_internal.inc ****  * version 2 along with ERIKA Enterprise; if not, write to the
  37:Generated_Source\PSoC5/ErikaOS_1_cortex_mx_ee_internal.inc ****  * Free Software Foundation, Inc., 51 Franklin Street, Fifth Floor,
  38:Generated_Source\PSoC5/ErikaOS_1_cortex_mx_ee_internal.inc ****  * Boston, MA 02110-1301 USA.
  39:Generated_Source\PSoC5/ErikaOS_1_cortex_mx_ee_internal.inc ****  * ###*E*### */
  40:Generated_Source\PSoC5/ErikaOS_1_cortex_mx_ee_internal.inc **** 
  41:Generated_Source\PSoC5/ErikaOS_1_cortex_mx_ee_internal.inc **** /** 
  42:Generated_Source\PSoC5/ErikaOS_1_cortex_mx_ee_internal.inc **** 	@file	ee_internal.h
  43:Generated_Source\PSoC5/ErikaOS_1_cortex_mx_ee_internal.inc **** 	@brief	Derived from cpu/pic30/inc/ee_internal.h
  44:Generated_Source\PSoC5/ErikaOS_1_cortex_mx_ee_internal.inc **** 	@author	Gianluca Franchino
  45:Generated_Source\PSoC5/ErikaOS_1_cortex_mx_ee_internal.inc **** 	@author	Giuseppe Serano
  46:Generated_Source\PSoC5/ErikaOS_1_cortex_mx_ee_internal.inc **** 	@date	2012
  47:Generated_Source\PSoC5/ErikaOS_1_cortex_mx_ee_internal.inc **** */  
  48:Generated_Source\PSoC5/ErikaOS_1_cortex_mx_ee_internal.inc ****     
  49:Generated_Source\PSoC5/ErikaOS_1_cortex_mx_ee_internal.inc **** /*
  50:Generated_Source\PSoC5/ErikaOS_1_cortex_mx_ee_internal.inc ****  * PSoC Port and API Generation
  51:Generated_Source\PSoC5/ErikaOS_1_cortex_mx_ee_internal.inc ****  * Carlos Fernando Meier Martinez
  52:Generated_Source\PSoC5/ErikaOS_1_cortex_mx_ee_internal.inc ****  * Hochschule Darmstadt, Germany. 2017.
  53:Generated_Source\PSoC5/ErikaOS_1_cortex_mx_ee_internal.inc ****  */
  54:Generated_Source\PSoC5/ErikaOS_1_cortex_mx_ee_internal.inc **** 
  55:Generated_Source\PSoC5/ErikaOS_1_cortex_mx_ee_internal.inc **** #ifndef __INCLUDE_CORTEX_MX_INTERNAL_H__
  56:Generated_Source\PSoC5/ErikaOS_1_cortex_mx_ee_internal.inc **** #define __INCLUDE_CORTEX_MX_INTERNAL_H__
  57:Generated_Source\PSoC5/ErikaOS_1_cortex_mx_ee_internal.inc **** 
  58:Generated_Source\PSoC5/ErikaOS_1_cortex_mx_ee_internal.inc **** 
  59:Generated_Source\PSoC5/ErikaOS_1_cortex_mx_ee_internal.inc **** #include "ErikaOS_1_cortex_mx_ee_cpu.inc"
  60:Generated_Source\PSoC5/ErikaOS_1_cortex_mx_ee_internal.inc **** 
  61:Generated_Source\PSoC5/ErikaOS_1_cortex_mx_ee_internal.inc **** 
  62:Generated_Source\PSoC5/ErikaOS_1_cortex_mx_ee_internal.inc **** /*************************************************************************
  63:Generated_Source\PSoC5/ErikaOS_1_cortex_mx_ee_internal.inc ****  Functions
  64:Generated_Source\PSoC5/ErikaOS_1_cortex_mx_ee_internal.inc ****  *************************************************************************/
  65:Generated_Source\PSoC5/ErikaOS_1_cortex_mx_ee_internal.inc **** 
  66:Generated_Source\PSoC5/ErikaOS_1_cortex_mx_ee_internal.inc **** /*
  67:Generated_Source\PSoC5/ErikaOS_1_cortex_mx_ee_internal.inc ****  * Generic Primitives
ARM GAS  C:\Users\schmi\AppData\Local\Temp\ccLEO1Pj.s 			page 9


  68:Generated_Source\PSoC5/ErikaOS_1_cortex_mx_ee_internal.inc ****  */
  69:Generated_Source\PSoC5/ErikaOS_1_cortex_mx_ee_internal.inc **** 
  70:Generated_Source\PSoC5/ErikaOS_1_cortex_mx_ee_internal.inc **** #include "ErikaOS_1_common_ee_primitives.inc"
  71:Generated_Source\PSoC5/ErikaOS_1_cortex_mx_ee_internal.inc **** 
  72:Generated_Source\PSoC5/ErikaOS_1_cortex_mx_ee_internal.inc **** /*************************************************************************
  73:Generated_Source\PSoC5/ErikaOS_1_cortex_mx_ee_internal.inc ****                             System startup
  74:Generated_Source\PSoC5/ErikaOS_1_cortex_mx_ee_internal.inc ****  *************************************************************************/
  75:Generated_Source\PSoC5/ErikaOS_1_cortex_mx_ee_internal.inc **** 
  76:Generated_Source\PSoC5/ErikaOS_1_cortex_mx_ee_internal.inc **** #define OO_CPU_HAS_STARTOS_ROUTINE
  77:Generated_Source\PSoC5/ErikaOS_1_cortex_mx_ee_internal.inc **** 
  78:Generated_Source\PSoC5/ErikaOS_1_cortex_mx_ee_internal.inc **** /* If system is defined I have to initialize it*/
  79:Generated_Source\PSoC5/ErikaOS_1_cortex_mx_ee_internal.inc **** #if	( defined(ENABLE_SYSTEM_TIMER) && defined(EE_SYSTEM_TIMER_DEVICE) )
  80:Generated_Source\PSoC5/ErikaOS_1_cortex_mx_ee_internal.inc **** void EE_cortex_mx_initialize_system_timer(void);
  81:Generated_Source\PSoC5/ErikaOS_1_cortex_mx_ee_internal.inc **** #else /* ENABLE_SYSTEM_TIMER */
  82:Generated_Source\PSoC5/ErikaOS_1_cortex_mx_ee_internal.inc **** #define EE_cortex_mx_initialize_system_timer() ((void) 0)
  83:Generated_Source\PSoC5/ErikaOS_1_cortex_mx_ee_internal.inc **** #endif /* ENABLE_SYSTEM_TIMER */
  84:Generated_Source\PSoC5/ErikaOS_1_cortex_mx_ee_internal.inc **** 
  85:Generated_Source\PSoC5/ErikaOS_1_cortex_mx_ee_internal.inc **** __INLINE__ EE_TYPEBOOL  EE_cpu_startos(void);
  86:Generated_Source\PSoC5/ErikaOS_1_cortex_mx_ee_internal.inc **** __INLINE__ EE_TYPEBOOL  EE_cpu_startos(void)
  87:Generated_Source\PSoC5/ErikaOS_1_cortex_mx_ee_internal.inc **** {
  88:Generated_Source\PSoC5/ErikaOS_1_cortex_mx_ee_internal.inc ****   EE_system_init();
  89:Generated_Source\PSoC5/ErikaOS_1_cortex_mx_ee_internal.inc ****   EE_cortex_mx_initialize_system_timer();
  90:Generated_Source\PSoC5/ErikaOS_1_cortex_mx_ee_internal.inc ****   return 0;
  91:Generated_Source\PSoC5/ErikaOS_1_cortex_mx_ee_internal.inc **** }
  92:Generated_Source\PSoC5/ErikaOS_1_cortex_mx_ee_internal.inc **** 
  93:Generated_Source\PSoC5/ErikaOS_1_cortex_mx_ee_internal.inc **** 
  94:Generated_Source\PSoC5/ErikaOS_1_cortex_mx_ee_internal.inc **** /** Called as _first_ function of a primitive that can be called in
  95:Generated_Source\PSoC5/ErikaOS_1_cortex_mx_ee_internal.inc ****    an IRQ and in a task */
  96:Generated_Source\PSoC5/ErikaOS_1_cortex_mx_ee_internal.inc **** __INLINE__ EE_FREG  EE_hal_begin_nested_primitive(void)
  97:Generated_Source\PSoC5/ErikaOS_1_cortex_mx_ee_internal.inc **** {
 120              		.loc 2 97 0
 121              		.cfi_startproc
 122              		@ args = 0, pretend = 0, frame = 0
 123              		@ frame_needed = 1, uses_anonymous_args = 0
 124 0000 80B5     		push	{r7, lr}
 125              		.cfi_def_cfa_offset 8
 126              		.cfi_offset 7, -8
 127              		.cfi_offset 14, -4
 128 0002 00AF     		add	r7, sp, #0
 129              		.cfi_def_cfa_register 7
  98:Generated_Source\PSoC5/ErikaOS_1_cortex_mx_ee_internal.inc ****     return EE_cortex_mx_suspendIRQ();
 130              		.loc 2 98 0
 131 0004 FFF7FEFF 		bl	EE_cortex_mx_suspendIRQ
 132 0008 0346     		mov	r3, r0
  99:Generated_Source\PSoC5/ErikaOS_1_cortex_mx_ee_internal.inc **** }
 133              		.loc 2 99 0
 134 000a 1846     		mov	r0, r3
 135 000c 80BD     		pop	{r7, pc}
 136              		.cfi_endproc
 137              	.LFE25:
 138              		.size	EE_hal_begin_nested_primitive, .-EE_hal_begin_nested_primitive
 139 000e 00BF     		.section	.text.EE_hal_end_nested_primitive,"ax",%progbits
 140              		.align	2
 141              		.thumb
 142              		.thumb_func
 143              		.type	EE_hal_end_nested_primitive, %function
 144              	EE_hal_end_nested_primitive:
ARM GAS  C:\Users\schmi\AppData\Local\Temp\ccLEO1Pj.s 			page 10


 145              	.LFB26:
 100:Generated_Source\PSoC5/ErikaOS_1_cortex_mx_ee_internal.inc **** 
 101:Generated_Source\PSoC5/ErikaOS_1_cortex_mx_ee_internal.inc **** 
 102:Generated_Source\PSoC5/ErikaOS_1_cortex_mx_ee_internal.inc **** /** Called as _last_ function of a primitive that can be called in
 103:Generated_Source\PSoC5/ErikaOS_1_cortex_mx_ee_internal.inc ****    an IRQ and in a task.  Enable IRQs if they were enabled before entering. */
 104:Generated_Source\PSoC5/ErikaOS_1_cortex_mx_ee_internal.inc **** __INLINE__ void  EE_hal_end_nested_primitive(EE_FREG f)
 105:Generated_Source\PSoC5/ErikaOS_1_cortex_mx_ee_internal.inc **** {
 146              		.loc 2 105 0
 147              		.cfi_startproc
 148              		@ args = 0, pretend = 0, frame = 8
 149              		@ frame_needed = 1, uses_anonymous_args = 0
 150 0000 80B5     		push	{r7, lr}
 151              		.cfi_def_cfa_offset 8
 152              		.cfi_offset 7, -8
 153              		.cfi_offset 14, -4
 154 0002 82B0     		sub	sp, sp, #8
 155              		.cfi_def_cfa_offset 16
 156 0004 00AF     		add	r7, sp, #0
 157              		.cfi_def_cfa_register 7
 158 0006 7860     		str	r0, [r7, #4]
 106:Generated_Source\PSoC5/ErikaOS_1_cortex_mx_ee_internal.inc ****     EE_cortex_mx_resumeIRQ(f);
 159              		.loc 2 106 0
 160 0008 7868     		ldr	r0, [r7, #4]
 161 000a FFF7FEFF 		bl	EE_cortex_mx_resumeIRQ
 107:Generated_Source\PSoC5/ErikaOS_1_cortex_mx_ee_internal.inc **** }
 162              		.loc 2 107 0
 163 000e 00BF     		nop
 164 0010 0837     		adds	r7, r7, #8
 165              		.cfi_def_cfa_offset 8
 166 0012 BD46     		mov	sp, r7
 167              		.cfi_def_cfa_register 13
 168              		@ sp needed
 169 0014 80BD     		pop	{r7, pc}
 170              		.cfi_endproc
 171              	.LFE26:
 172              		.size	EE_hal_end_nested_primitive, .-EE_hal_end_nested_primitive
 173 0016 00BF     		.section	.text.EE_ORTI_set_service,"ax",%progbits
 174              		.align	2
 175              		.thumb
 176              		.thumb_func
 177              		.type	EE_ORTI_set_service, %function
 178              	EE_ORTI_set_service:
 179              	.LFB36:
 180              		.file 3 "Generated_Source\\PSoC5\\ErikaOS_1_ee_oo_common.inc"
   1:Generated_Source\PSoC5/ErikaOS_1_ee_oo_common.inc **** /* ###*B*###
   2:Generated_Source\PSoC5/ErikaOS_1_ee_oo_common.inc ****  * ERIKA Enterprise - a tiny RTOS for small microcontrollers
   3:Generated_Source\PSoC5/ErikaOS_1_ee_oo_common.inc ****  *
   4:Generated_Source\PSoC5/ErikaOS_1_ee_oo_common.inc ****  * Copyright (C) 2002-2008  Evidence Srl
   5:Generated_Source\PSoC5/ErikaOS_1_ee_oo_common.inc ****  *
   6:Generated_Source\PSoC5/ErikaOS_1_ee_oo_common.inc ****  * This file is part of ERIKA Enterprise.
   7:Generated_Source\PSoC5/ErikaOS_1_ee_oo_common.inc ****  *
   8:Generated_Source\PSoC5/ErikaOS_1_ee_oo_common.inc ****  * ERIKA Enterprise is free software; you can redistribute it
   9:Generated_Source\PSoC5/ErikaOS_1_ee_oo_common.inc ****  * and/or modify it under the terms of the GNU General Public License
  10:Generated_Source\PSoC5/ErikaOS_1_ee_oo_common.inc ****  * version 2 as published by the Free Software Foundation,
  11:Generated_Source\PSoC5/ErikaOS_1_ee_oo_common.inc ****  * (with a special exception described below).
  12:Generated_Source\PSoC5/ErikaOS_1_ee_oo_common.inc ****  *
  13:Generated_Source\PSoC5/ErikaOS_1_ee_oo_common.inc ****  * Linking this code statically or dynamically with other modules is
ARM GAS  C:\Users\schmi\AppData\Local\Temp\ccLEO1Pj.s 			page 11


  14:Generated_Source\PSoC5/ErikaOS_1_ee_oo_common.inc ****  * making a combined work based on this code.  Thus, the terms and
  15:Generated_Source\PSoC5/ErikaOS_1_ee_oo_common.inc ****  * conditions of the GNU General Public License cover the whole
  16:Generated_Source\PSoC5/ErikaOS_1_ee_oo_common.inc ****  * combination.
  17:Generated_Source\PSoC5/ErikaOS_1_ee_oo_common.inc ****  *
  18:Generated_Source\PSoC5/ErikaOS_1_ee_oo_common.inc ****  * As a special exception, the copyright holders of this library give you
  19:Generated_Source\PSoC5/ErikaOS_1_ee_oo_common.inc ****  * permission to link this code with independent modules to produce an
  20:Generated_Source\PSoC5/ErikaOS_1_ee_oo_common.inc ****  * executable, regardless of the license terms of these independent
  21:Generated_Source\PSoC5/ErikaOS_1_ee_oo_common.inc ****  * modules, and to copy and distribute the resulting executable under
  22:Generated_Source\PSoC5/ErikaOS_1_ee_oo_common.inc ****  * terms of your choice, provided that you also meet, for each linked
  23:Generated_Source\PSoC5/ErikaOS_1_ee_oo_common.inc ****  * independent module, the terms and conditions of the license of that
  24:Generated_Source\PSoC5/ErikaOS_1_ee_oo_common.inc ****  * module.  An independent module is a module which is not derived from
  25:Generated_Source\PSoC5/ErikaOS_1_ee_oo_common.inc ****  * or based on this library.  If you modify this code, you may extend
  26:Generated_Source\PSoC5/ErikaOS_1_ee_oo_common.inc ****  * this exception to your version of the code, but you are not
  27:Generated_Source\PSoC5/ErikaOS_1_ee_oo_common.inc ****  * obligated to do so.  If you do not wish to do so, delete this
  28:Generated_Source\PSoC5/ErikaOS_1_ee_oo_common.inc ****  * exception statement from your version.
  29:Generated_Source\PSoC5/ErikaOS_1_ee_oo_common.inc ****  *
  30:Generated_Source\PSoC5/ErikaOS_1_ee_oo_common.inc ****  * ERIKA Enterprise is distributed in the hope that it will be
  31:Generated_Source\PSoC5/ErikaOS_1_ee_oo_common.inc ****  * useful, but WITHOUT ANY WARRANTY; without even the implied warranty
  32:Generated_Source\PSoC5/ErikaOS_1_ee_oo_common.inc ****  * of MERCHANTABILITY or FITNESS FOR A PARTICULAR PURPOSE.  See the
  33:Generated_Source\PSoC5/ErikaOS_1_ee_oo_common.inc ****  * GNU General Public License version 2 for more details.
  34:Generated_Source\PSoC5/ErikaOS_1_ee_oo_common.inc ****  *
  35:Generated_Source\PSoC5/ErikaOS_1_ee_oo_common.inc ****  * You should have received a copy of the GNU General Public License
  36:Generated_Source\PSoC5/ErikaOS_1_ee_oo_common.inc ****  * version 2 along with ERIKA Enterprise; if not, write to the
  37:Generated_Source\PSoC5/ErikaOS_1_ee_oo_common.inc ****  * Free Software Foundation, Inc., 51 Franklin Street, Fifth Floor,
  38:Generated_Source\PSoC5/ErikaOS_1_ee_oo_common.inc ****  * Boston, MA 02110-1301 USA.
  39:Generated_Source\PSoC5/ErikaOS_1_ee_oo_common.inc ****  * ###*E*### */
  40:Generated_Source\PSoC5/ErikaOS_1_ee_oo_common.inc **** 
  41:Generated_Source\PSoC5/ErikaOS_1_ee_oo_common.inc **** /*
  42:Generated_Source\PSoC5/ErikaOS_1_ee_oo_common.inc ****  * Author: 2002-2004 Paolo Gai
  43:Generated_Source\PSoC5/ErikaOS_1_ee_oo_common.inc ****  * CVS: $Id: ee_common.h,v 1.7 2006/05/03 05:59:55 pj Exp $
  44:Generated_Source\PSoC5/ErikaOS_1_ee_oo_common.inc ****  */
  45:Generated_Source\PSoC5/ErikaOS_1_ee_oo_common.inc **** 
  46:Generated_Source\PSoC5/ErikaOS_1_ee_oo_common.inc **** /*
  47:Generated_Source\PSoC5/ErikaOS_1_ee_oo_common.inc ****  * PSoC Port and API Generation
  48:Generated_Source\PSoC5/ErikaOS_1_ee_oo_common.inc ****  * Carlos Fernando Meier Martinez
  49:Generated_Source\PSoC5/ErikaOS_1_ee_oo_common.inc ****  * Hochschule Darmstadt, Germany. 2017.
  50:Generated_Source\PSoC5/ErikaOS_1_ee_oo_common.inc ****  */
  51:Generated_Source\PSoC5/ErikaOS_1_ee_oo_common.inc **** 
  52:Generated_Source\PSoC5/ErikaOS_1_ee_oo_common.inc **** #ifndef PKG_KERNEL_OO_INC_EE_OO_COMMON_H
  53:Generated_Source\PSoC5/ErikaOS_1_ee_oo_common.inc **** #define PKG_KERNEL_OO_INC_EE_OO_COMMON_H
  54:Generated_Source\PSoC5/ErikaOS_1_ee_oo_common.inc **** 
  55:Generated_Source\PSoC5/ErikaOS_1_ee_oo_common.inc **** /*************************************************************************
  56:Generated_Source\PSoC5/ErikaOS_1_ee_oo_common.inc ****                             Kernel Constants
  57:Generated_Source\PSoC5/ErikaOS_1_ee_oo_common.inc ****  *************************************************************************/
  58:Generated_Source\PSoC5/ErikaOS_1_ee_oo_common.inc **** 
  59:Generated_Source\PSoC5/ErikaOS_1_ee_oo_common.inc **** /* invalid TID */
  60:Generated_Source\PSoC5/ErikaOS_1_ee_oo_common.inc **** #define EE_NIL          ((EE_TID)-1)
  61:Generated_Source\PSoC5/ErikaOS_1_ee_oo_common.inc **** 
  62:Generated_Source\PSoC5/ErikaOS_1_ee_oo_common.inc **** /* maximum value for EE_UREG (used in EE_th_resource_last) */
  63:Generated_Source\PSoC5/ErikaOS_1_ee_oo_common.inc **** #define EE_UREG_MINUS1  ((EE_UREG)-1)
  64:Generated_Source\PSoC5/ErikaOS_1_ee_oo_common.inc **** 
  65:Generated_Source\PSoC5/ErikaOS_1_ee_oo_common.inc **** /*
  66:Generated_Source\PSoC5/ErikaOS_1_ee_oo_common.inc **** The Kernel constants like NIL and other thread statuses are defined
  67:Generated_Source\PSoC5/ErikaOS_1_ee_oo_common.inc **** in the following sections:
  68:Generated_Source\PSoC5/ErikaOS_1_ee_oo_common.inc **** 
  69:Generated_Source\PSoC5/ErikaOS_1_ee_oo_common.inc **** - invalid see 13.2.4
  70:Generated_Source\PSoC5/ErikaOS_1_ee_oo_common.inc **** - thread statuses see 13.2.4
ARM GAS  C:\Users\schmi\AppData\Local\Temp\ccLEO1Pj.s 			page 12


  71:Generated_Source\PSoC5/ErikaOS_1_ee_oo_common.inc **** */
  72:Generated_Source\PSoC5/ErikaOS_1_ee_oo_common.inc **** 
  73:Generated_Source\PSoC5/ErikaOS_1_ee_oo_common.inc **** /* Moreover, the user must specify (into types.h) in a fashion like
  74:Generated_Source\PSoC5/ErikaOS_1_ee_oo_common.inc ****    #define identifier unique_number
  75:Generated_Source\PSoC5/ErikaOS_1_ee_oo_common.inc ****    the following identifiers:
  76:Generated_Source\PSoC5/ErikaOS_1_ee_oo_common.inc ****    - The resource identifiers declared with the macro
  77:Generated_Source\PSoC5/ErikaOS_1_ee_oo_common.inc ****      DeclareResource (13.4.2.1)
  78:Generated_Source\PSoC5/ErikaOS_1_ee_oo_common.inc ****    - The task identifiers declared with the macro TASK(TaskName) (13.2.5)
  79:Generated_Source\PSoC5/ErikaOS_1_ee_oo_common.inc ****    - The resource (RES_SCHEDULER) MUST have the maximum ceiling possible
  80:Generated_Source\PSoC5/ErikaOS_1_ee_oo_common.inc ****      for Tasks
  81:Generated_Source\PSoC5/ErikaOS_1_ee_oo_common.inc **** 
  82:Generated_Source\PSoC5/ErikaOS_1_ee_oo_common.inc ****    For the Extended status and ORTI support:
  83:Generated_Source\PSoC5/ErikaOS_1_ee_oo_common.inc ****    - EE_MAX_TASK maximum number of tasks (used in TaskActivate
  84:Generated_Source\PSoC5/ErikaOS_1_ee_oo_common.inc ****    - EE_MAX_RESOURCE maximum number of resources
  85:Generated_Source\PSoC5/ErikaOS_1_ee_oo_common.inc ****    - EE_MAX_ALARM maximum number of alarms
  86:Generated_Source\PSoC5/ErikaOS_1_ee_oo_common.inc **** 
  87:Generated_Source\PSoC5/ErikaOS_1_ee_oo_common.inc ****    For TASK/ALARM Autostart support:
  88:Generated_Source\PSoC5/ErikaOS_1_ee_oo_common.inc ****    - EE_MAX_APPMODE maximum number of Application modes (typically
  89:Generated_Source\PSoC5/ErikaOS_1_ee_oo_common.inc ****      >0, because there is always the mode OSDEFAULTAPPMODE.
  90:Generated_Source\PSoC5/ErikaOS_1_ee_oo_common.inc **** */
  91:Generated_Source\PSoC5/ErikaOS_1_ee_oo_common.inc **** 
  92:Generated_Source\PSoC5/ErikaOS_1_ee_oo_common.inc **** 
  93:Generated_Source\PSoC5/ErikaOS_1_ee_oo_common.inc **** /*************************************************************************
  94:Generated_Source\PSoC5/ErikaOS_1_ee_oo_common.inc ****  Kernel Types
  95:Generated_Source\PSoC5/ErikaOS_1_ee_oo_common.inc ****  *************************************************************************/
  96:Generated_Source\PSoC5/ErikaOS_1_ee_oo_common.inc **** 
  97:Generated_Source\PSoC5/ErikaOS_1_ee_oo_common.inc **** /* priority type */
  98:Generated_Source\PSoC5/ErikaOS_1_ee_oo_common.inc **** #ifndef EE_TYPEPRIO
  99:Generated_Source\PSoC5/ErikaOS_1_ee_oo_common.inc **** #define EE_TYPEPRIO EE_UREG
 100:Generated_Source\PSoC5/ErikaOS_1_ee_oo_common.inc **** #endif
 101:Generated_Source\PSoC5/ErikaOS_1_ee_oo_common.inc **** 
 102:Generated_Source\PSoC5/ErikaOS_1_ee_oo_common.inc **** /* status type */
 103:Generated_Source\PSoC5/ErikaOS_1_ee_oo_common.inc **** /* the status type, that usually was an used configurable type, is set
 104:Generated_Source\PSoC5/ErikaOS_1_ee_oo_common.inc ****    by the OO Standard (Bindings specification, paragraph 3.2) to be
 105:Generated_Source\PSoC5/ErikaOS_1_ee_oo_common.inc ****    unsigned char. */
 106:Generated_Source\PSoC5/ErikaOS_1_ee_oo_common.inc **** #ifndef EE_TYPESTATUS
 107:Generated_Source\PSoC5/ErikaOS_1_ee_oo_common.inc **** #define EE_TYPESTATUS EE_UREG
 108:Generated_Source\PSoC5/ErikaOS_1_ee_oo_common.inc **** #endif
 109:Generated_Source\PSoC5/ErikaOS_1_ee_oo_common.inc **** 
 110:Generated_Source\PSoC5/ErikaOS_1_ee_oo_common.inc **** /* pending activation type */
 111:Generated_Source\PSoC5/ErikaOS_1_ee_oo_common.inc **** #ifndef EE_TYPENACT
 112:Generated_Source\PSoC5/ErikaOS_1_ee_oo_common.inc **** #define EE_TYPENACT EE_UREG
 113:Generated_Source\PSoC5/ErikaOS_1_ee_oo_common.inc **** #endif
 114:Generated_Source\PSoC5/ErikaOS_1_ee_oo_common.inc **** 
 115:Generated_Source\PSoC5/ErikaOS_1_ee_oo_common.inc **** /* event mask type */
 116:Generated_Source\PSoC5/ErikaOS_1_ee_oo_common.inc **** #ifndef EE_TYPEEVENTMASK
 117:Generated_Source\PSoC5/ErikaOS_1_ee_oo_common.inc **** #define EE_TYPEEVENTMASK EE_UREG
 118:Generated_Source\PSoC5/ErikaOS_1_ee_oo_common.inc **** #endif
 119:Generated_Source\PSoC5/ErikaOS_1_ee_oo_common.inc **** 
 120:Generated_Source\PSoC5/ErikaOS_1_ee_oo_common.inc **** /* pair type (signed!) */
 121:Generated_Source\PSoC5/ErikaOS_1_ee_oo_common.inc **** #ifndef EE_TYPEPAIR
 122:Generated_Source\PSoC5/ErikaOS_1_ee_oo_common.inc **** #define EE_TYPEPAIR EE_SREG
 123:Generated_Source\PSoC5/ErikaOS_1_ee_oo_common.inc **** #endif
 124:Generated_Source\PSoC5/ErikaOS_1_ee_oo_common.inc **** 
 125:Generated_Source\PSoC5/ErikaOS_1_ee_oo_common.inc **** /* application mode type */
 126:Generated_Source\PSoC5/ErikaOS_1_ee_oo_common.inc **** #ifndef EE_TYPEAPPMODE
 127:Generated_Source\PSoC5/ErikaOS_1_ee_oo_common.inc **** #define EE_TYPEAPPMODE EE_UREG
ARM GAS  C:\Users\schmi\AppData\Local\Temp\ccLEO1Pj.s 			page 13


 128:Generated_Source\PSoC5/ErikaOS_1_ee_oo_common.inc **** #endif
 129:Generated_Source\PSoC5/ErikaOS_1_ee_oo_common.inc **** 
 130:Generated_Source\PSoC5/ErikaOS_1_ee_oo_common.inc **** /* service id type */
 131:Generated_Source\PSoC5/ErikaOS_1_ee_oo_common.inc **** #ifndef EE_TYPEOSSERVICEID
 132:Generated_Source\PSoC5/ErikaOS_1_ee_oo_common.inc **** #define EE_TYPEOSSERVICEID EE_UINT8
 133:Generated_Source\PSoC5/ErikaOS_1_ee_oo_common.inc **** #endif
 134:Generated_Source\PSoC5/ErikaOS_1_ee_oo_common.inc **** 
 135:Generated_Source\PSoC5/ErikaOS_1_ee_oo_common.inc **** /* resource id type */
 136:Generated_Source\PSoC5/ErikaOS_1_ee_oo_common.inc **** #ifndef EE_TYPERESOURCE
 137:Generated_Source\PSoC5/ErikaOS_1_ee_oo_common.inc **** #define EE_TYPERESOURCE EE_UREG
 138:Generated_Source\PSoC5/ErikaOS_1_ee_oo_common.inc **** #endif
 139:Generated_Source\PSoC5/ErikaOS_1_ee_oo_common.inc **** 
 140:Generated_Source\PSoC5/ErikaOS_1_ee_oo_common.inc **** /* counter id type */
 141:Generated_Source\PSoC5/ErikaOS_1_ee_oo_common.inc **** #ifndef EE_TYPECOUNTER
 142:Generated_Source\PSoC5/ErikaOS_1_ee_oo_common.inc **** #define EE_TYPECOUNTER EE_UREG
 143:Generated_Source\PSoC5/ErikaOS_1_ee_oo_common.inc **** #endif
 144:Generated_Source\PSoC5/ErikaOS_1_ee_oo_common.inc **** 
 145:Generated_Source\PSoC5/ErikaOS_1_ee_oo_common.inc **** /* counter object id type */
 146:Generated_Source\PSoC5/ErikaOS_1_ee_oo_common.inc **** #ifndef EE_TYPECOUNTEROBJECT
 147:Generated_Source\PSoC5/ErikaOS_1_ee_oo_common.inc **** #define EE_TYPECOUNTEROBJECT  EE_UREG
 148:Generated_Source\PSoC5/ErikaOS_1_ee_oo_common.inc **** #endif
 149:Generated_Source\PSoC5/ErikaOS_1_ee_oo_common.inc **** 
 150:Generated_Source\PSoC5/ErikaOS_1_ee_oo_common.inc **** /* alarm id type */
 151:Generated_Source\PSoC5/ErikaOS_1_ee_oo_common.inc **** #ifndef EE_TYPEALARM
 152:Generated_Source\PSoC5/ErikaOS_1_ee_oo_common.inc **** #define EE_TYPEALARM EE_TYPECOUNTEROBJECT
 153:Generated_Source\PSoC5/ErikaOS_1_ee_oo_common.inc **** #endif
 154:Generated_Source\PSoC5/ErikaOS_1_ee_oo_common.inc **** 
 155:Generated_Source\PSoC5/ErikaOS_1_ee_oo_common.inc **** /* action id type */
 156:Generated_Source\PSoC5/ErikaOS_1_ee_oo_common.inc **** #ifndef EE_TYPEACTION
 157:Generated_Source\PSoC5/ErikaOS_1_ee_oo_common.inc **** #define EE_TYPEACTION EE_UREG
 158:Generated_Source\PSoC5/ErikaOS_1_ee_oo_common.inc **** #endif
 159:Generated_Source\PSoC5/ErikaOS_1_ee_oo_common.inc **** 
 160:Generated_Source\PSoC5/ErikaOS_1_ee_oo_common.inc **** /* counter tick type */
 161:Generated_Source\PSoC5/ErikaOS_1_ee_oo_common.inc **** #ifndef EE_TYPETICK
 162:Generated_Source\PSoC5/ErikaOS_1_ee_oo_common.inc **** #define EE_TYPETICK EE_UREG
 163:Generated_Source\PSoC5/ErikaOS_1_ee_oo_common.inc **** #endif
 164:Generated_Source\PSoC5/ErikaOS_1_ee_oo_common.inc **** 
 165:Generated_Source\PSoC5/ErikaOS_1_ee_oo_common.inc **** #ifdef EE_AS_OSAPPLICATIONS__
 166:Generated_Source\PSoC5/ErikaOS_1_ee_oo_common.inc **** /** @typedef This data type identifies the OS-Application. */
 167:Generated_Source\PSoC5/ErikaOS_1_ee_oo_common.inc **** typedef EE_UTID                ApplicationType;
 168:Generated_Source\PSoC5/ErikaOS_1_ee_oo_common.inc **** #define INVALID_OSAPPLICATION ((ApplicationType)-1)
 169:Generated_Source\PSoC5/ErikaOS_1_ee_oo_common.inc **** #define KERNEL_OSAPPLICATION  ((ApplicationType)0U)
 170:Generated_Source\PSoC5/ErikaOS_1_ee_oo_common.inc **** #endif /* EE_AS_OSAPPLICATIONS__ */
 171:Generated_Source\PSoC5/ErikaOS_1_ee_oo_common.inc **** 
 172:Generated_Source\PSoC5/ErikaOS_1_ee_oo_common.inc **** #if (defined(__OO_BCC2__)) || (defined(__OO_ECC2__))
 173:Generated_Source\PSoC5/ErikaOS_1_ee_oo_common.inc **** /* Maximum number of pending activations */
 174:Generated_Source\PSoC5/ErikaOS_1_ee_oo_common.inc **** extern const EE_TYPENACT   EE_th_rnact_max[EE_MAX_TASK];
 175:Generated_Source\PSoC5/ErikaOS_1_ee_oo_common.inc **** #endif /* __OO_BCC2__ || __OO_ECC2__ */
 176:Generated_Source\PSoC5/ErikaOS_1_ee_oo_common.inc **** 
 177:Generated_Source\PSoC5/ErikaOS_1_ee_oo_common.inc **** /* priorities (NB: they are bit fields!!!) */
 178:Generated_Source\PSoC5/ErikaOS_1_ee_oo_common.inc **** extern const EE_TYPEPRIO EE_th_ready_prio[EE_MAX_TASK];
 179:Generated_Source\PSoC5/ErikaOS_1_ee_oo_common.inc **** extern const EE_TYPEPRIO EE_th_dispatch_prio[EE_MAX_TASK];
 180:Generated_Source\PSoC5/ErikaOS_1_ee_oo_common.inc **** extern const char* EE_TASK_NAME[EE_MAX_TASK];
 181:Generated_Source\PSoC5/ErikaOS_1_ee_oo_common.inc **** extern const char* EE_EVENT_NAME[EE_MAX_EVENT];
 182:Generated_Source\PSoC5/ErikaOS_1_ee_oo_common.inc **** extern const char* EE_ALARM_NAME[EE_MAX_ALARM];
 183:Generated_Source\PSoC5/ErikaOS_1_ee_oo_common.inc **** #if (defined (EE_MAX_RESOURCE)) && (EE_MAX_RESOURCE > 0U)
 184:Generated_Source\PSoC5/ErikaOS_1_ee_oo_common.inc **** extern const char* EE_RESOURCE_NAME[EE_MAX_RESOURCE];
ARM GAS  C:\Users\schmi\AppData\Local\Temp\ccLEO1Pj.s 			page 14


 185:Generated_Source\PSoC5/ErikaOS_1_ee_oo_common.inc **** extern const unsigned long EE_RESOURCE_ID[EE_MAX_RESOURCE];
 186:Generated_Source\PSoC5/ErikaOS_1_ee_oo_common.inc **** #endif
 187:Generated_Source\PSoC5/ErikaOS_1_ee_oo_common.inc **** extern const unsigned long EE_EVENT_ID[EE_MAX_EVENT];
 188:Generated_Source\PSoC5/ErikaOS_1_ee_oo_common.inc **** extern const unsigned long EE_ALARM_ID[EE_MAX_ALARM];
 189:Generated_Source\PSoC5/ErikaOS_1_ee_oo_common.inc **** /*uthra changes*/
 190:Generated_Source\PSoC5/ErikaOS_1_ee_oo_common.inc **** /* If MemMap.h support is enabled (i.e. because memory protection): use it */
 191:Generated_Source\PSoC5/ErikaOS_1_ee_oo_common.inc **** #ifdef EE_SUPPORT_MEMMAP_H
 192:Generated_Source\PSoC5/ErikaOS_1_ee_oo_common.inc **** /* The following variables belong to ERIKA API section: ee_kernel_data */
 193:Generated_Source\PSoC5/ErikaOS_1_ee_oo_common.inc **** #define OS_START_SEC_VAR_DATA
 194:Generated_Source\PSoC5/ErikaOS_1_ee_oo_common.inc **** #include "MemMap.inc"
 195:Generated_Source\PSoC5/ErikaOS_1_ee_oo_common.inc **** #endif /* EE_SUPPORT_MEMMAP_H */
 196:Generated_Source\PSoC5/ErikaOS_1_ee_oo_common.inc **** 
 197:Generated_Source\PSoC5/ErikaOS_1_ee_oo_common.inc **** /*************************************************************************
 198:Generated_Source\PSoC5/ErikaOS_1_ee_oo_common.inc ****  Kernel Variables defined by the application
 199:Generated_Source\PSoC5/ErikaOS_1_ee_oo_common.inc ****  *************************************************************************/
 200:Generated_Source\PSoC5/ErikaOS_1_ee_oo_common.inc **** 
 201:Generated_Source\PSoC5/ErikaOS_1_ee_oo_common.inc **** /* thread status, all initialized to SUSPENDED */
 202:Generated_Source\PSoC5/ErikaOS_1_ee_oo_common.inc **** extern EE_TYPESTATUS EE_th_status[EE_MAX_TASK];
 203:Generated_Source\PSoC5/ErikaOS_1_ee_oo_common.inc **** 
 204:Generated_Source\PSoC5/ErikaOS_1_ee_oo_common.inc **** /* next: is used for:
 205:Generated_Source\PSoC5/ErikaOS_1_ee_oo_common.inc ****    - the stacked queue
 206:Generated_Source\PSoC5/ErikaOS_1_ee_oo_common.inc ****    - WaitEvent (?)
 207:Generated_Source\PSoC5/ErikaOS_1_ee_oo_common.inc ****    - the ready queue (BCC1, ECC1)
 208:Generated_Source\PSoC5/ErikaOS_1_ee_oo_common.inc ****    all initialized with EE_NIL
 209:Generated_Source\PSoC5/ErikaOS_1_ee_oo_common.inc **** */
 210:Generated_Source\PSoC5/ErikaOS_1_ee_oo_common.inc **** extern EE_TID EE_th_next[EE_MAX_TASK];
 211:Generated_Source\PSoC5/ErikaOS_1_ee_oo_common.inc **** 
 212:Generated_Source\PSoC5/ErikaOS_1_ee_oo_common.inc **** /*
 213:Generated_Source\PSoC5/ErikaOS_1_ee_oo_common.inc ****  * remaining nact: init= maximum pending activations of a Task
 214:Generated_Source\PSoC5/ErikaOS_1_ee_oo_common.inc ****  * =1 for BCC1 and ECC1, >= 0 for BCC2 and ECC2
 215:Generated_Source\PSoC5/ErikaOS_1_ee_oo_common.inc ****  *
 216:Generated_Source\PSoC5/ErikaOS_1_ee_oo_common.inc ****  * all initialized with 1 (ECC2, BCC2: or with a value >1)
 217:Generated_Source\PSoC5/ErikaOS_1_ee_oo_common.inc ****  */
 218:Generated_Source\PSoC5/ErikaOS_1_ee_oo_common.inc **** extern EE_TYPENACT   EE_th_rnact[EE_MAX_TASK];
 219:Generated_Source\PSoC5/ErikaOS_1_ee_oo_common.inc **** 
 220:Generated_Source\PSoC5/ErikaOS_1_ee_oo_common.inc **** #ifndef __OO_NO_CHAINTASK__
 221:Generated_Source\PSoC5/ErikaOS_1_ee_oo_common.inc **** /* The next task to be activated after a ChainTask. initvalue=all EE_NIL */
 222:Generated_Source\PSoC5/ErikaOS_1_ee_oo_common.inc **** extern EE_TID EE_th_terminate_nextask[EE_MAX_TASK];
 223:Generated_Source\PSoC5/ErikaOS_1_ee_oo_common.inc **** #endif
 224:Generated_Source\PSoC5/ErikaOS_1_ee_oo_common.inc **** 
 225:Generated_Source\PSoC5/ErikaOS_1_ee_oo_common.inc **** /* The first stacked task (initvalue = EE_NIL) */
 226:Generated_Source\PSoC5/ErikaOS_1_ee_oo_common.inc **** extern EE_TID       EE_stkfirst;
 227:Generated_Source\PSoC5/ErikaOS_1_ee_oo_common.inc **** 
 228:Generated_Source\PSoC5/ErikaOS_1_ee_oo_common.inc **** #if (defined(__OO_BCC1__)) || (defined(__OO_ECC1__))
 229:Generated_Source\PSoC5/ErikaOS_1_ee_oo_common.inc **** /* First task in the ready queue (initvalue = EE_NIL) */
 230:Generated_Source\PSoC5/ErikaOS_1_ee_oo_common.inc **** extern EE_TID EE_rq_first;
 231:Generated_Source\PSoC5/ErikaOS_1_ee_oo_common.inc **** #endif /*  __OO_BCC1__ || __OO_ECC1__ */
 232:Generated_Source\PSoC5/ErikaOS_1_ee_oo_common.inc **** 
 233:Generated_Source\PSoC5/ErikaOS_1_ee_oo_common.inc **** /* If MemMap.h support is enabled (i.e. because memory protection): use it */
 234:Generated_Source\PSoC5/ErikaOS_1_ee_oo_common.inc **** #ifdef EE_SUPPORT_MEMMAP_H
 235:Generated_Source\PSoC5/ErikaOS_1_ee_oo_common.inc **** #define OS_STOP_SEC_VAR_DATA
 236:Generated_Source\PSoC5/ErikaOS_1_ee_oo_common.inc **** #include "MemMap.inc"
 237:Generated_Source\PSoC5/ErikaOS_1_ee_oo_common.inc **** #endif /* EE_SUPPORT_MEMMAP_H */
 238:Generated_Source\PSoC5/ErikaOS_1_ee_oo_common.inc **** 
 239:Generated_Source\PSoC5/ErikaOS_1_ee_oo_common.inc **** /* If MemMap.h support is enabled (i.e. because memory protection): use it */
 240:Generated_Source\PSoC5/ErikaOS_1_ee_oo_common.inc **** #ifdef EE_SUPPORT_MEMMAP_H
 241:Generated_Source\PSoC5/ErikaOS_1_ee_oo_common.inc **** /* The following variables belong to ERIKA API section: ee_kernel_bss */
ARM GAS  C:\Users\schmi\AppData\Local\Temp\ccLEO1Pj.s 			page 15


 242:Generated_Source\PSoC5/ErikaOS_1_ee_oo_common.inc **** #define OS_START_SEC_VAR_NOINIT
 243:Generated_Source\PSoC5/ErikaOS_1_ee_oo_common.inc **** #include "MemMap.inc"
 244:Generated_Source\PSoC5/ErikaOS_1_ee_oo_common.inc **** #endif /* EE_SUPPORT_MEMMAP_H */
 245:Generated_Source\PSoC5/ErikaOS_1_ee_oo_common.inc **** 
 246:Generated_Source\PSoC5/ErikaOS_1_ee_oo_common.inc **** /* System ceiling (initvalue = 0) */
 247:Generated_Source\PSoC5/ErikaOS_1_ee_oo_common.inc **** extern EE_TYPEPRIO   EE_sys_ceiling;
 248:Generated_Source\PSoC5/ErikaOS_1_ee_oo_common.inc **** 
 249:Generated_Source\PSoC5/ErikaOS_1_ee_oo_common.inc **** /* If MemMap.h support is enabled (i.e. because memory protection): use it */
 250:Generated_Source\PSoC5/ErikaOS_1_ee_oo_common.inc **** #ifdef EE_SUPPORT_MEMMAP_H
 251:Generated_Source\PSoC5/ErikaOS_1_ee_oo_common.inc **** #define OS_STOP_SEC_VAR_NOINIT
 252:Generated_Source\PSoC5/ErikaOS_1_ee_oo_common.inc **** #include "MemMap.inc"
 253:Generated_Source\PSoC5/ErikaOS_1_ee_oo_common.inc **** #endif /* EE_SUPPORT_MEMMAP_H */
 254:Generated_Source\PSoC5/ErikaOS_1_ee_oo_common.inc **** 
 255:Generated_Source\PSoC5/ErikaOS_1_ee_oo_common.inc **** #if (defined(__OO_BCC2__)) || (defined(__OO_ECC2__))
 256:Generated_Source\PSoC5/ErikaOS_1_ee_oo_common.inc **** 
 257:Generated_Source\PSoC5/ErikaOS_1_ee_oo_common.inc **** /*
 258:Generated_Source\PSoC5/ErikaOS_1_ee_oo_common.inc ****  * ready queue implementation:
 259:Generated_Source\PSoC5/ErikaOS_1_ee_oo_common.inc ****  * - 16 priorities
 260:Generated_Source\PSoC5/ErikaOS_1_ee_oo_common.inc ****  * - we use a queue for each priority. Head and tail are stored in an array
 261:Generated_Source\PSoC5/ErikaOS_1_ee_oo_common.inc ****  * - each queue contains pairs (Task ID, next)
 262:Generated_Source\PSoC5/ErikaOS_1_ee_oo_common.inc ****  * - the number of pairs is the sum of all the possible activations
 263:Generated_Source\PSoC5/ErikaOS_1_ee_oo_common.inc ****  *   of all the tasks (in that way, an activation will never fail due
 264:Generated_Source\PSoC5/ErikaOS_1_ee_oo_common.inc ****  *   to the lack of a pair)
 265:Generated_Source\PSoC5/ErikaOS_1_ee_oo_common.inc ****  * - to know which queue have to be used, a bit mask is used to do a fast
 266:Generated_Source\PSoC5/ErikaOS_1_ee_oo_common.inc ****  *   lookup (the 8 bit lookup table is defined into ee_lookup.c)
 267:Generated_Source\PSoC5/ErikaOS_1_ee_oo_common.inc ****  */
 268:Generated_Source\PSoC5/ErikaOS_1_ee_oo_common.inc **** 
 269:Generated_Source\PSoC5/ErikaOS_1_ee_oo_common.inc **** /* bit mask with 16 or 8 priority levels (Initvalue = 0) */
 270:Generated_Source\PSoC5/ErikaOS_1_ee_oo_common.inc **** #if defined(__OO_BCC2__)
 271:Generated_Source\PSoC5/ErikaOS_1_ee_oo_common.inc **** typedef EE_UINT8 EE_TYPE_RQ_MASK;
 272:Generated_Source\PSoC5/ErikaOS_1_ee_oo_common.inc **** #else
 273:Generated_Source\PSoC5/ErikaOS_1_ee_oo_common.inc **** typedef EE_UINT16 EE_TYPE_RQ_MASK;
 274:Generated_Source\PSoC5/ErikaOS_1_ee_oo_common.inc **** #endif
 275:Generated_Source\PSoC5/ErikaOS_1_ee_oo_common.inc **** 
 276:Generated_Source\PSoC5/ErikaOS_1_ee_oo_common.inc **** /* If MemMap.h support is enabled (i.e. because memory protection): use it */
 277:Generated_Source\PSoC5/ErikaOS_1_ee_oo_common.inc **** #ifdef EE_SUPPORT_MEMMAP_H
 278:Generated_Source\PSoC5/ErikaOS_1_ee_oo_common.inc **** /* The following variables belong to ERIKA API section: ee_kernel_data */
 279:Generated_Source\PSoC5/ErikaOS_1_ee_oo_common.inc **** #define OS_START_SEC_VAR_DATA
 280:Generated_Source\PSoC5/ErikaOS_1_ee_oo_common.inc **** #include "MemMap.inc"
 281:Generated_Source\PSoC5/ErikaOS_1_ee_oo_common.inc **** #endif /* EE_SUPPORT_MEMMAP_H */
 282:Generated_Source\PSoC5/ErikaOS_1_ee_oo_common.inc **** 
 283:Generated_Source\PSoC5/ErikaOS_1_ee_oo_common.inc **** /* The following data structure gives the link between a task and its
 284:Generated_Source\PSoC5/ErikaOS_1_ee_oo_common.inc ****    priority queue.  The values of this data structure are the same of
 285:Generated_Source\PSoC5/ErikaOS_1_ee_oo_common.inc ****    EE_ready_prio, except that they are not stored as bitfields
 286:Generated_Source\PSoC5/ErikaOS_1_ee_oo_common.inc **** 
 287:Generated_Source\PSoC5/ErikaOS_1_ee_oo_common.inc ****    Initvalue: each TID = x such that th_ready_prio[TID]= 1<<x
 288:Generated_Source\PSoC5/ErikaOS_1_ee_oo_common.inc **** */
 289:Generated_Source\PSoC5/ErikaOS_1_ee_oo_common.inc **** extern EE_TYPEPRIO EE_rq_link[EE_MAX_TASK];
 290:Generated_Source\PSoC5/ErikaOS_1_ee_oo_common.inc **** 
 291:Generated_Source\PSoC5/ErikaOS_1_ee_oo_common.inc **** /* The priority queues  (initvalue: all -1;
 292:Generated_Source\PSoC5/ErikaOS_1_ee_oo_common.inc ****    number of elements: 8(BCC2) or 16(ECC2) ) */
 293:Generated_Source\PSoC5/ErikaOS_1_ee_oo_common.inc **** extern EE_TYPEPAIR EE_rq_queues_head[EE_RQ_QUEUES_HEAD_SIZE];
 294:Generated_Source\PSoC5/ErikaOS_1_ee_oo_common.inc **** extern EE_TYPEPAIR EE_rq_queues_tail[EE_RQ_QUEUES_TAIL_SIZE];
 295:Generated_Source\PSoC5/ErikaOS_1_ee_oo_common.inc **** 
 296:Generated_Source\PSoC5/ErikaOS_1_ee_oo_common.inc **** /* The pairs that are enqueued into the priority queues */
 297:Generated_Source\PSoC5/ErikaOS_1_ee_oo_common.inc **** /* initvalue: something like {1,2,3,4,5,...,-1}.
 298:Generated_Source\PSoC5/ErikaOS_1_ee_oo_common.inc ****    the number of elements is equal to the sum of the elements of
ARM GAS  C:\Users\schmi\AppData\Local\Temp\ccLEO1Pj.s 			page 16


 299:Generated_Source\PSoC5/ErikaOS_1_ee_oo_common.inc ****    EE_th_rnact */
 300:Generated_Source\PSoC5/ErikaOS_1_ee_oo_common.inc **** extern EE_TYPEPAIR EE_rq_pairs_next[EE_RQ_PAIRS_NEXT_SIZE];
 301:Generated_Source\PSoC5/ErikaOS_1_ee_oo_common.inc **** /* If MemMap.h support is enabled (i.e. because memory protection): use it */
 302:Generated_Source\PSoC5/ErikaOS_1_ee_oo_common.inc **** #ifdef EE_SUPPORT_MEMMAP_H
 303:Generated_Source\PSoC5/ErikaOS_1_ee_oo_common.inc **** #define OS_STOP_SEC_VAR_DATA
 304:Generated_Source\PSoC5/ErikaOS_1_ee_oo_common.inc **** #include "MemMap.inc"
 305:Generated_Source\PSoC5/ErikaOS_1_ee_oo_common.inc **** #endif /* EE_SUPPORT_MEMMAP_H */
 306:Generated_Source\PSoC5/ErikaOS_1_ee_oo_common.inc **** 
 307:Generated_Source\PSoC5/ErikaOS_1_ee_oo_common.inc **** /* If MemMap.h support is enabled (i.e. because memory protection): use it */
 308:Generated_Source\PSoC5/ErikaOS_1_ee_oo_common.inc **** #ifdef EE_SUPPORT_MEMMAP_H
 309:Generated_Source\PSoC5/ErikaOS_1_ee_oo_common.inc **** /* The following variables belong to ERIKA API section: ee_kernel_bss */
 310:Generated_Source\PSoC5/ErikaOS_1_ee_oo_common.inc **** #define OS_START_SEC_VAR_NOINIT
 311:Generated_Source\PSoC5/ErikaOS_1_ee_oo_common.inc **** #include "MemMap.inc"
 312:Generated_Source\PSoC5/ErikaOS_1_ee_oo_common.inc **** #endif /* EE_SUPPORT_MEMMAP_H */
 313:Generated_Source\PSoC5/ErikaOS_1_ee_oo_common.inc **** 
 314:Generated_Source\PSoC5/ErikaOS_1_ee_oo_common.inc **** /* init value=0 (no init value); the number of elements is equal to the
 315:Generated_Source\PSoC5/ErikaOS_1_ee_oo_common.inc ****    sum of the elements of EE_th_rnact */
 316:Generated_Source\PSoC5/ErikaOS_1_ee_oo_common.inc **** extern EE_TID      EE_rq_pairs_tid[EE_RQ_PAIRS_TID_SIZE];
 317:Generated_Source\PSoC5/ErikaOS_1_ee_oo_common.inc **** 
 318:Generated_Source\PSoC5/ErikaOS_1_ee_oo_common.inc **** /* RQ priority Mask */
 319:Generated_Source\PSoC5/ErikaOS_1_ee_oo_common.inc **** extern EE_TYPE_RQ_MASK EE_rq_bitmask;
 320:Generated_Source\PSoC5/ErikaOS_1_ee_oo_common.inc **** /* a list of unused pairs */
 321:Generated_Source\PSoC5/ErikaOS_1_ee_oo_common.inc **** extern EE_TYPEPAIR EE_rq_free; /* pointer to a free pair; initvalue=0 */
 322:Generated_Source\PSoC5/ErikaOS_1_ee_oo_common.inc **** 
 323:Generated_Source\PSoC5/ErikaOS_1_ee_oo_common.inc **** /* If MemMap.h support is enabled (i.e. because memory protection): use it */
 324:Generated_Source\PSoC5/ErikaOS_1_ee_oo_common.inc **** #ifdef EE_SUPPORT_MEMMAP_H
 325:Generated_Source\PSoC5/ErikaOS_1_ee_oo_common.inc **** #define OS_STOP_SEC_VAR_NOINIT
 326:Generated_Source\PSoC5/ErikaOS_1_ee_oo_common.inc **** #include "MemMap.inc"
 327:Generated_Source\PSoC5/ErikaOS_1_ee_oo_common.inc **** #endif /* EE_SUPPORT_MEMMAP_H */
 328:Generated_Source\PSoC5/ErikaOS_1_ee_oo_common.inc **** 
 329:Generated_Source\PSoC5/ErikaOS_1_ee_oo_common.inc **** #endif /* __OO_BCC2__ || __OO_ECC2__ */
 330:Generated_Source\PSoC5/ErikaOS_1_ee_oo_common.inc **** 
 331:Generated_Source\PSoC5/ErikaOS_1_ee_oo_common.inc **** /* Event handling */
 332:Generated_Source\PSoC5/ErikaOS_1_ee_oo_common.inc **** 
 333:Generated_Source\PSoC5/ErikaOS_1_ee_oo_common.inc **** /* Note: To save memory space, Extended tasks should have the smallest
 334:Generated_Source\PSoC5/ErikaOS_1_ee_oo_common.inc ****    number into the task data structures. In that way, the following
 335:Generated_Source\PSoC5/ErikaOS_1_ee_oo_common.inc ****    data structures can be sized to exactly the number of the extended
 336:Generated_Source\PSoC5/ErikaOS_1_ee_oo_common.inc ****    tasks */
 337:Generated_Source\PSoC5/ErikaOS_1_ee_oo_common.inc **** #if (defined(__OO_ECC1__)) || (defined(__OO_ECC2__))
 338:Generated_Source\PSoC5/ErikaOS_1_ee_oo_common.inc **** 
 339:Generated_Source\PSoC5/ErikaOS_1_ee_oo_common.inc **** /* If MemMap.h support is enabled (i.e. because memory protection): use it */
 340:Generated_Source\PSoC5/ErikaOS_1_ee_oo_common.inc **** #ifdef EE_SUPPORT_MEMMAP_H
 341:Generated_Source\PSoC5/ErikaOS_1_ee_oo_common.inc **** /* The following variables belong to ERIKA API section: ee_kernel_data */
 342:Generated_Source\PSoC5/ErikaOS_1_ee_oo_common.inc **** #define OS_START_SEC_VAR_DATA
 343:Generated_Source\PSoC5/ErikaOS_1_ee_oo_common.inc **** #include "MemMap.inc"
 344:Generated_Source\PSoC5/ErikaOS_1_ee_oo_common.inc **** #endif /* EE_SUPPORT_MEMMAP_H */
 345:Generated_Source\PSoC5/ErikaOS_1_ee_oo_common.inc **** 
 346:Generated_Source\PSoC5/ErikaOS_1_ee_oo_common.inc **** /* thread events already active; these events are set using the
 347:Generated_Source\PSoC5/ErikaOS_1_ee_oo_common.inc ****    SetEvent primitive. initvalue = 0 */
 348:Generated_Source\PSoC5/ErikaOS_1_ee_oo_common.inc **** extern EE_TYPEEVENTMASK EE_th_event_active[EE_MAX_TASK];
 349:Generated_Source\PSoC5/ErikaOS_1_ee_oo_common.inc **** 
 350:Generated_Source\PSoC5/ErikaOS_1_ee_oo_common.inc **** /* thread wait mask. this is the event mask the task is waiting using
 351:Generated_Source\PSoC5/ErikaOS_1_ee_oo_common.inc ****    WaitEvent. A task IS waiting only if the value in this array IS != 0.
 352:Generated_Source\PSoC5/ErikaOS_1_ee_oo_common.inc ****    initvalue = 0 */
 353:Generated_Source\PSoC5/ErikaOS_1_ee_oo_common.inc **** extern EE_TYPEEVENTMASK EE_th_event_waitmask[EE_MAX_TASK];
 354:Generated_Source\PSoC5/ErikaOS_1_ee_oo_common.inc **** 
 355:Generated_Source\PSoC5/ErikaOS_1_ee_oo_common.inc **** /* this structure contains a flag that is 1 if a thread has been
ARM GAS  C:\Users\schmi\AppData\Local\Temp\ccLEO1Pj.s 			page 17


 356:Generated_Source\PSoC5/ErikaOS_1_ee_oo_common.inc ****    suspended using EE_hal_stkchange. In that case, the task have to
 357:Generated_Source\PSoC5/ErikaOS_1_ee_oo_common.inc ****    be wakened again using the same function. initvalue = 0
 358:Generated_Source\PSoC5/ErikaOS_1_ee_oo_common.inc **** */
 359:Generated_Source\PSoC5/ErikaOS_1_ee_oo_common.inc **** extern EE_TYPEBOOL EE_th_waswaiting[EE_MAX_TASK];
 360:Generated_Source\PSoC5/ErikaOS_1_ee_oo_common.inc **** 
 361:Generated_Source\PSoC5/ErikaOS_1_ee_oo_common.inc **** /* If MemMap.h support is enabled (i.e. because memory protection): use it */
 362:Generated_Source\PSoC5/ErikaOS_1_ee_oo_common.inc **** #ifdef EE_SUPPORT_MEMMAP_H
 363:Generated_Source\PSoC5/ErikaOS_1_ee_oo_common.inc **** #define OS_STOP_SEC_VAR_DATA
 364:Generated_Source\PSoC5/ErikaOS_1_ee_oo_common.inc **** #include "MemMap.inc"
 365:Generated_Source\PSoC5/ErikaOS_1_ee_oo_common.inc **** #endif /* EE_SUPPORT_MEMMAP_H */
 366:Generated_Source\PSoC5/ErikaOS_1_ee_oo_common.inc **** 
 367:Generated_Source\PSoC5/ErikaOS_1_ee_oo_common.inc **** /* just a flag: this flag is 1 if the task is an extended task, 0 otherwise */
 368:Generated_Source\PSoC5/ErikaOS_1_ee_oo_common.inc **** /* Please note that this flag is defined both in STANDARD and in
 369:Generated_Source\PSoC5/ErikaOS_1_ee_oo_common.inc ****    EXTENDED status. The need for this flag in standard status is
 370:Generated_Source\PSoC5/ErikaOS_1_ee_oo_common.inc ****    because task activations of an extended task clears its pending
 371:Generated_Source\PSoC5/ErikaOS_1_ee_oo_common.inc ****    event mask. */
 372:Generated_Source\PSoC5/ErikaOS_1_ee_oo_common.inc **** extern const EE_TYPEBOOL EE_th_is_extended[EE_MAX_TASK];
 373:Generated_Source\PSoC5/ErikaOS_1_ee_oo_common.inc **** 
 374:Generated_Source\PSoC5/ErikaOS_1_ee_oo_common.inc **** #endif /* __OO_ECC1__ || __OO_ECC2__ */
 375:Generated_Source\PSoC5/ErikaOS_1_ee_oo_common.inc **** 
 376:Generated_Source\PSoC5/ErikaOS_1_ee_oo_common.inc **** /* Resources data structures */
 377:Generated_Source\PSoC5/ErikaOS_1_ee_oo_common.inc **** 
 378:Generated_Source\PSoC5/ErikaOS_1_ee_oo_common.inc **** #ifndef __OO_NO_RESOURCES__
 379:Generated_Source\PSoC5/ErikaOS_1_ee_oo_common.inc **** 
 380:Generated_Source\PSoC5/ErikaOS_1_ee_oo_common.inc **** /* Resource ceiling */
 381:Generated_Source\PSoC5/ErikaOS_1_ee_oo_common.inc **** extern const EE_TYPEPRIO   EE_resource_ceiling[EE_MAX_RESOURCE];
 382:Generated_Source\PSoC5/ErikaOS_1_ee_oo_common.inc **** 
 383:Generated_Source\PSoC5/ErikaOS_1_ee_oo_common.inc **** #ifdef __OO_ISR2_RESOURCES__
 384:Generated_Source\PSoC5/ErikaOS_1_ee_oo_common.inc **** /* ISR2 priority tied to an resource */
 385:Generated_Source\PSoC5/ErikaOS_1_ee_oo_common.inc **** extern const EE_TYPEISR2PRIO  EE_resource_isr2_priority[EE_MAX_RESOURCE];
 386:Generated_Source\PSoC5/ErikaOS_1_ee_oo_common.inc **** #endif /* __OO_ISR2_RESOURCES__ */
 387:Generated_Source\PSoC5/ErikaOS_1_ee_oo_common.inc **** 
 388:Generated_Source\PSoC5/ErikaOS_1_ee_oo_common.inc **** /* If MemMap.h support is enabled (i.e. because memory protection): use it */
 389:Generated_Source\PSoC5/ErikaOS_1_ee_oo_common.inc **** #ifdef EE_SUPPORT_MEMMAP_H
 390:Generated_Source\PSoC5/ErikaOS_1_ee_oo_common.inc **** /* The following variables belong to ERIKA API section: ee_kernel_bss */
 391:Generated_Source\PSoC5/ErikaOS_1_ee_oo_common.inc **** #define OS_START_SEC_VAR_NOINIT
 392:Generated_Source\PSoC5/ErikaOS_1_ee_oo_common.inc **** #include "MemMap.inc"
 393:Generated_Source\PSoC5/ErikaOS_1_ee_oo_common.inc **** #endif /* EE_SUPPORT_MEMMAP_H */
 394:Generated_Source\PSoC5/ErikaOS_1_ee_oo_common.inc **** 
 395:Generated_Source\PSoC5/ErikaOS_1_ee_oo_common.inc **** 
 396:Generated_Source\PSoC5/ErikaOS_1_ee_oo_common.inc **** /* Note: There is no constraint on the index that is assigned
 397:Generated_Source\PSoC5/ErikaOS_1_ee_oo_common.inc ****    RES_SCHEDULER!!! */
 398:Generated_Source\PSoC5/ErikaOS_1_ee_oo_common.inc **** /* Old resource ceiling */
 399:Generated_Source\PSoC5/ErikaOS_1_ee_oo_common.inc **** extern EE_TYPEPRIO   EE_resource_oldceiling[EE_MAX_RESOURCE];
 400:Generated_Source\PSoC5/ErikaOS_1_ee_oo_common.inc **** 
 401:Generated_Source\PSoC5/ErikaOS_1_ee_oo_common.inc **** #ifdef __OO_ISR2_RESOURCES__
 402:Generated_Source\PSoC5/ErikaOS_1_ee_oo_common.inc **** /* New data structures to handle resource sharing with isr2 and isr2 hardware
 403:Generated_Source\PSoC5/ErikaOS_1_ee_oo_common.inc ****    priority ceiling. */
 404:Generated_Source\PSoC5/ErikaOS_1_ee_oo_common.inc **** /* Old ISR2 priority */
 405:Generated_Source\PSoC5/ErikaOS_1_ee_oo_common.inc **** extern EE_TYPEISR2PRIO  EE_isr2_oldpriority[EE_MAX_RESOURCE];
 406:Generated_Source\PSoC5/ErikaOS_1_ee_oo_common.inc **** #endif /* __OO_ISR2_RESOURCES__ */
 407:Generated_Source\PSoC5/ErikaOS_1_ee_oo_common.inc **** 
 408:Generated_Source\PSoC5/ErikaOS_1_ee_oo_common.inc **** #if (defined(__OO_EXTENDED_STATUS__)) || (defined(__OO_ORTI_RES_ISLOCKED__))
 409:Generated_Source\PSoC5/ErikaOS_1_ee_oo_common.inc **** /* Only in extended status or when using ORTI with resources; for each
 410:Generated_Source\PSoC5/ErikaOS_1_ee_oo_common.inc ****    resource, a flag is allocated to see if the resource is locked or
 411:Generated_Source\PSoC5/ErikaOS_1_ee_oo_common.inc ****    not.  Note that this information cannot be easily knew from the
 412:Generated_Source\PSoC5/ErikaOS_1_ee_oo_common.inc ****    previous two data structures. initvalue=0
ARM GAS  C:\Users\schmi\AppData\Local\Temp\ccLEO1Pj.s 			page 18


 413:Generated_Source\PSoC5/ErikaOS_1_ee_oo_common.inc **** */
 414:Generated_Source\PSoC5/ErikaOS_1_ee_oo_common.inc **** extern EE_TYPEBOOL EE_resource_locked[EE_MAX_RESOURCE];
 415:Generated_Source\PSoC5/ErikaOS_1_ee_oo_common.inc **** #endif /*__OO_EXTENDED_STATUS__ || __OO_ORTI_RES_ISLOCKED__ */
 416:Generated_Source\PSoC5/ErikaOS_1_ee_oo_common.inc **** 
 417:Generated_Source\PSoC5/ErikaOS_1_ee_oo_common.inc **** /* If MemMap.h support is enabled (i.e. because memory protection): use it */
 418:Generated_Source\PSoC5/ErikaOS_1_ee_oo_common.inc **** #ifdef EE_SUPPORT_MEMMAP_H
 419:Generated_Source\PSoC5/ErikaOS_1_ee_oo_common.inc **** #define OS_STOP_SEC_VAR_NOINIT
 420:Generated_Source\PSoC5/ErikaOS_1_ee_oo_common.inc **** #include "MemMap.inc"
 421:Generated_Source\PSoC5/ErikaOS_1_ee_oo_common.inc **** #endif /* EE_SUPPORT_MEMMAP_H */
 422:Generated_Source\PSoC5/ErikaOS_1_ee_oo_common.inc **** 
 423:Generated_Source\PSoC5/ErikaOS_1_ee_oo_common.inc **** /* If MemMap.h support is enabled (i.e. because memory protection): use it */
 424:Generated_Source\PSoC5/ErikaOS_1_ee_oo_common.inc **** #ifdef EE_SUPPORT_MEMMAP_H
 425:Generated_Source\PSoC5/ErikaOS_1_ee_oo_common.inc **** /* The following variables belong to ERIKA API section: ee_kernel_data */
 426:Generated_Source\PSoC5/ErikaOS_1_ee_oo_common.inc **** #define OS_START_SEC_VAR_DATA
 427:Generated_Source\PSoC5/ErikaOS_1_ee_oo_common.inc **** #include "MemMap.inc"
 428:Generated_Source\PSoC5/ErikaOS_1_ee_oo_common.inc **** #endif /* EE_SUPPORT_MEMMAP_H */
 429:Generated_Source\PSoC5/ErikaOS_1_ee_oo_common.inc **** 
 430:Generated_Source\PSoC5/ErikaOS_1_ee_oo_common.inc **** #if (defined(__OO_EXTENDED_STATUS__)) || (defined(__OO_ISR2_RESOURCES__))
 431:Generated_Source\PSoC5/ErikaOS_1_ee_oo_common.inc **** /* Only in extended status; for each task, we allocate a data
 432:Generated_Source\PSoC5/ErikaOS_1_ee_oo_common.inc ****    structure that keeps track of the order in which every task has
 433:Generated_Source\PSoC5/ErikaOS_1_ee_oo_common.inc ****    allocated a resource. This is needed to return a meaningful
 434:Generated_Source\PSoC5/ErikaOS_1_ee_oo_common.inc ****    E_OS_NOFUNC error in the ReleaseResource call. */
 435:Generated_Source\PSoC5/ErikaOS_1_ee_oo_common.inc **** 
 436:Generated_Source\PSoC5/ErikaOS_1_ee_oo_common.inc **** /* This is the last resource that the task has locked. This array
 437:Generated_Source\PSoC5/ErikaOS_1_ee_oo_common.inc ****    contains one entry for each task.  Initvalue= all -1. at runtime,
 438:Generated_Source\PSoC5/ErikaOS_1_ee_oo_common.inc ****    it points to the first item in the EE_resource_stack data structure */
 439:Generated_Source\PSoC5/ErikaOS_1_ee_oo_common.inc **** #ifndef EE_MAX_ISR2_WITH_RESOURCES
 440:Generated_Source\PSoC5/ErikaOS_1_ee_oo_common.inc **** extern EE_UREG EE_th_resource_last[EE_MAX_TASK];
 441:Generated_Source\PSoC5/ErikaOS_1_ee_oo_common.inc **** #else /* !EE_MAX_ISR2_WITH_RESOURCES */
 442:Generated_Source\PSoC5/ErikaOS_1_ee_oo_common.inc **** extern EE_UREG EE_th_resource_last[EE_MAX_TASK + EE_MAX_ISR2_WITH_RESOURCES];
 443:Generated_Source\PSoC5/ErikaOS_1_ee_oo_common.inc **** #endif /* !EE_MAX_ISR2_WITH_RESOURCES */
 444:Generated_Source\PSoC5/ErikaOS_1_ee_oo_common.inc **** /* this array is used to store a list of resources locked by a
 445:Generated_Source\PSoC5/ErikaOS_1_ee_oo_common.inc ****    task. there is one entry for each resource, initvalue = -1. the
 446:Generated_Source\PSoC5/ErikaOS_1_ee_oo_common.inc ****    list of resources locked by a task is ended by -1. */
 447:Generated_Source\PSoC5/ErikaOS_1_ee_oo_common.inc **** extern EE_UREG EE_resource_stack[EE_MAX_RESOURCE];
 448:Generated_Source\PSoC5/ErikaOS_1_ee_oo_common.inc **** #endif /* __OO_EXTENDED_STATUS__ || __OO_ISR2_RESOURCES__ */
 449:Generated_Source\PSoC5/ErikaOS_1_ee_oo_common.inc **** 
 450:Generated_Source\PSoC5/ErikaOS_1_ee_oo_common.inc **** /* If MemMap.h support is enabled (i.e. because memory protection): use it */
 451:Generated_Source\PSoC5/ErikaOS_1_ee_oo_common.inc **** #ifdef EE_SUPPORT_MEMMAP_H
 452:Generated_Source\PSoC5/ErikaOS_1_ee_oo_common.inc **** #define OS_STOP_SEC_VAR_DATA
 453:Generated_Source\PSoC5/ErikaOS_1_ee_oo_common.inc **** #include "MemMap.inc"
 454:Generated_Source\PSoC5/ErikaOS_1_ee_oo_common.inc **** #endif /* EE_SUPPORT_MEMMAP_H */
 455:Generated_Source\PSoC5/ErikaOS_1_ee_oo_common.inc **** 
 456:Generated_Source\PSoC5/ErikaOS_1_ee_oo_common.inc **** #endif /* __OO_NO_RESOURCES__ */
 457:Generated_Source\PSoC5/ErikaOS_1_ee_oo_common.inc **** 
 458:Generated_Source\PSoC5/ErikaOS_1_ee_oo_common.inc **** #if (defined(__OO_ISR2_RESOURCES__)) || (defined(EE_AS_USER_SPINLOCKS__))
 459:Generated_Source\PSoC5/ErikaOS_1_ee_oo_common.inc **** 
 460:Generated_Source\PSoC5/ErikaOS_1_ee_oo_common.inc **** /* If MemMap.h support is enabled (i.e. because memory protection): use it */
 461:Generated_Source\PSoC5/ErikaOS_1_ee_oo_common.inc **** #ifdef EE_SUPPORT_MEMMAP_H
 462:Generated_Source\PSoC5/ErikaOS_1_ee_oo_common.inc **** /* The following variables belong to ERIKA API section: ee_kernel_data */
 463:Generated_Source\PSoC5/ErikaOS_1_ee_oo_common.inc **** #define OS_START_SEC_VAR_NOINIT
 464:Generated_Source\PSoC5/ErikaOS_1_ee_oo_common.inc **** #include "MemMap.inc"
 465:Generated_Source\PSoC5/ErikaOS_1_ee_oo_common.inc **** #endif /* EE_SUPPORT_MEMMAP_H */
 466:Generated_Source\PSoC5/ErikaOS_1_ee_oo_common.inc **** 
 467:Generated_Source\PSoC5/ErikaOS_1_ee_oo_common.inc **** #if (defined(EE_MAX_ISR2_WITH_RESOURCES)) && (!defined(EE_AS_USER_SPINLOCKS__))
 468:Generated_Source\PSoC5/ErikaOS_1_ee_oo_common.inc **** #if (EE_MAX_ISR2_WITH_RESOURCES > 0)
 469:Generated_Source\PSoC5/ErikaOS_1_ee_oo_common.inc **** /* Array to hold corresponding isr2 nesting levels */
ARM GAS  C:\Users\schmi\AppData\Local\Temp\ccLEO1Pj.s 			page 19


 470:Generated_Source\PSoC5/ErikaOS_1_ee_oo_common.inc **** extern EE_UREG                EE_isr2_nesting_level[EE_MAX_ISR2_WITH_RESOURCES];
 471:Generated_Source\PSoC5/ErikaOS_1_ee_oo_common.inc **** #endif /* (EE_MAX_ISR2_WITH_RESOURCES > 0) && !EE_AS_USER_SPINLOCKS__ */
 472:Generated_Source\PSoC5/ErikaOS_1_ee_oo_common.inc **** #elif defined (EE_MAX_ISR2)
 473:Generated_Source\PSoC5/ErikaOS_1_ee_oo_common.inc **** #if (EE_MAX_ISR2 > 0)
 474:Generated_Source\PSoC5/ErikaOS_1_ee_oo_common.inc **** extern EE_UREG                EE_isr2_nesting_level[EE_MAX_ISR2];
 475:Generated_Source\PSoC5/ErikaOS_1_ee_oo_common.inc **** #endif /* EE_MAX_ISR2 > 0 */
 476:Generated_Source\PSoC5/ErikaOS_1_ee_oo_common.inc **** #endif
 477:Generated_Source\PSoC5/ErikaOS_1_ee_oo_common.inc **** 
 478:Generated_Source\PSoC5/ErikaOS_1_ee_oo_common.inc **** /* If MemMap.h support is enabled (i.e. because memory protection): use it */
 479:Generated_Source\PSoC5/ErikaOS_1_ee_oo_common.inc **** #ifdef EE_SUPPORT_MEMMAP_H
 480:Generated_Source\PSoC5/ErikaOS_1_ee_oo_common.inc **** /* The following variables belong to ERIKA API section: ee_kernel_data */
 481:Generated_Source\PSoC5/ErikaOS_1_ee_oo_common.inc **** #define OS_STOP_SEC_VAR_NOINIT
 482:Generated_Source\PSoC5/ErikaOS_1_ee_oo_common.inc **** #include "MemMap.inc"
 483:Generated_Source\PSoC5/ErikaOS_1_ee_oo_common.inc **** #endif /* EE_SUPPORT_MEMMAP_H */
 484:Generated_Source\PSoC5/ErikaOS_1_ee_oo_common.inc **** #endif /* __OO_ISR2_RESOURCES__ || EE_AS_USER_SPINLOCKS__ */
 485:Generated_Source\PSoC5/ErikaOS_1_ee_oo_common.inc **** 
 486:Generated_Source\PSoC5/ErikaOS_1_ee_oo_common.inc **** /* This is the stub that have to be put into the EE_th_body array */
 487:Generated_Source\PSoC5/ErikaOS_1_ee_oo_common.inc **** extern void EE_oo_thread_stub(void);
 488:Generated_Source\PSoC5/ErikaOS_1_ee_oo_common.inc **** 
 489:Generated_Source\PSoC5/ErikaOS_1_ee_oo_common.inc **** /***************************************************************************
 490:Generated_Source\PSoC5/ErikaOS_1_ee_oo_common.inc ****  * 13.1 Common data types
 491:Generated_Source\PSoC5/ErikaOS_1_ee_oo_common.inc ****  ***************************************************************************/
 492:Generated_Source\PSoC5/ErikaOS_1_ee_oo_common.inc **** 
 493:Generated_Source\PSoC5/ErikaOS_1_ee_oo_common.inc **** /* see top of the file */
 494:Generated_Source\PSoC5/ErikaOS_1_ee_oo_common.inc **** 
 495:Generated_Source\PSoC5/ErikaOS_1_ee_oo_common.inc **** /***************************************************************************
 496:Generated_Source\PSoC5/ErikaOS_1_ee_oo_common.inc ****  * 13.2 Task management
 497:Generated_Source\PSoC5/ErikaOS_1_ee_oo_common.inc ****  ***************************************************************************/
 498:Generated_Source\PSoC5/ErikaOS_1_ee_oo_common.inc **** 
 499:Generated_Source\PSoC5/ErikaOS_1_ee_oo_common.inc **** /* 13.2.1 Data types                                                       */
 500:Generated_Source\PSoC5/ErikaOS_1_ee_oo_common.inc **** /* ----------------------------------------------------------------------- */
 501:Generated_Source\PSoC5/ErikaOS_1_ee_oo_common.inc **** 
 502:Generated_Source\PSoC5/ErikaOS_1_ee_oo_common.inc **** /* This data type identifies a task. */
 503:Generated_Source\PSoC5/ErikaOS_1_ee_oo_common.inc **** typedef EE_TID TaskType;
 504:Generated_Source\PSoC5/ErikaOS_1_ee_oo_common.inc **** 
 505:Generated_Source\PSoC5/ErikaOS_1_ee_oo_common.inc **** /* This data type points to a variable of TaskType. */
 506:Generated_Source\PSoC5/ErikaOS_1_ee_oo_common.inc **** typedef EE_TID *TaskRefType;
 507:Generated_Source\PSoC5/ErikaOS_1_ee_oo_common.inc **** 
 508:Generated_Source\PSoC5/ErikaOS_1_ee_oo_common.inc **** /* This data type identifies the state of a task. */
 509:Generated_Source\PSoC5/ErikaOS_1_ee_oo_common.inc **** typedef EE_TYPESTATUS TaskStateType;
 510:Generated_Source\PSoC5/ErikaOS_1_ee_oo_common.inc **** 
 511:Generated_Source\PSoC5/ErikaOS_1_ee_oo_common.inc **** /* This data type points to a variable of the data type TaskStateType. */
 512:Generated_Source\PSoC5/ErikaOS_1_ee_oo_common.inc **** typedef EE_TYPESTATUS *TaskStateRefType;
 513:Generated_Source\PSoC5/ErikaOS_1_ee_oo_common.inc **** 
 514:Generated_Source\PSoC5/ErikaOS_1_ee_oo_common.inc **** /***************************************************************************
 515:Generated_Source\PSoC5/ErikaOS_1_ee_oo_common.inc ****  * ISR2 management
 516:Generated_Source\PSoC5/ErikaOS_1_ee_oo_common.inc ****  ***************************************************************************/
 517:Generated_Source\PSoC5/ErikaOS_1_ee_oo_common.inc **** /** @typedef This data type identifies an interrupt service routine (ISR). */
 518:Generated_Source\PSoC5/ErikaOS_1_ee_oo_common.inc **** typedef EE_UTID ISRType;
 519:Generated_Source\PSoC5/ErikaOS_1_ee_oo_common.inc **** #define INVALID_ISR ((ISRType)-1)
 520:Generated_Source\PSoC5/ErikaOS_1_ee_oo_common.inc **** 
 521:Generated_Source\PSoC5/ErikaOS_1_ee_oo_common.inc **** /* 13.2.4 Constants                                                        */
 522:Generated_Source\PSoC5/ErikaOS_1_ee_oo_common.inc **** /* ----------------------------------------------------------------------- */
 523:Generated_Source\PSoC5/ErikaOS_1_ee_oo_common.inc **** 
 524:Generated_Source\PSoC5/ErikaOS_1_ee_oo_common.inc **** /* Constant of data type TaskStateType for task state running. */
 525:Generated_Source\PSoC5/ErikaOS_1_ee_oo_common.inc **** #define RUNNING   ((EE_TYPESTATUS)0U)
 526:Generated_Source\PSoC5/ErikaOS_1_ee_oo_common.inc **** 
ARM GAS  C:\Users\schmi\AppData\Local\Temp\ccLEO1Pj.s 			page 20


 527:Generated_Source\PSoC5/ErikaOS_1_ee_oo_common.inc **** /* Constant of data type TaskStateType for task state waiting. */
 528:Generated_Source\PSoC5/ErikaOS_1_ee_oo_common.inc **** #define WAITING   ((EE_TYPESTATUS)1U)
 529:Generated_Source\PSoC5/ErikaOS_1_ee_oo_common.inc **** 
 530:Generated_Source\PSoC5/ErikaOS_1_ee_oo_common.inc **** /* Constant of data type TaskStateType for task state ready. */
 531:Generated_Source\PSoC5/ErikaOS_1_ee_oo_common.inc **** #define READY     ((EE_TYPESTATUS)2U)
 532:Generated_Source\PSoC5/ErikaOS_1_ee_oo_common.inc **** 
 533:Generated_Source\PSoC5/ErikaOS_1_ee_oo_common.inc **** /* Constant of data type TaskStateType for task state suspended. */
 534:Generated_Source\PSoC5/ErikaOS_1_ee_oo_common.inc **** #define SUSPENDED ((EE_TYPESTATUS)3U)
 535:Generated_Source\PSoC5/ErikaOS_1_ee_oo_common.inc **** 
 536:Generated_Source\PSoC5/ErikaOS_1_ee_oo_common.inc **** 
 537:Generated_Source\PSoC5/ErikaOS_1_ee_oo_common.inc **** /***************************************************************************
 538:Generated_Source\PSoC5/ErikaOS_1_ee_oo_common.inc ****  * 13.4 Resource management
 539:Generated_Source\PSoC5/ErikaOS_1_ee_oo_common.inc ****  ***************************************************************************/
 540:Generated_Source\PSoC5/ErikaOS_1_ee_oo_common.inc **** 
 541:Generated_Source\PSoC5/ErikaOS_1_ee_oo_common.inc **** /* 13.4.1 Data types                                                       */
 542:Generated_Source\PSoC5/ErikaOS_1_ee_oo_common.inc **** /* ----------------------------------------------------------------------- */
 543:Generated_Source\PSoC5/ErikaOS_1_ee_oo_common.inc **** 
 544:Generated_Source\PSoC5/ErikaOS_1_ee_oo_common.inc **** #ifndef __OO_NO_RESOURCES__
 545:Generated_Source\PSoC5/ErikaOS_1_ee_oo_common.inc **** typedef EE_TYPERESOURCE ResourceType;
 546:Generated_Source\PSoC5/ErikaOS_1_ee_oo_common.inc **** #endif
 547:Generated_Source\PSoC5/ErikaOS_1_ee_oo_common.inc **** 
 548:Generated_Source\PSoC5/ErikaOS_1_ee_oo_common.inc **** /***************************************************************************
 549:Generated_Source\PSoC5/ErikaOS_1_ee_oo_common.inc ****  * 13.5 Event control
 550:Generated_Source\PSoC5/ErikaOS_1_ee_oo_common.inc ****  ***************************************************************************/
 551:Generated_Source\PSoC5/ErikaOS_1_ee_oo_common.inc **** 
 552:Generated_Source\PSoC5/ErikaOS_1_ee_oo_common.inc **** /* 13.5.1 Data types                                                       */
 553:Generated_Source\PSoC5/ErikaOS_1_ee_oo_common.inc **** /* ----------------------------------------------------------------------- */
 554:Generated_Source\PSoC5/ErikaOS_1_ee_oo_common.inc **** 
 555:Generated_Source\PSoC5/ErikaOS_1_ee_oo_common.inc **** /* Data type of the event mask. */
 556:Generated_Source\PSoC5/ErikaOS_1_ee_oo_common.inc **** typedef EE_TYPEEVENTMASK EventMaskType;
 557:Generated_Source\PSoC5/ErikaOS_1_ee_oo_common.inc **** 
 558:Generated_Source\PSoC5/ErikaOS_1_ee_oo_common.inc **** /* Reference to an event mask. */
 559:Generated_Source\PSoC5/ErikaOS_1_ee_oo_common.inc **** typedef EE_TYPEEVENTMASK *EventMaskRefType;
 560:Generated_Source\PSoC5/ErikaOS_1_ee_oo_common.inc **** 
 561:Generated_Source\PSoC5/ErikaOS_1_ee_oo_common.inc **** /***************************************************************************
 562:Generated_Source\PSoC5/ErikaOS_1_ee_oo_common.inc ****  * 13.6 Counters & Alarms
 563:Generated_Source\PSoC5/ErikaOS_1_ee_oo_common.inc ****  ***************************************************************************/
 564:Generated_Source\PSoC5/ErikaOS_1_ee_oo_common.inc **** /** @typedef This data type represents count values in ticks. */
 565:Generated_Source\PSoC5/ErikaOS_1_ee_oo_common.inc **** typedef EE_TYPETICK TickType;
 566:Generated_Source\PSoC5/ErikaOS_1_ee_oo_common.inc **** 
 567:Generated_Source\PSoC5/ErikaOS_1_ee_oo_common.inc **** /** @typedef This data type points to the data type TickType. */
 568:Generated_Source\PSoC5/ErikaOS_1_ee_oo_common.inc **** typedef TickType *TickRefType;
 569:Generated_Source\PSoC5/ErikaOS_1_ee_oo_common.inc **** 
 570:Generated_Source\PSoC5/ErikaOS_1_ee_oo_common.inc **** #ifdef EE_CPU_CLOCK
 571:Generated_Source\PSoC5/ErikaOS_1_ee_oo_common.inc **** /** Utility Macro that convert an amount of ms in number of ticks at the CPU
 572:Generated_Source\PSoC5/ErikaOS_1_ee_oo_common.inc ****     clock frequency **/
 573:Generated_Source\PSoC5/ErikaOS_1_ee_oo_common.inc **** #define EE_MILLI_TO_CPU_TICKS(X_MS) EE_MILLI_TO_TICKS(X_MS, EE_CPU_CLOCK)
 574:Generated_Source\PSoC5/ErikaOS_1_ee_oo_common.inc **** 
 575:Generated_Source\PSoC5/ErikaOS_1_ee_oo_common.inc **** /** Utility Macro that convert an amount of us in number of ticks of a given
 576:Generated_Source\PSoC5/ErikaOS_1_ee_oo_common.inc ****     frequency **/
 577:Generated_Source\PSoC5/ErikaOS_1_ee_oo_common.inc **** #define EE_MICRO_TO_CPU_TICKS(X_US) EE_MICRO_TO_TICKS(X_US, EE_CPU_CLOCK)
 578:Generated_Source\PSoC5/ErikaOS_1_ee_oo_common.inc **** #endif /* EE_CPU_CLOCK */
 579:Generated_Source\PSoC5/ErikaOS_1_ee_oo_common.inc **** 
 580:Generated_Source\PSoC5/ErikaOS_1_ee_oo_common.inc **** /* Alarms Handling */
 581:Generated_Source\PSoC5/ErikaOS_1_ee_oo_common.inc **** #if (!defined(__OO_NO_ALARMS__)) || (defined(EE_AS_SCHEDULETABLES__))
 582:Generated_Source\PSoC5/ErikaOS_1_ee_oo_common.inc **** 
 583:Generated_Source\PSoC5/ErikaOS_1_ee_oo_common.inc **** /* Used to handle some corner cases with TickType */
ARM GAS  C:\Users\schmi\AppData\Local\Temp\ccLEO1Pj.s 			page 21


 584:Generated_Source\PSoC5/ErikaOS_1_ee_oo_common.inc **** #define EE_TYPETICK_HALF_VALUE ((((EE_TYPETICK)-1) >> 1) + 1U)
 585:Generated_Source\PSoC5/ErikaOS_1_ee_oo_common.inc **** 
 586:Generated_Source\PSoC5/ErikaOS_1_ee_oo_common.inc **** /* 13.6.1 Data types                                                       */
 587:Generated_Source\PSoC5/ErikaOS_1_ee_oo_common.inc **** /* ----------------------------------------------------------------------- */
 588:Generated_Source\PSoC5/ErikaOS_1_ee_oo_common.inc **** /* A structure for storage of counter characteristics. */
 589:Generated_Source\PSoC5/ErikaOS_1_ee_oo_common.inc **** typedef struct {
 590:Generated_Source\PSoC5/ErikaOS_1_ee_oo_common.inc ****   TickType maxallowedvalue; /* Maximum possible allowed count value in
 591:Generated_Source\PSoC5/ErikaOS_1_ee_oo_common.inc ****                                ticks */
 592:Generated_Source\PSoC5/ErikaOS_1_ee_oo_common.inc ****   TickType ticksperbase;    /* Number of hardware ticks required to reach a
 593:Generated_Source\PSoC5/ErikaOS_1_ee_oo_common.inc ****                                counter-specific (significant) unit. */
 594:Generated_Source\PSoC5/ErikaOS_1_ee_oo_common.inc **** #ifdef __OO_EXTENDED_STATUS__
 595:Generated_Source\PSoC5/ErikaOS_1_ee_oo_common.inc ****   TickType mincycle; /* Smallest allowed value for the cycle-parameter
 596:Generated_Source\PSoC5/ErikaOS_1_ee_oo_common.inc ****                         of SetRelAlarm/SetAbsAlarm) (only for systems
 597:Generated_Source\PSoC5/ErikaOS_1_ee_oo_common.inc ****                         with extended status) */
 598:Generated_Source\PSoC5/ErikaOS_1_ee_oo_common.inc **** #endif /* __OO_EXTENDED_STATUS__ */
 599:Generated_Source\PSoC5/ErikaOS_1_ee_oo_common.inc **** } AlarmBaseType;
 600:Generated_Source\PSoC5/ErikaOS_1_ee_oo_common.inc **** 
 601:Generated_Source\PSoC5/ErikaOS_1_ee_oo_common.inc **** /** @typedef This data type points to the data type AlarmBaseType. */
 602:Generated_Source\PSoC5/ErikaOS_1_ee_oo_common.inc **** typedef AlarmBaseType *AlarmBaseRefType;
 603:Generated_Source\PSoC5/ErikaOS_1_ee_oo_common.inc **** 
 604:Generated_Source\PSoC5/ErikaOS_1_ee_oo_common.inc **** /** @typedef This data type represent a counter object ID. */
 605:Generated_Source\PSoC5/ErikaOS_1_ee_oo_common.inc **** typedef EE_TYPECOUNTEROBJECT  CounterObjectType;
 606:Generated_Source\PSoC5/ErikaOS_1_ee_oo_common.inc **** 
 607:Generated_Source\PSoC5/ErikaOS_1_ee_oo_common.inc **** /** Define for an invalid counter object ID */
 608:Generated_Source\PSoC5/ErikaOS_1_ee_oo_common.inc **** #define INVALID_COUNTER_OBJECT  ((CounterObjectType)-1)
 609:Generated_Source\PSoC5/ErikaOS_1_ee_oo_common.inc **** 
 610:Generated_Source\PSoC5/ErikaOS_1_ee_oo_common.inc **** /** @typedef This data type represents an action ID. */
 611:Generated_Source\PSoC5/ErikaOS_1_ee_oo_common.inc **** typedef EE_TYPEACTION ActionType;
 612:Generated_Source\PSoC5/ErikaOS_1_ee_oo_common.inc **** 
 613:Generated_Source\PSoC5/ErikaOS_1_ee_oo_common.inc **** /** @typedef This data type represents an alarm ID. */
 614:Generated_Source\PSoC5/ErikaOS_1_ee_oo_common.inc **** typedef EE_TYPEALARM AlarmType;
 615:Generated_Source\PSoC5/ErikaOS_1_ee_oo_common.inc **** 
 616:Generated_Source\PSoC5/ErikaOS_1_ee_oo_common.inc **** /** Define for an invalid alarm */
 617:Generated_Source\PSoC5/ErikaOS_1_ee_oo_common.inc **** #define INVALID_ALARM ((AlarmType)-1)
 618:Generated_Source\PSoC5/ErikaOS_1_ee_oo_common.inc **** 
 619:Generated_Source\PSoC5/ErikaOS_1_ee_oo_common.inc **** /** @typedef This is an additional data type that represents a counter ID. */
 620:Generated_Source\PSoC5/ErikaOS_1_ee_oo_common.inc **** typedef EE_TYPECOUNTER CounterType;
 621:Generated_Source\PSoC5/ErikaOS_1_ee_oo_common.inc **** 
 622:Generated_Source\PSoC5/ErikaOS_1_ee_oo_common.inc **** /** Define for an invalid counter */
 623:Generated_Source\PSoC5/ErikaOS_1_ee_oo_common.inc **** #define INVALID_COUNTER ((CounterType)-1)
 624:Generated_Source\PSoC5/ErikaOS_1_ee_oo_common.inc **** 
 625:Generated_Source\PSoC5/ErikaOS_1_ee_oo_common.inc **** /** Initialization Value: depends on configuration */
 626:Generated_Source\PSoC5/ErikaOS_1_ee_oo_common.inc **** typedef struct {
 627:Generated_Source\PSoC5/ErikaOS_1_ee_oo_common.inc ****   TickType        maxallowedvalue;
 628:Generated_Source\PSoC5/ErikaOS_1_ee_oo_common.inc ****   TickType        ticksperbase;
 629:Generated_Source\PSoC5/ErikaOS_1_ee_oo_common.inc ****   TickType        mincycle;
 630:Generated_Source\PSoC5/ErikaOS_1_ee_oo_common.inc **** #ifdef EE_AS_OSAPPLICATIONS__
 631:Generated_Source\PSoC5/ErikaOS_1_ee_oo_common.inc ****   /** The ID of the application to which this counter belong to. */
 632:Generated_Source\PSoC5/ErikaOS_1_ee_oo_common.inc ****   ApplicationType ApplID;
 633:Generated_Source\PSoC5/ErikaOS_1_ee_oo_common.inc **** #endif /* EE_AS_OSAPPLICATIONS__ */
 634:Generated_Source\PSoC5/ErikaOS_1_ee_oo_common.inc **** } EE_oo_counter_ROM_type;
 635:Generated_Source\PSoC5/ErikaOS_1_ee_oo_common.inc **** 
 636:Generated_Source\PSoC5/ErikaOS_1_ee_oo_common.inc **** /** Initialization Value: {0, -1} */
 637:Generated_Source\PSoC5/ErikaOS_1_ee_oo_common.inc **** typedef struct {
 638:Generated_Source\PSoC5/ErikaOS_1_ee_oo_common.inc ****   TickType          value;  /**< current value of the counter */
 639:Generated_Source\PSoC5/ErikaOS_1_ee_oo_common.inc ****   CounterObjectType first;  /**< first object queued on the counter */
 640:Generated_Source\PSoC5/ErikaOS_1_ee_oo_common.inc **** } EE_oo_counter_RAM_type;
ARM GAS  C:\Users\schmi\AppData\Local\Temp\ccLEO1Pj.s 			page 22


 641:Generated_Source\PSoC5/ErikaOS_1_ee_oo_common.inc **** 
 642:Generated_Source\PSoC5/ErikaOS_1_ee_oo_common.inc **** /** Add supplementary support info for hardware counters */
 643:Generated_Source\PSoC5/ErikaOS_1_ee_oo_common.inc **** #ifdef EE_MAX_COUNTER_HW
 644:Generated_Source\PSoC5/ErikaOS_1_ee_oo_common.inc **** typedef struct {
 645:Generated_Source\PSoC5/ErikaOS_1_ee_oo_common.inc ****   TickType microsecondspertick;
 646:Generated_Source\PSoC5/ErikaOS_1_ee_oo_common.inc **** } EE_oo_counter_hw_ROM_type;
 647:Generated_Source\PSoC5/ErikaOS_1_ee_oo_common.inc **** #endif /* EE_MAX_COUNTER_HW */
 648:Generated_Source\PSoC5/ErikaOS_1_ee_oo_common.inc **** 
 649:Generated_Source\PSoC5/ErikaOS_1_ee_oo_common.inc **** /** These are the different kind of counter objects */
 650:Generated_Source\PSoC5/ErikaOS_1_ee_oo_common.inc **** typedef enum {
 651:Generated_Source\PSoC5/ErikaOS_1_ee_oo_common.inc ****   EE_ALARM,
 652:Generated_Source\PSoC5/ErikaOS_1_ee_oo_common.inc ****   EE_SCHEDULETABLE
 653:Generated_Source\PSoC5/ErikaOS_1_ee_oo_common.inc **** } EE_oo_counter_object_kind_type;
 654:Generated_Source\PSoC5/ErikaOS_1_ee_oo_common.inc **** 
 655:Generated_Source\PSoC5/ErikaOS_1_ee_oo_common.inc **** /** Typedef to have a more harmonized type name with other OSEK type names */
 656:Generated_Source\PSoC5/ErikaOS_1_ee_oo_common.inc **** typedef EE_oo_counter_object_kind_type CounterObjectKindType;
 657:Generated_Source\PSoC5/ErikaOS_1_ee_oo_common.inc **** 
 658:Generated_Source\PSoC5/ErikaOS_1_ee_oo_common.inc **** /** These data structures represent a generic counter object. Object of this
 659:Generated_Source\PSoC5/ErikaOS_1_ee_oo_common.inc ****     kind will build a counter's expire list */
 660:Generated_Source\PSoC5/ErikaOS_1_ee_oo_common.inc **** typedef struct {
 661:Generated_Source\PSoC5/ErikaOS_1_ee_oo_common.inc ****   /** The counter this counter is linked to */
 662:Generated_Source\PSoC5/ErikaOS_1_ee_oo_common.inc ****   CounterType           c;
 663:Generated_Source\PSoC5/ErikaOS_1_ee_oo_common.inc ****   /** ID specialized Id (In Alarm or Schedule Tables List) */
 664:Generated_Source\PSoC5/ErikaOS_1_ee_oo_common.inc ****   CounterObjectType     spec_id;
 665:Generated_Source\PSoC5/ErikaOS_1_ee_oo_common.inc ****   /** Which kind of Counter Object is this */
 666:Generated_Source\PSoC5/ErikaOS_1_ee_oo_common.inc ****   CounterObjectKindType kind;
 667:Generated_Source\PSoC5/ErikaOS_1_ee_oo_common.inc **** } EE_oo_counter_object_ROM_type;
 668:Generated_Source\PSoC5/ErikaOS_1_ee_oo_common.inc **** 
 669:Generated_Source\PSoC5/ErikaOS_1_ee_oo_common.inc **** /** These data structures represent a generic counter object. Object of this
 670:Generated_Source\PSoC5/ErikaOS_1_ee_oo_common.inc ****     kind will build a counter's expire list */
 671:Generated_Source\PSoC5/ErikaOS_1_ee_oo_common.inc **** typedef struct {
 672:Generated_Source\PSoC5/ErikaOS_1_ee_oo_common.inc ****   EE_TYPEBOOL       used;     /**< a flag that is 1 when the alarm is armed */
 673:Generated_Source\PSoC5/ErikaOS_1_ee_oo_common.inc ****   TickType          cntcycle; /**< cycle for periodic alarms */
 674:Generated_Source\PSoC5/ErikaOS_1_ee_oo_common.inc ****   TickType          delta;    /**< delta expiration time (into a queue!) */
 675:Generated_Source\PSoC5/ErikaOS_1_ee_oo_common.inc ****   CounterObjectType next;     /**< next counter object in the delta queue */
 676:Generated_Source\PSoC5/ErikaOS_1_ee_oo_common.inc **** } EE_oo_counter_object_RAM_type;
 677:Generated_Source\PSoC5/ErikaOS_1_ee_oo_common.inc **** 
 678:Generated_Source\PSoC5/ErikaOS_1_ee_oo_common.inc **** /** These are the different kind of counter object actions */
 679:Generated_Source\PSoC5/ErikaOS_1_ee_oo_common.inc **** typedef enum {
 680:Generated_Source\PSoC5/ErikaOS_1_ee_oo_common.inc ****   EE_ACTION_TASK      = 0U,
 681:Generated_Source\PSoC5/ErikaOS_1_ee_oo_common.inc ****   EE_ACTION_EVENT     = 1U,
 682:Generated_Source\PSoC5/ErikaOS_1_ee_oo_common.inc ****   EE_ACTION_COUNTER   = 2U,
 683:Generated_Source\PSoC5/ErikaOS_1_ee_oo_common.inc ****   EE_ACTION_CALLBACK  = 3U
 684:Generated_Source\PSoC5/ErikaOS_1_ee_oo_common.inc **** } EE_oo_action_kind_type;
 685:Generated_Source\PSoC5/ErikaOS_1_ee_oo_common.inc **** 
 686:Generated_Source\PSoC5/ErikaOS_1_ee_oo_common.inc **** /** Typedef to have a more harmonized type name with other OSEK type names */
 687:Generated_Source\PSoC5/ErikaOS_1_ee_oo_common.inc **** typedef EE_oo_action_kind_type ActionKindType;
 688:Generated_Source\PSoC5/ErikaOS_1_ee_oo_common.inc **** 
 689:Generated_Source\PSoC5/ErikaOS_1_ee_oo_common.inc **** /** This data structure represent an counter object action */
 690:Generated_Source\PSoC5/ErikaOS_1_ee_oo_common.inc **** typedef struct {
 691:Generated_Source\PSoC5/ErikaOS_1_ee_oo_common.inc ****   ActionKindType    action_kind;
 692:Generated_Source\PSoC5/ErikaOS_1_ee_oo_common.inc ****   TaskType          action_task;
 693:Generated_Source\PSoC5/ErikaOS_1_ee_oo_common.inc **** #if (defined(__OO_ECC1__)) || (defined(__OO_ECC2__))
 694:Generated_Source\PSoC5/ErikaOS_1_ee_oo_common.inc ****   EventMaskType     action_mask;
 695:Generated_Source\PSoC5/ErikaOS_1_ee_oo_common.inc **** #endif /* __OO_ECC1__ || __OO_ECC2__ */
 696:Generated_Source\PSoC5/ErikaOS_1_ee_oo_common.inc ****   EE_VOID_CALLBACK  f;
 697:Generated_Source\PSoC5/ErikaOS_1_ee_oo_common.inc ****   /* Counter to increment when the alarm expire.*/
ARM GAS  C:\Users\schmi\AppData\Local\Temp\ccLEO1Pj.s 			page 23


 698:Generated_Source\PSoC5/ErikaOS_1_ee_oo_common.inc ****   CounterType       inccount;
 699:Generated_Source\PSoC5/ErikaOS_1_ee_oo_common.inc **** } EE_oo_action_ROM_type;
 700:Generated_Source\PSoC5/ErikaOS_1_ee_oo_common.inc **** 
 701:Generated_Source\PSoC5/ErikaOS_1_ee_oo_common.inc **** typedef struct {
 702:Generated_Source\PSoC5/ErikaOS_1_ee_oo_common.inc ****   /** The ID of the action that have to be executed when this alarm expire */
 703:Generated_Source\PSoC5/ErikaOS_1_ee_oo_common.inc ****   ActionType        action_id;
 704:Generated_Source\PSoC5/ErikaOS_1_ee_oo_common.inc **** #ifdef EE_AS_OSAPPLICATIONS__
 705:Generated_Source\PSoC5/ErikaOS_1_ee_oo_common.inc ****   /** The ID of the application to which this alarm belong to. */
 706:Generated_Source\PSoC5/ErikaOS_1_ee_oo_common.inc ****   ApplicationType   ApplID;
 707:Generated_Source\PSoC5/ErikaOS_1_ee_oo_common.inc **** #endif /* EE_AS_OSAPPLICATIONS__ */
 708:Generated_Source\PSoC5/ErikaOS_1_ee_oo_common.inc **** } EE_oo_alarm_ROM_type;
 709:Generated_Source\PSoC5/ErikaOS_1_ee_oo_common.inc **** 
 710:Generated_Source\PSoC5/ErikaOS_1_ee_oo_common.inc **** /* This array contains, for each counter, the characteristics of the counter.
 711:Generated_Source\PSoC5/ErikaOS_1_ee_oo_common.inc ****    The initialization value is implementation dependent */
 712:Generated_Source\PSoC5/ErikaOS_1_ee_oo_common.inc **** #if defined (EE_COUNTER_ROM_SIZE)
 713:Generated_Source\PSoC5/ErikaOS_1_ee_oo_common.inc **** #if EE_COUNTER_ROM_SIZE > 0
 714:Generated_Source\PSoC5/ErikaOS_1_ee_oo_common.inc **** extern const EE_oo_counter_ROM_type EE_counter_ROM[EE_COUNTER_ROM_SIZE];
 715:Generated_Source\PSoC5/ErikaOS_1_ee_oo_common.inc **** #endif
 716:Generated_Source\PSoC5/ErikaOS_1_ee_oo_common.inc **** #endif
 717:Generated_Source\PSoC5/ErikaOS_1_ee_oo_common.inc **** 
 718:Generated_Source\PSoC5/ErikaOS_1_ee_oo_common.inc **** #ifdef EE_MAX_COUNTER_HW
 719:Generated_Source\PSoC5/ErikaOS_1_ee_oo_common.inc **** /* Add supplementary support info for HARDWARE counters.
 720:Generated_Source\PSoC5/ErikaOS_1_ee_oo_common.inc ****    This array contains, for each HARDWARE counter, the supplementary
 721:Generated_Source\PSoC5/ErikaOS_1_ee_oo_common.inc ****    characteristics of the counter.The initialization value is implementation
 722:Generated_Source\PSoC5/ErikaOS_1_ee_oo_common.inc ****    dependent */
 723:Generated_Source\PSoC5/ErikaOS_1_ee_oo_common.inc **** extern const EE_oo_counter_hw_ROM_type
 724:Generated_Source\PSoC5/ErikaOS_1_ee_oo_common.inc ****   EE_counter_hw_ROM[EE_COUNTER_HW_ROM_SIZE];
 725:Generated_Source\PSoC5/ErikaOS_1_ee_oo_common.inc **** #endif /* EE_MAX_COUNTER_HW */
 726:Generated_Source\PSoC5/ErikaOS_1_ee_oo_common.inc **** 
 727:Generated_Source\PSoC5/ErikaOS_1_ee_oo_common.inc **** /* this part is the fixed part of a counter object.
 728:Generated_Source\PSoC5/ErikaOS_1_ee_oo_common.inc ****    Initvalue= depends on how the alarm or the schedule table represented by this
 729:Generated_Source\PSoC5/ErikaOS_1_ee_oo_common.inc ****    have been configured */
 730:Generated_Source\PSoC5/ErikaOS_1_ee_oo_common.inc **** #if defined (EE_COUNTER_OBJECTS_ROM_SIZE)
 731:Generated_Source\PSoC5/ErikaOS_1_ee_oo_common.inc **** #if (EE_COUNTER_OBJECTS_ROM_SIZE > 0)
 732:Generated_Source\PSoC5/ErikaOS_1_ee_oo_common.inc **** extern const EE_oo_counter_object_ROM_type
 733:Generated_Source\PSoC5/ErikaOS_1_ee_oo_common.inc ****   EE_oo_counter_object_ROM[EE_COUNTER_OBJECTS_ROM_SIZE];
 734:Generated_Source\PSoC5/ErikaOS_1_ee_oo_common.inc **** #endif
 735:Generated_Source\PSoC5/ErikaOS_1_ee_oo_common.inc **** #endif
 736:Generated_Source\PSoC5/ErikaOS_1_ee_oo_common.inc **** 
 737:Generated_Source\PSoC5/ErikaOS_1_ee_oo_common.inc **** /* this part represent the list of the configured actions.
 738:Generated_Source\PSoC5/ErikaOS_1_ee_oo_common.inc ****    Initvalue= depends on how the alarms and the schedule tables have been
 739:Generated_Source\PSoC5/ErikaOS_1_ee_oo_common.inc ****    have been configured */
 740:Generated_Source\PSoC5/ErikaOS_1_ee_oo_common.inc **** #if defined (EE_ACTION_ROM_SIZE)
 741:Generated_Source\PSoC5/ErikaOS_1_ee_oo_common.inc **** #if (EE_ACTION_ROM_SIZE > 0)
 742:Generated_Source\PSoC5/ErikaOS_1_ee_oo_common.inc **** extern const EE_oo_action_ROM_type EE_oo_action_ROM[EE_ACTION_ROM_SIZE];
 743:Generated_Source\PSoC5/ErikaOS_1_ee_oo_common.inc **** #endif
 744:Generated_Source\PSoC5/ErikaOS_1_ee_oo_common.inc **** #endif
 745:Generated_Source\PSoC5/ErikaOS_1_ee_oo_common.inc **** 
 746:Generated_Source\PSoC5/ErikaOS_1_ee_oo_common.inc **** /* this is the fixed part of the configuration of an alarm
 747:Generated_Source\PSoC5/ErikaOS_1_ee_oo_common.inc ****    Initvalue= depends on how the alarm have been configured */
 748:Generated_Source\PSoC5/ErikaOS_1_ee_oo_common.inc **** #if defined (EE_ALARM_ROM_SIZE)
 749:Generated_Source\PSoC5/ErikaOS_1_ee_oo_common.inc **** #if (EE_ALARM_ROM_SIZE > 0)
 750:Generated_Source\PSoC5/ErikaOS_1_ee_oo_common.inc **** extern const EE_oo_alarm_ROM_type   EE_alarm_ROM[EE_ALARM_ROM_SIZE];
 751:Generated_Source\PSoC5/ErikaOS_1_ee_oo_common.inc **** #endif
 752:Generated_Source\PSoC5/ErikaOS_1_ee_oo_common.inc **** #endif
 753:Generated_Source\PSoC5/ErikaOS_1_ee_oo_common.inc **** 
 754:Generated_Source\PSoC5/ErikaOS_1_ee_oo_common.inc **** /* If MemMap.h support is enabled (i.e. because memory protection): use it */
ARM GAS  C:\Users\schmi\AppData\Local\Temp\ccLEO1Pj.s 			page 24


 755:Generated_Source\PSoC5/ErikaOS_1_ee_oo_common.inc **** #ifdef EE_SUPPORT_MEMMAP_H
 756:Generated_Source\PSoC5/ErikaOS_1_ee_oo_common.inc **** /* The following variables belong to ERIKA API section: ee_kernel_data */
 757:Generated_Source\PSoC5/ErikaOS_1_ee_oo_common.inc **** #define OS_START_SEC_VAR_DATA
 758:Generated_Source\PSoC5/ErikaOS_1_ee_oo_common.inc **** #include "MemMap.inc"
 759:Generated_Source\PSoC5/ErikaOS_1_ee_oo_common.inc **** #endif /* EE_SUPPORT_MEMMAP_H */
 760:Generated_Source\PSoC5/ErikaOS_1_ee_oo_common.inc **** 
 761:Generated_Source\PSoC5/ErikaOS_1_ee_oo_common.inc **** /* This is the RAM part of a counter.
 762:Generated_Source\PSoC5/ErikaOS_1_ee_oo_common.inc ****    Initialization value = an array of {0,-1} elements */
 763:Generated_Source\PSoC5/ErikaOS_1_ee_oo_common.inc **** extern EE_oo_counter_RAM_type       EE_counter_RAM[EE_MAX_COUNTER];
 764:Generated_Source\PSoC5/ErikaOS_1_ee_oo_common.inc **** 
 765:Generated_Source\PSoC5/ErikaOS_1_ee_oo_common.inc **** /* this part is the variable part of a counter object.
 766:Generated_Source\PSoC5/ErikaOS_1_ee_oo_common.inc ****    Initvalue: all zeros. Note that setting the next value to 0 and
 767:Generated_Source\PSoC5/ErikaOS_1_ee_oo_common.inc ****    not -1 does not give problems because used=0; the next field will
 768:Generated_Source\PSoC5/ErikaOS_1_ee_oo_common.inc ****    be set by counter_object_insert when inserting the alarm in the queue */
 769:Generated_Source\PSoC5/ErikaOS_1_ee_oo_common.inc **** #if defined (EE_COUNTER_OBJECTS_ROM_SIZE)
 770:Generated_Source\PSoC5/ErikaOS_1_ee_oo_common.inc **** #if (EE_COUNTER_OBJECTS_ROM_SIZE > 0)
 771:Generated_Source\PSoC5/ErikaOS_1_ee_oo_common.inc **** extern EE_oo_counter_object_RAM_type
 772:Generated_Source\PSoC5/ErikaOS_1_ee_oo_common.inc ****   EE_oo_counter_object_RAM[EE_COUNTER_OBJECTS_ROM_SIZE];
 773:Generated_Source\PSoC5/ErikaOS_1_ee_oo_common.inc **** #endif
 774:Generated_Source\PSoC5/ErikaOS_1_ee_oo_common.inc **** #endif
 775:Generated_Source\PSoC5/ErikaOS_1_ee_oo_common.inc **** 
 776:Generated_Source\PSoC5/ErikaOS_1_ee_oo_common.inc **** /* If MemMap.h support is enabled (i.e. because memory protection): use it */
 777:Generated_Source\PSoC5/ErikaOS_1_ee_oo_common.inc **** #ifdef EE_SUPPORT_MEMMAP_H
 778:Generated_Source\PSoC5/ErikaOS_1_ee_oo_common.inc **** #define OS_STOP_SEC_VAR_DATA
 779:Generated_Source\PSoC5/ErikaOS_1_ee_oo_common.inc **** #include "MemMap.inc"
 780:Generated_Source\PSoC5/ErikaOS_1_ee_oo_common.inc **** #endif /* EE_SUPPORT_MEMMAP_H */
 781:Generated_Source\PSoC5/ErikaOS_1_ee_oo_common.inc **** 
 782:Generated_Source\PSoC5/ErikaOS_1_ee_oo_common.inc **** #endif /* !__OO_NO_ALARMS__ || EE_AS_SCHEDULETABLES__ */
 783:Generated_Source\PSoC5/ErikaOS_1_ee_oo_common.inc **** 
 784:Generated_Source\PSoC5/ErikaOS_1_ee_oo_common.inc **** /***************************************************************************
 785:Generated_Source\PSoC5/ErikaOS_1_ee_oo_common.inc ****  * 13.7 Operating system execution control
 786:Generated_Source\PSoC5/ErikaOS_1_ee_oo_common.inc ****  ***************************************************************************/
 787:Generated_Source\PSoC5/ErikaOS_1_ee_oo_common.inc **** 
 788:Generated_Source\PSoC5/ErikaOS_1_ee_oo_common.inc **** /* 13.7.1 Data types                                                       */
 789:Generated_Source\PSoC5/ErikaOS_1_ee_oo_common.inc **** /* ----------------------------------------------------------------------- */
 790:Generated_Source\PSoC5/ErikaOS_1_ee_oo_common.inc **** 
 791:Generated_Source\PSoC5/ErikaOS_1_ee_oo_common.inc **** /* This data type represents the application mode. */
 792:Generated_Source\PSoC5/ErikaOS_1_ee_oo_common.inc **** typedef EE_TYPEAPPMODE AppModeType;
 793:Generated_Source\PSoC5/ErikaOS_1_ee_oo_common.inc **** 
 794:Generated_Source\PSoC5/ErikaOS_1_ee_oo_common.inc **** /***************************************************************************
 795:Generated_Source\PSoC5/ErikaOS_1_ee_oo_common.inc ****  * 13.1 Common data types
 796:Generated_Source\PSoC5/ErikaOS_1_ee_oo_common.inc ****  ***************************************************************************/
 797:Generated_Source\PSoC5/ErikaOS_1_ee_oo_common.inc **** 
 798:Generated_Source\PSoC5/ErikaOS_1_ee_oo_common.inc **** /* 3.2 (Bindings). StatusType is an unsigned char */
 799:Generated_Source\PSoC5/ErikaOS_1_ee_oo_common.inc **** #ifndef STATUSTYPEDEFINED
 800:Generated_Source\PSoC5/ErikaOS_1_ee_oo_common.inc **** #define STATUSTYPEDEFINED
 801:Generated_Source\PSoC5/ErikaOS_1_ee_oo_common.inc **** typedef unsigned char StatusType;
 802:Generated_Source\PSoC5/ErikaOS_1_ee_oo_common.inc **** #define E_OK                        ((StatusType)0U)
 803:Generated_Source\PSoC5/ErikaOS_1_ee_oo_common.inc **** #endif
 804:Generated_Source\PSoC5/ErikaOS_1_ee_oo_common.inc **** 
 805:Generated_Source\PSoC5/ErikaOS_1_ee_oo_common.inc **** #define E_OS_ACCESS                 ((StatusType)1U)
 806:Generated_Source\PSoC5/ErikaOS_1_ee_oo_common.inc **** #define E_OS_CALLEVEL               ((StatusType)2U)
 807:Generated_Source\PSoC5/ErikaOS_1_ee_oo_common.inc **** #define E_OS_ID                     ((StatusType)3U)
 808:Generated_Source\PSoC5/ErikaOS_1_ee_oo_common.inc **** #define E_OS_LIMIT                  ((StatusType)4U)
 809:Generated_Source\PSoC5/ErikaOS_1_ee_oo_common.inc **** #define E_OS_NOFUNC                 ((StatusType)5U)
 810:Generated_Source\PSoC5/ErikaOS_1_ee_oo_common.inc **** #define E_OS_RESOURCE               ((StatusType)6U)
 811:Generated_Source\PSoC5/ErikaOS_1_ee_oo_common.inc **** #define E_OS_STATE                  ((StatusType)7U)
ARM GAS  C:\Users\schmi\AppData\Local\Temp\ccLEO1Pj.s 			page 25


 812:Generated_Source\PSoC5/ErikaOS_1_ee_oo_common.inc **** #define E_OS_VALUE                  ((StatusType)8U)
 813:Generated_Source\PSoC5/ErikaOS_1_ee_oo_common.inc **** #define E_OS_SERVICEID              ((StatusType)9U)
 814:Generated_Source\PSoC5/ErikaOS_1_ee_oo_common.inc **** #define E_OS_ILLEGAL_ADDRESS        ((StatusType)10U)
 815:Generated_Source\PSoC5/ErikaOS_1_ee_oo_common.inc **** #define E_OS_MISSINGEND             ((StatusType)11U)
 816:Generated_Source\PSoC5/ErikaOS_1_ee_oo_common.inc **** #define E_OS_DISABLEDINT            ((StatusType)12U)
 817:Generated_Source\PSoC5/ErikaOS_1_ee_oo_common.inc **** #define E_OS_STACKFAULT             ((StatusType)13U)
 818:Generated_Source\PSoC5/ErikaOS_1_ee_oo_common.inc **** #define E_OS_PARAM_POINTER          ((StatusType)14U)
 819:Generated_Source\PSoC5/ErikaOS_1_ee_oo_common.inc **** #define E_OS_PROTECTION_MEMORY      ((StatusType)15U)
 820:Generated_Source\PSoC5/ErikaOS_1_ee_oo_common.inc **** #define E_OS_PROTECTION_TIME        ((StatusType)16U)
 821:Generated_Source\PSoC5/ErikaOS_1_ee_oo_common.inc **** #define E_OS_PROTECTION_ARRIVAL     ((StatusType)17U)
 822:Generated_Source\PSoC5/ErikaOS_1_ee_oo_common.inc **** #define E_OS_PROTECTION_LOCKED      ((StatusType)18U)
 823:Generated_Source\PSoC5/ErikaOS_1_ee_oo_common.inc **** #define E_OS_PROTECTION_EXCEPTION   ((StatusType)19U)
 824:Generated_Source\PSoC5/ErikaOS_1_ee_oo_common.inc **** /* Spinlocks errors */
 825:Generated_Source\PSoC5/ErikaOS_1_ee_oo_common.inc **** #define E_OS_SPINLOCK               ((StatusType)20U)
 826:Generated_Source\PSoC5/ErikaOS_1_ee_oo_common.inc **** #define E_OS_INTERFERENCE_DEADLOCK  ((StatusType)21U)
 827:Generated_Source\PSoC5/ErikaOS_1_ee_oo_common.inc **** #define E_OS_NESTING_DEADLOCK       ((StatusType)22U)
 828:Generated_Source\PSoC5/ErikaOS_1_ee_oo_common.inc **** /* RPC errors */
 829:Generated_Source\PSoC5/ErikaOS_1_ee_oo_common.inc **** #define E_OS_CORE                   ((StatusType)23U)
 830:Generated_Source\PSoC5/ErikaOS_1_ee_oo_common.inc **** 
 831:Generated_Source\PSoC5/ErikaOS_1_ee_oo_common.inc **** /* Implementation specific errors: they must start with E_OS_SYS_ */
 832:Generated_Source\PSoC5/ErikaOS_1_ee_oo_common.inc **** /* Error during StartOS */
 833:Generated_Source\PSoC5/ErikaOS_1_ee_oo_common.inc **** #define E_OS_SYS_INIT               ((StatusType)24U)
 834:Generated_Source\PSoC5/ErikaOS_1_ee_oo_common.inc **** 
 835:Generated_Source\PSoC5/ErikaOS_1_ee_oo_common.inc **** /***************************************************************************
 836:Generated_Source\PSoC5/ErikaOS_1_ee_oo_common.inc ****  * ORTI support
 837:Generated_Source\PSoC5/ErikaOS_1_ee_oo_common.inc ****  ***************************************************************************/
 838:Generated_Source\PSoC5/ErikaOS_1_ee_oo_common.inc **** 
 839:Generated_Source\PSoC5/ErikaOS_1_ee_oo_common.inc **** /* If MemMap.h support is enabled (i.e. because memory protection): use it */
 840:Generated_Source\PSoC5/ErikaOS_1_ee_oo_common.inc **** #ifdef EE_SUPPORT_MEMMAP_H
 841:Generated_Source\PSoC5/ErikaOS_1_ee_oo_common.inc **** /* The following variables belong to ERIKA API section: ee_api_bss */
 842:Generated_Source\PSoC5/ErikaOS_1_ee_oo_common.inc **** #define API_START_SEC_VAR_NOINIT
 843:Generated_Source\PSoC5/ErikaOS_1_ee_oo_common.inc **** #include "MemMap.inc"
 844:Generated_Source\PSoC5/ErikaOS_1_ee_oo_common.inc **** #endif /* EE_SUPPORT_MEMMAP_H */
 845:Generated_Source\PSoC5/ErikaOS_1_ee_oo_common.inc **** 
 846:Generated_Source\PSoC5/ErikaOS_1_ee_oo_common.inc **** #ifdef __OO_ORTI_LASTERROR__
 847:Generated_Source\PSoC5/ErikaOS_1_ee_oo_common.inc **** 
 848:Generated_Source\PSoC5/ErikaOS_1_ee_oo_common.inc **** /* a lasterror value that can be used with ORTI */
 849:Generated_Source\PSoC5/ErikaOS_1_ee_oo_common.inc **** extern StatusType EE_ORTI_lasterror;
 850:Generated_Source\PSoC5/ErikaOS_1_ee_oo_common.inc **** /* Macro to set lasterror value that can be used with ORTI */
 851:Generated_Source\PSoC5/ErikaOS_1_ee_oo_common.inc **** __INLINE__ void  EE_ORTI_set_lasterror ( StatusType err ) {
 852:Generated_Source\PSoC5/ErikaOS_1_ee_oo_common.inc ****   EE_ORTI_lasterror = err;
 853:Generated_Source\PSoC5/ErikaOS_1_ee_oo_common.inc **** }
 854:Generated_Source\PSoC5/ErikaOS_1_ee_oo_common.inc **** #else /* __OO_ORTI_LASTERROR__ */
 855:Generated_Source\PSoC5/ErikaOS_1_ee_oo_common.inc **** 
 856:Generated_Source\PSoC5/ErikaOS_1_ee_oo_common.inc **** #define EE_ORTI_set_lasterror(ERR) ((void)0)
 857:Generated_Source\PSoC5/ErikaOS_1_ee_oo_common.inc **** #endif  /* __OO_ORTI_LASTERROR__ */
 858:Generated_Source\PSoC5/ErikaOS_1_ee_oo_common.inc **** 
 859:Generated_Source\PSoC5/ErikaOS_1_ee_oo_common.inc **** /* the last OO service called by the application.  SERVICETRACE IDs
 860:Generated_Source\PSoC5/ErikaOS_1_ee_oo_common.inc ****    are even numbers. The LSBit is used as a flag and it is set to 1
 861:Generated_Source\PSoC5/ErikaOS_1_ee_oo_common.inc ****    when the servce is entered, to 0 at exit.
 862:Generated_Source\PSoC5/ErikaOS_1_ee_oo_common.inc **** */
 863:Generated_Source\PSoC5/ErikaOS_1_ee_oo_common.inc **** 
 864:Generated_Source\PSoC5/ErikaOS_1_ee_oo_common.inc **** #define EE_SERVICETRACE_ACTIVATETASK              2U
 865:Generated_Source\PSoC5/ErikaOS_1_ee_oo_common.inc **** #define EE_SERVICETRACE_TERMINATETASK             4U
 866:Generated_Source\PSoC5/ErikaOS_1_ee_oo_common.inc **** #define EE_SERVICETRACE_CHAINTASK                 6U
 867:Generated_Source\PSoC5/ErikaOS_1_ee_oo_common.inc **** #define EE_SERVICETRACE_SCHEDULE                  8U
 868:Generated_Source\PSoC5/ErikaOS_1_ee_oo_common.inc **** #define EE_SERVICETRACE_GETTASKID                 10U
ARM GAS  C:\Users\schmi\AppData\Local\Temp\ccLEO1Pj.s 			page 26


 869:Generated_Source\PSoC5/ErikaOS_1_ee_oo_common.inc **** #define EE_SERVICETRACE_GETTASKSTATE              12U
 870:Generated_Source\PSoC5/ErikaOS_1_ee_oo_common.inc **** #define EE_SERVICETRACE_DISABLEALLINTERRUPTS      14U
 871:Generated_Source\PSoC5/ErikaOS_1_ee_oo_common.inc **** #define EE_SERVICETRACE_ENABLEALLINTERRUPTS       16U
 872:Generated_Source\PSoC5/ErikaOS_1_ee_oo_common.inc **** #define EE_SERVICETRACE_SUSPENDALLINTERRUPTS      18U
 873:Generated_Source\PSoC5/ErikaOS_1_ee_oo_common.inc **** #define EE_SERVICETRACE_RESUMEALLINTERRUPTS       20U
 874:Generated_Source\PSoC5/ErikaOS_1_ee_oo_common.inc **** #define EE_SERVICETRACE_SUSPENDOSINTERRUPTS       22U
 875:Generated_Source\PSoC5/ErikaOS_1_ee_oo_common.inc **** #define EE_SERVICETRACE_RESUMEOSINTERRUPTS        24U
 876:Generated_Source\PSoC5/ErikaOS_1_ee_oo_common.inc **** #define EE_SERVICETRACE_GETRESOURCE               26U
 877:Generated_Source\PSoC5/ErikaOS_1_ee_oo_common.inc **** #define EE_SERVICETRACE_RELEASERESOURCE           28U
 878:Generated_Source\PSoC5/ErikaOS_1_ee_oo_common.inc **** #define EE_SERVICETRACE_SETEVENT                  30U
 879:Generated_Source\PSoC5/ErikaOS_1_ee_oo_common.inc **** #define EE_SERVICETRACE_CLEAREVENT                32U
 880:Generated_Source\PSoC5/ErikaOS_1_ee_oo_common.inc **** #define EE_SERVICETRACE_GETEVENT                  34U
 881:Generated_Source\PSoC5/ErikaOS_1_ee_oo_common.inc **** #define EE_SERVICETRACE_WAITEVENT                 36U
 882:Generated_Source\PSoC5/ErikaOS_1_ee_oo_common.inc **** #define EE_SERVICETRACE_GETALARMBASE              38U
 883:Generated_Source\PSoC5/ErikaOS_1_ee_oo_common.inc **** #define EE_SERVICETRACE_GETALARM                  40U
 884:Generated_Source\PSoC5/ErikaOS_1_ee_oo_common.inc **** #define EE_SERVICETRACE_SETRELALARM               42U
 885:Generated_Source\PSoC5/ErikaOS_1_ee_oo_common.inc **** #define EE_SERVICETRACE_SETABSALARM               44U
 886:Generated_Source\PSoC5/ErikaOS_1_ee_oo_common.inc **** #define EE_SERVICETRACE_CANCELALARM               46U
 887:Generated_Source\PSoC5/ErikaOS_1_ee_oo_common.inc **** #define EE_SERVICETRACE_GETACTIVEAPPLICATIONMODE  48U
 888:Generated_Source\PSoC5/ErikaOS_1_ee_oo_common.inc **** #define EE_SERVICETRACE_STARTOS                   50U
 889:Generated_Source\PSoC5/ErikaOS_1_ee_oo_common.inc **** #define EE_SERVICETRACE_SHUTDOWNOS                52U
 890:Generated_Source\PSoC5/ErikaOS_1_ee_oo_common.inc **** #define EE_SERVICETRACE_FORCESCHEDULE             54U
 891:Generated_Source\PSoC5/ErikaOS_1_ee_oo_common.inc **** #define EE_SERVICETRACE_INCREMENTCOUNTER          56U
 892:Generated_Source\PSoC5/ErikaOS_1_ee_oo_common.inc **** #define EE_SERVICETRACE_GETCOUNTERVALUE           58U
 893:Generated_Source\PSoC5/ErikaOS_1_ee_oo_common.inc **** #define EE_SERVICETRACE_GETELAPSEDVALUE           60U
 894:Generated_Source\PSoC5/ErikaOS_1_ee_oo_common.inc **** 
 895:Generated_Source\PSoC5/ErikaOS_1_ee_oo_common.inc **** #ifdef __OO_SEM__
 896:Generated_Source\PSoC5/ErikaOS_1_ee_oo_common.inc **** #define EE_SERVICETRACE_INITSEM                   62U
 897:Generated_Source\PSoC5/ErikaOS_1_ee_oo_common.inc **** #define EE_SERVICETRACE_WAITSEM                   64U
 898:Generated_Source\PSoC5/ErikaOS_1_ee_oo_common.inc **** #define EE_SERVICETRACE_TRYWAITSEM                66U
 899:Generated_Source\PSoC5/ErikaOS_1_ee_oo_common.inc **** #define EE_SERVICETRACE_POSTSEM                   68U
 900:Generated_Source\PSoC5/ErikaOS_1_ee_oo_common.inc **** #define EE_SERVICETRACE_GETVALUESEM               70U
 901:Generated_Source\PSoC5/ErikaOS_1_ee_oo_common.inc **** #define EE_SERVICETRACE_OO_LAST                   72U
 902:Generated_Source\PSoC5/ErikaOS_1_ee_oo_common.inc **** #else /* __OO_SEM__ */
 903:Generated_Source\PSoC5/ErikaOS_1_ee_oo_common.inc **** #define EE_SERVICETRACE_OO_LAST                   62U
 904:Generated_Source\PSoC5/ErikaOS_1_ee_oo_common.inc **** #endif /* __OO_SEM__ */
 905:Generated_Source\PSoC5/ErikaOS_1_ee_oo_common.inc **** 
 906:Generated_Source\PSoC5/ErikaOS_1_ee_oo_common.inc **** #ifdef __OO_ORTI_SERVICETRACE__
 907:Generated_Source\PSoC5/ErikaOS_1_ee_oo_common.inc **** extern volatile EE_UINT8 EE_ORTI_servicetrace;
 908:Generated_Source\PSoC5/ErikaOS_1_ee_oo_common.inc **** 
 909:Generated_Source\PSoC5/ErikaOS_1_ee_oo_common.inc **** __INLINE__ void EE_ORTI_set_service(EE_UINT8 srv)
 910:Generated_Source\PSoC5/ErikaOS_1_ee_oo_common.inc **** {
 911:Generated_Source\PSoC5/ErikaOS_1_ee_oo_common.inc ****   EE_ORTI_servicetrace = srv;
 912:Generated_Source\PSoC5/ErikaOS_1_ee_oo_common.inc **** #ifdef __OO_ORTI_USE_OTM__
 913:Generated_Source\PSoC5/ErikaOS_1_ee_oo_common.inc ****   EE_ORTI_send_otm_servicetrace(srv);
 914:Generated_Source\PSoC5/ErikaOS_1_ee_oo_common.inc **** #endif /* __OO_ORTI_USE_OTM__ */
 915:Generated_Source\PSoC5/ErikaOS_1_ee_oo_common.inc **** }
 916:Generated_Source\PSoC5/ErikaOS_1_ee_oo_common.inc **** 
 917:Generated_Source\PSoC5/ErikaOS_1_ee_oo_common.inc **** #else /* __OO_ORTI_SERVICETRACE__ */
 918:Generated_Source\PSoC5/ErikaOS_1_ee_oo_common.inc **** 
 919:Generated_Source\PSoC5/ErikaOS_1_ee_oo_common.inc **** __INLINE__ void  EE_ORTI_set_service(EE_UINT8 srv) {}
 181              		.loc 3 919 0
 182              		.cfi_startproc
 183              		@ args = 0, pretend = 0, frame = 8
 184              		@ frame_needed = 1, uses_anonymous_args = 0
 185              		@ link register save eliminated.
 186 0000 80B4     		push	{r7}
ARM GAS  C:\Users\schmi\AppData\Local\Temp\ccLEO1Pj.s 			page 27


 187              		.cfi_def_cfa_offset 4
 188              		.cfi_offset 7, -4
 189 0002 83B0     		sub	sp, sp, #12
 190              		.cfi_def_cfa_offset 16
 191 0004 00AF     		add	r7, sp, #0
 192              		.cfi_def_cfa_register 7
 193 0006 0346     		mov	r3, r0
 194 0008 FB71     		strb	r3, [r7, #7]
 195              		.loc 3 919 0
 196 000a 00BF     		nop
 197 000c 0C37     		adds	r7, r7, #12
 198              		.cfi_def_cfa_offset 4
 199 000e BD46     		mov	sp, r7
 200              		.cfi_def_cfa_register 13
 201              		@ sp needed
 202 0010 80BC     		pop	{r7}
 203              		.cfi_restore 7
 204              		.cfi_def_cfa_offset 0
 205 0012 7047     		bx	lr
 206              		.cfi_endproc
 207              	.LFE36:
 208              		.size	EE_ORTI_set_service, .-EE_ORTI_set_service
 209              		.section	.text.EE_ORTI_set_service_in,"ax",%progbits
 210              		.align	2
 211              		.thumb
 212              		.thumb_func
 213              		.type	EE_ORTI_set_service_in, %function
 214              	EE_ORTI_set_service_in:
 215              	.LFB37:
 920:Generated_Source\PSoC5/ErikaOS_1_ee_oo_common.inc **** 
 921:Generated_Source\PSoC5/ErikaOS_1_ee_oo_common.inc **** #endif /* else __OO_ORTI_SERVICETRACE__ */
 922:Generated_Source\PSoC5/ErikaOS_1_ee_oo_common.inc **** 
 923:Generated_Source\PSoC5/ErikaOS_1_ee_oo_common.inc **** /* If MemMap.h support is enabled (i.e. because memory protection): use it */
 924:Generated_Source\PSoC5/ErikaOS_1_ee_oo_common.inc **** #ifdef EE_SUPPORT_MEMMAP_H
 925:Generated_Source\PSoC5/ErikaOS_1_ee_oo_common.inc **** /* The following variables belong to ERIKA API section: ee_api_bss */
 926:Generated_Source\PSoC5/ErikaOS_1_ee_oo_common.inc **** #define API_STOP_SEC_VAR_NOINIT
 927:Generated_Source\PSoC5/ErikaOS_1_ee_oo_common.inc **** #include "MemMap.inc"
 928:Generated_Source\PSoC5/ErikaOS_1_ee_oo_common.inc **** #endif /* EE_SUPPORT_MEMMAP_H */
 929:Generated_Source\PSoC5/ErikaOS_1_ee_oo_common.inc **** 
 930:Generated_Source\PSoC5/ErikaOS_1_ee_oo_common.inc **** /* Mapping for ORTI service In and Out */
 931:Generated_Source\PSoC5/ErikaOS_1_ee_oo_common.inc **** __INLINE__ void  EE_ORTI_set_service_in (EE_UINT8 id)
 932:Generated_Source\PSoC5/ErikaOS_1_ee_oo_common.inc **** {
 216              		.loc 3 932 0
 217              		.cfi_startproc
 218              		@ args = 0, pretend = 0, frame = 8
 219              		@ frame_needed = 1, uses_anonymous_args = 0
 220 0000 80B5     		push	{r7, lr}
 221              		.cfi_def_cfa_offset 8
 222              		.cfi_offset 7, -8
 223              		.cfi_offset 14, -4
 224 0002 82B0     		sub	sp, sp, #8
 225              		.cfi_def_cfa_offset 16
 226 0004 00AF     		add	r7, sp, #0
 227              		.cfi_def_cfa_register 7
 228 0006 0346     		mov	r3, r0
 229 0008 FB71     		strb	r3, [r7, #7]
 933:Generated_Source\PSoC5/ErikaOS_1_ee_oo_common.inc ****   EE_ORTI_set_service(id + 1U);
ARM GAS  C:\Users\schmi\AppData\Local\Temp\ccLEO1Pj.s 			page 28


 230              		.loc 3 933 0
 231 000a FB79     		ldrb	r3, [r7, #7]
 232 000c 0133     		adds	r3, r3, #1
 233 000e DBB2     		uxtb	r3, r3
 234 0010 1846     		mov	r0, r3
 235 0012 FFF7FEFF 		bl	EE_ORTI_set_service
 934:Generated_Source\PSoC5/ErikaOS_1_ee_oo_common.inc **** }
 236              		.loc 3 934 0
 237 0016 00BF     		nop
 238 0018 0837     		adds	r7, r7, #8
 239              		.cfi_def_cfa_offset 8
 240 001a BD46     		mov	sp, r7
 241              		.cfi_def_cfa_register 13
 242              		@ sp needed
 243 001c 80BD     		pop	{r7, pc}
 244              		.cfi_endproc
 245              	.LFE37:
 246              		.size	EE_ORTI_set_service_in, .-EE_ORTI_set_service_in
 247 001e 00BF     		.section	.text.EE_ORTI_set_service_out,"ax",%progbits
 248              		.align	2
 249              		.thumb
 250              		.thumb_func
 251              		.type	EE_ORTI_set_service_out, %function
 252              	EE_ORTI_set_service_out:
 253              	.LFB38:
 935:Generated_Source\PSoC5/ErikaOS_1_ee_oo_common.inc **** 
 936:Generated_Source\PSoC5/ErikaOS_1_ee_oo_common.inc **** __INLINE__ void  EE_ORTI_set_service_out (EE_UINT8 id)
 937:Generated_Source\PSoC5/ErikaOS_1_ee_oo_common.inc **** {
 254              		.loc 3 937 0
 255              		.cfi_startproc
 256              		@ args = 0, pretend = 0, frame = 8
 257              		@ frame_needed = 1, uses_anonymous_args = 0
 258 0000 80B5     		push	{r7, lr}
 259              		.cfi_def_cfa_offset 8
 260              		.cfi_offset 7, -8
 261              		.cfi_offset 14, -4
 262 0002 82B0     		sub	sp, sp, #8
 263              		.cfi_def_cfa_offset 16
 264 0004 00AF     		add	r7, sp, #0
 265              		.cfi_def_cfa_register 7
 266 0006 0346     		mov	r3, r0
 267 0008 FB71     		strb	r3, [r7, #7]
 938:Generated_Source\PSoC5/ErikaOS_1_ee_oo_common.inc ****   EE_ORTI_set_service(id);
 268              		.loc 3 938 0
 269 000a FB79     		ldrb	r3, [r7, #7]	@ zero_extendqisi2
 270 000c 1846     		mov	r0, r3
 271 000e FFF7FEFF 		bl	EE_ORTI_set_service
 939:Generated_Source\PSoC5/ErikaOS_1_ee_oo_common.inc **** }
 272              		.loc 3 939 0
 273 0012 00BF     		nop
 274 0014 0837     		adds	r7, r7, #8
 275              		.cfi_def_cfa_offset 8
 276 0016 BD46     		mov	sp, r7
 277              		.cfi_def_cfa_register 13
 278              		@ sp needed
 279 0018 80BD     		pop	{r7, pc}
 280              		.cfi_endproc
ARM GAS  C:\Users\schmi\AppData\Local\Temp\ccLEO1Pj.s 			page 29


 281              	.LFE38:
 282              		.size	EE_ORTI_set_service_out, .-EE_ORTI_set_service_out
 283 001a 00BF     		.section	.text.EE_as_monitoring_the_stack,"ax",%progbits
 284              		.align	2
 285              		.thumb
 286              		.thumb_func
 287              		.type	EE_as_monitoring_the_stack, %function
 288              	EE_as_monitoring_the_stack:
 289              	.LFB50:
 290              		.file 4 "Generated_Source\\PSoC5\\ErikaOS_1_ee_as_internal.inc"
   1:Generated_Source\PSoC5/ErikaOS_1_ee_as_internal.inc **** /* ###*B*###
   2:Generated_Source\PSoC5/ErikaOS_1_ee_as_internal.inc ****  * ERIKA Enterprise - a tiny RTOS for small microcontrollers
   3:Generated_Source\PSoC5/ErikaOS_1_ee_as_internal.inc ****  *
   4:Generated_Source\PSoC5/ErikaOS_1_ee_as_internal.inc ****  * Copyright (C) 2002-2012  Evidence Srl
   5:Generated_Source\PSoC5/ErikaOS_1_ee_as_internal.inc ****  *
   6:Generated_Source\PSoC5/ErikaOS_1_ee_as_internal.inc ****  * This file is part of ERIKA Enterprise.
   7:Generated_Source\PSoC5/ErikaOS_1_ee_as_internal.inc ****  *
   8:Generated_Source\PSoC5/ErikaOS_1_ee_as_internal.inc ****  * ERIKA Enterprise is free software; you can redistribute it
   9:Generated_Source\PSoC5/ErikaOS_1_ee_as_internal.inc ****  * and/or modify it under the terms of the GNU General Public License
  10:Generated_Source\PSoC5/ErikaOS_1_ee_as_internal.inc ****  * version 2 as published by the Free Software Foundation,
  11:Generated_Source\PSoC5/ErikaOS_1_ee_as_internal.inc ****  * (with a special exception described below).
  12:Generated_Source\PSoC5/ErikaOS_1_ee_as_internal.inc ****  *
  13:Generated_Source\PSoC5/ErikaOS_1_ee_as_internal.inc ****  * Linking this code statically or dynamically with other modules is
  14:Generated_Source\PSoC5/ErikaOS_1_ee_as_internal.inc ****  * making a combined work based on this code.  Thus, the terms and
  15:Generated_Source\PSoC5/ErikaOS_1_ee_as_internal.inc ****  * conditions of the GNU General Public License cover the whole
  16:Generated_Source\PSoC5/ErikaOS_1_ee_as_internal.inc ****  * combination.
  17:Generated_Source\PSoC5/ErikaOS_1_ee_as_internal.inc ****  *
  18:Generated_Source\PSoC5/ErikaOS_1_ee_as_internal.inc ****  * As a special exception, the copyright holders of this library give you
  19:Generated_Source\PSoC5/ErikaOS_1_ee_as_internal.inc ****  * permission to link this code with independent modules to produce an
  20:Generated_Source\PSoC5/ErikaOS_1_ee_as_internal.inc ****  * executable, regardless of the license terms of these independent
  21:Generated_Source\PSoC5/ErikaOS_1_ee_as_internal.inc ****  * modules, and to copy and distribute the resulting executable under
  22:Generated_Source\PSoC5/ErikaOS_1_ee_as_internal.inc ****  * terms of your choice, provided that you also meet, for each linked
  23:Generated_Source\PSoC5/ErikaOS_1_ee_as_internal.inc ****  * independent module, the terms and conditions of the license of that
  24:Generated_Source\PSoC5/ErikaOS_1_ee_as_internal.inc ****  * module.  An independent module is a module which is not derived from
  25:Generated_Source\PSoC5/ErikaOS_1_ee_as_internal.inc ****  * or based on this library.  If you modify this code, you may extend
  26:Generated_Source\PSoC5/ErikaOS_1_ee_as_internal.inc ****  * this exception to your version of the code, but you are not
  27:Generated_Source\PSoC5/ErikaOS_1_ee_as_internal.inc ****  * obligated to do so.  If you do not wish to do so, delete this
  28:Generated_Source\PSoC5/ErikaOS_1_ee_as_internal.inc ****  * exception statement from your version.
  29:Generated_Source\PSoC5/ErikaOS_1_ee_as_internal.inc ****  *
  30:Generated_Source\PSoC5/ErikaOS_1_ee_as_internal.inc ****  * ERIKA Enterprise is distributed in the hope that it will be
  31:Generated_Source\PSoC5/ErikaOS_1_ee_as_internal.inc ****  * useful, but WITHOUT ANY WARRANTY; without even the implied warranty
  32:Generated_Source\PSoC5/ErikaOS_1_ee_as_internal.inc ****  * of MERCHANTABILITY or FITNESS FOR A PARTICULAR PURPOSE.  See the
  33:Generated_Source\PSoC5/ErikaOS_1_ee_as_internal.inc ****  * GNU General Public License version 2 for more details.
  34:Generated_Source\PSoC5/ErikaOS_1_ee_as_internal.inc ****  *
  35:Generated_Source\PSoC5/ErikaOS_1_ee_as_internal.inc ****  * You should have received a copy of the GNU General Public License
  36:Generated_Source\PSoC5/ErikaOS_1_ee_as_internal.inc ****  * version 2 along with ERIKA Enterprise; if not, write to the
  37:Generated_Source\PSoC5/ErikaOS_1_ee_as_internal.inc ****  * Free Software Foundation, Inc., 51 Franklin Street, Fifth Floor,
  38:Generated_Source\PSoC5/ErikaOS_1_ee_as_internal.inc ****  * Boston, MA 02110-1301 USA.
  39:Generated_Source\PSoC5/ErikaOS_1_ee_as_internal.inc ****  * ###*E*### */
  40:Generated_Source\PSoC5/ErikaOS_1_ee_as_internal.inc **** 
  41:Generated_Source\PSoC5/ErikaOS_1_ee_as_internal.inc ****  /** @file      ee_as_internal.h
  42:Generated_Source\PSoC5/ErikaOS_1_ee_as_internal.inc ****   *  @brief     Internals for Autosar layer
  43:Generated_Source\PSoC5/ErikaOS_1_ee_as_internal.inc ****   *  @author    Errico Guidieri
  44:Generated_Source\PSoC5/ErikaOS_1_ee_as_internal.inc ****   *  @date      2012
  45:Generated_Source\PSoC5/ErikaOS_1_ee_as_internal.inc ****   */
  46:Generated_Source\PSoC5/ErikaOS_1_ee_as_internal.inc **** 
  47:Generated_Source\PSoC5/ErikaOS_1_ee_as_internal.inc **** /*
ARM GAS  C:\Users\schmi\AppData\Local\Temp\ccLEO1Pj.s 			page 30


  48:Generated_Source\PSoC5/ErikaOS_1_ee_as_internal.inc ****  * PSoC Port and API Generation
  49:Generated_Source\PSoC5/ErikaOS_1_ee_as_internal.inc ****  * Carlos Fernando Meier Martinez
  50:Generated_Source\PSoC5/ErikaOS_1_ee_as_internal.inc ****  * Hochschule Darmstadt, Germany. 2017.
  51:Generated_Source\PSoC5/ErikaOS_1_ee_as_internal.inc ****  */
  52:Generated_Source\PSoC5/ErikaOS_1_ee_as_internal.inc **** 
  53:Generated_Source\PSoC5/ErikaOS_1_ee_as_internal.inc **** #ifndef PKG_KERNEL_AS_INC_EE_AS_INTERNAL_H
  54:Generated_Source\PSoC5/ErikaOS_1_ee_as_internal.inc **** #define PKG_KERNEL_AS_INC_EE_AS_INTERNAL_H
  55:Generated_Source\PSoC5/ErikaOS_1_ee_as_internal.inc **** 
  56:Generated_Source\PSoC5/ErikaOS_1_ee_as_internal.inc **** #include "ErikaOS_1_ee_as_kernel.inc"
  57:Generated_Source\PSoC5/ErikaOS_1_ee_as_internal.inc **** 
  58:Generated_Source\PSoC5/ErikaOS_1_ee_as_internal.inc **** #ifdef EE_AS_USER_SPINLOCKS__
  59:Generated_Source\PSoC5/ErikaOS_1_ee_as_internal.inc **** /*******************************************************************************
  60:Generated_Source\PSoC5/ErikaOS_1_ee_as_internal.inc ****  *                        Spinlock Internal Clean-Up
  61:Generated_Source\PSoC5/ErikaOS_1_ee_as_internal.inc ****  ******************************************************************************/
  62:Generated_Source\PSoC5/ErikaOS_1_ee_as_internal.inc **** 
  63:Generated_Source\PSoC5/ErikaOS_1_ee_as_internal.inc **** __INLINE__ EE_TYPEBOOL 
  64:Generated_Source\PSoC5/ErikaOS_1_ee_as_internal.inc ****     EE_as_has_spinlocks_locked( EE_TID tid )
  65:Generated_Source\PSoC5/ErikaOS_1_ee_as_internal.inc **** {
  66:Generated_Source\PSoC5/ErikaOS_1_ee_as_internal.inc ****   SpinlockIdType const spinlock_id = EE_as_spinlocks_last[EE_CURRENTCPU];
  67:Generated_Source\PSoC5/ErikaOS_1_ee_as_internal.inc ****   return ( (spinlock_id != INVALID_SPINLOCK) &&
  68:Generated_Source\PSoC5/ErikaOS_1_ee_as_internal.inc ****       (EE_as_spinlocks_locker_task_or_isr2[spinlock_id] == tid) );
  69:Generated_Source\PSoC5/ErikaOS_1_ee_as_internal.inc **** }
  70:Generated_Source\PSoC5/ErikaOS_1_ee_as_internal.inc **** 
  71:Generated_Source\PSoC5/ErikaOS_1_ee_as_internal.inc **** /* Internal Clean-up function */
  72:Generated_Source\PSoC5/ErikaOS_1_ee_as_internal.inc **** SpinlockIdType EE_as_release_all_spinlocks( EE_TID tid );
  73:Generated_Source\PSoC5/ErikaOS_1_ee_as_internal.inc **** 
  74:Generated_Source\PSoC5/ErikaOS_1_ee_as_internal.inc **** #else  /* EE_AS_USER_SPINLOCKS__ */
  75:Generated_Source\PSoC5/ErikaOS_1_ee_as_internal.inc **** #define EE_as_release_all_spinlocks(tid) ((void)0U)
  76:Generated_Source\PSoC5/ErikaOS_1_ee_as_internal.inc **** #endif /* EE_AS_USER_SPINLOCKS__ */
  77:Generated_Source\PSoC5/ErikaOS_1_ee_as_internal.inc **** 
  78:Generated_Source\PSoC5/ErikaOS_1_ee_as_internal.inc **** /*******************************************************************************
  79:Generated_Source\PSoC5/ErikaOS_1_ee_as_internal.inc ****  *                        Schedule Tables Utilities
  80:Generated_Source\PSoC5/ErikaOS_1_ee_as_internal.inc ****  ******************************************************************************/
  81:Generated_Source\PSoC5/ErikaOS_1_ee_as_internal.inc **** #ifdef EE_AS_SCHEDULETABLES__
  82:Generated_Source\PSoC5/ErikaOS_1_ee_as_internal.inc **** /* Utilities inline functions to check ticks and deviation values */
  83:Generated_Source\PSoC5/ErikaOS_1_ee_as_internal.inc **** __INLINE__ TickType  EE_as_tick_min( TickType t1, TickType t2 )
  84:Generated_Source\PSoC5/ErikaOS_1_ee_as_internal.inc **** {
  85:Generated_Source\PSoC5/ErikaOS_1_ee_as_internal.inc ****   if ( t1 <= t2 ) {
  86:Generated_Source\PSoC5/ErikaOS_1_ee_as_internal.inc ****     return t1;
  87:Generated_Source\PSoC5/ErikaOS_1_ee_as_internal.inc ****   } else {
  88:Generated_Source\PSoC5/ErikaOS_1_ee_as_internal.inc ****     return t2;
  89:Generated_Source\PSoC5/ErikaOS_1_ee_as_internal.inc ****   }
  90:Generated_Source\PSoC5/ErikaOS_1_ee_as_internal.inc **** }
  91:Generated_Source\PSoC5/ErikaOS_1_ee_as_internal.inc **** 
  92:Generated_Source\PSoC5/ErikaOS_1_ee_as_internal.inc **** __INLINE__ EE_UREG  EE_as_abs( TickType t )
  93:Generated_Source\PSoC5/ErikaOS_1_ee_as_internal.inc **** {
  94:Generated_Source\PSoC5/ErikaOS_1_ee_as_internal.inc ****   if ( t < EE_TYPETICK_HALF_VALUE ) {
  95:Generated_Source\PSoC5/ErikaOS_1_ee_as_internal.inc ****     return t;
  96:Generated_Source\PSoC5/ErikaOS_1_ee_as_internal.inc ****   } else {
  97:Generated_Source\PSoC5/ErikaOS_1_ee_as_internal.inc ****     return -t;
  98:Generated_Source\PSoC5/ErikaOS_1_ee_as_internal.inc ****   }
  99:Generated_Source\PSoC5/ErikaOS_1_ee_as_internal.inc **** }
 100:Generated_Source\PSoC5/ErikaOS_1_ee_as_internal.inc **** 
 101:Generated_Source\PSoC5/ErikaOS_1_ee_as_internal.inc **** #endif /* EE_AS_SCHEDULETABLES__ */
 102:Generated_Source\PSoC5/ErikaOS_1_ee_as_internal.inc **** 
 103:Generated_Source\PSoC5/ErikaOS_1_ee_as_internal.inc **** #ifdef EE_AS_RPC__
 104:Generated_Source\PSoC5/ErikaOS_1_ee_as_internal.inc **** /*******************************************************************************
ARM GAS  C:\Users\schmi\AppData\Local\Temp\ccLEO1Pj.s 			page 31


 105:Generated_Source\PSoC5/ErikaOS_1_ee_as_internal.inc ****  *                   Synchronous Remote Procedure Calls
 106:Generated_Source\PSoC5/ErikaOS_1_ee_as_internal.inc ****  ******************************************************************************/
 107:Generated_Source\PSoC5/ErikaOS_1_ee_as_internal.inc **** /** @brief Macro used to check if an id is a remote id */
 108:Generated_Source\PSoC5/ErikaOS_1_ee_as_internal.inc **** #define EE_AS_ID_REMOTE(id)         ((((EE_UINT32)(id)) & \
 109:Generated_Source\PSoC5/ErikaOS_1_ee_as_internal.inc ****     (EE_UINT32)EE_REMOTE_TID) != 0U)
 110:Generated_Source\PSoC5/ErikaOS_1_ee_as_internal.inc **** /** @brief Macro used to unmark a remote id */
 111:Generated_Source\PSoC5/ErikaOS_1_ee_as_internal.inc **** #define EE_AS_UNMARK_REMOTE_ID(id)  (((EE_UINT32)(id)) & (~EE_REMOTE_TID))
 112:Generated_Source\PSoC5/ErikaOS_1_ee_as_internal.inc **** 
 113:Generated_Source\PSoC5/ErikaOS_1_ee_as_internal.inc **** /** @brief define that identify an invalid ServiceId */
 114:Generated_Source\PSoC5/ErikaOS_1_ee_as_internal.inc **** #define INVALID_SERVICE_ID      ((OSServiceIdType)-1)
 115:Generated_Source\PSoC5/ErikaOS_1_ee_as_internal.inc **** #define INVALID_ERROR           ((StatusType)-1)
 116:Generated_Source\PSoC5/ErikaOS_1_ee_as_internal.inc **** 
 117:Generated_Source\PSoC5/ErikaOS_1_ee_as_internal.inc **** /** @brief RPC Handler to be called inside IIRQ handler */
 118:Generated_Source\PSoC5/ErikaOS_1_ee_as_internal.inc **** extern void  EE_as_rpc_handler( void );
 119:Generated_Source\PSoC5/ErikaOS_1_ee_as_internal.inc **** 
 120:Generated_Source\PSoC5/ErikaOS_1_ee_as_internal.inc **** /* If MemMap.h support is enabled (i.e. because memory protection): use it */
 121:Generated_Source\PSoC5/ErikaOS_1_ee_as_internal.inc **** #ifdef EE_SUPPORT_MEMMAP_H
 122:Generated_Source\PSoC5/ErikaOS_1_ee_as_internal.inc **** /* The following code belong to ERIKA API section ee_api_text */
 123:Generated_Source\PSoC5/ErikaOS_1_ee_as_internal.inc **** #define API_START_SEC_CODE
 124:Generated_Source\PSoC5/ErikaOS_1_ee_as_internal.inc **** #include "MemMap.inc"
 125:Generated_Source\PSoC5/ErikaOS_1_ee_as_internal.inc **** #endif /* EE_SUPPORT_MEMMAP_H */
 126:Generated_Source\PSoC5/ErikaOS_1_ee_as_internal.inc **** 
 127:Generated_Source\PSoC5/ErikaOS_1_ee_as_internal.inc **** #ifdef __EE_MEMORY_PROTECTION__
 128:Generated_Source\PSoC5/ErikaOS_1_ee_as_internal.inc **** /** @brief The following implement a synchronous RPC kernel primitive from
 129:Generated_Source\PSoC5/ErikaOS_1_ee_as_internal.inc ****     "user space" (so it's a syscall). */
 130:Generated_Source\PSoC5/ErikaOS_1_ee_as_internal.inc **** extern StatusType EE_as_rpc_from_us( OSServiceIdType ServiceId,
 131:Generated_Source\PSoC5/ErikaOS_1_ee_as_internal.inc ****   EE_os_param param1, EE_os_param param2, EE_os_param param3 );
 132:Generated_Source\PSoC5/ErikaOS_1_ee_as_internal.inc **** #else /* __EE_MEMORY_PROTECTION__ */
 133:Generated_Source\PSoC5/ErikaOS_1_ee_as_internal.inc **** __INLINE__ StatusType  EE_as_rpc_from_us( OSServiceIdType
 134:Generated_Source\PSoC5/ErikaOS_1_ee_as_internal.inc ****   ServiceId, EE_os_param param1, EE_os_param param2, EE_os_param param3 )
 135:Generated_Source\PSoC5/ErikaOS_1_ee_as_internal.inc **** {
 136:Generated_Source\PSoC5/ErikaOS_1_ee_as_internal.inc ****   StatusType ev;
 137:Generated_Source\PSoC5/ErikaOS_1_ee_as_internal.inc ****   register EE_FREG const flag = EE_hal_begin_nested_primitive();
 138:Generated_Source\PSoC5/ErikaOS_1_ee_as_internal.inc ****   ev = EE_as_rpc(ServiceId, param1, param2, param3);
 139:Generated_Source\PSoC5/ErikaOS_1_ee_as_internal.inc ****   EE_hal_end_nested_primitive(flag);
 140:Generated_Source\PSoC5/ErikaOS_1_ee_as_internal.inc ****   return ev;
 141:Generated_Source\PSoC5/ErikaOS_1_ee_as_internal.inc **** }
 142:Generated_Source\PSoC5/ErikaOS_1_ee_as_internal.inc **** #endif /* __EE_MEMORY_PROTECTION__ */
 143:Generated_Source\PSoC5/ErikaOS_1_ee_as_internal.inc **** #ifdef EE_SUPPORT_MEMMAP_H
 144:Generated_Source\PSoC5/ErikaOS_1_ee_as_internal.inc **** #define API_STOP_SEC_CODE
 145:Generated_Source\PSoC5/ErikaOS_1_ee_as_internal.inc **** #include "MemMap.inc"
 146:Generated_Source\PSoC5/ErikaOS_1_ee_as_internal.inc **** #endif /* EE_SUPPORT_MEMMAP_H */
 147:Generated_Source\PSoC5/ErikaOS_1_ee_as_internal.inc **** 
 148:Generated_Source\PSoC5/ErikaOS_1_ee_as_internal.inc **** #endif /* EE_AS_RPC__ */
 149:Generated_Source\PSoC5/ErikaOS_1_ee_as_internal.inc **** 
 150:Generated_Source\PSoC5/ErikaOS_1_ee_as_internal.inc **** #ifdef EE_AS_OSAPPLICATIONS__
 151:Generated_Source\PSoC5/ErikaOS_1_ee_as_internal.inc **** /*******************************************************************************
 152:Generated_Source\PSoC5/ErikaOS_1_ee_as_internal.inc ****  *                        OSApplication Utilities
 153:Generated_Source\PSoC5/ErikaOS_1_ee_as_internal.inc ****  ******************************************************************************/
 154:Generated_Source\PSoC5/ErikaOS_1_ee_as_internal.inc **** 
 155:Generated_Source\PSoC5/ErikaOS_1_ee_as_internal.inc **** /** @brief Used to terminate current OS-Application. */
 156:Generated_Source\PSoC5/ErikaOS_1_ee_as_internal.inc **** void EE_as_terminate_current_app_task( void );
 157:Generated_Source\PSoC5/ErikaOS_1_ee_as_internal.inc **** 
 158:Generated_Source\PSoC5/ErikaOS_1_ee_as_internal.inc **** /** @brief Used to terminate current OS-Application. */
 159:Generated_Source\PSoC5/ErikaOS_1_ee_as_internal.inc **** #if defined(EE_MAX_ISR2) && (EE_MAX_ISR2 > 0)
 160:Generated_Source\PSoC5/ErikaOS_1_ee_as_internal.inc **** __INLINE__ void  EE_as_terminate_current_app( void )
 161:Generated_Source\PSoC5/ErikaOS_1_ee_as_internal.inc **** {
ARM GAS  C:\Users\schmi\AppData\Local\Temp\ccLEO1Pj.s 			page 32


 162:Generated_Source\PSoC5/ErikaOS_1_ee_as_internal.inc ****   if ( EE_hal_get_IRQ_nesting_level() == 0U ) {
 163:Generated_Source\PSoC5/ErikaOS_1_ee_as_internal.inc ****     /* We are in a TASK */
 164:Generated_Source\PSoC5/ErikaOS_1_ee_as_internal.inc ****     EE_as_terminate_current_app_task();
 165:Generated_Source\PSoC5/ErikaOS_1_ee_as_internal.inc ****   } else {
 166:Generated_Source\PSoC5/ErikaOS_1_ee_as_internal.inc ****     /* We are in the an ISR2 */
 167:Generated_Source\PSoC5/ErikaOS_1_ee_as_internal.inc ****     (void)EE_as_TerminateISR2();
 168:Generated_Source\PSoC5/ErikaOS_1_ee_as_internal.inc ****   }
 169:Generated_Source\PSoC5/ErikaOS_1_ee_as_internal.inc **** }
 170:Generated_Source\PSoC5/ErikaOS_1_ee_as_internal.inc **** #else  /* EE_MAX_ISR2 > 0 */
 171:Generated_Source\PSoC5/ErikaOS_1_ee_as_internal.inc **** __INLINE__ void  EE_as_terminate_current_app( void )
 172:Generated_Source\PSoC5/ErikaOS_1_ee_as_internal.inc **** {
 173:Generated_Source\PSoC5/ErikaOS_1_ee_as_internal.inc ****   /* There are no ISR2: We are in a TASK */
 174:Generated_Source\PSoC5/ErikaOS_1_ee_as_internal.inc ****   EE_as_terminate_current_app_task();
 175:Generated_Source\PSoC5/ErikaOS_1_ee_as_internal.inc **** }
 176:Generated_Source\PSoC5/ErikaOS_1_ee_as_internal.inc **** #endif /* EE_MAX_ISR2 > 0 */
 177:Generated_Source\PSoC5/ErikaOS_1_ee_as_internal.inc **** 
 178:Generated_Source\PSoC5/ErikaOS_1_ee_as_internal.inc **** /**
 179:Generated_Source\PSoC5/ErikaOS_1_ee_as_internal.inc ****  * @brief Supposed to be called by EE_as_TerminateISR2 to restore trackin
 180:Generated_Source\PSoC5/ErikaOS_1_ee_as_internal.inc ****  *  OSApplication global variable and eventually terminate stacked.
 181:Generated_Source\PSoC5/ErikaOS_1_ee_as_internal.inc ****  */
 182:Generated_Source\PSoC5/ErikaOS_1_ee_as_internal.inc **** void EE_as_after_IRQ_interrupted_app ( ApplicationType interrupted_app );
 183:Generated_Source\PSoC5/ErikaOS_1_ee_as_internal.inc **** 
 184:Generated_Source\PSoC5/ErikaOS_1_ee_as_internal.inc **** /* @brief Function determines the currently running OS-Application.
 185:Generated_Source\PSoC5/ErikaOS_1_ee_as_internal.inc ****  *         (a unique identifier has to be allocated to each application).
 186:Generated_Source\PSoC5/ErikaOS_1_ee_as_internal.inc ****  */
 187:Generated_Source\PSoC5/ErikaOS_1_ee_as_internal.inc **** #if 0
 188:Generated_Source\PSoC5/ErikaOS_1_ee_as_internal.inc **** ApplicationType EE_as_GetApplicationID_internal( void );
 189:Generated_Source\PSoC5/ErikaOS_1_ee_as_internal.inc **** #endif
 190:Generated_Source\PSoC5/ErikaOS_1_ee_as_internal.inc **** 
 191:Generated_Source\PSoC5/ErikaOS_1_ee_as_internal.inc **** /** @brief his service determines if the OS-Applications, given by ApplID, is
 192:Generated_Source\PSoC5/ErikaOS_1_ee_as_internal.inc ****  *    allowed to use the IDs of a Task, ISR, Resource, Counter, Alarm or
 193:Generated_Source\PSoC5/ErikaOS_1_ee_as_internal.inc ****  *    Schedule Table in API calls. */
 194:Generated_Source\PSoC5/ErikaOS_1_ee_as_internal.inc **** ObjectAccessType EE_as_CheckObjectAccess_internal( ApplicationType ApplID,
 195:Generated_Source\PSoC5/ErikaOS_1_ee_as_internal.inc ****   ObjectTypeType ObjectType, EE_UTID ObjectID );
 196:Generated_Source\PSoC5/ErikaOS_1_ee_as_internal.inc **** 
 197:Generated_Source\PSoC5/ErikaOS_1_ee_as_internal.inc **** /** @brief his service determines the OS-Applications to which the
 198:Generated_Source\PSoC5/ErikaOS_1_ee_as_internal.inc ****   ID of a Task, ISR, Resource, Counter, Alarm or Schedule Table belong to. */
 199:Generated_Source\PSoC5/ErikaOS_1_ee_as_internal.inc **** ApplicationType EE_as_CheckObjectOwnership_internal( ObjectTypeType ObjectType,
 200:Generated_Source\PSoC5/ErikaOS_1_ee_as_internal.inc ****   EE_os_param_id ObjectID );
 201:Generated_Source\PSoC5/ErikaOS_1_ee_as_internal.inc **** 
 202:Generated_Source\PSoC5/ErikaOS_1_ee_as_internal.inc **** /** @brief Internal part of TerminateApplication service */
 203:Generated_Source\PSoC5/ErikaOS_1_ee_as_internal.inc **** void EE_as_TerminateApplication_internal( ApplicationType Application,
 204:Generated_Source\PSoC5/ErikaOS_1_ee_as_internal.inc ****   RestartType RestartOption ); 
 205:Generated_Source\PSoC5/ErikaOS_1_ee_as_internal.inc **** 
 206:Generated_Source\PSoC5/ErikaOS_1_ee_as_internal.inc **** /* THESE HAL FUNCTIONS DECLARATION ARE PUT HERE BECAUSE SIGNATURE DEPENDS ON
 207:Generated_Source\PSoC5/ErikaOS_1_ee_as_internal.inc ****    AS KERNEL TYPES */
 208:Generated_Source\PSoC5/ErikaOS_1_ee_as_internal.inc **** 
 209:Generated_Source\PSoC5/ErikaOS_1_ee_as_internal.inc **** /** @brief Call application hook with right privileges */
 210:Generated_Source\PSoC5/ErikaOS_1_ee_as_internal.inc **** void EE_hal_call_app_hook( EE_HOOKTYPE hook, ApplicationType app );
 211:Generated_Source\PSoC5/ErikaOS_1_ee_as_internal.inc **** 
 212:Generated_Source\PSoC5/ErikaOS_1_ee_as_internal.inc **** /** @brief Call status application hook with right privileges */
 213:Generated_Source\PSoC5/ErikaOS_1_ee_as_internal.inc **** void EE_hal_call_app_status_hook( StatusType Error, EE_STATUSHOOKTYPE
 214:Generated_Source\PSoC5/ErikaOS_1_ee_as_internal.inc ****   status_hook, ApplicationType app );
 215:Generated_Source\PSoC5/ErikaOS_1_ee_as_internal.inc **** 
 216:Generated_Source\PSoC5/ErikaOS_1_ee_as_internal.inc **** /** @brief Utility macro used to transform a Application ID in a bit mask */
 217:Generated_Source\PSoC5/ErikaOS_1_ee_as_internal.inc **** #define EE_APP_TO_MASK(app_id)  ((EE_TYPEACCESSMASK)1U << (app_id))
 218:Generated_Source\PSoC5/ErikaOS_1_ee_as_internal.inc **** 
ARM GAS  C:\Users\schmi\AppData\Local\Temp\ccLEO1Pj.s 			page 33


 219:Generated_Source\PSoC5/ErikaOS_1_ee_as_internal.inc **** #ifdef EE_SERVICE_PROTECTION__
 220:Generated_Source\PSoC5/ErikaOS_1_ee_as_internal.inc **** /*******************************************************************************
 221:Generated_Source\PSoC5/ErikaOS_1_ee_as_internal.inc ****  *            OSApplication Service Protection Access Data Structures
 222:Generated_Source\PSoC5/ErikaOS_1_ee_as_internal.inc ****  ******************************************************************************/
 223:Generated_Source\PSoC5/ErikaOS_1_ee_as_internal.inc **** /* [OS056] If an OS-object identifier is the parameter of an Operating System
 224:Generated_Source\PSoC5/ErikaOS_1_ee_as_internal.inc ****     module's system service, and no sufficient access rights have been assigned
 225:Generated_Source\PSoC5/ErikaOS_1_ee_as_internal.inc ****     to this OS-object at configuration time
 226:Generated_Source\PSoC5/ErikaOS_1_ee_as_internal.inc ****     (Parameter Os[...]AccessingApplication) to the calling Task/Category 2 ISR,
 227:Generated_Source\PSoC5/ErikaOS_1_ee_as_internal.inc ****     the Operating System module's system service shall return E_OS_ACCESS.
 228:Generated_Source\PSoC5/ErikaOS_1_ee_as_internal.inc ****     (BSW11001, BSW11010, BSW11013) */
 229:Generated_Source\PSoC5/ErikaOS_1_ee_as_internal.inc **** /* [OS448]: The Operating System module shall prevent access of OS-Applications,
 230:Generated_Source\PSoC5/ErikaOS_1_ee_as_internal.inc ****     trusted or non-trusted, to objects not belonging to this OS-Application,
 231:Generated_Source\PSoC5/ErikaOS_1_ee_as_internal.inc ****     except access rights for such objects are explicitly granted by
 232:Generated_Source\PSoC5/ErikaOS_1_ee_as_internal.inc ****     configuration.
 233:Generated_Source\PSoC5/ErikaOS_1_ee_as_internal.inc **** */
 234:Generated_Source\PSoC5/ErikaOS_1_ee_as_internal.inc **** /* [OS504] The Operating System module shall deny access to Operating System
 235:Generated_Source\PSoC5/ErikaOS_1_ee_as_internal.inc ****     objects from other OS-Applications to an OS-Application which is not in
 236:Generated_Source\PSoC5/ErikaOS_1_ee_as_internal.inc ****     state APPLICATION_ACCESSIBLE. */
 237:Generated_Source\PSoC5/ErikaOS_1_ee_as_internal.inc **** /* [OS509] If a service call is made on an Operating System object that is owned
 238:Generated_Source\PSoC5/ErikaOS_1_ee_as_internal.inc ****     by another OS-Application without state APPLICATION_ACCESSIBLE,
 239:Generated_Source\PSoC5/ErikaOS_1_ee_as_internal.inc ****     then the Operating System module shall return E_OS_ACCESS. */
 240:Generated_Source\PSoC5/ErikaOS_1_ee_as_internal.inc **** 
 241:Generated_Source\PSoC5/ErikaOS_1_ee_as_internal.inc **** /** @var Contains access rules for TASKs */
 242:Generated_Source\PSoC5/ErikaOS_1_ee_as_internal.inc **** extern EE_TYPEACCESSMASK const EE_as_task_access_rules[/*EE_MAX_TASK*/];
 243:Generated_Source\PSoC5/ErikaOS_1_ee_as_internal.inc **** 
 244:Generated_Source\PSoC5/ErikaOS_1_ee_as_internal.inc **** /** @var Contains access rules for ISRs */
 245:Generated_Source\PSoC5/ErikaOS_1_ee_as_internal.inc **** extern EE_TYPEACCESSMASK const EE_as_isr_access_rules[/*EE_MAX_ISR_ID*/];
 246:Generated_Source\PSoC5/ErikaOS_1_ee_as_internal.inc **** 
 247:Generated_Source\PSoC5/ErikaOS_1_ee_as_internal.inc **** #ifndef __OO_NO_RESOURCES__
 248:Generated_Source\PSoC5/ErikaOS_1_ee_as_internal.inc **** /** @var Contains access rules for RESOURCESs */
 249:Generated_Source\PSoC5/ErikaOS_1_ee_as_internal.inc **** extern EE_TYPEACCESSMASK const EE_as_resource_access_rules[/*EE_MAX_RESOURCE*/];
 250:Generated_Source\PSoC5/ErikaOS_1_ee_as_internal.inc **** #endif /* !__OO_NO_RESOURCES__ */
 251:Generated_Source\PSoC5/ErikaOS_1_ee_as_internal.inc **** 
 252:Generated_Source\PSoC5/ErikaOS_1_ee_as_internal.inc **** #if (!defined(__OO_NO_ALARMS__)) || defined(EE_AS_SCHEDULETABLES__)
 253:Generated_Source\PSoC5/ErikaOS_1_ee_as_internal.inc **** /** @var Contains access rules for COUNTERs */
 254:Generated_Source\PSoC5/ErikaOS_1_ee_as_internal.inc **** extern EE_TYPEACCESSMASK const EE_as_counter_access_rules[/*EE_MAX_COUNTER*/];
 255:Generated_Source\PSoC5/ErikaOS_1_ee_as_internal.inc **** #endif /* !__OO_NO_ALARMS__ || !EE_AS_SCHEDULETABLES__ */
 256:Generated_Source\PSoC5/ErikaOS_1_ee_as_internal.inc **** 
 257:Generated_Source\PSoC5/ErikaOS_1_ee_as_internal.inc **** #ifndef __OO_NO_ALARMS__
 258:Generated_Source\PSoC5/ErikaOS_1_ee_as_internal.inc **** /** @var Contains access rules for ALARMs */
 259:Generated_Source\PSoC5/ErikaOS_1_ee_as_internal.inc **** extern EE_TYPEACCESSMASK const EE_as_alarm_access_rules[/*EE_MAX_ALARM*/];
 260:Generated_Source\PSoC5/ErikaOS_1_ee_as_internal.inc **** #endif /* !__OO_NO_ALARMS__ */
 261:Generated_Source\PSoC5/ErikaOS_1_ee_as_internal.inc **** 
 262:Generated_Source\PSoC5/ErikaOS_1_ee_as_internal.inc **** #ifdef EE_AS_SCHEDULETABLES__
 263:Generated_Source\PSoC5/ErikaOS_1_ee_as_internal.inc **** /** @var Contains access rules for SCHEDULE TABLEs */
 264:Generated_Source\PSoC5/ErikaOS_1_ee_as_internal.inc **** extern EE_TYPEACCESSMASK const 
 265:Generated_Source\PSoC5/ErikaOS_1_ee_as_internal.inc ****   EE_as_scheduletable_access_rules[/*EE_MAX_SCHEDULETABLE*/];
 266:Generated_Source\PSoC5/ErikaOS_1_ee_as_internal.inc **** #endif /* EE_AS_SCHEDULETABLES__ */
 267:Generated_Source\PSoC5/ErikaOS_1_ee_as_internal.inc **** 
 268:Generated_Source\PSoC5/ErikaOS_1_ee_as_internal.inc **** #ifdef EE_AS_USER_SPINLOCKS__
 269:Generated_Source\PSoC5/ErikaOS_1_ee_as_internal.inc **** /** @var Contains access rules for SCHEDULE TABLEs */
 270:Generated_Source\PSoC5/ErikaOS_1_ee_as_internal.inc **** extern EE_TYPEACCESSMASK const 
 271:Generated_Source\PSoC5/ErikaOS_1_ee_as_internal.inc ****   EE_as_spinlock_access_rules[/*EE_MAX_SPINLOCK_USER*/];
 272:Generated_Source\PSoC5/ErikaOS_1_ee_as_internal.inc **** #endif /* EE_AS_USER_SPINLOCKS__ */
 273:Generated_Source\PSoC5/ErikaOS_1_ee_as_internal.inc **** 
 274:Generated_Source\PSoC5/ErikaOS_1_ee_as_internal.inc **** 
 275:Generated_Source\PSoC5/ErikaOS_1_ee_as_internal.inc **** /* OSApplication Objects belog to active Macros */
ARM GAS  C:\Users\schmi\AppData\Local\Temp\ccLEO1Pj.s 			page 34


 276:Generated_Source\PSoC5/ErikaOS_1_ee_as_internal.inc **** #define EE_OSAPP_TASK_ACCESS(TaskID) (EE_as_Application_RAM[\
 277:Generated_Source\PSoC5/ErikaOS_1_ee_as_internal.inc ****   EE_th_app[(TaskID + 1U)]].ApplState == APPLICATION_ACCESSIBLE)
 278:Generated_Source\PSoC5/ErikaOS_1_ee_as_internal.inc **** 
 279:Generated_Source\PSoC5/ErikaOS_1_ee_as_internal.inc **** #define EE_OSAPP_ISR_ACCESS(ISRID) (EE_as_Application_RAM[\
 280:Generated_Source\PSoC5/ErikaOS_1_ee_as_internal.inc ****   EE_as_ISR_ROM[ISRID].ApplID].ApplState == APPLICATION_ACCESSIBLE)
 281:Generated_Source\PSoC5/ErikaOS_1_ee_as_internal.inc **** 
 282:Generated_Source\PSoC5/ErikaOS_1_ee_as_internal.inc **** #define EE_OSAPP_COUNTER_ACCESS(CounterID) (EE_as_Application_RAM[\
 283:Generated_Source\PSoC5/ErikaOS_1_ee_as_internal.inc ****   EE_counter_ROM[CounterID].ApplID].ApplState == APPLICATION_ACCESSIBLE)
 284:Generated_Source\PSoC5/ErikaOS_1_ee_as_internal.inc **** 
 285:Generated_Source\PSoC5/ErikaOS_1_ee_as_internal.inc **** #define EE_OSAPP_ALARM_ACCESS(AlarmID) (EE_as_Application_RAM[\
 286:Generated_Source\PSoC5/ErikaOS_1_ee_as_internal.inc ****   EE_alarm_ROM[AlarmID].ApplID].ApplState == APPLICATION_ACCESSIBLE)
 287:Generated_Source\PSoC5/ErikaOS_1_ee_as_internal.inc **** 
 288:Generated_Source\PSoC5/ErikaOS_1_ee_as_internal.inc **** #define EE_OSAPP_SCHED_TABLE_ACCESS(SchedTableID) (EE_as_Application_RAM[\
 289:Generated_Source\PSoC5/ErikaOS_1_ee_as_internal.inc ****   EE_as_Schedule_Table_ROM[SchedTableID].ApplID].ApplState == \
 290:Generated_Source\PSoC5/ErikaOS_1_ee_as_internal.inc ****   APPLICATION_ACCESSIBLE)
 291:Generated_Source\PSoC5/ErikaOS_1_ee_as_internal.inc **** 
 292:Generated_Source\PSoC5/ErikaOS_1_ee_as_internal.inc **** /* Access Macros */
 293:Generated_Source\PSoC5/ErikaOS_1_ee_as_internal.inc **** #define EE_TASK_ACCESS(TaskID, ApplID) (((EE_as_task_access_rules[TaskID] & \
 294:Generated_Source\PSoC5/ErikaOS_1_ee_as_internal.inc ****   EE_APP_TO_MASK(ApplID)) && EE_OSAPP_TASK_ACCESS(TaskID)))
 295:Generated_Source\PSoC5/ErikaOS_1_ee_as_internal.inc **** 
 296:Generated_Source\PSoC5/ErikaOS_1_ee_as_internal.inc **** #define EE_ISR_ACCESS(ISRID, ApplID) (((EE_as_isr_access_rules[ISRID] & \
 297:Generated_Source\PSoC5/ErikaOS_1_ee_as_internal.inc ****   EE_APP_TO_MASK(ApplID)) && EE_OSAPP_ISR_ACCESS(ISRID)))
 298:Generated_Source\PSoC5/ErikaOS_1_ee_as_internal.inc **** 
 299:Generated_Source\PSoC5/ErikaOS_1_ee_as_internal.inc **** #define EE_COUNTER_ACCESS(CounterID, ApplID) \
 300:Generated_Source\PSoC5/ErikaOS_1_ee_as_internal.inc ****   (((EE_as_counter_access_rules[CounterID] & EE_APP_TO_MASK(ApplID)) && \
 301:Generated_Source\PSoC5/ErikaOS_1_ee_as_internal.inc ****     EE_OSAPP_COUNTER_ACCESS(CounterID)))
 302:Generated_Source\PSoC5/ErikaOS_1_ee_as_internal.inc **** 
 303:Generated_Source\PSoC5/ErikaOS_1_ee_as_internal.inc **** #define EE_ALARM_ACCESS(AlarmID, ApplID) (((EE_as_alarm_access_rules[\
 304:Generated_Source\PSoC5/ErikaOS_1_ee_as_internal.inc ****   AlarmID] & EE_APP_TO_MASK(ApplID)) && EE_OSAPP_ALARM_ACCESS(AlarmID)))
 305:Generated_Source\PSoC5/ErikaOS_1_ee_as_internal.inc **** 
 306:Generated_Source\PSoC5/ErikaOS_1_ee_as_internal.inc **** #define EE_SCHED_TABLE_ACCESS(SchedTableID, ApplID) \
 307:Generated_Source\PSoC5/ErikaOS_1_ee_as_internal.inc ****   (((EE_as_scheduletable_access_rules[SchedTableID] & EE_APP_TO_MASK(ApplID)) \
 308:Generated_Source\PSoC5/ErikaOS_1_ee_as_internal.inc ****    && EE_OSAPP_SCHED_TABLE_ACCESS(SchedTableID)))
 309:Generated_Source\PSoC5/ErikaOS_1_ee_as_internal.inc **** 
 310:Generated_Source\PSoC5/ErikaOS_1_ee_as_internal.inc **** #define EE_RESOURCE_ACCESS(ResourceID, ApplID) \
 311:Generated_Source\PSoC5/ErikaOS_1_ee_as_internal.inc ****   ((EE_as_resource_access_rules[ResourceID] & EE_APP_TO_MASK(ApplID)))
 312:Generated_Source\PSoC5/ErikaOS_1_ee_as_internal.inc **** 
 313:Generated_Source\PSoC5/ErikaOS_1_ee_as_internal.inc **** #define EE_SPINLOCK_ACCESS(SpinlockID, ApplID) \
 314:Generated_Source\PSoC5/ErikaOS_1_ee_as_internal.inc ****   ((EE_as_spinlock_access_rules[SpinlockID] & EE_APP_TO_MASK(ApplID)))
 315:Generated_Source\PSoC5/ErikaOS_1_ee_as_internal.inc **** 
 316:Generated_Source\PSoC5/ErikaOS_1_ee_as_internal.inc **** /* Error Macros */
 317:Generated_Source\PSoC5/ErikaOS_1_ee_as_internal.inc **** #define EE_TASK_ACCESS_ERR(TaskID, ApplID) (!EE_TASK_ACCESS(TaskID, ApplID))
 318:Generated_Source\PSoC5/ErikaOS_1_ee_as_internal.inc **** 
 319:Generated_Source\PSoC5/ErikaOS_1_ee_as_internal.inc **** #define EE_ISR_ACCESS_ERR(ISRID, ApplID) (!EE_ISR_ACCESS(ISRID, ApplID))
 320:Generated_Source\PSoC5/ErikaOS_1_ee_as_internal.inc **** 
 321:Generated_Source\PSoC5/ErikaOS_1_ee_as_internal.inc **** #define EE_COUNTER_ACCESS_ERR(CounterID, ApplID) (!EE_COUNTER_ACCESS(CounterID,\
 322:Generated_Source\PSoC5/ErikaOS_1_ee_as_internal.inc ****   ApplID))
 323:Generated_Source\PSoC5/ErikaOS_1_ee_as_internal.inc **** 
 324:Generated_Source\PSoC5/ErikaOS_1_ee_as_internal.inc **** #define EE_ALARM_ACCESS_ERR(AlarmID, ApplID) (!EE_ALARM_ACCESS(AlarmID, \
 325:Generated_Source\PSoC5/ErikaOS_1_ee_as_internal.inc ****   ApplID))
 326:Generated_Source\PSoC5/ErikaOS_1_ee_as_internal.inc **** 
 327:Generated_Source\PSoC5/ErikaOS_1_ee_as_internal.inc **** #define EE_SCHED_TABLE_ACCESS_ERR(SchedTableID, ApplID) \
 328:Generated_Source\PSoC5/ErikaOS_1_ee_as_internal.inc ****   (!EE_SCHED_TABLE_ACCESS(SchedTableID, ApplID))
 329:Generated_Source\PSoC5/ErikaOS_1_ee_as_internal.inc **** 
 330:Generated_Source\PSoC5/ErikaOS_1_ee_as_internal.inc **** #define EE_RESOURCE_ACCESS_ERR(ResourceID, ApplID) \
 331:Generated_Source\PSoC5/ErikaOS_1_ee_as_internal.inc ****   (!EE_RESOURCE_ACCESS(ResourceID, ApplID))
 332:Generated_Source\PSoC5/ErikaOS_1_ee_as_internal.inc **** 
ARM GAS  C:\Users\schmi\AppData\Local\Temp\ccLEO1Pj.s 			page 35


 333:Generated_Source\PSoC5/ErikaOS_1_ee_as_internal.inc **** #define EE_SPINLOCK_ACCESS_ERR(SpinlockID, ApplID) \
 334:Generated_Source\PSoC5/ErikaOS_1_ee_as_internal.inc ****   (!EE_SPINLOCK_ACCESS(SpinlockID, ApplID))
 335:Generated_Source\PSoC5/ErikaOS_1_ee_as_internal.inc **** 
 336:Generated_Source\PSoC5/ErikaOS_1_ee_as_internal.inc **** #endif /* EE_SERVICE_PROTECTION__ */
 337:Generated_Source\PSoC5/ErikaOS_1_ee_as_internal.inc **** #endif /* EE_AS_OSAPPLICATIONS__ */
 338:Generated_Source\PSoC5/ErikaOS_1_ee_as_internal.inc **** 
 339:Generated_Source\PSoC5/ErikaOS_1_ee_as_internal.inc **** #ifdef EE_AS_HAS_PROTECTIONHOOK__
 340:Generated_Source\PSoC5/ErikaOS_1_ee_as_internal.inc **** /*******************************************************************************
 341:Generated_Source\PSoC5/ErikaOS_1_ee_as_internal.inc ****  *                     ProtectionHook Internal Support
 342:Generated_Source\PSoC5/ErikaOS_1_ee_as_internal.inc ****  ******************************************************************************/
 343:Generated_Source\PSoC5/ErikaOS_1_ee_as_internal.inc **** #ifdef EE_AS_OSAPPLICATIONS__
 344:Generated_Source\PSoC5/ErikaOS_1_ee_as_internal.inc **** /**
 345:Generated_Source\PSoC5/ErikaOS_1_ee_as_internal.inc ****  * @brief This function wraps the call to the protection hook.
 346:Generated_Source\PSoC5/ErikaOS_1_ee_as_internal.inc ****  * Also, it does what is required to do according to what the ProtectionHook
 347:Generated_Source\PSoC5/ErikaOS_1_ee_as_internal.inc ****  * returns.
 348:Generated_Source\PSoC5/ErikaOS_1_ee_as_internal.inc ****  * @param error_app the OS-Application that caused the error
 349:Generated_Source\PSoC5/ErikaOS_1_ee_as_internal.inc ****  * @param error     the error to send to the ProtectionHook function
 350:Generated_Source\PSoC5/ErikaOS_1_ee_as_internal.inc ****  */
 351:Generated_Source\PSoC5/ErikaOS_1_ee_as_internal.inc **** void EE_as_handle_protection_error( ApplicationType error_app,
 352:Generated_Source\PSoC5/ErikaOS_1_ee_as_internal.inc ****   StatusType error );
 353:Generated_Source\PSoC5/ErikaOS_1_ee_as_internal.inc **** #else /* EE_AS_OSAPPLICATIONS__ */
 354:Generated_Source\PSoC5/ErikaOS_1_ee_as_internal.inc **** /**
 355:Generated_Source\PSoC5/ErikaOS_1_ee_as_internal.inc ****  * @brief This function wraps the call to the protection hook.
 356:Generated_Source\PSoC5/ErikaOS_1_ee_as_internal.inc ****  * Also, it does what is required to do according to what the ProtectionHook
 357:Generated_Source\PSoC5/ErikaOS_1_ee_as_internal.inc ****  * returns.
 358:Generated_Source\PSoC5/ErikaOS_1_ee_as_internal.inc ****  * @param error     the error to send to the ProtectionHook function
 359:Generated_Source\PSoC5/ErikaOS_1_ee_as_internal.inc ****  */
 360:Generated_Source\PSoC5/ErikaOS_1_ee_as_internal.inc **** void EE_as_handle_protection_error( StatusType error );
 361:Generated_Source\PSoC5/ErikaOS_1_ee_as_internal.inc **** #endif /* EE_AS_OSAPPLICATIONS__ */
 362:Generated_Source\PSoC5/ErikaOS_1_ee_as_internal.inc **** #endif /* EE_AS_HAS_PROTECTIONHOOK__ */
 363:Generated_Source\PSoC5/ErikaOS_1_ee_as_internal.inc **** 
 364:Generated_Source\PSoC5/ErikaOS_1_ee_as_internal.inc **** #ifdef __EE_MEMORY_PROTECTION__
 365:Generated_Source\PSoC5/ErikaOS_1_ee_as_internal.inc **** /*******************************************************************************
 366:Generated_Source\PSoC5/ErikaOS_1_ee_as_internal.inc ****  *                   Memory Protection Internal Support
 367:Generated_Source\PSoC5/ErikaOS_1_ee_as_internal.inc ****  ******************************************************************************/
 368:Generated_Source\PSoC5/ErikaOS_1_ee_as_internal.inc **** /** Syscall table */
 369:Generated_Source\PSoC5/ErikaOS_1_ee_as_internal.inc **** extern EE_FADDR const EE_syscall_table[/*EE_SYSCALL_NR*/];
 370:Generated_Source\PSoC5/ErikaOS_1_ee_as_internal.inc **** 
 371:Generated_Source\PSoC5/ErikaOS_1_ee_as_internal.inc **** /** @typedef for TRUSTED Function pointers */
 372:Generated_Source\PSoC5/ErikaOS_1_ee_as_internal.inc **** typedef StatusType (*EE_TRUSTEDFUNCTYPE)(TrustedFunctionIndexType,
 373:Generated_Source\PSoC5/ErikaOS_1_ee_as_internal.inc ****   TrustedFunctionParameterRefType);
 374:Generated_Source\PSoC5/ErikaOS_1_ee_as_internal.inc **** 
 375:Generated_Source\PSoC5/ErikaOS_1_ee_as_internal.inc **** /* THIS HAL FUNCTIONS DECLARATION ARE PUT HERE BECAUSE SIGNATURE DEPENDS ON
 376:Generated_Source\PSoC5/ErikaOS_1_ee_as_internal.inc ****    AS KERNEL TYPES */
 377:Generated_Source\PSoC5/ErikaOS_1_ee_as_internal.inc **** 
 378:Generated_Source\PSoC5/ErikaOS_1_ee_as_internal.inc **** /**
 379:Generated_Source\PSoC5/ErikaOS_1_ee_as_internal.inc ****  * Return the access permission for the given memory area.  Defined in the CPU
 380:Generated_Source\PSoC5/ErikaOS_1_ee_as_internal.inc ****  * layer. */
 381:Generated_Source\PSoC5/ErikaOS_1_ee_as_internal.inc **** AccessType EE_hal_get_app_mem_access(ApplicationType app,
 382:Generated_Source\PSoC5/ErikaOS_1_ee_as_internal.inc ****   MemoryStartAddressType beg, MemorySizeType size);
 383:Generated_Source\PSoC5/ErikaOS_1_ee_as_internal.inc **** 
 384:Generated_Source\PSoC5/ErikaOS_1_ee_as_internal.inc **** #if defined(EE_SYSCALL_NR) && defined(EE_MAX_SYS_SERVICEID) &&\
 385:Generated_Source\PSoC5/ErikaOS_1_ee_as_internal.inc ****   (EE_SYSCALL_NR > EE_MAX_SYS_SERVICEID)
 386:Generated_Source\PSoC5/ErikaOS_1_ee_as_internal.inc **** __INLINE__ EE_TYPEBOOL 
 387:Generated_Source\PSoC5/ErikaOS_1_ee_as_internal.inc ****   EE_as_active_app_is_inside_trusted_function_call ( void )
 388:Generated_Source\PSoC5/ErikaOS_1_ee_as_internal.inc **** {
 389:Generated_Source\PSoC5/ErikaOS_1_ee_as_internal.inc ****   return EE_as_Application_RAM[EE_as_active_app].
ARM GAS  C:\Users\schmi\AppData\Local\Temp\ccLEO1Pj.s 			page 36


 390:Generated_Source\PSoC5/ErikaOS_1_ee_as_internal.inc ****     TrustedFunctionCallsCounter != 0U;
 391:Generated_Source\PSoC5/ErikaOS_1_ee_as_internal.inc **** }
 392:Generated_Source\PSoC5/ErikaOS_1_ee_as_internal.inc **** #else /* EE_SYSCALL_NR > EE_MAX_SYS_SERVICEID */
 393:Generated_Source\PSoC5/ErikaOS_1_ee_as_internal.inc **** #define EE_as_active_app_is_inside_trusted_function_call()  EE_FALSE
 394:Generated_Source\PSoC5/ErikaOS_1_ee_as_internal.inc **** #endif /* EE_SYSCALL_NR > EE_MAX_SYS_SERVICEID */
 395:Generated_Source\PSoC5/ErikaOS_1_ee_as_internal.inc **** #else /* __EE_MEMORY_PROTECTION__ */
 396:Generated_Source\PSoC5/ErikaOS_1_ee_as_internal.inc **** #define EE_as_active_app_is_inside_trusted_function_call()  EE_FALSE
 397:Generated_Source\PSoC5/ErikaOS_1_ee_as_internal.inc **** #endif /* __EE_MEMORY_PROTECTION__ */
 398:Generated_Source\PSoC5/ErikaOS_1_ee_as_internal.inc **** 
 399:Generated_Source\PSoC5/ErikaOS_1_ee_as_internal.inc **** /*******************************************************************************
 400:Generated_Source\PSoC5/ErikaOS_1_ee_as_internal.inc ****  *                     Stack Monitoring Internal Support
 401:Generated_Source\PSoC5/ErikaOS_1_ee_as_internal.inc ****  ******************************************************************************/
 402:Generated_Source\PSoC5/ErikaOS_1_ee_as_internal.inc **** #ifdef EE_STACK_MONITORING__
 403:Generated_Source\PSoC5/ErikaOS_1_ee_as_internal.inc **** 
 404:Generated_Source\PSoC5/ErikaOS_1_ee_as_internal.inc **** #ifdef EE_AS_OSAPPLICATIONS__
 405:Generated_Source\PSoC5/ErikaOS_1_ee_as_internal.inc **** /* Functions used to check and handle Stack Overflow, with short cut to
 406:Generated_Source\PSoC5/ErikaOS_1_ee_as_internal.inc ****    pass current application */
 407:Generated_Source\PSoC5/ErikaOS_1_ee_as_internal.inc **** void EE_as_check_and_handle_stack_overflow( ApplicationType appid,
 408:Generated_Source\PSoC5/ErikaOS_1_ee_as_internal.inc ****   EE_UREG stktop );
 409:Generated_Source\PSoC5/ErikaOS_1_ee_as_internal.inc **** #else /* EE_AS_OSAPPLICATIONS__ */
 410:Generated_Source\PSoC5/ErikaOS_1_ee_as_internal.inc **** /* Functions used to check and handle Stack Overflow. Have to be to be
 411:Generated_Source\PSoC5/ErikaOS_1_ee_as_internal.inc ****    implemented in each porting that support stack monitoring */
 412:Generated_Source\PSoC5/ErikaOS_1_ee_as_internal.inc **** void EE_as_check_and_handle_stack_overflow( EE_UREG stktop );
 413:Generated_Source\PSoC5/ErikaOS_1_ee_as_internal.inc **** #endif  /* EE_AS_OSAPPLICATIONS__ */
 414:Generated_Source\PSoC5/ErikaOS_1_ee_as_internal.inc **** 
 415:Generated_Source\PSoC5/ErikaOS_1_ee_as_internal.inc **** /* Used Internally in Kernel primitives */
 416:Generated_Source\PSoC5/ErikaOS_1_ee_as_internal.inc **** void EE_as_monitoring_the_stack( void );
 417:Generated_Source\PSoC5/ErikaOS_1_ee_as_internal.inc **** 
 418:Generated_Source\PSoC5/ErikaOS_1_ee_as_internal.inc **** #else /* EE_STACK_MONITORING__ */
 419:Generated_Source\PSoC5/ErikaOS_1_ee_as_internal.inc **** #ifdef EE_AS_OSAPPLICATIONS__
 420:Generated_Source\PSoC5/ErikaOS_1_ee_as_internal.inc **** __INLINE__ void 
 421:Generated_Source\PSoC5/ErikaOS_1_ee_as_internal.inc **** EE_as_check_and_handle_stack_overflow( ApplicationType appid, EE_UREG stktop ) {}
 422:Generated_Source\PSoC5/ErikaOS_1_ee_as_internal.inc **** #else /* EE_AS_OSAPPLICATIONS__ */
 423:Generated_Source\PSoC5/ErikaOS_1_ee_as_internal.inc **** __INLINE__ void 
 424:Generated_Source\PSoC5/ErikaOS_1_ee_as_internal.inc **** EE_as_check_and_handle_stack_overflow( EE_UREG stktop ) {}
 425:Generated_Source\PSoC5/ErikaOS_1_ee_as_internal.inc **** #endif /* EE_AS_OSAPPLICATIONS__ */
 426:Generated_Source\PSoC5/ErikaOS_1_ee_as_internal.inc **** 
 427:Generated_Source\PSoC5/ErikaOS_1_ee_as_internal.inc **** __INLINE__ void  EE_as_monitoring_the_stack( void ) {}
 291              		.loc 4 427 0
 292              		.cfi_startproc
 293              		@ args = 0, pretend = 0, frame = 0
 294              		@ frame_needed = 1, uses_anonymous_args = 0
 295              		@ link register save eliminated.
 296 0000 80B4     		push	{r7}
 297              		.cfi_def_cfa_offset 4
 298              		.cfi_offset 7, -4
 299 0002 00AF     		add	r7, sp, #0
 300              		.cfi_def_cfa_register 7
 301              		.loc 4 427 0
 302 0004 00BF     		nop
 303 0006 BD46     		mov	sp, r7
 304              		.cfi_def_cfa_register 13
 305              		@ sp needed
 306 0008 80BC     		pop	{r7}
 307              		.cfi_restore 7
 308              		.cfi_def_cfa_offset 0
 309 000a 7047     		bx	lr
ARM GAS  C:\Users\schmi\AppData\Local\Temp\ccLEO1Pj.s 			page 37


 310              		.cfi_endproc
 311              	.LFE50:
 312              		.size	EE_as_monitoring_the_stack, .-EE_as_monitoring_the_stack
 313              		.section	.text.EE_oo_handle_rel_counter_object_insertion,"ax",%progbits
 314              		.align	2
 315              		.thumb
 316              		.thumb_func
 317              		.type	EE_oo_handle_rel_counter_object_insertion, %function
 318              	EE_oo_handle_rel_counter_object_insertion:
 319              	.LFB55:
 320              		.file 5 "Generated_Source\\PSoC5\\ErikaOS_1_ee_oo_internal.inc"
   1:Generated_Source\PSoC5/ErikaOS_1_ee_oo_internal.inc **** /* ###*B*###
   2:Generated_Source\PSoC5/ErikaOS_1_ee_oo_internal.inc ****  * ERIKA Enterprise - a tiny RTOS for small microcontrollers
   3:Generated_Source\PSoC5/ErikaOS_1_ee_oo_internal.inc ****  *
   4:Generated_Source\PSoC5/ErikaOS_1_ee_oo_internal.inc ****  * Copyright (C) 2002-2008  Evidence Srl
   5:Generated_Source\PSoC5/ErikaOS_1_ee_oo_internal.inc ****  *
   6:Generated_Source\PSoC5/ErikaOS_1_ee_oo_internal.inc ****  * This file is part of ERIKA Enterprise.
   7:Generated_Source\PSoC5/ErikaOS_1_ee_oo_internal.inc ****  *
   8:Generated_Source\PSoC5/ErikaOS_1_ee_oo_internal.inc ****  * ERIKA Enterprise is free software; you can redistribute it
   9:Generated_Source\PSoC5/ErikaOS_1_ee_oo_internal.inc ****  * and/or modify it under the terms of the GNU General Public License
  10:Generated_Source\PSoC5/ErikaOS_1_ee_oo_internal.inc ****  * version 2 as published by the Free Software Foundation, 
  11:Generated_Source\PSoC5/ErikaOS_1_ee_oo_internal.inc ****  * (with a special exception described below).
  12:Generated_Source\PSoC5/ErikaOS_1_ee_oo_internal.inc ****  *
  13:Generated_Source\PSoC5/ErikaOS_1_ee_oo_internal.inc ****  * Linking this code statically or dynamically with other modules is
  14:Generated_Source\PSoC5/ErikaOS_1_ee_oo_internal.inc ****  * making a combined work based on this code.  Thus, the terms and
  15:Generated_Source\PSoC5/ErikaOS_1_ee_oo_internal.inc ****  * conditions of the GNU General Public License cover the whole
  16:Generated_Source\PSoC5/ErikaOS_1_ee_oo_internal.inc ****  * combination.
  17:Generated_Source\PSoC5/ErikaOS_1_ee_oo_internal.inc ****  *
  18:Generated_Source\PSoC5/ErikaOS_1_ee_oo_internal.inc ****  * As a special exception, the copyright holders of this library give you
  19:Generated_Source\PSoC5/ErikaOS_1_ee_oo_internal.inc ****  * permission to link this code with independent modules to produce an
  20:Generated_Source\PSoC5/ErikaOS_1_ee_oo_internal.inc ****  * executable, regardless of the license terms of these independent
  21:Generated_Source\PSoC5/ErikaOS_1_ee_oo_internal.inc ****  * modules, and to copy and distribute the resulting executable under
  22:Generated_Source\PSoC5/ErikaOS_1_ee_oo_internal.inc ****  * terms of your choice, provided that you also meet, for each linked
  23:Generated_Source\PSoC5/ErikaOS_1_ee_oo_internal.inc ****  * independent module, the terms and conditions of the license of that
  24:Generated_Source\PSoC5/ErikaOS_1_ee_oo_internal.inc ****  * module.  An independent module is a module which is not derived from
  25:Generated_Source\PSoC5/ErikaOS_1_ee_oo_internal.inc ****  * or based on this library.  If you modify this code, you may extend
  26:Generated_Source\PSoC5/ErikaOS_1_ee_oo_internal.inc ****  * this exception to your version of the code, but you are not
  27:Generated_Source\PSoC5/ErikaOS_1_ee_oo_internal.inc ****  * obligated to do so.  If you do not wish to do so, delete this
  28:Generated_Source\PSoC5/ErikaOS_1_ee_oo_internal.inc ****  * exception statement from your version.
  29:Generated_Source\PSoC5/ErikaOS_1_ee_oo_internal.inc ****  *
  30:Generated_Source\PSoC5/ErikaOS_1_ee_oo_internal.inc ****  * ERIKA Enterprise is distributed in the hope that it will be
  31:Generated_Source\PSoC5/ErikaOS_1_ee_oo_internal.inc ****  * useful, but WITHOUT ANY WARRANTY; without even the implied warranty
  32:Generated_Source\PSoC5/ErikaOS_1_ee_oo_internal.inc ****  * of MERCHANTABILITY or FITNESS FOR A PARTICULAR PURPOSE.  See the
  33:Generated_Source\PSoC5/ErikaOS_1_ee_oo_internal.inc ****  * GNU General Public License version 2 for more details.
  34:Generated_Source\PSoC5/ErikaOS_1_ee_oo_internal.inc ****  *
  35:Generated_Source\PSoC5/ErikaOS_1_ee_oo_internal.inc ****  * You should have received a copy of the GNU General Public License
  36:Generated_Source\PSoC5/ErikaOS_1_ee_oo_internal.inc ****  * version 2 along with ERIKA Enterprise; if not, write to the
  37:Generated_Source\PSoC5/ErikaOS_1_ee_oo_internal.inc ****  * Free Software Foundation, Inc., 51 Franklin Street, Fifth Floor,
  38:Generated_Source\PSoC5/ErikaOS_1_ee_oo_internal.inc ****  * Boston, MA 02110-1301 USA.
  39:Generated_Source\PSoC5/ErikaOS_1_ee_oo_internal.inc ****  * ###*E*### */
  40:Generated_Source\PSoC5/ErikaOS_1_ee_oo_internal.inc **** 
  41:Generated_Source\PSoC5/ErikaOS_1_ee_oo_internal.inc **** /*
  42:Generated_Source\PSoC5/ErikaOS_1_ee_oo_internal.inc ****  * Author: 2002 Paolo Gai
  43:Generated_Source\PSoC5/ErikaOS_1_ee_oo_internal.inc ****  * CVS: $Id: ee_internal.h,v 1.6 2006/12/03 22:07:50 pj Exp $
  44:Generated_Source\PSoC5/ErikaOS_1_ee_oo_internal.inc ****  */
  45:Generated_Source\PSoC5/ErikaOS_1_ee_oo_internal.inc **** 
  46:Generated_Source\PSoC5/ErikaOS_1_ee_oo_internal.inc **** /*
ARM GAS  C:\Users\schmi\AppData\Local\Temp\ccLEO1Pj.s 			page 38


  47:Generated_Source\PSoC5/ErikaOS_1_ee_oo_internal.inc ****  * PSoC Port and API Generation
  48:Generated_Source\PSoC5/ErikaOS_1_ee_oo_internal.inc ****  * Carlos Fernando Meier Martinez
  49:Generated_Source\PSoC5/ErikaOS_1_ee_oo_internal.inc ****  * Hochschule Darmstadt, Germany. 2017.
  50:Generated_Source\PSoC5/ErikaOS_1_ee_oo_internal.inc ****  */
  51:Generated_Source\PSoC5/ErikaOS_1_ee_oo_internal.inc **** 
  52:Generated_Source\PSoC5/ErikaOS_1_ee_oo_internal.inc **** #ifndef PKG_KERNEL_OO_INC_EE_OO_INTERNAL_H
  53:Generated_Source\PSoC5/ErikaOS_1_ee_oo_internal.inc **** #define PKG_KERNEL_OO_INC_EE_OO_INTERNAL_H
  54:Generated_Source\PSoC5/ErikaOS_1_ee_oo_internal.inc **** 
  55:Generated_Source\PSoC5/ErikaOS_1_ee_oo_internal.inc **** #include "ErikaOS_1_ee_oo_common.inc"
  56:Generated_Source\PSoC5/ErikaOS_1_ee_oo_internal.inc **** #include "ErikaOS_1_ee_oo_intfunc.inc"
  57:Generated_Source\PSoC5/ErikaOS_1_ee_oo_internal.inc **** #include "ErikaOS_1_ee_oo_irq.inc"
  58:Generated_Source\PSoC5/ErikaOS_1_ee_oo_internal.inc **** #if (__OO_configUSE_TRACE_FACILITY == 1)
  59:Generated_Source\PSoC5/ErikaOS_1_ee_oo_internal.inc **** #include "trcKernelPort.h" 
  60:Generated_Source\PSoC5/ErikaOS_1_ee_oo_internal.inc **** #endif
  61:Generated_Source\PSoC5/ErikaOS_1_ee_oo_internal.inc **** /*******************************************************************************
  62:Generated_Source\PSoC5/ErikaOS_1_ee_oo_internal.inc ****  *                    New Error Handling Internal Utilities
  63:Generated_Source\PSoC5/ErikaOS_1_ee_oo_internal.inc ****  ******************************************************************************/
  64:Generated_Source\PSoC5/ErikaOS_1_ee_oo_internal.inc **** 
  65:Generated_Source\PSoC5/ErikaOS_1_ee_oo_internal.inc **** /* Error Parameters Utilities Macros */
  66:Generated_Source\PSoC5/ErikaOS_1_ee_oo_internal.inc **** #define EE_OS_PARAM(param_name)   EE_os_param param_name
  67:Generated_Source\PSoC5/ErikaOS_1_ee_oo_internal.inc **** #define EE_OS_PARAM_VALUE(param_name, param_value)  \
  68:Generated_Source\PSoC5/ErikaOS_1_ee_oo_internal.inc ****   ((param_name).value_param = (param_value))
  69:Generated_Source\PSoC5/ErikaOS_1_ee_oo_internal.inc **** 
  70:Generated_Source\PSoC5/ErikaOS_1_ee_oo_internal.inc **** #define EE_OS_PARAM_REF(param_name, param_field, param_ref) \
  71:Generated_Source\PSoC5/ErikaOS_1_ee_oo_internal.inc ****   ((param_name).param_field = (param_ref))
  72:Generated_Source\PSoC5/ErikaOS_1_ee_oo_internal.inc **** 
  73:Generated_Source\PSoC5/ErikaOS_1_ee_oo_internal.inc **** #ifdef __OO_HAS_ERRORHOOK__
  74:Generated_Source\PSoC5/ErikaOS_1_ee_oo_internal.inc **** /* Error Parameters Data Structure Utilities Macros from user space */
  75:Generated_Source\PSoC5/ErikaOS_1_ee_oo_internal.inc **** #define EE_OS_ERROR_PARAMETERS()  EE_oo_ErrorHook_parameters error_parameters
  76:Generated_Source\PSoC5/ErikaOS_1_ee_oo_internal.inc **** 
  77:Generated_Source\PSoC5/ErikaOS_1_ee_oo_internal.inc **** #define EE_OS_ERROR_PARAMETERS_INIT(param1_in,param2_in,param3_in)  \
  78:Generated_Source\PSoC5/ErikaOS_1_ee_oo_internal.inc ****   EE_oo_ErrorHook_parameters error_parameters = { param1_in, param2_in, \
  79:Generated_Source\PSoC5/ErikaOS_1_ee_oo_internal.inc ****     param3_in }
  80:Generated_Source\PSoC5/ErikaOS_1_ee_oo_internal.inc **** 
  81:Generated_Source\PSoC5/ErikaOS_1_ee_oo_internal.inc **** #define EE_OS_ERROR_PARAMETERS_PARAM1_VALUE(param1_value) \
  82:Generated_Source\PSoC5/ErikaOS_1_ee_oo_internal.inc ****   (error_parameters.param1.value_param = param1_value)
  83:Generated_Source\PSoC5/ErikaOS_1_ee_oo_internal.inc **** #define EE_OS_ERROR_PARAMETERS_PARAM2_VALUE(param2_value) \
  84:Generated_Source\PSoC5/ErikaOS_1_ee_oo_internal.inc ****   (error_parameters.param2.value_param = param2_value)
  85:Generated_Source\PSoC5/ErikaOS_1_ee_oo_internal.inc **** #define EE_OS_ERROR_PARAMETERS_PARAM3_VALUE(param3_value) \
  86:Generated_Source\PSoC5/ErikaOS_1_ee_oo_internal.inc ****   (error_parameters.param3.value_param = param3_value)
  87:Generated_Source\PSoC5/ErikaOS_1_ee_oo_internal.inc **** 
  88:Generated_Source\PSoC5/ErikaOS_1_ee_oo_internal.inc **** #define EE_OS_ERROR_PARAMETERS_PARAM1_REF(param_field,param_ref)  \
  89:Generated_Source\PSoC5/ErikaOS_1_ee_oo_internal.inc ****   (error_parameters.param1.param_field = (param_ref))
  90:Generated_Source\PSoC5/ErikaOS_1_ee_oo_internal.inc **** #define EE_OS_ERROR_PARAMETERS_PARAM2_REF(param_field,param_ref)  \
  91:Generated_Source\PSoC5/ErikaOS_1_ee_oo_internal.inc ****   (error_parameters.param2.param_field = (param_ref))
  92:Generated_Source\PSoC5/ErikaOS_1_ee_oo_internal.inc **** #define EE_OS_ERROR_PARAMETERS_PARAM3_REF(param_field,param_ref)  \
  93:Generated_Source\PSoC5/ErikaOS_1_ee_oo_internal.inc ****   (error_parameters.param3.param_field = (param_ref))
  94:Generated_Source\PSoC5/ErikaOS_1_ee_oo_internal.inc **** #else /* __OO_HAS_ERRORHOOK__ */
  95:Generated_Source\PSoC5/ErikaOS_1_ee_oo_internal.inc **** #define EE_OS_ERROR_PARAMETERS()                                    ((void)0)
  96:Generated_Source\PSoC5/ErikaOS_1_ee_oo_internal.inc **** 
  97:Generated_Source\PSoC5/ErikaOS_1_ee_oo_internal.inc **** #define EE_OS_ERROR_PARAMETERS_INIT(param1_in,param2_in,param3_in)  ((void)0)
  98:Generated_Source\PSoC5/ErikaOS_1_ee_oo_internal.inc **** 
  99:Generated_Source\PSoC5/ErikaOS_1_ee_oo_internal.inc **** #define EE_OS_ERROR_PARAMETERS_PARAM1_VALUE(param1_value)           ((void)0)
 100:Generated_Source\PSoC5/ErikaOS_1_ee_oo_internal.inc **** #define EE_OS_ERROR_PARAMETERS_PARAM2_VALUE(param2_value)           ((void)0)
 101:Generated_Source\PSoC5/ErikaOS_1_ee_oo_internal.inc **** #define EE_OS_ERROR_PARAMETERS_PARAM3_VALUE(param3_value)           ((void)0)
 102:Generated_Source\PSoC5/ErikaOS_1_ee_oo_internal.inc **** 
 103:Generated_Source\PSoC5/ErikaOS_1_ee_oo_internal.inc **** #define EE_OS_ERROR_PARAMETERS_PARAM1_REF(param_field,param_ref)    ((void)0)
ARM GAS  C:\Users\schmi\AppData\Local\Temp\ccLEO1Pj.s 			page 39


 104:Generated_Source\PSoC5/ErikaOS_1_ee_oo_internal.inc **** #define EE_OS_ERROR_PARAMETERS_PARAM2_REF(param_field,param_ref)    ((void)0)
 105:Generated_Source\PSoC5/ErikaOS_1_ee_oo_internal.inc **** #define EE_OS_ERROR_PARAMETERS_PARAM3_REF(param_field,param_ref)    ((void)0)
 106:Generated_Source\PSoC5/ErikaOS_1_ee_oo_internal.inc **** #endif /* __OO_HAS_ERRORHOOK__ */
 107:Generated_Source\PSoC5/ErikaOS_1_ee_oo_internal.inc **** 
 108:Generated_Source\PSoC5/ErikaOS_1_ee_oo_internal.inc **** /* Error Handling */
 109:Generated_Source\PSoC5/ErikaOS_1_ee_oo_internal.inc **** #ifdef __OO_HAS_ERRORHOOK__
 110:Generated_Source\PSoC5/ErikaOS_1_ee_oo_internal.inc **** #ifndef  __OO_ERRORHOOK_NOMACROS__
 111:Generated_Source\PSoC5/ErikaOS_1_ee_oo_internal.inc **** 
 112:Generated_Source\PSoC5/ErikaOS_1_ee_oo_internal.inc **** __INLINE__ void  EE_os_fill_error_data( OSServiceIdType
 113:Generated_Source\PSoC5/ErikaOS_1_ee_oo_internal.inc ****   ServiceID, EE_os_param param1, EE_os_param param2, EE_os_param param3 )
 114:Generated_Source\PSoC5/ErikaOS_1_ee_oo_internal.inc **** {
 115:Generated_Source\PSoC5/ErikaOS_1_ee_oo_internal.inc ****   register EE_oo_ErrorHook_parameters * const
 116:Generated_Source\PSoC5/ErikaOS_1_ee_oo_internal.inc ****     p_errorhook_parameter = EE_oo_get_errorhook_data();
 117:Generated_Source\PSoC5/ErikaOS_1_ee_oo_internal.inc ****   (*EE_oo_get_errorhook_service_id()) = ServiceID;
 118:Generated_Source\PSoC5/ErikaOS_1_ee_oo_internal.inc ****   p_errorhook_parameter->param1 = param1;
 119:Generated_Source\PSoC5/ErikaOS_1_ee_oo_internal.inc ****   p_errorhook_parameter->param2 = param2;
 120:Generated_Source\PSoC5/ErikaOS_1_ee_oo_internal.inc ****   p_errorhook_parameter->param3 = param3;
 121:Generated_Source\PSoC5/ErikaOS_1_ee_oo_internal.inc **** }
 122:Generated_Source\PSoC5/ErikaOS_1_ee_oo_internal.inc **** #else /* !__OO_ERRORHOOK_NOMACROS__ */
 123:Generated_Source\PSoC5/ErikaOS_1_ee_oo_internal.inc **** 
 124:Generated_Source\PSoC5/ErikaOS_1_ee_oo_internal.inc **** #define EE_os_fill_error_data(ServiceID,param1,param2,param3) ((void)0)
 125:Generated_Source\PSoC5/ErikaOS_1_ee_oo_internal.inc **** #endif /* !__OO_ERRORHOOK_NOMACROS__ */
 126:Generated_Source\PSoC5/ErikaOS_1_ee_oo_internal.inc **** 
 127:Generated_Source\PSoC5/ErikaOS_1_ee_oo_internal.inc **** __INLINE__ void  EE_os_notify_error( OSServiceIdType ServiceID,
 128:Generated_Source\PSoC5/ErikaOS_1_ee_oo_internal.inc ****   EE_os_param param1, EE_os_param param2, EE_os_param param3,
 129:Generated_Source\PSoC5/ErikaOS_1_ee_oo_internal.inc ****   StatusType Error )
 130:Generated_Source\PSoC5/ErikaOS_1_ee_oo_internal.inc **** {
 131:Generated_Source\PSoC5/ErikaOS_1_ee_oo_internal.inc ****   EE_ORTI_set_lasterror(Error);
 132:Generated_Source\PSoC5/ErikaOS_1_ee_oo_internal.inc ****   if ( EE_ErrorHook_nested_flag == 0U )
 133:Generated_Source\PSoC5/ErikaOS_1_ee_oo_internal.inc ****   {
 134:Generated_Source\PSoC5/ErikaOS_1_ee_oo_internal.inc ****     EE_os_fill_error_data(ServiceID, param1, param2, param3);
 135:Generated_Source\PSoC5/ErikaOS_1_ee_oo_internal.inc ****     EE_ErrorHook_nested_flag = 1U;
 136:Generated_Source\PSoC5/ErikaOS_1_ee_oo_internal.inc ****     EE_oo_call_ErrorHook(Error);
 137:Generated_Source\PSoC5/ErikaOS_1_ee_oo_internal.inc ****     EE_ErrorHook_nested_flag = 0U;
 138:Generated_Source\PSoC5/ErikaOS_1_ee_oo_internal.inc ****   }
 139:Generated_Source\PSoC5/ErikaOS_1_ee_oo_internal.inc **** }
 140:Generated_Source\PSoC5/ErikaOS_1_ee_oo_internal.inc **** 
 141:Generated_Source\PSoC5/ErikaOS_1_ee_oo_internal.inc **** #ifndef __EE_MEMORY_PROTECTION__
 142:Generated_Source\PSoC5/ErikaOS_1_ee_oo_internal.inc **** __INLINE__ void  EE_os_notify_error_from_us(
 143:Generated_Source\PSoC5/ErikaOS_1_ee_oo_internal.inc ****   OSServiceIdType ServiceID, const EE_oo_ErrorHook_parameters * const
 144:Generated_Source\PSoC5/ErikaOS_1_ee_oo_internal.inc ****     error_parameters_ref, StatusType Error )
 145:Generated_Source\PSoC5/ErikaOS_1_ee_oo_internal.inc **** {
 146:Generated_Source\PSoC5/ErikaOS_1_ee_oo_internal.inc ****   if ( error_parameters_ref != NULL ) {
 147:Generated_Source\PSoC5/ErikaOS_1_ee_oo_internal.inc ****     register EE_FREG const flag = EE_hal_begin_nested_primitive();
 148:Generated_Source\PSoC5/ErikaOS_1_ee_oo_internal.inc ****     EE_os_notify_error(ServiceID, error_parameters_ref->param1,
 149:Generated_Source\PSoC5/ErikaOS_1_ee_oo_internal.inc ****       error_parameters_ref->param2, error_parameters_ref->param3, Error);
 150:Generated_Source\PSoC5/ErikaOS_1_ee_oo_internal.inc ****     EE_hal_end_nested_primitive(flag);
 151:Generated_Source\PSoC5/ErikaOS_1_ee_oo_internal.inc ****   }
 152:Generated_Source\PSoC5/ErikaOS_1_ee_oo_internal.inc **** }
 153:Generated_Source\PSoC5/ErikaOS_1_ee_oo_internal.inc **** #else /* !__EE_MEMORY_PROTECTION__ */
 154:Generated_Source\PSoC5/ErikaOS_1_ee_oo_internal.inc **** /* If MemMap.h support is enabled (i.e. because memory protection): use it */
 155:Generated_Source\PSoC5/ErikaOS_1_ee_oo_internal.inc **** #ifdef EE_SUPPORT_MEMMAP_H
 156:Generated_Source\PSoC5/ErikaOS_1_ee_oo_internal.inc **** /* The following code belong to ERIKA API section ee_api_text */
 157:Generated_Source\PSoC5/ErikaOS_1_ee_oo_internal.inc **** #define API_START_SEC_CODE
 158:Generated_Source\PSoC5/ErikaOS_1_ee_oo_internal.inc **** #include "MemMap.inc"
 159:Generated_Source\PSoC5/ErikaOS_1_ee_oo_internal.inc **** #endif /* EE_SUPPORT_MEMMAP_H */
 160:Generated_Source\PSoC5/ErikaOS_1_ee_oo_internal.inc **** 
ARM GAS  C:\Users\schmi\AppData\Local\Temp\ccLEO1Pj.s 			page 40


 161:Generated_Source\PSoC5/ErikaOS_1_ee_oo_internal.inc **** void EE_os_notify_error_from_us( OSServiceIdType ServiceID,
 162:Generated_Source\PSoC5/ErikaOS_1_ee_oo_internal.inc ****   const EE_oo_ErrorHook_parameters * const error_parameters_ref,
 163:Generated_Source\PSoC5/ErikaOS_1_ee_oo_internal.inc ****   StatusType Error );
 164:Generated_Source\PSoC5/ErikaOS_1_ee_oo_internal.inc **** 
 165:Generated_Source\PSoC5/ErikaOS_1_ee_oo_internal.inc **** #ifdef EE_SUPPORT_MEMMAP_H
 166:Generated_Source\PSoC5/ErikaOS_1_ee_oo_internal.inc **** #define API_STOP_SEC_CODE
 167:Generated_Source\PSoC5/ErikaOS_1_ee_oo_internal.inc **** #include "MemMap.inc"
 168:Generated_Source\PSoC5/ErikaOS_1_ee_oo_internal.inc **** #endif /* EE_SUPPORT_MEMMAP_H */
 169:Generated_Source\PSoC5/ErikaOS_1_ee_oo_internal.inc **** #endif /* !__EE_MEMORY_PROTECTION__ */
 170:Generated_Source\PSoC5/ErikaOS_1_ee_oo_internal.inc **** #else /* __OO_HAS_ERRORHOOK__ */
 171:Generated_Source\PSoC5/ErikaOS_1_ee_oo_internal.inc **** 
 172:Generated_Source\PSoC5/ErikaOS_1_ee_oo_internal.inc **** /* Macro used for remapping to prevent compiler warnings on unused parameters */
 173:Generated_Source\PSoC5/ErikaOS_1_ee_oo_internal.inc **** #define EE_os_notify_error(k,j,x,y,z) EE_os_notify_error_impl(z)
 174:Generated_Source\PSoC5/ErikaOS_1_ee_oo_internal.inc **** 
 175:Generated_Source\PSoC5/ErikaOS_1_ee_oo_internal.inc **** __INLINE__ void  EE_os_notify_error_impl(StatusType Error)
 176:Generated_Source\PSoC5/ErikaOS_1_ee_oo_internal.inc **** {
 177:Generated_Source\PSoC5/ErikaOS_1_ee_oo_internal.inc ****   EE_ORTI_set_lasterror(Error);
 178:Generated_Source\PSoC5/ErikaOS_1_ee_oo_internal.inc **** }
 179:Generated_Source\PSoC5/ErikaOS_1_ee_oo_internal.inc **** 
 180:Generated_Source\PSoC5/ErikaOS_1_ee_oo_internal.inc **** /* Macro used for remapping to prevent compiler warnings on unused parameters */
 181:Generated_Source\PSoC5/ErikaOS_1_ee_oo_internal.inc **** #define EE_os_notify_error_from_us(x,y,z) EE_os_notify_error_from_us_impl(z)
 182:Generated_Source\PSoC5/ErikaOS_1_ee_oo_internal.inc **** 
 183:Generated_Source\PSoC5/ErikaOS_1_ee_oo_internal.inc **** __INLINE__ void  EE_os_notify_error_from_us_impl(
 184:Generated_Source\PSoC5/ErikaOS_1_ee_oo_internal.inc ****   StatusType Error )
 185:Generated_Source\PSoC5/ErikaOS_1_ee_oo_internal.inc **** {
 186:Generated_Source\PSoC5/ErikaOS_1_ee_oo_internal.inc ****   EE_ORTI_set_lasterror(Error);
 187:Generated_Source\PSoC5/ErikaOS_1_ee_oo_internal.inc **** }
 188:Generated_Source\PSoC5/ErikaOS_1_ee_oo_internal.inc **** #endif /* __OO_HAS_ERRORHOOK__ */
 189:Generated_Source\PSoC5/ErikaOS_1_ee_oo_internal.inc **** 
 190:Generated_Source\PSoC5/ErikaOS_1_ee_oo_internal.inc **** /*******************************************************************************
 191:Generated_Source\PSoC5/ErikaOS_1_ee_oo_internal.inc ****  *                  Kernel Critical Section Utility Macros
 192:Generated_Source\PSoC5/ErikaOS_1_ee_oo_internal.inc ****  ******************************************************************************/
 193:Generated_Source\PSoC5/ErikaOS_1_ee_oo_internal.inc **** #ifndef __EE_MEMORY_PROTECTION__
 194:Generated_Source\PSoC5/ErikaOS_1_ee_oo_internal.inc **** 
 195:Generated_Source\PSoC5/ErikaOS_1_ee_oo_internal.inc **** #define EE_OS_DECLARE_CRITICAL_SECTION()  register EE_FREG flag
 196:Generated_Source\PSoC5/ErikaOS_1_ee_oo_internal.inc **** 
 197:Generated_Source\PSoC5/ErikaOS_1_ee_oo_internal.inc **** #define EE_OS_ENTER_CRITICAL_SECTION()          \
 198:Generated_Source\PSoC5/ErikaOS_1_ee_oo_internal.inc ****   do {                                          \
 199:Generated_Source\PSoC5/ErikaOS_1_ee_oo_internal.inc ****     flag = EE_hal_begin_nested_primitive();     \
 200:Generated_Source\PSoC5/ErikaOS_1_ee_oo_internal.inc ****     EE_as_tp_active_pause_and_update_budgets(); \
 201:Generated_Source\PSoC5/ErikaOS_1_ee_oo_internal.inc ****   } while ( 0 )
 202:Generated_Source\PSoC5/ErikaOS_1_ee_oo_internal.inc **** 
 203:Generated_Source\PSoC5/ErikaOS_1_ee_oo_internal.inc **** #define EE_OS_DECLARE_AND_ENTER_CRITICAL_SECTION()  \
 204:Generated_Source\PSoC5/ErikaOS_1_ee_oo_internal.inc ****   EE_OS_DECLARE_CRITICAL_SECTION();                 \
 205:Generated_Source\PSoC5/ErikaOS_1_ee_oo_internal.inc ****   EE_OS_ENTER_CRITICAL_SECTION()
 206:Generated_Source\PSoC5/ErikaOS_1_ee_oo_internal.inc **** 
 207:Generated_Source\PSoC5/ErikaOS_1_ee_oo_internal.inc **** #define EE_OS_EXIT_CRITICAL_SECTION()             \
 208:Generated_Source\PSoC5/ErikaOS_1_ee_oo_internal.inc ****   do {                                            \
 209:Generated_Source\PSoC5/ErikaOS_1_ee_oo_internal.inc ****     EE_as_tp_active_update_budgets_and_restart(); \
 210:Generated_Source\PSoC5/ErikaOS_1_ee_oo_internal.inc ****     EE_hal_end_nested_primitive(flag);            \
 211:Generated_Source\PSoC5/ErikaOS_1_ee_oo_internal.inc ****   } while ( 0 )
 212:Generated_Source\PSoC5/ErikaOS_1_ee_oo_internal.inc **** 
 213:Generated_Source\PSoC5/ErikaOS_1_ee_oo_internal.inc **** #define EE_OS_FOREVER_CRITICAL_SECTION()          \
 214:Generated_Source\PSoC5/ErikaOS_1_ee_oo_internal.inc ****   do {                                            \
 215:Generated_Source\PSoC5/ErikaOS_1_ee_oo_internal.inc ****     EE_hal_disableIRQ();                          \
 216:Generated_Source\PSoC5/ErikaOS_1_ee_oo_internal.inc ****     EE_as_tp_active_pause_and_update_budgets();   \
 217:Generated_Source\PSoC5/ErikaOS_1_ee_oo_internal.inc ****   } while ( 0 )
ARM GAS  C:\Users\schmi\AppData\Local\Temp\ccLEO1Pj.s 			page 41


 218:Generated_Source\PSoC5/ErikaOS_1_ee_oo_internal.inc **** 
 219:Generated_Source\PSoC5/ErikaOS_1_ee_oo_internal.inc **** #else /* !__EE_MEMORY_PROTECTION__ */
 220:Generated_Source\PSoC5/ErikaOS_1_ee_oo_internal.inc **** /* TP in any case have to be handled in Service Implementation. Syscall
 221:Generated_Source\PSoC5/ErikaOS_1_ee_oo_internal.inc ****    mechanism can be implement in C language and, in that case, a function call
 222:Generated_Source\PSoC5/ErikaOS_1_ee_oo_internal.inc ****    cannot be done in syscall handler. */
 223:Generated_Source\PSoC5/ErikaOS_1_ee_oo_internal.inc **** #define EE_OS_DECLARE_CRITICAL_SECTION()            ((void)0)
 224:Generated_Source\PSoC5/ErikaOS_1_ee_oo_internal.inc **** #define EE_OS_ENTER_CRITICAL_SECTION()              \
 225:Generated_Source\PSoC5/ErikaOS_1_ee_oo_internal.inc ****   EE_as_tp_active_pause_and_update_budgets()
 226:Generated_Source\PSoC5/ErikaOS_1_ee_oo_internal.inc **** #define EE_OS_DECLARE_AND_ENTER_CRITICAL_SECTION()  \
 227:Generated_Source\PSoC5/ErikaOS_1_ee_oo_internal.inc ****   EE_as_tp_active_pause_and_update_budgets()
 228:Generated_Source\PSoC5/ErikaOS_1_ee_oo_internal.inc **** #define EE_OS_EXIT_CRITICAL_SECTION()               \
 229:Generated_Source\PSoC5/ErikaOS_1_ee_oo_internal.inc ****   EE_as_tp_active_update_budgets_and_restart()
 230:Generated_Source\PSoC5/ErikaOS_1_ee_oo_internal.inc **** #define EE_OS_FOREVER_CRITICAL_SECTION()			\
 231:Generated_Source\PSoC5/ErikaOS_1_ee_oo_internal.inc ****   EE_as_tp_active_pause_and_update_budgets()
 232:Generated_Source\PSoC5/ErikaOS_1_ee_oo_internal.inc **** #endif /* !__EE_MEMORY_PROTECTION__ */
 233:Generated_Source\PSoC5/ErikaOS_1_ee_oo_internal.inc **** 
 234:Generated_Source\PSoC5/ErikaOS_1_ee_oo_internal.inc **** /* return the first stacked task (the running task) without extracting it 
 235:Generated_Source\PSoC5/ErikaOS_1_ee_oo_internal.inc ****    we suppose that this function can be called ALSO at interrupt ENABLED!!!
 236:Generated_Source\PSoC5/ErikaOS_1_ee_oo_internal.inc ****    (see WaitEvent.c) */
 237:Generated_Source\PSoC5/ErikaOS_1_ee_oo_internal.inc **** #ifndef __PRIVATE_STK_QUERYFIRST__
 238:Generated_Source\PSoC5/ErikaOS_1_ee_oo_internal.inc **** __INLINE__ EE_TID  EE_stk_queryfirst(void)
 239:Generated_Source\PSoC5/ErikaOS_1_ee_oo_internal.inc **** {
 240:Generated_Source\PSoC5/ErikaOS_1_ee_oo_internal.inc ****     return EE_stkfirst;  
 241:Generated_Source\PSoC5/ErikaOS_1_ee_oo_internal.inc **** }
 242:Generated_Source\PSoC5/ErikaOS_1_ee_oo_internal.inc **** #endif /* __PRIVATE_STK_QUERYFIRST__ */
 243:Generated_Source\PSoC5/ErikaOS_1_ee_oo_internal.inc **** 
 244:Generated_Source\PSoC5/ErikaOS_1_ee_oo_internal.inc **** /* This function notifies a tick to a hardware counter.
 245:Generated_Source\PSoC5/ErikaOS_1_ee_oo_internal.inc ****    That is, the counter is
 246:Generated_Source\PSoC5/ErikaOS_1_ee_oo_internal.inc ****    incremented by 1.  It must be called into an ISR2 or into a
 247:Generated_Source\PSoC5/ErikaOS_1_ee_oo_internal.inc ****    task notify that the event linked to the counter occurred.
 248:Generated_Source\PSoC5/ErikaOS_1_ee_oo_internal.inc **** 
 249:Generated_Source\PSoC5/ErikaOS_1_ee_oo_internal.inc ****    The function will also implement the notification of expired alarms
 250:Generated_Source\PSoC5/ErikaOS_1_ee_oo_internal.inc ****    (calling an alarm callback, setting an event, or activating a
 251:Generated_Source\PSoC5/ErikaOS_1_ee_oo_internal.inc ****    task).
 252:Generated_Source\PSoC5/ErikaOS_1_ee_oo_internal.inc **** 
 253:Generated_Source\PSoC5/ErikaOS_1_ee_oo_internal.inc ****    The function can be considered atomic, and NO RESCHEDULING will
 254:Generated_Source\PSoC5/ErikaOS_1_ee_oo_internal.inc ****    take place after the execution of this function. To implement the
 255:Generated_Source\PSoC5/ErikaOS_1_ee_oo_internal.inc ****    rescheduling at task level, you can use the Schedule() or the
 256:Generated_Source\PSoC5/ErikaOS_1_ee_oo_internal.inc ****    ForceSchedule() functions just after this notification.
 257:Generated_Source\PSoC5/ErikaOS_1_ee_oo_internal.inc **** 
 258:Generated_Source\PSoC5/ErikaOS_1_ee_oo_internal.inc ****    see also internal.h
 259:Generated_Source\PSoC5/ErikaOS_1_ee_oo_internal.inc **** */
 260:Generated_Source\PSoC5/ErikaOS_1_ee_oo_internal.inc **** #if (!defined(__OO_NO_ALARMS__)) || (defined(EE_AS_SCHEDULETABLES__))
 261:Generated_Source\PSoC5/ErikaOS_1_ee_oo_internal.inc **** 
 262:Generated_Source\PSoC5/ErikaOS_1_ee_oo_internal.inc **** StatusType EE_oo_IncrementCounterHardware(CounterType CounterID);
 263:Generated_Source\PSoC5/ErikaOS_1_ee_oo_internal.inc **** void       EE_oo_IncrementCounterImplementation(CounterType CounterID);
 264:Generated_Source\PSoC5/ErikaOS_1_ee_oo_internal.inc **** 
 265:Generated_Source\PSoC5/ErikaOS_1_ee_oo_internal.inc **** /* kernel internal API */
 266:Generated_Source\PSoC5/ErikaOS_1_ee_oo_internal.inc **** #define IncrementCounterHardware EE_oo_IncrementCounterHardware
 267:Generated_Source\PSoC5/ErikaOS_1_ee_oo_internal.inc **** 
 268:Generated_Source\PSoC5/ErikaOS_1_ee_oo_internal.inc **** /* Helper function (0 as increment means next tick)*/
 269:Generated_Source\PSoC5/ErikaOS_1_ee_oo_internal.inc **** void EE_oo_counter_object_insert( CounterObjectType ObjectID, TickType
 270:Generated_Source\PSoC5/ErikaOS_1_ee_oo_internal.inc ****   increment );
 271:Generated_Source\PSoC5/ErikaOS_1_ee_oo_internal.inc **** 
 272:Generated_Source\PSoC5/ErikaOS_1_ee_oo_internal.inc **** #if defined (EE_COUNTER_OBJECTS_ROM_SIZE)
 273:Generated_Source\PSoC5/ErikaOS_1_ee_oo_internal.inc **** #if (EE_COUNTER_OBJECTS_ROM_SIZE > 0)
 274:Generated_Source\PSoC5/ErikaOS_1_ee_oo_internal.inc **** __INLINE__ void 
ARM GAS  C:\Users\schmi\AppData\Local\Temp\ccLEO1Pj.s 			page 42


 275:Generated_Source\PSoC5/ErikaOS_1_ee_oo_internal.inc ****   EE_oo_handle_abs_counter_object_insertion( CounterObjectType ObjectID,
 276:Generated_Source\PSoC5/ErikaOS_1_ee_oo_internal.inc ****     TickType absstart, TickType abscycle ) 
 277:Generated_Source\PSoC5/ErikaOS_1_ee_oo_internal.inc **** {
 278:Generated_Source\PSoC5/ErikaOS_1_ee_oo_internal.inc ****   /* These are used to evaluate alarm time handling wrap around */
 279:Generated_Source\PSoC5/ErikaOS_1_ee_oo_internal.inc ****   register TickType           alarm_time;
 280:Generated_Source\PSoC5/ErikaOS_1_ee_oo_internal.inc ****   register TickType           start_rel;
 281:Generated_Source\PSoC5/ErikaOS_1_ee_oo_internal.inc ****   register CounterType const  cnt = EE_oo_counter_object_ROM[ObjectID].c;
 282:Generated_Source\PSoC5/ErikaOS_1_ee_oo_internal.inc **** 
 283:Generated_Source\PSoC5/ErikaOS_1_ee_oo_internal.inc ****   /* first, use the alarm and set the cycle */
 284:Generated_Source\PSoC5/ErikaOS_1_ee_oo_internal.inc ****   EE_oo_counter_object_RAM[ObjectID].used = EE_TRUE;
 285:Generated_Source\PSoC5/ErikaOS_1_ee_oo_internal.inc ****   EE_oo_counter_object_RAM[ObjectID].cntcycle = abscycle;
 286:Generated_Source\PSoC5/ErikaOS_1_ee_oo_internal.inc **** 
 287:Generated_Source\PSoC5/ErikaOS_1_ee_oo_internal.inc ****   /* Handling wrap around for alarm time */
 288:Generated_Source\PSoC5/ErikaOS_1_ee_oo_internal.inc ****   start_rel = absstart - EE_counter_RAM[cnt].value;
 289:Generated_Source\PSoC5/ErikaOS_1_ee_oo_internal.inc **** 
 290:Generated_Source\PSoC5/ErikaOS_1_ee_oo_internal.inc ****   /*  When will be here start value will be already checked against counter
 291:Generated_Source\PSoC5/ErikaOS_1_ee_oo_internal.inc ****       max allowed value */
 292:Generated_Source\PSoC5/ErikaOS_1_ee_oo_internal.inc ****   if ( start_rel == 0U ) {
 293:Generated_Source\PSoC5/ErikaOS_1_ee_oo_internal.inc ****     /* start_rel == 0U -> the alarm should start now or next time that counter
 294:Generated_Source\PSoC5/ErikaOS_1_ee_oo_internal.inc ****        has this value. Has been chosen the second option */
 295:Generated_Source\PSoC5/ErikaOS_1_ee_oo_internal.inc ****     alarm_time = EE_counter_ROM[cnt].maxallowedvalue;
 296:Generated_Source\PSoC5/ErikaOS_1_ee_oo_internal.inc ****   } else if ( start_rel < EE_TYPETICK_HALF_VALUE ) {
 297:Generated_Source\PSoC5/ErikaOS_1_ee_oo_internal.inc ****     /* Normal behavior */
 298:Generated_Source\PSoC5/ErikaOS_1_ee_oo_internal.inc ****     alarm_time = start_rel - 1U;
 299:Generated_Source\PSoC5/ErikaOS_1_ee_oo_internal.inc ****   } else {
 300:Generated_Source\PSoC5/ErikaOS_1_ee_oo_internal.inc ****     /* start_rel is "negative" in this case (unsigned wrap around do the
 301:Generated_Source\PSoC5/ErikaOS_1_ee_oo_internal.inc ****        work) */
 302:Generated_Source\PSoC5/ErikaOS_1_ee_oo_internal.inc ****     alarm_time = EE_counter_ROM[cnt].maxallowedvalue + start_rel;
 303:Generated_Source\PSoC5/ErikaOS_1_ee_oo_internal.inc ****   }
 304:Generated_Source\PSoC5/ErikaOS_1_ee_oo_internal.inc **** 
 305:Generated_Source\PSoC5/ErikaOS_1_ee_oo_internal.inc ****   /* Set alarm with a relative amount of time (alarm_time already is a "0 as
 306:Generated_Source\PSoC5/ErikaOS_1_ee_oo_internal.inc ****      next tick" value)*/
 307:Generated_Source\PSoC5/ErikaOS_1_ee_oo_internal.inc ****   EE_oo_counter_object_insert(ObjectID, alarm_time);
 308:Generated_Source\PSoC5/ErikaOS_1_ee_oo_internal.inc **** }
 309:Generated_Source\PSoC5/ErikaOS_1_ee_oo_internal.inc **** 
 310:Generated_Source\PSoC5/ErikaOS_1_ee_oo_internal.inc **** __INLINE__ void 
 311:Generated_Source\PSoC5/ErikaOS_1_ee_oo_internal.inc ****   EE_oo_handle_rel_counter_object_insertion( CounterObjectType ObjectID,
 312:Generated_Source\PSoC5/ErikaOS_1_ee_oo_internal.inc ****     TickType increment, TickType relcycle )
 313:Generated_Source\PSoC5/ErikaOS_1_ee_oo_internal.inc **** {
 321              		.loc 5 313 0
 322              		.cfi_startproc
 323              		@ args = 0, pretend = 0, frame = 16
 324              		@ frame_needed = 1, uses_anonymous_args = 0
 325 0000 80B5     		push	{r7, lr}
 326              		.cfi_def_cfa_offset 8
 327              		.cfi_offset 7, -8
 328              		.cfi_offset 14, -4
 329 0002 84B0     		sub	sp, sp, #16
 330              		.cfi_def_cfa_offset 24
 331 0004 00AF     		add	r7, sp, #0
 332              		.cfi_def_cfa_register 7
 333 0006 F860     		str	r0, [r7, #12]
 334 0008 B960     		str	r1, [r7, #8]
 335 000a 7A60     		str	r2, [r7, #4]
 314:Generated_Source\PSoC5/ErikaOS_1_ee_oo_internal.inc **** 
 315:Generated_Source\PSoC5/ErikaOS_1_ee_oo_internal.inc ****   /* first, use the alarm and set the cycle */
 316:Generated_Source\PSoC5/ErikaOS_1_ee_oo_internal.inc ****   EE_oo_counter_object_RAM[ObjectID].used = EE_TRUE;
ARM GAS  C:\Users\schmi\AppData\Local\Temp\ccLEO1Pj.s 			page 43


 336              		.loc 5 316 0
 337 000c 0B4A     		ldr	r2, .L12
 338 000e FB68     		ldr	r3, [r7, #12]
 339 0010 1B01     		lsls	r3, r3, #4
 340 0012 1344     		add	r3, r3, r2
 341 0014 0122     		movs	r2, #1
 342 0016 1A60     		str	r2, [r3]
 317:Generated_Source\PSoC5/ErikaOS_1_ee_oo_internal.inc ****   EE_oo_counter_object_RAM[ObjectID].cntcycle = relcycle;
 343              		.loc 5 317 0
 344 0018 084A     		ldr	r2, .L12
 345 001a FB68     		ldr	r3, [r7, #12]
 346 001c 1B01     		lsls	r3, r3, #4
 347 001e 1344     		add	r3, r3, r2
 348 0020 0433     		adds	r3, r3, #4
 349 0022 7A68     		ldr	r2, [r7, #4]
 350 0024 1A60     		str	r2, [r3]
 318:Generated_Source\PSoC5/ErikaOS_1_ee_oo_internal.inc **** 
 319:Generated_Source\PSoC5/ErikaOS_1_ee_oo_internal.inc ****   /* then, insert the task into the delta queue with an increment equal
 320:Generated_Source\PSoC5/ErikaOS_1_ee_oo_internal.inc ****      (increment - 1U) increment equal to 0 means next tick */
 321:Generated_Source\PSoC5/ErikaOS_1_ee_oo_internal.inc ****   EE_oo_counter_object_insert(ObjectID, (increment - 1U));
 351              		.loc 5 321 0
 352 0026 BB68     		ldr	r3, [r7, #8]
 353 0028 013B     		subs	r3, r3, #1
 354 002a 1946     		mov	r1, r3
 355 002c F868     		ldr	r0, [r7, #12]
 356 002e FFF7FEFF 		bl	EE_oo_counter_object_insert
 322:Generated_Source\PSoC5/ErikaOS_1_ee_oo_internal.inc **** }
 357              		.loc 5 322 0
 358 0032 00BF     		nop
 359 0034 1037     		adds	r7, r7, #16
 360              		.cfi_def_cfa_offset 8
 361 0036 BD46     		mov	sp, r7
 362              		.cfi_def_cfa_register 13
 363              		@ sp needed
 364 0038 80BD     		pop	{r7, pc}
 365              	.L13:
 366 003a 00BF     		.align	2
 367              	.L12:
 368 003c 00000000 		.word	EE_oo_counter_object_RAM
 369              		.cfi_endproc
 370              	.LFE55:
 371              		.size	EE_oo_handle_rel_counter_object_insertion, .-EE_oo_handle_rel_counter_object_insertion
 372              		.section	.text.EE_oo_SetRelAlarm,"ax",%progbits
 373              		.align	2
 374              		.global	EE_oo_SetRelAlarm
 375              		.thumb
 376              		.thumb_func
 377              		.type	EE_oo_SetRelAlarm, %function
 378              	EE_oo_SetRelAlarm:
 379              	.LFB70:
 380              		.file 6 "Generated_Source\\PSoC5\\ErikaOS_1_ee_alsetrel.c"
   1:Generated_Source\PSoC5/ErikaOS_1_ee_alsetrel.c **** /* ###*B*###
   2:Generated_Source\PSoC5/ErikaOS_1_ee_alsetrel.c ****  * ERIKA Enterprise - a tiny RTOS for small microcontrollers
   3:Generated_Source\PSoC5/ErikaOS_1_ee_alsetrel.c ****  *
   4:Generated_Source\PSoC5/ErikaOS_1_ee_alsetrel.c ****  * Copyright (C) 2002-2008  Evidence Srl
   5:Generated_Source\PSoC5/ErikaOS_1_ee_alsetrel.c ****  *
   6:Generated_Source\PSoC5/ErikaOS_1_ee_alsetrel.c ****  * This file is part of ERIKA Enterprise.
ARM GAS  C:\Users\schmi\AppData\Local\Temp\ccLEO1Pj.s 			page 44


   7:Generated_Source\PSoC5/ErikaOS_1_ee_alsetrel.c ****  *
   8:Generated_Source\PSoC5/ErikaOS_1_ee_alsetrel.c ****  * ERIKA Enterprise is free software; you can redistribute it
   9:Generated_Source\PSoC5/ErikaOS_1_ee_alsetrel.c ****  * and/or modify it under the terms of the GNU General Public License
  10:Generated_Source\PSoC5/ErikaOS_1_ee_alsetrel.c ****  * version 2 as published by the Free Software Foundation, 
  11:Generated_Source\PSoC5/ErikaOS_1_ee_alsetrel.c ****  * (with a special exception described below).
  12:Generated_Source\PSoC5/ErikaOS_1_ee_alsetrel.c ****  *
  13:Generated_Source\PSoC5/ErikaOS_1_ee_alsetrel.c ****  * Linking this code statically or dynamically with other modules is
  14:Generated_Source\PSoC5/ErikaOS_1_ee_alsetrel.c ****  * making a combined work based on this code.  Thus, the terms and
  15:Generated_Source\PSoC5/ErikaOS_1_ee_alsetrel.c ****  * conditions of the GNU General Public License cover the whole
  16:Generated_Source\PSoC5/ErikaOS_1_ee_alsetrel.c ****  * combination.
  17:Generated_Source\PSoC5/ErikaOS_1_ee_alsetrel.c ****  *
  18:Generated_Source\PSoC5/ErikaOS_1_ee_alsetrel.c ****  * As a special exception, the copyright holders of this library give you
  19:Generated_Source\PSoC5/ErikaOS_1_ee_alsetrel.c ****  * permission to link this code with independent modules to produce an
  20:Generated_Source\PSoC5/ErikaOS_1_ee_alsetrel.c ****  * executable, regardless of the license terms of these independent
  21:Generated_Source\PSoC5/ErikaOS_1_ee_alsetrel.c ****  * modules, and to copy and distribute the resulting executable under
  22:Generated_Source\PSoC5/ErikaOS_1_ee_alsetrel.c ****  * terms of your choice, provided that you also meet, for each linked
  23:Generated_Source\PSoC5/ErikaOS_1_ee_alsetrel.c ****  * independent module, the terms and conditions of the license of that
  24:Generated_Source\PSoC5/ErikaOS_1_ee_alsetrel.c ****  * module.  An independent module is a module which is not derived from
  25:Generated_Source\PSoC5/ErikaOS_1_ee_alsetrel.c ****  * or based on this library.  If you modify this code, you may extend
  26:Generated_Source\PSoC5/ErikaOS_1_ee_alsetrel.c ****  * this exception to your version of the code, but you are not
  27:Generated_Source\PSoC5/ErikaOS_1_ee_alsetrel.c ****  * obligated to do so.  If you do not wish to do so, delete this
  28:Generated_Source\PSoC5/ErikaOS_1_ee_alsetrel.c ****  * exception statement from your version.
  29:Generated_Source\PSoC5/ErikaOS_1_ee_alsetrel.c ****  *
  30:Generated_Source\PSoC5/ErikaOS_1_ee_alsetrel.c ****  * ERIKA Enterprise is distributed in the hope that it will be
  31:Generated_Source\PSoC5/ErikaOS_1_ee_alsetrel.c ****  * useful, but WITHOUT ANY WARRANTY; without even the implied warranty
  32:Generated_Source\PSoC5/ErikaOS_1_ee_alsetrel.c ****  * of MERCHANTABILITY or FITNESS FOR A PARTICULAR PURPOSE.  See the
  33:Generated_Source\PSoC5/ErikaOS_1_ee_alsetrel.c ****  * GNU General Public License version 2 for more details.
  34:Generated_Source\PSoC5/ErikaOS_1_ee_alsetrel.c ****  *
  35:Generated_Source\PSoC5/ErikaOS_1_ee_alsetrel.c ****  * You should have received a copy of the GNU General Public License
  36:Generated_Source\PSoC5/ErikaOS_1_ee_alsetrel.c ****  * version 2 along with ERIKA Enterprise; if not, write to the
  37:Generated_Source\PSoC5/ErikaOS_1_ee_alsetrel.c ****  * Free Software Foundation, Inc., 51 Franklin Street, Fifth Floor,
  38:Generated_Source\PSoC5/ErikaOS_1_ee_alsetrel.c ****  * Boston, MA 02110-1301 USA.
  39:Generated_Source\PSoC5/ErikaOS_1_ee_alsetrel.c ****  * ###*E*### */
  40:Generated_Source\PSoC5/ErikaOS_1_ee_alsetrel.c **** 
  41:Generated_Source\PSoC5/ErikaOS_1_ee_alsetrel.c **** /*
  42:Generated_Source\PSoC5/ErikaOS_1_ee_alsetrel.c ****  * Author: 2002 Paolo Gai
  43:Generated_Source\PSoC5/ErikaOS_1_ee_alsetrel.c ****  * CVS: $Id: ee_alsetrel.c,v 1.1 2005/07/16 12:23:42 pj Exp $
  44:Generated_Source\PSoC5/ErikaOS_1_ee_alsetrel.c ****  */
  45:Generated_Source\PSoC5/ErikaOS_1_ee_alsetrel.c **** 
  46:Generated_Source\PSoC5/ErikaOS_1_ee_alsetrel.c **** /*
  47:Generated_Source\PSoC5/ErikaOS_1_ee_alsetrel.c ****  * PSoC Port and API Generation
  48:Generated_Source\PSoC5/ErikaOS_1_ee_alsetrel.c ****  * Carlos Fernando Meier Martinez
  49:Generated_Source\PSoC5/ErikaOS_1_ee_alsetrel.c ****  * Hochschule Darmstadt, Germany. 2017.
  50:Generated_Source\PSoC5/ErikaOS_1_ee_alsetrel.c ****  */
  51:Generated_Source\PSoC5/ErikaOS_1_ee_alsetrel.c ****  
  52:Generated_Source\PSoC5/ErikaOS_1_ee_alsetrel.c ****  #include "ErikaOS_1_ee_tracing.h"
  53:Generated_Source\PSoC5/ErikaOS_1_ee_alsetrel.c **** 
  54:Generated_Source\PSoC5/ErikaOS_1_ee_alsetrel.c **** #include "ErikaOS_1_ee_internal.inc"
  55:Generated_Source\PSoC5/ErikaOS_1_ee_alsetrel.c **** #if (__OO_configUSE_TRACE_FACILITY == 1)
  56:Generated_Source\PSoC5/ErikaOS_1_ee_alsetrel.c **** #include "trcKernelPort.h"
  57:Generated_Source\PSoC5/ErikaOS_1_ee_alsetrel.c **** #endif
  58:Generated_Source\PSoC5/ErikaOS_1_ee_alsetrel.c **** #if (defined(__OO_BCC1__) || defined(__OO_BCC2__) || defined(__OO_ECC1__) || defined(__OO_ECC2__)) 
  59:Generated_Source\PSoC5/ErikaOS_1_ee_alsetrel.c **** 
  60:Generated_Source\PSoC5/ErikaOS_1_ee_alsetrel.c **** /* SetRelAlarm
  61:Generated_Source\PSoC5/ErikaOS_1_ee_alsetrel.c ****    - This function occupies the AlarmID setting an alarm after increment ticks.
  62:Generated_Source\PSoC5/ErikaOS_1_ee_alsetrel.c ****    - if increment=0, E_OS_VALUE is returned.
  63:Generated_Source\PSoC5/ErikaOS_1_ee_alsetrel.c ****    - the Alarm must not be already in use
ARM GAS  C:\Users\schmi\AppData\Local\Temp\ccLEO1Pj.s 			page 45


  64:Generated_Source\PSoC5/ErikaOS_1_ee_alsetrel.c **** 
  65:Generated_Source\PSoC5/ErikaOS_1_ee_alsetrel.c ****    returns the relative value in ticks before the alarm expires
  66:Generated_Source\PSoC5/ErikaOS_1_ee_alsetrel.c ****    - it returns E_OK if all OK
  67:Generated_Source\PSoC5/ErikaOS_1_ee_alsetrel.c ****      E_OS_STATE if the Alarm is already used
  68:Generated_Source\PSoC5/ErikaOS_1_ee_alsetrel.c ****      E_OS_ID if the alarm is invalid (only Extended status)
  69:Generated_Source\PSoC5/ErikaOS_1_ee_alsetrel.c ****      E_OS_VALUE if the parameters are incorrect
  70:Generated_Source\PSoC5/ErikaOS_1_ee_alsetrel.c **** */
  71:Generated_Source\PSoC5/ErikaOS_1_ee_alsetrel.c **** 
  72:Generated_Source\PSoC5/ErikaOS_1_ee_alsetrel.c **** #ifndef __PRIVATE_SETRELALARM__
  73:Generated_Source\PSoC5/ErikaOS_1_ee_alsetrel.c **** StatusType EE_oo_SetRelAlarm(AlarmType AlarmID, 
  74:Generated_Source\PSoC5/ErikaOS_1_ee_alsetrel.c ****     TickType increment, TickType cycle)
  75:Generated_Source\PSoC5/ErikaOS_1_ee_alsetrel.c **** {
 381              		.loc 6 75 0
 382              		.cfi_startproc
 383              		@ args = 0, pretend = 0, frame = 16
 384              		@ frame_needed = 1, uses_anonymous_args = 0
 385 0000 B0B5     		push	{r4, r5, r7, lr}
 386              		.cfi_def_cfa_offset 16
 387              		.cfi_offset 4, -16
 388              		.cfi_offset 5, -12
 389              		.cfi_offset 7, -8
 390              		.cfi_offset 14, -4
 391 0002 84B0     		sub	sp, sp, #16
 392              		.cfi_def_cfa_offset 32
 393 0004 00AF     		add	r7, sp, #0
 394              		.cfi_def_cfa_register 7
 395 0006 F860     		str	r0, [r7, #12]
 396 0008 B960     		str	r1, [r7, #8]
 397 000a 7A60     		str	r2, [r7, #4]
  76:Generated_Source\PSoC5/ErikaOS_1_ee_alsetrel.c ****   /* Error Value */
  77:Generated_Source\PSoC5/ErikaOS_1_ee_alsetrel.c ****   register StatusType ev;
  78:Generated_Source\PSoC5/ErikaOS_1_ee_alsetrel.c ****   /* Primitive Lock Procedure */
  79:Generated_Source\PSoC5/ErikaOS_1_ee_alsetrel.c ****   EE_OS_DECLARE_AND_ENTER_CRITICAL_SECTION();
 398              		.loc 6 79 0
 399 000c FFF7FEFF 		bl	EE_hal_begin_nested_primitive
 400 0010 0546     		mov	r5, r0
  80:Generated_Source\PSoC5/ErikaOS_1_ee_alsetrel.c **** 
  81:Generated_Source\PSoC5/ErikaOS_1_ee_alsetrel.c **** #if (__OO_configUSE_TRACE_FACILITY == 1)
  82:Generated_Source\PSoC5/ErikaOS_1_ee_alsetrel.c ****     traceALARM_SET_REL_ALARM(AlarmID, increment, cycle)
  83:Generated_Source\PSoC5/ErikaOS_1_ee_alsetrel.c **** #endif    
  84:Generated_Source\PSoC5/ErikaOS_1_ee_alsetrel.c ****   EE_ORTI_set_service_in(EE_SERVICETRACE_SETRELALARM);
 401              		.loc 6 84 0
 402 0012 2A20     		movs	r0, #42
 403 0014 FFF7FEFF 		bl	EE_ORTI_set_service_in
  85:Generated_Source\PSoC5/ErikaOS_1_ee_alsetrel.c **** 
  86:Generated_Source\PSoC5/ErikaOS_1_ee_alsetrel.c ****   EE_as_monitoring_the_stack();
 404              		.loc 6 86 0
 405 0018 FFF7FEFF 		bl	EE_as_monitoring_the_stack
  87:Generated_Source\PSoC5/ErikaOS_1_ee_alsetrel.c **** 
  88:Generated_Source\PSoC5/ErikaOS_1_ee_alsetrel.c **** #ifdef EE_SERVICE_PROTECTION__
  89:Generated_Source\PSoC5/ErikaOS_1_ee_alsetrel.c ****   /* [OS093]: If interrupts are disabled/suspended by a Task/OsIsr and the
  90:Generated_Source\PSoC5/ErikaOS_1_ee_alsetrel.c ****       Task/OsIsr calls any OS service (excluding the interrupt services)
  91:Generated_Source\PSoC5/ErikaOS_1_ee_alsetrel.c ****       then the Operating System shall ignore the service AND shall return
  92:Generated_Source\PSoC5/ErikaOS_1_ee_alsetrel.c ****       E_OS_DISABLEDINT if the service returns a StatusType value. */
  93:Generated_Source\PSoC5/ErikaOS_1_ee_alsetrel.c ****   /* [OS088]: If an OS-Application makes a service call from the wrong context
  94:Generated_Source\PSoC5/ErikaOS_1_ee_alsetrel.c ****       AND is currently not inside a Category 1 ISR the Operating System module
  95:Generated_Source\PSoC5/ErikaOS_1_ee_alsetrel.c ****       shall not perform the requested action (the service call shall have no
ARM GAS  C:\Users\schmi\AppData\Local\Temp\ccLEO1Pj.s 			page 46


  96:Generated_Source\PSoC5/ErikaOS_1_ee_alsetrel.c ****       effect), and return E_OS_CALLEVEL (see [12], section 13.1) or the
  97:Generated_Source\PSoC5/ErikaOS_1_ee_alsetrel.c ****       invalid value of  the service. (BSW11009, BSW11013) */
  98:Generated_Source\PSoC5/ErikaOS_1_ee_alsetrel.c ****   if ( EE_as_execution_context > ISR2_Context ) {
  99:Generated_Source\PSoC5/ErikaOS_1_ee_alsetrel.c ****     ev = E_OS_CALLEVEL;
 100:Generated_Source\PSoC5/ErikaOS_1_ee_alsetrel.c ****   } else if ( EE_oo_check_disableint_error() ) {
 101:Generated_Source\PSoC5/ErikaOS_1_ee_alsetrel.c ****     ev = E_OS_DISABLEDINT;
 102:Generated_Source\PSoC5/ErikaOS_1_ee_alsetrel.c ****   } else
 103:Generated_Source\PSoC5/ErikaOS_1_ee_alsetrel.c **** #endif /* EE_SERVICE_PROTECTION__ */
 104:Generated_Source\PSoC5/ErikaOS_1_ee_alsetrel.c **** 
 105:Generated_Source\PSoC5/ErikaOS_1_ee_alsetrel.c **** #ifdef EE_AS_RPC__
 106:Generated_Source\PSoC5/ErikaOS_1_ee_alsetrel.c ****   if ( EE_AS_ID_REMOTE(AlarmID) ) {
 107:Generated_Source\PSoC5/ErikaOS_1_ee_alsetrel.c ****     EE_os_param unmarked_alarm_id, as_increment, as_cycle;
 108:Generated_Source\PSoC5/ErikaOS_1_ee_alsetrel.c ****     unmarked_alarm_id.value_param = EE_AS_UNMARK_REMOTE_ID(AlarmID);
 109:Generated_Source\PSoC5/ErikaOS_1_ee_alsetrel.c ****     as_increment.value_param = increment;
 110:Generated_Source\PSoC5/ErikaOS_1_ee_alsetrel.c ****     as_cycle.value_param = cycle;
 111:Generated_Source\PSoC5/ErikaOS_1_ee_alsetrel.c ****     /* forward the request to another CPU in synchronous way */
 112:Generated_Source\PSoC5/ErikaOS_1_ee_alsetrel.c **** 
 113:Generated_Source\PSoC5/ErikaOS_1_ee_alsetrel.c ****     ev = EE_as_rpc(OSServiceId_SetRelAlarm, unmarked_alarm_id, as_increment,
 114:Generated_Source\PSoC5/ErikaOS_1_ee_alsetrel.c ****       as_cycle);
 115:Generated_Source\PSoC5/ErikaOS_1_ee_alsetrel.c ****   } else {
 116:Generated_Source\PSoC5/ErikaOS_1_ee_alsetrel.c **** #endif /* EE_AS_RPC__ */
 117:Generated_Source\PSoC5/ErikaOS_1_ee_alsetrel.c **** 
 118:Generated_Source\PSoC5/ErikaOS_1_ee_alsetrel.c **** /* If local alarm are not defined cut everything else */
 119:Generated_Source\PSoC5/ErikaOS_1_ee_alsetrel.c **** #if (defined(EE_MAX_ALARM)) && (EE_MAX_ALARM > 0U)
 120:Generated_Source\PSoC5/ErikaOS_1_ee_alsetrel.c **** 
 121:Generated_Source\PSoC5/ErikaOS_1_ee_alsetrel.c **** #if (defined(EE_AS_OSAPPLICATIONS__)) && (defined(EE_SERVICE_PROTECTION__))
 122:Generated_Source\PSoC5/ErikaOS_1_ee_alsetrel.c ****     if ( AlarmID >= EE_MAX_ALARM ) {
 123:Generated_Source\PSoC5/ErikaOS_1_ee_alsetrel.c ****       ev = E_OS_ID;
 124:Generated_Source\PSoC5/ErikaOS_1_ee_alsetrel.c ****     } else if ( EE_ALARM_ACCESS_ERR(AlarmID, EE_as_active_app) ) {
 125:Generated_Source\PSoC5/ErikaOS_1_ee_alsetrel.c ****       ev = E_OS_ACCESS;
 126:Generated_Source\PSoC5/ErikaOS_1_ee_alsetrel.c ****     } else
 127:Generated_Source\PSoC5/ErikaOS_1_ee_alsetrel.c **** #elif defined(__OO_EXTENDED_STATUS__)
 128:Generated_Source\PSoC5/ErikaOS_1_ee_alsetrel.c ****     if ( AlarmID >= EE_MAX_ALARM ) {
 406              		.loc 6 128 0
 407 001c FB68     		ldr	r3, [r7, #12]
 408 001e 002B     		cmp	r3, #0
 409 0020 01D0     		beq	.L15
 129:Generated_Source\PSoC5/ErikaOS_1_ee_alsetrel.c ****       ev = E_OS_ID;
 410              		.loc 6 129 0
 411 0022 0324     		movs	r4, #3
 412 0024 4FE0     		b	.L22
 413              	.L15:
 130:Generated_Source\PSoC5/ErikaOS_1_ee_alsetrel.c ****     } else
 131:Generated_Source\PSoC5/ErikaOS_1_ee_alsetrel.c **** #endif /* EE_AS_OSAPPLICATIONS__ || E_SERVICE_PROTECTION__ ||
 132:Generated_Source\PSoC5/ErikaOS_1_ee_alsetrel.c **** __OO_EXTENDED_STATUS__ */
 133:Generated_Source\PSoC5/ErikaOS_1_ee_alsetrel.c **** #ifdef __OO_EXTENDED_STATUS__
 134:Generated_Source\PSoC5/ErikaOS_1_ee_alsetrel.c ****     if ( (increment > EE_counter_ROM[EE_oo_counter_object_ROM[AlarmID].c].
 414              		.loc 6 134 0
 415 0026 2D49     		ldr	r1, .L23
 416 0028 FA68     		ldr	r2, [r7, #12]
 417 002a 1346     		mov	r3, r2
 418 002c 5B00     		lsls	r3, r3, #1
 419 002e 1344     		add	r3, r3, r2
 420 0030 9B00     		lsls	r3, r3, #2
 421 0032 0B44     		add	r3, r3, r1
 422 0034 1A68     		ldr	r2, [r3]
 423 0036 2A49     		ldr	r1, .L23+4
ARM GAS  C:\Users\schmi\AppData\Local\Temp\ccLEO1Pj.s 			page 47


 424 0038 1346     		mov	r3, r2
 425 003a 5B00     		lsls	r3, r3, #1
 426 003c 1344     		add	r3, r3, r2
 427 003e 9B00     		lsls	r3, r3, #2
 428 0040 0B44     		add	r3, r3, r1
 429 0042 1A68     		ldr	r2, [r3]
 430 0044 BB68     		ldr	r3, [r7, #8]
 431 0046 9A42     		cmp	r2, r3
 432 0048 27D3     		bcc	.L17
 135:Generated_Source\PSoC5/ErikaOS_1_ee_alsetrel.c ****         maxallowedvalue) || ((cycle != 0U) &&
 433              		.loc 6 135 0
 434 004a 7B68     		ldr	r3, [r7, #4]
 435 004c 002B     		cmp	r3, #0
 436 004e 26D0     		beq	.L18
 136:Generated_Source\PSoC5/ErikaOS_1_ee_alsetrel.c ****       ((cycle < EE_counter_ROM[EE_oo_counter_object_ROM[AlarmID].c].mincycle) ||
 437              		.loc 6 136 0 discriminator 1
 438 0050 2249     		ldr	r1, .L23
 439 0052 FA68     		ldr	r2, [r7, #12]
 440 0054 1346     		mov	r3, r2
 441 0056 5B00     		lsls	r3, r3, #1
 442 0058 1344     		add	r3, r3, r2
 443 005a 9B00     		lsls	r3, r3, #2
 444 005c 0B44     		add	r3, r3, r1
 445 005e 1A68     		ldr	r2, [r3]
 446 0060 1F49     		ldr	r1, .L23+4
 447 0062 1346     		mov	r3, r2
 448 0064 5B00     		lsls	r3, r3, #1
 449 0066 1344     		add	r3, r3, r2
 450 0068 9B00     		lsls	r3, r3, #2
 451 006a 0B44     		add	r3, r3, r1
 452 006c 0833     		adds	r3, r3, #8
 453 006e 1A68     		ldr	r2, [r3]
 135:Generated_Source\PSoC5/ErikaOS_1_ee_alsetrel.c ****         maxallowedvalue) || ((cycle != 0U) &&
 454              		.loc 6 135 0 discriminator 1
 455 0070 7B68     		ldr	r3, [r7, #4]
 456 0072 9A42     		cmp	r2, r3
 457 0074 11D8     		bhi	.L17
 137:Generated_Source\PSoC5/ErikaOS_1_ee_alsetrel.c ****         (cycle > EE_counter_ROM[EE_oo_counter_object_ROM[AlarmID].c].
 458              		.loc 6 137 0
 459 0076 1949     		ldr	r1, .L23
 460 0078 FA68     		ldr	r2, [r7, #12]
 461 007a 1346     		mov	r3, r2
 462 007c 5B00     		lsls	r3, r3, #1
 463 007e 1344     		add	r3, r3, r2
 464 0080 9B00     		lsls	r3, r3, #2
 465 0082 0B44     		add	r3, r3, r1
 466 0084 1A68     		ldr	r2, [r3]
 467 0086 1649     		ldr	r1, .L23+4
 468 0088 1346     		mov	r3, r2
 469 008a 5B00     		lsls	r3, r3, #1
 470 008c 1344     		add	r3, r3, r2
 471 008e 9B00     		lsls	r3, r3, #2
 472 0090 0B44     		add	r3, r3, r1
 473 0092 1A68     		ldr	r2, [r3]
 136:Generated_Source\PSoC5/ErikaOS_1_ee_alsetrel.c ****       ((cycle < EE_counter_ROM[EE_oo_counter_object_ROM[AlarmID].c].mincycle) ||
 474              		.loc 6 136 0
 475 0094 7B68     		ldr	r3, [r7, #4]
ARM GAS  C:\Users\schmi\AppData\Local\Temp\ccLEO1Pj.s 			page 48


 476 0096 9A42     		cmp	r2, r3
 477 0098 01D2     		bcs	.L18
 478              	.L17:
 138:Generated_Source\PSoC5/ErikaOS_1_ee_alsetrel.c ****           maxallowedvalue))) )
 139:Generated_Source\PSoC5/ErikaOS_1_ee_alsetrel.c ****     {
 140:Generated_Source\PSoC5/ErikaOS_1_ee_alsetrel.c ****       ev = E_OS_VALUE;
 479              		.loc 6 140 0
 480 009a 0824     		movs	r4, #8
 481 009c 13E0     		b	.L22
 482              	.L18:
 141:Generated_Source\PSoC5/ErikaOS_1_ee_alsetrel.c ****     } else
 142:Generated_Source\PSoC5/ErikaOS_1_ee_alsetrel.c **** #endif /* __OO_EXTENDED_STATUS__ */
 143:Generated_Source\PSoC5/ErikaOS_1_ee_alsetrel.c **** 
 144:Generated_Source\PSoC5/ErikaOS_1_ee_alsetrel.c ****     /* OS304: */
 145:Generated_Source\PSoC5/ErikaOS_1_ee_alsetrel.c ****     if ( increment == 0U ) {
 483              		.loc 6 145 0
 484 009e BB68     		ldr	r3, [r7, #8]
 485 00a0 002B     		cmp	r3, #0
 486 00a2 01D1     		bne	.L19
 146:Generated_Source\PSoC5/ErikaOS_1_ee_alsetrel.c ****       ev = E_OS_VALUE;
 487              		.loc 6 146 0
 488 00a4 0824     		movs	r4, #8
 489 00a6 0EE0     		b	.L22
 490              	.L19:
 147:Generated_Source\PSoC5/ErikaOS_1_ee_alsetrel.c ****     } else if ( EE_oo_counter_object_RAM[AlarmID].used ) {
 491              		.loc 6 147 0
 492 00a8 0E4A     		ldr	r2, .L23+8
 493 00aa FB68     		ldr	r3, [r7, #12]
 494 00ac 1B01     		lsls	r3, r3, #4
 495 00ae 1344     		add	r3, r3, r2
 496 00b0 1B68     		ldr	r3, [r3]
 497 00b2 002B     		cmp	r3, #0
 498 00b4 01D0     		beq	.L20
 148:Generated_Source\PSoC5/ErikaOS_1_ee_alsetrel.c ****       ev = E_OS_STATE;
 499              		.loc 6 148 0
 500 00b6 0724     		movs	r4, #7
 501 00b8 05E0     		b	.L22
 502              	.L20:
 149:Generated_Source\PSoC5/ErikaOS_1_ee_alsetrel.c ****     } else {
 150:Generated_Source\PSoC5/ErikaOS_1_ee_alsetrel.c ****       EE_oo_handle_rel_counter_object_insertion(AlarmID, increment, cycle);
 503              		.loc 6 150 0
 504 00ba 7A68     		ldr	r2, [r7, #4]
 505 00bc B968     		ldr	r1, [r7, #8]
 506 00be F868     		ldr	r0, [r7, #12]
 507 00c0 FFF7FEFF 		bl	EE_oo_handle_rel_counter_object_insertion
 151:Generated_Source\PSoC5/ErikaOS_1_ee_alsetrel.c ****       ev = E_OK;
 508              		.loc 6 151 0
 509 00c4 0024     		movs	r4, #0
 510              	.L22:
 152:Generated_Source\PSoC5/ErikaOS_1_ee_alsetrel.c ****     }
 153:Generated_Source\PSoC5/ErikaOS_1_ee_alsetrel.c **** #else /* EE_MAX_ALARM > 0U */
 154:Generated_Source\PSoC5/ErikaOS_1_ee_alsetrel.c ****     {
 155:Generated_Source\PSoC5/ErikaOS_1_ee_alsetrel.c ****       ev = E_OS_ID;
 156:Generated_Source\PSoC5/ErikaOS_1_ee_alsetrel.c ****     }
 157:Generated_Source\PSoC5/ErikaOS_1_ee_alsetrel.c **** #endif /* EE_MAX_ALARM > 0U */
 158:Generated_Source\PSoC5/ErikaOS_1_ee_alsetrel.c **** 
 159:Generated_Source\PSoC5/ErikaOS_1_ee_alsetrel.c **** #ifdef EE_AS_RPC__
ARM GAS  C:\Users\schmi\AppData\Local\Temp\ccLEO1Pj.s 			page 49


 160:Generated_Source\PSoC5/ErikaOS_1_ee_alsetrel.c ****   }
 161:Generated_Source\PSoC5/ErikaOS_1_ee_alsetrel.c **** #endif /* EE_AS_RPC__ */
 162:Generated_Source\PSoC5/ErikaOS_1_ee_alsetrel.c **** 
 163:Generated_Source\PSoC5/ErikaOS_1_ee_alsetrel.c ****   if ( ev != E_OK ) {
 164:Generated_Source\PSoC5/ErikaOS_1_ee_alsetrel.c ****     EE_ORTI_set_lasterror(ev);
 165:Generated_Source\PSoC5/ErikaOS_1_ee_alsetrel.c ****     EE_oo_notify_error_SetRelAlarm(AlarmID, increment, cycle, ev);
 166:Generated_Source\PSoC5/ErikaOS_1_ee_alsetrel.c ****   }
 167:Generated_Source\PSoC5/ErikaOS_1_ee_alsetrel.c **** 
 168:Generated_Source\PSoC5/ErikaOS_1_ee_alsetrel.c ****   EE_ORTI_set_service_out(EE_SERVICETRACE_SETRELALARM);
 511              		.loc 6 168 0
 512 00c6 2A20     		movs	r0, #42
 513 00c8 FFF7FEFF 		bl	EE_ORTI_set_service_out
 169:Generated_Source\PSoC5/ErikaOS_1_ee_alsetrel.c ****   EE_OS_EXIT_CRITICAL_SECTION();
 514              		.loc 6 169 0
 515 00cc 2846     		mov	r0, r5
 516 00ce FFF7FEFF 		bl	EE_hal_end_nested_primitive
 170:Generated_Source\PSoC5/ErikaOS_1_ee_alsetrel.c **** 
 171:Generated_Source\PSoC5/ErikaOS_1_ee_alsetrel.c ****   return ev;
 517              		.loc 6 171 0
 518 00d2 2346     		mov	r3, r4
 172:Generated_Source\PSoC5/ErikaOS_1_ee_alsetrel.c **** }
 519              		.loc 6 172 0
 520 00d4 1846     		mov	r0, r3
 521 00d6 1037     		adds	r7, r7, #16
 522              		.cfi_def_cfa_offset 16
 523 00d8 BD46     		mov	sp, r7
 524              		.cfi_def_cfa_register 13
 525              		@ sp needed
 526 00da B0BD     		pop	{r4, r5, r7, pc}
 527              	.L24:
 528              		.align	2
 529              	.L23:
 530 00dc 00000000 		.word	EE_oo_counter_object_ROM
 531 00e0 00000000 		.word	EE_counter_ROM
 532 00e4 00000000 		.word	EE_oo_counter_object_RAM
 533              		.cfi_endproc
 534              	.LFE70:
 535              		.size	EE_oo_SetRelAlarm, .-EE_oo_SetRelAlarm
 536              		.text
 537              	.Letext0:
 538              		.file 7 "Generated_Source\\PSoC5\\ErikaOS_1_common_ee_types.inc"
 539              		.file 8 "Generated_Source\\PSoC5\\ErikaOS_1_common_ee_primitives.inc"
 540              		.file 9 "Generated_Source\\PSoC5\\ErikaOS_1_cortex_mx_ee_context.inc"
 541              		.file 10 "Generated_Source\\PSoC5\\ErikaOS_1_ee_oo_intfunc.inc"