ARM GAS  C:\Users\schmi\AppData\Local\Temp\ccp224k5.s 			page 1


   1              		.syntax unified
   2              		.cpu cortex-m3
   3              		.fpu softvfp
   4              		.eabi_attribute 20, 1
   5              		.eabi_attribute 21, 1
   6              		.eabi_attribute 23, 3
   7              		.eabi_attribute 24, 1
   8              		.eabi_attribute 25, 1
   9              		.eabi_attribute 26, 1
  10              		.eabi_attribute 30, 1
  11              		.eabi_attribute 34, 1
  12              		.eabi_attribute 18, 4
  13              		.thumb
  14              		.syntax unified
  15              		.file	"Joystick.c"
  16              		.text
  17              	.Ltext0:
  18              		.cfi_sections	.debug_frame
  19              		.section	.text.joystick_init,"ax",%progbits
  20              		.align	2
  21              		.global	joystick_init
  22              		.thumb
  23              		.thumb_func
  24              		.type	joystick_init, %function
  25              	joystick_init:
  26              	.LFB0:
  27              		.file 1 "Joystick.c"
   1:Joystick.c    **** /* ========================================
   2:Joystick.c    ****  *
   3:Joystick.c    ****  * Copyright YOUR COMPANY, THE YEAR
   4:Joystick.c    ****  * All Rights Reserved
   5:Joystick.c    ****  * UNPUBLISHED, LICENSED SOFTWARE.
   6:Joystick.c    ****  *
   7:Joystick.c    ****  * CONFIDENTIAL AND PROPRIETARY INFORMATION
   8:Joystick.c    ****  * WHICH IS THE PROPERTY OF your company.
   9:Joystick.c    ****  *
  10:Joystick.c    ****  * ========================================
  11:Joystick.c    **** */
  12:Joystick.c    **** 
  13:Joystick.c    **** /* [] END OF FILE */
  14:Joystick.c    **** 
  15:Joystick.c    **** #include "joystick.h"
  16:Joystick.c    **** #include "ADC_Joy.h"
  17:Joystick.c    **** 
  18:Joystick.c    **** RC_t joystick_init(){
  28              		.loc 1 18 0
  29              		.cfi_startproc
  30              		@ args = 0, pretend = 0, frame = 0
  31              		@ frame_needed = 0, uses_anonymous_args = 0
  32 0000 08B5     		push	{r3, lr}
  33              		.cfi_def_cfa_offset 8
  34              		.cfi_offset 3, -8
  35              		.cfi_offset 14, -4
  19:Joystick.c    ****     ADC_Joy_Start();
  36              		.loc 1 19 0
  37 0002 FFF7FEFF 		bl	ADC_Joy_Start
  38              	.LVL0:
ARM GAS  C:\Users\schmi\AppData\Local\Temp\ccp224k5.s 			page 2


  20:Joystick.c    **** }
  39              		.loc 1 20 0
  40 0006 08BD     		pop	{r3, pc}
  41              		.cfi_endproc
  42              	.LFE0:
  43              		.size	joystick_init, .-joystick_init
  44              		.section	.text.joystick_get_horizontal,"ax",%progbits
  45              		.align	2
  46              		.global	joystick_get_horizontal
  47              		.thumb
  48              		.thumb_func
  49              		.type	joystick_get_horizontal, %function
  50              	joystick_get_horizontal:
  51              	.LFB1:
  21:Joystick.c    **** 
  22:Joystick.c    **** joystick_t joystick_get_horizontal(){
  52              		.loc 1 22 0
  53              		.cfi_startproc
  54              		@ args = 0, pretend = 0, frame = 0
  55              		@ frame_needed = 0, uses_anonymous_args = 0
  56 0000 08B5     		push	{r3, lr}
  57              		.cfi_def_cfa_offset 8
  58              		.cfi_offset 3, -8
  59              		.cfi_offset 14, -4
  23:Joystick.c    ****     int16_t result;
  24:Joystick.c    ****     // result = ADC_Joy_GetResult16(0);
  25:Joystick.c    ****     ADC_Joy_StartConvert();
  60              		.loc 1 25 0
  61 0002 FFF7FEFF 		bl	ADC_Joy_StartConvert
  62              	.LVL1:
  63              	.L4:
  26:Joystick.c    ****     while(ADC_Joy_IsEndConversion(ADC_Joy_RETURN_STATUS) == 0);
  64              		.loc 1 26 0 discriminator 1
  65 0006 0120     		movs	r0, #1
  66 0008 FFF7FEFF 		bl	ADC_Joy_IsEndConversion
  67              	.LVL2:
  68 000c 0028     		cmp	r0, #0
  69 000e FAD0     		beq	.L4
  27:Joystick.c    ****     result = ADC_Joy_GetResult16(0);
  70              		.loc 1 27 0
  71 0010 0020     		movs	r0, #0
  72 0012 FFF7FEFF 		bl	ADC_Joy_GetResult16
  73              	.LVL3:
  28:Joystick.c    ****     //ADC_Joy_Stop();
  29:Joystick.c    ****     if(result > 140){
  74              		.loc 1 29 0
  75 0016 8C28     		cmp	r0, #140
  76 0018 03DC     		bgt	.L6
  30:Joystick.c    ****         return right; 
  31:Joystick.c    ****     }else if (result < 120){
  77              		.loc 1 31 0
  78 001a 7728     		cmp	r0, #119
  79 001c 03DC     		bgt	.L7
  32:Joystick.c    ****         return left;
  80              		.loc 1 32 0
  81 001e 0220     		movs	r0, #2
  82              	.LVL4:
ARM GAS  C:\Users\schmi\AppData\Local\Temp\ccp224k5.s 			page 3


  83 0020 08BD     		pop	{r3, pc}
  84              	.LVL5:
  85              	.L6:
  30:Joystick.c    ****         return right; 
  86              		.loc 1 30 0
  87 0022 0320     		movs	r0, #3
  88              	.LVL6:
  89 0024 08BD     		pop	{r3, pc}
  90              	.LVL7:
  91              	.L7:
  33:Joystick.c    ****     }else{
  34:Joystick.c    ****         return initial;
  92              		.loc 1 34 0
  93 0026 0420     		movs	r0, #4
  94              	.LVL8:
  35:Joystick.c    ****     }
  36:Joystick.c    **** }
  95              		.loc 1 36 0
  96 0028 08BD     		pop	{r3, pc}
  97              		.cfi_endproc
  98              	.LFE1:
  99              		.size	joystick_get_horizontal, .-joystick_get_horizontal
 100 002a 00BF     		.section	.text.joystick_get_vertical,"ax",%progbits
 101              		.align	2
 102              		.global	joystick_get_vertical
 103              		.thumb
 104              		.thumb_func
 105              		.type	joystick_get_vertical, %function
 106              	joystick_get_vertical:
 107              	.LFB2:
  37:Joystick.c    **** 
  38:Joystick.c    **** joystick_t joystick_get_vertical(){
 108              		.loc 1 38 0
 109              		.cfi_startproc
 110              		@ args = 0, pretend = 0, frame = 0
 111              		@ frame_needed = 0, uses_anonymous_args = 0
 112 0000 08B5     		push	{r3, lr}
 113              		.cfi_def_cfa_offset 8
 114              		.cfi_offset 3, -8
 115              		.cfi_offset 14, -4
  39:Joystick.c    ****     int16_t result;
  40:Joystick.c    ****     //ADC_Joy_Start();
  41:Joystick.c    ****     result = ADC_Joy_GetResult16(1);
 116              		.loc 1 41 0
 117 0002 0120     		movs	r0, #1
 118 0004 FFF7FEFF 		bl	ADC_Joy_GetResult16
 119              	.LVL9:
  42:Joystick.c    ****     //ADC_Joy_Stop();
  43:Joystick.c    ****     if(result > 140){
 120              		.loc 1 43 0
 121 0008 8C28     		cmp	r0, #140
 122 000a 03DC     		bgt	.L11
  44:Joystick.c    ****         return up; 
  45:Joystick.c    ****     }else if (result < 120){
 123              		.loc 1 45 0
 124 000c 7728     		cmp	r0, #119
 125 000e 03DC     		bgt	.L12
ARM GAS  C:\Users\schmi\AppData\Local\Temp\ccp224k5.s 			page 4


  46:Joystick.c    ****         return down;
 126              		.loc 1 46 0
 127 0010 0120     		movs	r0, #1
 128              	.LVL10:
 129 0012 08BD     		pop	{r3, pc}
 130              	.LVL11:
 131              	.L11:
  44:Joystick.c    ****         return up; 
 132              		.loc 1 44 0
 133 0014 0020     		movs	r0, #0
 134              	.LVL12:
 135 0016 08BD     		pop	{r3, pc}
 136              	.LVL13:
 137              	.L12:
  47:Joystick.c    ****     }else{
  48:Joystick.c    ****         return initial;
 138              		.loc 1 48 0
 139 0018 0420     		movs	r0, #4
 140              	.LVL14:
  49:Joystick.c    ****     }
  50:Joystick.c    **** }...
 141              		.loc 1 50 0
 142 001a 08BD     		pop	{r3, pc}
 143              		.cfi_endproc
 144              	.LFE2:
 145              		.size	joystick_get_vertical, .-joystick_get_vertical
 146              		.text
 147              	.Letext0:
 148              		.file 2 ".\\source\\bsw/global.h"
 149              		.file 3 "joystick.h"
 150              		.file 4 "c:\\program files (x86)\\cypress\\psoc creator\\4.4\\psoc creator\\import\\gnu\\arm\\5.4.
 151              		.file 5 "c:\\program files (x86)\\cypress\\psoc creator\\4.4\\psoc creator\\import\\gnu\\arm\\5.4.
 152              		.file 6 "Generated_Source\\PSoC5/ADC_Joy.h"