ARM GAS  C:\Users\schmi\AppData\Local\Temp\ccJ6kb1p.s 			page 1


   1              		.syntax unified
   2              		.cpu cortex-m3
   3              		.fpu softvfp
   4              		.eabi_attribute 20, 1
   5              		.eabi_attribute 21, 1
   6              		.eabi_attribute 23, 3
   7              		.eabi_attribute 24, 1
   8              		.eabi_attribute 25, 1
   9              		.eabi_attribute 26, 1
  10              		.eabi_attribute 30, 6
  11              		.eabi_attribute 34, 1
  12              		.eabi_attribute 18, 4
  13              		.thumb
  14              		.syntax unified
  15              		.file	"jsmn.c"
  16              		.text
  17              	.Ltext0:
  18              		.cfi_sections	.debug_frame
  19              		.section	.text.jsmn_alloc_token,"ax",%progbits
  20              		.align	2
  21              		.thumb
  22              		.thumb_func
  23              		.type	jsmn_alloc_token, %function
  24              	jsmn_alloc_token:
  25              	.LFB0:
  26              		.file 1 ".\\source\\bsw\\json/jsmn.h"
   1:.\source\bsw\json/jsmn.h **** /*
   2:.\source\bsw\json/jsmn.h ****  * MIT License
   3:.\source\bsw\json/jsmn.h ****  *
   4:.\source\bsw\json/jsmn.h ****  * Copyright (c) 2010 Serge Zaitsev
   5:.\source\bsw\json/jsmn.h ****  *
   6:.\source\bsw\json/jsmn.h ****  * Permission is hereby granted, free of charge, to any person obtaining a copy
   7:.\source\bsw\json/jsmn.h ****  * of this software and associated documentation files (the "Software"), to deal
   8:.\source\bsw\json/jsmn.h ****  * in the Software without restriction, including without limitation the rights
   9:.\source\bsw\json/jsmn.h ****  * to use, copy, modify, merge, publish, distribute, sublicense, and/or sell
  10:.\source\bsw\json/jsmn.h ****  * copies of the Software, and to permit persons to whom the Software is
  11:.\source\bsw\json/jsmn.h ****  * furnished to do so, subject to the following conditions:
  12:.\source\bsw\json/jsmn.h ****  *
  13:.\source\bsw\json/jsmn.h ****  * The above copyright notice and this permission notice shall be included in
  14:.\source\bsw\json/jsmn.h ****  * all copies or substantial portions of the Software.
  15:.\source\bsw\json/jsmn.h ****  *
  16:.\source\bsw\json/jsmn.h ****  * THE SOFTWARE IS PROVIDED "AS IS", WITHOUT WARRANTY OF ANY KIND, EXPRESS OR
  17:.\source\bsw\json/jsmn.h ****  * IMPLIED, INCLUDING BUT NOT LIMITED TO THE WARRANTIES OF MERCHANTABILITY,
  18:.\source\bsw\json/jsmn.h ****  * FITNESS FOR A PARTICULAR PURPOSE AND NONINFRINGEMENT. IN NO EVENT SHALL THE
  19:.\source\bsw\json/jsmn.h ****  * AUTHORS OR COPYRIGHT HOLDERS BE LIABLE FOR ANY CLAIM, DAMAGES OR OTHER
  20:.\source\bsw\json/jsmn.h ****  * LIABILITY, WHETHER IN AN ACTION OF CONTRACT, TORT OR OTHERWISE, ARISING FROM,
  21:.\source\bsw\json/jsmn.h ****  * OUT OF OR IN CONNECTION WITH THE SOFTWARE OR THE USE OR OTHER DEALINGS IN THE
  22:.\source\bsw\json/jsmn.h ****  * SOFTWARE.
  23:.\source\bsw\json/jsmn.h ****  */
  24:.\source\bsw\json/jsmn.h **** #ifndef JSMN_H
  25:.\source\bsw\json/jsmn.h **** #define JSMN_H
  26:.\source\bsw\json/jsmn.h **** 
  27:.\source\bsw\json/jsmn.h **** #include <stddef.h>
  28:.\source\bsw\json/jsmn.h **** 
  29:.\source\bsw\json/jsmn.h **** #ifdef __cplusplus
  30:.\source\bsw\json/jsmn.h **** extern "C" {
  31:.\source\bsw\json/jsmn.h **** #endif
ARM GAS  C:\Users\schmi\AppData\Local\Temp\ccJ6kb1p.s 			page 2


  32:.\source\bsw\json/jsmn.h **** 
  33:.\source\bsw\json/jsmn.h **** #ifdef JSMN_STATIC
  34:.\source\bsw\json/jsmn.h **** #define JSMN_API static
  35:.\source\bsw\json/jsmn.h **** #else
  36:.\source\bsw\json/jsmn.h **** #define JSMN_API extern
  37:.\source\bsw\json/jsmn.h **** #endif
  38:.\source\bsw\json/jsmn.h **** 
  39:.\source\bsw\json/jsmn.h **** /**
  40:.\source\bsw\json/jsmn.h ****  * JSON type identifier. Basic types are:
  41:.\source\bsw\json/jsmn.h ****  * 	o Object
  42:.\source\bsw\json/jsmn.h ****  * 	o Array
  43:.\source\bsw\json/jsmn.h ****  * 	o String
  44:.\source\bsw\json/jsmn.h ****  * 	o Other primitive: number, boolean (true/false) or null
  45:.\source\bsw\json/jsmn.h ****  */
  46:.\source\bsw\json/jsmn.h **** typedef enum {
  47:.\source\bsw\json/jsmn.h ****   JSMN_UNDEFINED = 0,
  48:.\source\bsw\json/jsmn.h ****   JSMN_OBJECT = 1 << 0,
  49:.\source\bsw\json/jsmn.h ****   JSMN_ARRAY = 1 << 1,
  50:.\source\bsw\json/jsmn.h ****   JSMN_STRING = 1 << 2,
  51:.\source\bsw\json/jsmn.h ****   JSMN_PRIMITIVE = 1 << 3
  52:.\source\bsw\json/jsmn.h **** } jsmntype_t;
  53:.\source\bsw\json/jsmn.h **** 
  54:.\source\bsw\json/jsmn.h **** enum jsmnerr {
  55:.\source\bsw\json/jsmn.h ****   /* Not enough tokens were provided */
  56:.\source\bsw\json/jsmn.h ****   JSMN_ERROR_NOMEM = -1,
  57:.\source\bsw\json/jsmn.h ****   /* Invalid character inside JSON string */
  58:.\source\bsw\json/jsmn.h ****   JSMN_ERROR_INVAL = -2,
  59:.\source\bsw\json/jsmn.h ****   /* The string is not a full JSON packet, more bytes expected */
  60:.\source\bsw\json/jsmn.h ****   JSMN_ERROR_PART = -3
  61:.\source\bsw\json/jsmn.h **** };
  62:.\source\bsw\json/jsmn.h **** 
  63:.\source\bsw\json/jsmn.h **** /**
  64:.\source\bsw\json/jsmn.h ****  * JSON token description.
  65:.\source\bsw\json/jsmn.h ****  * type		type (object, array, string etc.)
  66:.\source\bsw\json/jsmn.h ****  * start	start position in JSON data string
  67:.\source\bsw\json/jsmn.h ****  * end		end position in JSON data string
  68:.\source\bsw\json/jsmn.h ****  */
  69:.\source\bsw\json/jsmn.h **** typedef struct jsmntok {
  70:.\source\bsw\json/jsmn.h ****   jsmntype_t type;
  71:.\source\bsw\json/jsmn.h ****   int start;
  72:.\source\bsw\json/jsmn.h ****   int end;
  73:.\source\bsw\json/jsmn.h ****   int size;
  74:.\source\bsw\json/jsmn.h **** #ifdef JSMN_PARENT_LINKS
  75:.\source\bsw\json/jsmn.h ****   int parent;
  76:.\source\bsw\json/jsmn.h **** #endif
  77:.\source\bsw\json/jsmn.h **** } jsmntok_t;
  78:.\source\bsw\json/jsmn.h **** 
  79:.\source\bsw\json/jsmn.h **** /**
  80:.\source\bsw\json/jsmn.h ****  * JSON parser. Contains an array of token blocks available. Also stores
  81:.\source\bsw\json/jsmn.h ****  * the string being parsed now and current position in that string.
  82:.\source\bsw\json/jsmn.h ****  */
  83:.\source\bsw\json/jsmn.h **** typedef struct jsmn_parser {
  84:.\source\bsw\json/jsmn.h ****   unsigned int pos;     /* offset in the JSON string */
  85:.\source\bsw\json/jsmn.h ****   unsigned int toknext; /* next token to allocate */
  86:.\source\bsw\json/jsmn.h ****   int toksuper;         /* superior token node, e.g. parent object or array */
  87:.\source\bsw\json/jsmn.h **** } jsmn_parser;
  88:.\source\bsw\json/jsmn.h **** 
ARM GAS  C:\Users\schmi\AppData\Local\Temp\ccJ6kb1p.s 			page 3


  89:.\source\bsw\json/jsmn.h **** /**
  90:.\source\bsw\json/jsmn.h ****  * Create JSON parser over an array of tokens
  91:.\source\bsw\json/jsmn.h ****  */
  92:.\source\bsw\json/jsmn.h **** JSMN_API void jsmn_init(jsmn_parser *parser);
  93:.\source\bsw\json/jsmn.h **** 
  94:.\source\bsw\json/jsmn.h **** /**
  95:.\source\bsw\json/jsmn.h ****  * Run JSON parser. It parses a JSON data string into and array of tokens, each
  96:.\source\bsw\json/jsmn.h ****  * describing
  97:.\source\bsw\json/jsmn.h ****  * a single JSON object.
  98:.\source\bsw\json/jsmn.h ****  */
  99:.\source\bsw\json/jsmn.h **** JSMN_API int jsmn_parse(jsmn_parser *parser, const char *js, const size_t len,
 100:.\source\bsw\json/jsmn.h ****                         jsmntok_t *tokens, const unsigned int num_tokens);
 101:.\source\bsw\json/jsmn.h **** 
 102:.\source\bsw\json/jsmn.h **** #ifndef JSMN_HEADER
 103:.\source\bsw\json/jsmn.h **** /**
 104:.\source\bsw\json/jsmn.h ****  * Allocates a fresh unused token from the token pool.
 105:.\source\bsw\json/jsmn.h ****  */
 106:.\source\bsw\json/jsmn.h **** static jsmntok_t *jsmn_alloc_token(jsmn_parser *parser, jsmntok_t *tokens,
 107:.\source\bsw\json/jsmn.h ****                                    const size_t num_tokens) {
  27              		.loc 1 107 0
  28              		.cfi_startproc
  29              		@ args = 0, pretend = 0, frame = 24
  30              		@ frame_needed = 1, uses_anonymous_args = 0
  31              		@ link register save eliminated.
  32 0000 80B4     		push	{r7}
  33              		.cfi_def_cfa_offset 4
  34              		.cfi_offset 7, -4
  35 0002 87B0     		sub	sp, sp, #28
  36              		.cfi_def_cfa_offset 32
  37 0004 00AF     		add	r7, sp, #0
  38              		.cfi_def_cfa_register 7
  39 0006 F860     		str	r0, [r7, #12]
  40 0008 B960     		str	r1, [r7, #8]
  41 000a 7A60     		str	r2, [r7, #4]
 108:.\source\bsw\json/jsmn.h ****   jsmntok_t *tok;
 109:.\source\bsw\json/jsmn.h ****   if (parser->toknext >= num_tokens) {
  42              		.loc 1 109 0
  43 000c FB68     		ldr	r3, [r7, #12]
  44 000e 5A68     		ldr	r2, [r3, #4]
  45 0010 7B68     		ldr	r3, [r7, #4]
  46 0012 9A42     		cmp	r2, r3
  47 0014 01D3     		bcc	.L2
 110:.\source\bsw\json/jsmn.h ****     return NULL;
  48              		.loc 1 110 0
  49 0016 0023     		movs	r3, #0
  50 0018 14E0     		b	.L3
  51              	.L2:
 111:.\source\bsw\json/jsmn.h ****   }
 112:.\source\bsw\json/jsmn.h ****   tok = &tokens[parser->toknext++];
  52              		.loc 1 112 0
  53 001a FB68     		ldr	r3, [r7, #12]
  54 001c 5B68     		ldr	r3, [r3, #4]
  55 001e 591C     		adds	r1, r3, #1
  56 0020 FA68     		ldr	r2, [r7, #12]
  57 0022 5160     		str	r1, [r2, #4]
  58 0024 1B01     		lsls	r3, r3, #4
  59 0026 BA68     		ldr	r2, [r7, #8]
ARM GAS  C:\Users\schmi\AppData\Local\Temp\ccJ6kb1p.s 			page 4


  60 0028 1344     		add	r3, r3, r2
  61 002a 7B61     		str	r3, [r7, #20]
 113:.\source\bsw\json/jsmn.h ****   tok->start = tok->end = -1;
  62              		.loc 1 113 0
  63 002c 7B69     		ldr	r3, [r7, #20]
  64 002e 4FF0FF32 		mov	r2, #-1
  65 0032 9A60     		str	r2, [r3, #8]
  66 0034 7B69     		ldr	r3, [r7, #20]
  67 0036 9A68     		ldr	r2, [r3, #8]
  68 0038 7B69     		ldr	r3, [r7, #20]
  69 003a 5A60     		str	r2, [r3, #4]
 114:.\source\bsw\json/jsmn.h ****   tok->size = 0;
  70              		.loc 1 114 0
  71 003c 7B69     		ldr	r3, [r7, #20]
  72 003e 0022     		movs	r2, #0
  73 0040 DA60     		str	r2, [r3, #12]
 115:.\source\bsw\json/jsmn.h **** #ifdef JSMN_PARENT_LINKS
 116:.\source\bsw\json/jsmn.h ****   tok->parent = -1;
 117:.\source\bsw\json/jsmn.h **** #endif
 118:.\source\bsw\json/jsmn.h ****   return tok;
  74              		.loc 1 118 0
  75 0042 7B69     		ldr	r3, [r7, #20]
  76              	.L3:
 119:.\source\bsw\json/jsmn.h **** }
  77              		.loc 1 119 0
  78 0044 1846     		mov	r0, r3
  79 0046 1C37     		adds	r7, r7, #28
  80              		.cfi_def_cfa_offset 4
  81 0048 BD46     		mov	sp, r7
  82              		.cfi_def_cfa_register 13
  83              		@ sp needed
  84 004a 80BC     		pop	{r7}
  85              		.cfi_restore 7
  86              		.cfi_def_cfa_offset 0
  87 004c 7047     		bx	lr
  88              		.cfi_endproc
  89              	.LFE0:
  90              		.size	jsmn_alloc_token, .-jsmn_alloc_token
  91 004e 00BF     		.section	.text.jsmn_fill_token,"ax",%progbits
  92              		.align	2
  93              		.thumb
  94              		.thumb_func
  95              		.type	jsmn_fill_token, %function
  96              	jsmn_fill_token:
  97              	.LFB1:
 120:.\source\bsw\json/jsmn.h **** 
 121:.\source\bsw\json/jsmn.h **** /**
 122:.\source\bsw\json/jsmn.h ****  * Fills token type and boundaries.
 123:.\source\bsw\json/jsmn.h ****  */
 124:.\source\bsw\json/jsmn.h **** static void jsmn_fill_token(jsmntok_t *token, const jsmntype_t type,
 125:.\source\bsw\json/jsmn.h ****                             const int start, const int end) {
  98              		.loc 1 125 0
  99              		.cfi_startproc
 100              		@ args = 0, pretend = 0, frame = 16
 101              		@ frame_needed = 1, uses_anonymous_args = 0
 102              		@ link register save eliminated.
 103 0000 80B4     		push	{r7}
ARM GAS  C:\Users\schmi\AppData\Local\Temp\ccJ6kb1p.s 			page 5


 104              		.cfi_def_cfa_offset 4
 105              		.cfi_offset 7, -4
 106 0002 85B0     		sub	sp, sp, #20
 107              		.cfi_def_cfa_offset 24
 108 0004 00AF     		add	r7, sp, #0
 109              		.cfi_def_cfa_register 7
 110 0006 F860     		str	r0, [r7, #12]
 111 0008 7A60     		str	r2, [r7, #4]
 112 000a 3B60     		str	r3, [r7]
 113 000c 0B46     		mov	r3, r1
 114 000e FB72     		strb	r3, [r7, #11]
 126:.\source\bsw\json/jsmn.h ****   token->type = type;
 115              		.loc 1 126 0
 116 0010 FB68     		ldr	r3, [r7, #12]
 117 0012 FA7A     		ldrb	r2, [r7, #11]
 118 0014 1A70     		strb	r2, [r3]
 127:.\source\bsw\json/jsmn.h ****   token->start = start;
 119              		.loc 1 127 0
 120 0016 FB68     		ldr	r3, [r7, #12]
 121 0018 7A68     		ldr	r2, [r7, #4]
 122 001a 5A60     		str	r2, [r3, #4]
 128:.\source\bsw\json/jsmn.h ****   token->end = end;
 123              		.loc 1 128 0
 124 001c FB68     		ldr	r3, [r7, #12]
 125 001e 3A68     		ldr	r2, [r7]
 126 0020 9A60     		str	r2, [r3, #8]
 129:.\source\bsw\json/jsmn.h ****   token->size = 0;
 127              		.loc 1 129 0
 128 0022 FB68     		ldr	r3, [r7, #12]
 129 0024 0022     		movs	r2, #0
 130 0026 DA60     		str	r2, [r3, #12]
 130:.\source\bsw\json/jsmn.h **** }
 131              		.loc 1 130 0
 132 0028 00BF     		nop
 133 002a 1437     		adds	r7, r7, #20
 134              		.cfi_def_cfa_offset 4
 135 002c BD46     		mov	sp, r7
 136              		.cfi_def_cfa_register 13
 137              		@ sp needed
 138 002e 80BC     		pop	{r7}
 139              		.cfi_restore 7
 140              		.cfi_def_cfa_offset 0
 141 0030 7047     		bx	lr
 142              		.cfi_endproc
 143              	.LFE1:
 144              		.size	jsmn_fill_token, .-jsmn_fill_token
 145 0032 00BF     		.section	.text.jsmn_parse_primitive,"ax",%progbits
 146              		.align	2
 147              		.thumb
 148              		.thumb_func
 149              		.type	jsmn_parse_primitive, %function
 150              	jsmn_parse_primitive:
 151              	.LFB2:
 131:.\source\bsw\json/jsmn.h **** 
 132:.\source\bsw\json/jsmn.h **** /**
 133:.\source\bsw\json/jsmn.h ****  * Fills next available token with JSON primitive.
 134:.\source\bsw\json/jsmn.h ****  */
ARM GAS  C:\Users\schmi\AppData\Local\Temp\ccJ6kb1p.s 			page 6


 135:.\source\bsw\json/jsmn.h **** static int jsmn_parse_primitive(jsmn_parser *parser, const char *js,
 136:.\source\bsw\json/jsmn.h ****                                 const size_t len, jsmntok_t *tokens,
 137:.\source\bsw\json/jsmn.h ****                                 const size_t num_tokens) {
 152              		.loc 1 137 0
 153              		.cfi_startproc
 154              		@ args = 4, pretend = 0, frame = 24
 155              		@ frame_needed = 1, uses_anonymous_args = 0
 156 0000 80B5     		push	{r7, lr}
 157              		.cfi_def_cfa_offset 8
 158              		.cfi_offset 7, -8
 159              		.cfi_offset 14, -4
 160 0002 86B0     		sub	sp, sp, #24
 161              		.cfi_def_cfa_offset 32
 162 0004 00AF     		add	r7, sp, #0
 163              		.cfi_def_cfa_register 7
 164 0006 F860     		str	r0, [r7, #12]
 165 0008 B960     		str	r1, [r7, #8]
 166 000a 7A60     		str	r2, [r7, #4]
 167 000c 3B60     		str	r3, [r7]
 138:.\source\bsw\json/jsmn.h ****   jsmntok_t *token;
 139:.\source\bsw\json/jsmn.h ****   int start;
 140:.\source\bsw\json/jsmn.h **** 
 141:.\source\bsw\json/jsmn.h ****   start = parser->pos;
 168              		.loc 1 141 0
 169 000e FB68     		ldr	r3, [r7, #12]
 170 0010 1B68     		ldr	r3, [r3]
 171 0012 7B61     		str	r3, [r7, #20]
 142:.\source\bsw\json/jsmn.h **** 
 143:.\source\bsw\json/jsmn.h ****   for (; parser->pos < len && js[parser->pos] != '\0'; parser->pos++) {
 172              		.loc 1 143 0
 173 0014 34E0     		b	.L6
 174              	.L15:
 144:.\source\bsw\json/jsmn.h ****     switch (js[parser->pos]) {
 175              		.loc 1 144 0
 176 0016 FB68     		ldr	r3, [r7, #12]
 177 0018 1B68     		ldr	r3, [r3]
 178 001a BA68     		ldr	r2, [r7, #8]
 179 001c 1344     		add	r3, r3, r2
 180 001e 1B78     		ldrb	r3, [r3]	@ zero_extendqisi2
 181 0020 202B     		cmp	r3, #32
 182 0022 3AD0     		beq	.L19
 183 0024 202B     		cmp	r3, #32
 184 0026 06DC     		bgt	.L9
 185 0028 092B     		cmp	r3, #9
 186 002a 0FDB     		blt	.L20
 187 002c 0A2B     		cmp	r3, #10
 188 002e 34DD     		ble	.L19
 189 0030 0D2B     		cmp	r3, #13
 190 0032 32D0     		beq	.L19
 145:.\source\bsw\json/jsmn.h **** #ifndef JSMN_STRICT
 146:.\source\bsw\json/jsmn.h ****     /* In strict mode primitive must be followed by "," or "}" or "]" */
 147:.\source\bsw\json/jsmn.h ****     case ':':
 148:.\source\bsw\json/jsmn.h **** #endif
 149:.\source\bsw\json/jsmn.h ****     case '\t':
 150:.\source\bsw\json/jsmn.h ****     case '\r':
 151:.\source\bsw\json/jsmn.h ****     case '\n':
 152:.\source\bsw\json/jsmn.h ****     case ' ':
ARM GAS  C:\Users\schmi\AppData\Local\Temp\ccJ6kb1p.s 			page 7


 153:.\source\bsw\json/jsmn.h ****     case ',':
 154:.\source\bsw\json/jsmn.h ****     case ']':
 155:.\source\bsw\json/jsmn.h ****     case '}':
 156:.\source\bsw\json/jsmn.h ****       goto found;
 157:.\source\bsw\json/jsmn.h ****     default:
 158:.\source\bsw\json/jsmn.h ****                    /* to quiet a warning from gcc*/
 159:.\source\bsw\json/jsmn.h ****       break;
 191              		.loc 1 159 0
 192 0034 0AE0     		b	.L20
 193              	.L9:
 144:.\source\bsw\json/jsmn.h ****     switch (js[parser->pos]) {
 194              		.loc 1 144 0
 195 0036 3A2B     		cmp	r3, #58
 196 0038 2FD0     		beq	.L19
 197 003a 3A2B     		cmp	r3, #58
 198 003c 02DC     		bgt	.L10
 199 003e 2C2B     		cmp	r3, #44
 200 0040 2BD0     		beq	.L19
 201              		.loc 1 159 0
 202 0042 03E0     		b	.L20
 203              	.L10:
 144:.\source\bsw\json/jsmn.h ****     switch (js[parser->pos]) {
 204              		.loc 1 144 0
 205 0044 5D2B     		cmp	r3, #93
 206 0046 28D0     		beq	.L19
 207 0048 7D2B     		cmp	r3, #125
 208 004a 26D0     		beq	.L19
 209              	.L20:
 210              		.loc 1 159 0
 211 004c 00BF     		nop
 160:.\source\bsw\json/jsmn.h ****     }
 161:.\source\bsw\json/jsmn.h ****     if (js[parser->pos] < 32 || js[parser->pos] >= 127) {
 212              		.loc 1 161 0
 213 004e FB68     		ldr	r3, [r7, #12]
 214 0050 1B68     		ldr	r3, [r3]
 215 0052 BA68     		ldr	r2, [r7, #8]
 216 0054 1344     		add	r3, r3, r2
 217 0056 1B78     		ldrb	r3, [r3]	@ zero_extendqisi2
 218 0058 1F2B     		cmp	r3, #31
 219 005a 06D9     		bls	.L12
 220              		.loc 1 161 0 is_stmt 0 discriminator 1
 221 005c FB68     		ldr	r3, [r7, #12]
 222 005e 1B68     		ldr	r3, [r3]
 223 0060 BA68     		ldr	r2, [r7, #8]
 224 0062 1344     		add	r3, r3, r2
 225 0064 1B78     		ldrb	r3, [r3]	@ zero_extendqisi2
 226 0066 7E2B     		cmp	r3, #126
 227 0068 05D9     		bls	.L13
 228              	.L12:
 162:.\source\bsw\json/jsmn.h ****       parser->pos = start;
 229              		.loc 1 162 0 is_stmt 1
 230 006a 7A69     		ldr	r2, [r7, #20]
 231 006c FB68     		ldr	r3, [r7, #12]
 232 006e 1A60     		str	r2, [r3]
 163:.\source\bsw\json/jsmn.h ****       return JSMN_ERROR_INVAL;
 233              		.loc 1 163 0
 234 0070 6FF00103 		mvn	r3, #1
ARM GAS  C:\Users\schmi\AppData\Local\Temp\ccJ6kb1p.s 			page 8


 235 0074 38E0     		b	.L14
 236              	.L13:
 143:.\source\bsw\json/jsmn.h ****     switch (js[parser->pos]) {
 237              		.loc 1 143 0
 238 0076 FB68     		ldr	r3, [r7, #12]
 239 0078 1B68     		ldr	r3, [r3]
 240 007a 5A1C     		adds	r2, r3, #1
 241 007c FB68     		ldr	r3, [r7, #12]
 242 007e 1A60     		str	r2, [r3]
 243              	.L6:
 143:.\source\bsw\json/jsmn.h ****     switch (js[parser->pos]) {
 244              		.loc 1 143 0 is_stmt 0 discriminator 1
 245 0080 FB68     		ldr	r3, [r7, #12]
 246 0082 1A68     		ldr	r2, [r3]
 247 0084 7B68     		ldr	r3, [r7, #4]
 248 0086 9A42     		cmp	r2, r3
 249 0088 08D2     		bcs	.L11
 143:.\source\bsw\json/jsmn.h ****     switch (js[parser->pos]) {
 250              		.loc 1 143 0 discriminator 2
 251 008a FB68     		ldr	r3, [r7, #12]
 252 008c 1B68     		ldr	r3, [r3]
 253 008e BA68     		ldr	r2, [r7, #8]
 254 0090 1344     		add	r3, r3, r2
 255 0092 1B78     		ldrb	r3, [r3]	@ zero_extendqisi2
 256 0094 002B     		cmp	r3, #0
 257 0096 BED1     		bne	.L15
 258 0098 00E0     		b	.L11
 259              	.L19:
 156:.\source\bsw\json/jsmn.h ****     default:
 260              		.loc 1 156 0 is_stmt 1
 261 009a 00BF     		nop
 262              	.L11:
 164:.\source\bsw\json/jsmn.h ****     }
 165:.\source\bsw\json/jsmn.h ****   }
 166:.\source\bsw\json/jsmn.h **** #ifdef JSMN_STRICT
 167:.\source\bsw\json/jsmn.h ****   /* In strict mode primitive must be followed by a comma/object/array */
 168:.\source\bsw\json/jsmn.h ****   parser->pos = start;
 169:.\source\bsw\json/jsmn.h ****   return JSMN_ERROR_PART;
 170:.\source\bsw\json/jsmn.h **** #endif
 171:.\source\bsw\json/jsmn.h **** 
 172:.\source\bsw\json/jsmn.h **** found:
 173:.\source\bsw\json/jsmn.h ****   if (tokens == NULL) {
 263              		.loc 1 173 0
 264 009c 3B68     		ldr	r3, [r7]
 265 009e 002B     		cmp	r3, #0
 266 00a0 06D1     		bne	.L16
 174:.\source\bsw\json/jsmn.h ****     parser->pos--;
 267              		.loc 1 174 0
 268 00a2 FB68     		ldr	r3, [r7, #12]
 269 00a4 1B68     		ldr	r3, [r3]
 270 00a6 5A1E     		subs	r2, r3, #1
 271 00a8 FB68     		ldr	r3, [r7, #12]
 272 00aa 1A60     		str	r2, [r3]
 175:.\source\bsw\json/jsmn.h ****     return 0;
 273              		.loc 1 175 0
 274 00ac 0023     		movs	r3, #0
 275 00ae 1BE0     		b	.L14
ARM GAS  C:\Users\schmi\AppData\Local\Temp\ccJ6kb1p.s 			page 9


 276              	.L16:
 176:.\source\bsw\json/jsmn.h ****   }
 177:.\source\bsw\json/jsmn.h ****   token = jsmn_alloc_token(parser, tokens, num_tokens);
 277              		.loc 1 177 0
 278 00b0 3A6A     		ldr	r2, [r7, #32]
 279 00b2 3968     		ldr	r1, [r7]
 280 00b4 F868     		ldr	r0, [r7, #12]
 281 00b6 FFF7FEFF 		bl	jsmn_alloc_token
 282 00ba 3861     		str	r0, [r7, #16]
 178:.\source\bsw\json/jsmn.h ****   if (token == NULL) {
 283              		.loc 1 178 0
 284 00bc 3B69     		ldr	r3, [r7, #16]
 285 00be 002B     		cmp	r3, #0
 286 00c0 05D1     		bne	.L17
 179:.\source\bsw\json/jsmn.h ****     parser->pos = start;
 287              		.loc 1 179 0
 288 00c2 7A69     		ldr	r2, [r7, #20]
 289 00c4 FB68     		ldr	r3, [r7, #12]
 290 00c6 1A60     		str	r2, [r3]
 180:.\source\bsw\json/jsmn.h ****     return JSMN_ERROR_NOMEM;
 291              		.loc 1 180 0
 292 00c8 4FF0FF33 		mov	r3, #-1
 293 00cc 0CE0     		b	.L14
 294              	.L17:
 181:.\source\bsw\json/jsmn.h ****   }
 182:.\source\bsw\json/jsmn.h ****   jsmn_fill_token(token, JSMN_PRIMITIVE, start, parser->pos);
 295              		.loc 1 182 0
 296 00ce FB68     		ldr	r3, [r7, #12]
 297 00d0 1B68     		ldr	r3, [r3]
 298 00d2 7A69     		ldr	r2, [r7, #20]
 299 00d4 0821     		movs	r1, #8
 300 00d6 3869     		ldr	r0, [r7, #16]
 301 00d8 FFF7FEFF 		bl	jsmn_fill_token
 183:.\source\bsw\json/jsmn.h **** #ifdef JSMN_PARENT_LINKS
 184:.\source\bsw\json/jsmn.h ****   token->parent = parser->toksuper;
 185:.\source\bsw\json/jsmn.h **** #endif
 186:.\source\bsw\json/jsmn.h ****   parser->pos--;
 302              		.loc 1 186 0
 303 00dc FB68     		ldr	r3, [r7, #12]
 304 00de 1B68     		ldr	r3, [r3]
 305 00e0 5A1E     		subs	r2, r3, #1
 306 00e2 FB68     		ldr	r3, [r7, #12]
 307 00e4 1A60     		str	r2, [r3]
 187:.\source\bsw\json/jsmn.h ****   return 0;
 308              		.loc 1 187 0
 309 00e6 0023     		movs	r3, #0
 310              	.L14:
 188:.\source\bsw\json/jsmn.h **** }
 311              		.loc 1 188 0
 312 00e8 1846     		mov	r0, r3
 313 00ea 1837     		adds	r7, r7, #24
 314              		.cfi_def_cfa_offset 8
 315 00ec BD46     		mov	sp, r7
 316              		.cfi_def_cfa_register 13
 317              		@ sp needed
 318 00ee 80BD     		pop	{r7, pc}
 319              		.cfi_endproc
ARM GAS  C:\Users\schmi\AppData\Local\Temp\ccJ6kb1p.s 			page 10


 320              	.LFE2:
 321              		.size	jsmn_parse_primitive, .-jsmn_parse_primitive
 322              		.section	.text.jsmn_parse_string,"ax",%progbits
 323              		.align	2
 324              		.thumb
 325              		.thumb_func
 326              		.type	jsmn_parse_string, %function
 327              	jsmn_parse_string:
 328              	.LFB3:
 189:.\source\bsw\json/jsmn.h **** 
 190:.\source\bsw\json/jsmn.h **** /**
 191:.\source\bsw\json/jsmn.h ****  * Fills next token with JSON string.
 192:.\source\bsw\json/jsmn.h ****  */
 193:.\source\bsw\json/jsmn.h **** static int jsmn_parse_string(jsmn_parser *parser, const char *js,
 194:.\source\bsw\json/jsmn.h ****                              const size_t len, jsmntok_t *tokens,
 195:.\source\bsw\json/jsmn.h ****                              const size_t num_tokens) {
 329              		.loc 1 195 0
 330              		.cfi_startproc
 331              		@ args = 4, pretend = 0, frame = 32
 332              		@ frame_needed = 1, uses_anonymous_args = 0
 333 0000 80B5     		push	{r7, lr}
 334              		.cfi_def_cfa_offset 8
 335              		.cfi_offset 7, -8
 336              		.cfi_offset 14, -4
 337 0002 88B0     		sub	sp, sp, #32
 338              		.cfi_def_cfa_offset 40
 339 0004 00AF     		add	r7, sp, #0
 340              		.cfi_def_cfa_register 7
 341 0006 F860     		str	r0, [r7, #12]
 342 0008 B960     		str	r1, [r7, #8]
 343 000a 7A60     		str	r2, [r7, #4]
 344 000c 3B60     		str	r3, [r7]
 196:.\source\bsw\json/jsmn.h ****   jsmntok_t *token;
 197:.\source\bsw\json/jsmn.h **** 
 198:.\source\bsw\json/jsmn.h ****   int start = parser->pos;
 345              		.loc 1 198 0
 346 000e FB68     		ldr	r3, [r7, #12]
 347 0010 1B68     		ldr	r3, [r3]
 348 0012 BB61     		str	r3, [r7, #24]
 199:.\source\bsw\json/jsmn.h ****   
 200:.\source\bsw\json/jsmn.h ****   /* Skip starting quote */
 201:.\source\bsw\json/jsmn.h ****   parser->pos++;
 349              		.loc 1 201 0
 350 0014 FB68     		ldr	r3, [r7, #12]
 351 0016 1B68     		ldr	r3, [r3]
 352 0018 5A1C     		adds	r2, r3, #1
 353 001a FB68     		ldr	r3, [r7, #12]
 354 001c 1A60     		str	r2, [r3]
 202:.\source\bsw\json/jsmn.h ****   
 203:.\source\bsw\json/jsmn.h ****   for (; parser->pos < len && js[parser->pos] != '\0'; parser->pos++) {
 355              		.loc 1 203 0
 356 001e 4CE1     		b	.L22
 357              	.L40:
 358              	.LBB2:
 204:.\source\bsw\json/jsmn.h ****     char c = js[parser->pos];
 359              		.loc 1 204 0
 360 0020 FB68     		ldr	r3, [r7, #12]
ARM GAS  C:\Users\schmi\AppData\Local\Temp\ccJ6kb1p.s 			page 11


 361 0022 1B68     		ldr	r3, [r3]
 362 0024 BA68     		ldr	r2, [r7, #8]
 363 0026 1344     		add	r3, r3, r2
 364 0028 1B78     		ldrb	r3, [r3]
 365 002a FB75     		strb	r3, [r7, #23]
 205:.\source\bsw\json/jsmn.h **** 
 206:.\source\bsw\json/jsmn.h ****     /* Quote: end of string */
 207:.\source\bsw\json/jsmn.h ****     if (c == '\"') {
 366              		.loc 1 207 0
 367 002c FB7D     		ldrb	r3, [r7, #23]	@ zero_extendqisi2
 368 002e 222B     		cmp	r3, #34
 369 0030 1DD1     		bne	.L23
 208:.\source\bsw\json/jsmn.h ****       if (tokens == NULL) {
 370              		.loc 1 208 0
 371 0032 3B68     		ldr	r3, [r7]
 372 0034 002B     		cmp	r3, #0
 373 0036 01D1     		bne	.L24
 209:.\source\bsw\json/jsmn.h ****         return 0;
 374              		.loc 1 209 0
 375 0038 0023     		movs	r3, #0
 376 003a 50E1     		b	.L25
 377              	.L24:
 210:.\source\bsw\json/jsmn.h ****       }
 211:.\source\bsw\json/jsmn.h ****       token = jsmn_alloc_token(parser, tokens, num_tokens);
 378              		.loc 1 211 0
 379 003c BA6A     		ldr	r2, [r7, #40]
 380 003e 3968     		ldr	r1, [r7]
 381 0040 F868     		ldr	r0, [r7, #12]
 382 0042 FFF7FEFF 		bl	jsmn_alloc_token
 383 0046 3861     		str	r0, [r7, #16]
 212:.\source\bsw\json/jsmn.h ****       if (token == NULL) {
 384              		.loc 1 212 0
 385 0048 3B69     		ldr	r3, [r7, #16]
 386 004a 002B     		cmp	r3, #0
 387 004c 05D1     		bne	.L26
 213:.\source\bsw\json/jsmn.h ****         parser->pos = start;
 388              		.loc 1 213 0
 389 004e BA69     		ldr	r2, [r7, #24]
 390 0050 FB68     		ldr	r3, [r7, #12]
 391 0052 1A60     		str	r2, [r3]
 214:.\source\bsw\json/jsmn.h ****         return JSMN_ERROR_NOMEM;
 392              		.loc 1 214 0
 393 0054 4FF0FF33 		mov	r3, #-1
 394 0058 41E1     		b	.L25
 395              	.L26:
 215:.\source\bsw\json/jsmn.h ****       }
 216:.\source\bsw\json/jsmn.h ****       jsmn_fill_token(token, JSMN_STRING, start + 1, parser->pos);
 396              		.loc 1 216 0
 397 005a BB69     		ldr	r3, [r7, #24]
 398 005c 5A1C     		adds	r2, r3, #1
 399 005e FB68     		ldr	r3, [r7, #12]
 400 0060 1B68     		ldr	r3, [r3]
 401 0062 0421     		movs	r1, #4
 402 0064 3869     		ldr	r0, [r7, #16]
 403 0066 FFF7FEFF 		bl	jsmn_fill_token
 217:.\source\bsw\json/jsmn.h **** #ifdef JSMN_PARENT_LINKS
 218:.\source\bsw\json/jsmn.h ****       token->parent = parser->toksuper;
ARM GAS  C:\Users\schmi\AppData\Local\Temp\ccJ6kb1p.s 			page 12


 219:.\source\bsw\json/jsmn.h **** #endif
 220:.\source\bsw\json/jsmn.h ****       return 0;
 404              		.loc 1 220 0
 405 006a 0023     		movs	r3, #0
 406 006c 37E1     		b	.L25
 407              	.L23:
 221:.\source\bsw\json/jsmn.h ****     }
 222:.\source\bsw\json/jsmn.h **** 
 223:.\source\bsw\json/jsmn.h ****     /* Backslash: Quoted symbol expected */
 224:.\source\bsw\json/jsmn.h ****     if (c == '\\' && parser->pos + 1 < len) {
 408              		.loc 1 224 0
 409 006e FB7D     		ldrb	r3, [r7, #23]	@ zero_extendqisi2
 410 0070 5C2B     		cmp	r3, #92
 411 0072 40F01D81 		bne	.L27
 412              		.loc 1 224 0 is_stmt 0 discriminator 1
 413 0076 FB68     		ldr	r3, [r7, #12]
 414 0078 1B68     		ldr	r3, [r3]
 415 007a 5A1C     		adds	r2, r3, #1
 416 007c 7B68     		ldr	r3, [r7, #4]
 417 007e 9A42     		cmp	r2, r3
 418 0080 80F01681 		bcs	.L27
 419              	.LBB3:
 225:.\source\bsw\json/jsmn.h ****       int i;
 226:.\source\bsw\json/jsmn.h ****       parser->pos++;
 420              		.loc 1 226 0 is_stmt 1
 421 0084 FB68     		ldr	r3, [r7, #12]
 422 0086 1B68     		ldr	r3, [r3]
 423 0088 5A1C     		adds	r2, r3, #1
 424 008a FB68     		ldr	r3, [r7, #12]
 425 008c 1A60     		str	r2, [r3]
 227:.\source\bsw\json/jsmn.h ****       switch (js[parser->pos]) {
 426              		.loc 1 227 0
 427 008e FB68     		ldr	r3, [r7, #12]
 428 0090 1B68     		ldr	r3, [r3]
 429 0092 BA68     		ldr	r2, [r7, #8]
 430 0094 1344     		add	r3, r3, r2
 431 0096 1B78     		ldrb	r3, [r3]	@ zero_extendqisi2
 432 0098 223B     		subs	r3, r3, #34
 433 009a 532B     		cmp	r3, #83
 434 009c 00F20181 		bhi	.L28
 435 00a0 01A2     		adr	r2, .L30
 436 00a2 52F823F0 		ldr	pc, [r2, r3, lsl #2]
 437 00a6 00BF     		.p2align 2
 438              	.L30:
 439 00a8 AF020000 		.word	.L41+1
 440 00ac A3020000 		.word	.L28+1
 441 00b0 A3020000 		.word	.L28+1
 442 00b4 A3020000 		.word	.L28+1
 443 00b8 A3020000 		.word	.L28+1
 444 00bc A3020000 		.word	.L28+1
 445 00c0 A3020000 		.word	.L28+1
 446 00c4 A3020000 		.word	.L28+1
 447 00c8 A3020000 		.word	.L28+1
 448 00cc A3020000 		.word	.L28+1
 449 00d0 A3020000 		.word	.L28+1
 450 00d4 A3020000 		.word	.L28+1
 451 00d8 A3020000 		.word	.L28+1
ARM GAS  C:\Users\schmi\AppData\Local\Temp\ccJ6kb1p.s 			page 13


 452 00dc AF020000 		.word	.L41+1
 453 00e0 A3020000 		.word	.L28+1
 454 00e4 A3020000 		.word	.L28+1
 455 00e8 A3020000 		.word	.L28+1
 456 00ec A3020000 		.word	.L28+1
 457 00f0 A3020000 		.word	.L28+1
 458 00f4 A3020000 		.word	.L28+1
 459 00f8 A3020000 		.word	.L28+1
 460 00fc A3020000 		.word	.L28+1
 461 0100 A3020000 		.word	.L28+1
 462 0104 A3020000 		.word	.L28+1
 463 0108 A3020000 		.word	.L28+1
 464 010c A3020000 		.word	.L28+1
 465 0110 A3020000 		.word	.L28+1
 466 0114 A3020000 		.word	.L28+1
 467 0118 A3020000 		.word	.L28+1
 468 011c A3020000 		.word	.L28+1
 469 0120 A3020000 		.word	.L28+1
 470 0124 A3020000 		.word	.L28+1
 471 0128 A3020000 		.word	.L28+1
 472 012c A3020000 		.word	.L28+1
 473 0130 A3020000 		.word	.L28+1
 474 0134 A3020000 		.word	.L28+1
 475 0138 A3020000 		.word	.L28+1
 476 013c A3020000 		.word	.L28+1
 477 0140 A3020000 		.word	.L28+1
 478 0144 A3020000 		.word	.L28+1
 479 0148 A3020000 		.word	.L28+1
 480 014c A3020000 		.word	.L28+1
 481 0150 A3020000 		.word	.L28+1
 482 0154 A3020000 		.word	.L28+1
 483 0158 A3020000 		.word	.L28+1
 484 015c A3020000 		.word	.L28+1
 485 0160 A3020000 		.word	.L28+1
 486 0164 A3020000 		.word	.L28+1
 487 0168 A3020000 		.word	.L28+1
 488 016c A3020000 		.word	.L28+1
 489 0170 A3020000 		.word	.L28+1
 490 0174 A3020000 		.word	.L28+1
 491 0178 A3020000 		.word	.L28+1
 492 017c A3020000 		.word	.L28+1
 493 0180 A3020000 		.word	.L28+1
 494 0184 A3020000 		.word	.L28+1
 495 0188 A3020000 		.word	.L28+1
 496 018c A3020000 		.word	.L28+1
 497 0190 AF020000 		.word	.L41+1
 498 0194 A3020000 		.word	.L28+1
 499 0198 A3020000 		.word	.L28+1
 500 019c A3020000 		.word	.L28+1
 501 01a0 A3020000 		.word	.L28+1
 502 01a4 A3020000 		.word	.L28+1
 503 01a8 AF020000 		.word	.L41+1
 504 01ac A3020000 		.word	.L28+1
 505 01b0 A3020000 		.word	.L28+1
 506 01b4 A3020000 		.word	.L28+1
 507 01b8 AF020000 		.word	.L41+1
 508 01bc A3020000 		.word	.L28+1
ARM GAS  C:\Users\schmi\AppData\Local\Temp\ccJ6kb1p.s 			page 14


 509 01c0 A3020000 		.word	.L28+1
 510 01c4 A3020000 		.word	.L28+1
 511 01c8 A3020000 		.word	.L28+1
 512 01cc A3020000 		.word	.L28+1
 513 01d0 A3020000 		.word	.L28+1
 514 01d4 A3020000 		.word	.L28+1
 515 01d8 AF020000 		.word	.L41+1
 516 01dc A3020000 		.word	.L28+1
 517 01e0 A3020000 		.word	.L28+1
 518 01e4 A3020000 		.word	.L28+1
 519 01e8 AF020000 		.word	.L41+1
 520 01ec A3020000 		.word	.L28+1
 521 01f0 AF020000 		.word	.L41+1
 522 01f4 F9010000 		.word	.L31+1
 523              		.p2align 1
 524              	.L31:
 228:.\source\bsw\json/jsmn.h ****       /* Allowed escaped symbols */
 229:.\source\bsw\json/jsmn.h ****       case '\"':
 230:.\source\bsw\json/jsmn.h ****       case '/':
 231:.\source\bsw\json/jsmn.h ****       case '\\':
 232:.\source\bsw\json/jsmn.h ****       case 'b':
 233:.\source\bsw\json/jsmn.h ****       case 'f':
 234:.\source\bsw\json/jsmn.h ****       case 'r':
 235:.\source\bsw\json/jsmn.h ****       case 'n':
 236:.\source\bsw\json/jsmn.h ****       case 't':
 237:.\source\bsw\json/jsmn.h ****         break;
 238:.\source\bsw\json/jsmn.h ****       /* Allows escaped symbol \uXXXX */
 239:.\source\bsw\json/jsmn.h ****       case 'u':
 240:.\source\bsw\json/jsmn.h ****         parser->pos++;
 525              		.loc 1 240 0
 526 01f8 FB68     		ldr	r3, [r7, #12]
 527 01fa 1B68     		ldr	r3, [r3]
 528 01fc 5A1C     		adds	r2, r3, #1
 529 01fe FB68     		ldr	r3, [r7, #12]
 530 0200 1A60     		str	r2, [r3]
 241:.\source\bsw\json/jsmn.h ****         for (i = 0; i < 4 && parser->pos < len && js[parser->pos] != '\0';
 531              		.loc 1 241 0
 532 0202 0023     		movs	r3, #0
 533 0204 FB61     		str	r3, [r7, #28]
 534 0206 37E0     		b	.L32
 535              	.L38:
 242:.\source\bsw\json/jsmn.h ****              i++) {
 243:.\source\bsw\json/jsmn.h ****           /* If it isn't a hex character we have an error */
 244:.\source\bsw\json/jsmn.h ****           if (!((js[parser->pos] >= 48 && js[parser->pos] <= 57) ||   /* 0-9 */
 536              		.loc 1 244 0
 537 0208 FB68     		ldr	r3, [r7, #12]
 538 020a 1B68     		ldr	r3, [r3]
 539 020c BA68     		ldr	r2, [r7, #8]
 540 020e 1344     		add	r3, r3, r2
 541 0210 1B78     		ldrb	r3, [r3]	@ zero_extendqisi2
 542 0212 2F2B     		cmp	r3, #47
 543 0214 06D9     		bls	.L33
 544              		.loc 1 244 0 is_stmt 0 discriminator 2
 545 0216 FB68     		ldr	r3, [r7, #12]
 546 0218 1B68     		ldr	r3, [r3]
 547 021a BA68     		ldr	r2, [r7, #8]
 548 021c 1344     		add	r3, r3, r2
ARM GAS  C:\Users\schmi\AppData\Local\Temp\ccJ6kb1p.s 			page 15


 549 021e 1B78     		ldrb	r3, [r3]	@ zero_extendqisi2
 550 0220 392B     		cmp	r3, #57
 551 0222 21D9     		bls	.L34
 552              	.L33:
 245:.\source\bsw\json/jsmn.h ****                 (js[parser->pos] >= 65 && js[parser->pos] <= 70) ||   /* A-F */
 553              		.loc 1 245 0 is_stmt 1 discriminator 3
 554 0224 FB68     		ldr	r3, [r7, #12]
 555 0226 1B68     		ldr	r3, [r3]
 556 0228 BA68     		ldr	r2, [r7, #8]
 557 022a 1344     		add	r3, r3, r2
 558 022c 1B78     		ldrb	r3, [r3]	@ zero_extendqisi2
 244:.\source\bsw\json/jsmn.h ****                 (js[parser->pos] >= 65 && js[parser->pos] <= 70) ||   /* A-F */
 559              		.loc 1 244 0 discriminator 3
 560 022e 402B     		cmp	r3, #64
 561 0230 06D9     		bls	.L35
 562              		.loc 1 245 0
 563 0232 FB68     		ldr	r3, [r7, #12]
 564 0234 1B68     		ldr	r3, [r3]
 565 0236 BA68     		ldr	r2, [r7, #8]
 566 0238 1344     		add	r3, r3, r2
 567 023a 1B78     		ldrb	r3, [r3]	@ zero_extendqisi2
 568 023c 462B     		cmp	r3, #70
 569 023e 13D9     		bls	.L34
 570              	.L35:
 246:.\source\bsw\json/jsmn.h ****                 (js[parser->pos] >= 97 && js[parser->pos] <= 102))) { /* a-f */
 571              		.loc 1 246 0 discriminator 4
 572 0240 FB68     		ldr	r3, [r7, #12]
 573 0242 1B68     		ldr	r3, [r3]
 574 0244 BA68     		ldr	r2, [r7, #8]
 575 0246 1344     		add	r3, r3, r2
 576 0248 1B78     		ldrb	r3, [r3]	@ zero_extendqisi2
 244:.\source\bsw\json/jsmn.h ****                 (js[parser->pos] >= 65 && js[parser->pos] <= 70) ||   /* A-F */
 577              		.loc 1 244 0 discriminator 4
 578 024a 602B     		cmp	r3, #96
 579 024c 06D9     		bls	.L36
 580              		.loc 1 246 0
 581 024e FB68     		ldr	r3, [r7, #12]
 582 0250 1B68     		ldr	r3, [r3]
 583 0252 BA68     		ldr	r2, [r7, #8]
 584 0254 1344     		add	r3, r3, r2
 585 0256 1B78     		ldrb	r3, [r3]	@ zero_extendqisi2
 586 0258 662B     		cmp	r3, #102
 587 025a 05D9     		bls	.L34
 588              	.L36:
 247:.\source\bsw\json/jsmn.h ****             parser->pos = start;
 589              		.loc 1 247 0
 590 025c BA69     		ldr	r2, [r7, #24]
 591 025e FB68     		ldr	r3, [r7, #12]
 592 0260 1A60     		str	r2, [r3]
 248:.\source\bsw\json/jsmn.h ****             return JSMN_ERROR_INVAL;
 593              		.loc 1 248 0
 594 0262 6FF00103 		mvn	r3, #1
 595 0266 3AE0     		b	.L25
 596              	.L34:
 249:.\source\bsw\json/jsmn.h ****           }
 250:.\source\bsw\json/jsmn.h ****           parser->pos++;
 597              		.loc 1 250 0
ARM GAS  C:\Users\schmi\AppData\Local\Temp\ccJ6kb1p.s 			page 16


 598 0268 FB68     		ldr	r3, [r7, #12]
 599 026a 1B68     		ldr	r3, [r3]
 600 026c 5A1C     		adds	r2, r3, #1
 601 026e FB68     		ldr	r3, [r7, #12]
 602 0270 1A60     		str	r2, [r3]
 242:.\source\bsw\json/jsmn.h ****           /* If it isn't a hex character we have an error */
 603              		.loc 1 242 0
 604 0272 FB69     		ldr	r3, [r7, #28]
 605 0274 0133     		adds	r3, r3, #1
 606 0276 FB61     		str	r3, [r7, #28]
 607              	.L32:
 241:.\source\bsw\json/jsmn.h ****              i++) {
 608              		.loc 1 241 0 discriminator 1
 609 0278 FB69     		ldr	r3, [r7, #28]
 610 027a 032B     		cmp	r3, #3
 611 027c 0BDC     		bgt	.L37
 241:.\source\bsw\json/jsmn.h ****              i++) {
 612              		.loc 1 241 0 is_stmt 0 discriminator 2
 613 027e FB68     		ldr	r3, [r7, #12]
 614 0280 1A68     		ldr	r2, [r3]
 615 0282 7B68     		ldr	r3, [r7, #4]
 616 0284 9A42     		cmp	r2, r3
 617 0286 06D2     		bcs	.L37
 241:.\source\bsw\json/jsmn.h ****              i++) {
 618              		.loc 1 241 0 discriminator 3
 619 0288 FB68     		ldr	r3, [r7, #12]
 620 028a 1B68     		ldr	r3, [r3]
 621 028c BA68     		ldr	r2, [r7, #8]
 622 028e 1344     		add	r3, r3, r2
 623 0290 1B78     		ldrb	r3, [r3]	@ zero_extendqisi2
 624 0292 002B     		cmp	r3, #0
 625 0294 B8D1     		bne	.L38
 626              	.L37:
 251:.\source\bsw\json/jsmn.h ****         }
 252:.\source\bsw\json/jsmn.h ****         parser->pos--;
 627              		.loc 1 252 0 is_stmt 1
 628 0296 FB68     		ldr	r3, [r7, #12]
 629 0298 1B68     		ldr	r3, [r3]
 630 029a 5A1E     		subs	r2, r3, #1
 631 029c FB68     		ldr	r3, [r7, #12]
 632 029e 1A60     		str	r2, [r3]
 253:.\source\bsw\json/jsmn.h ****         break;
 633              		.loc 1 253 0
 634 02a0 06E0     		b	.L27
 635              	.L28:
 254:.\source\bsw\json/jsmn.h ****       /* Unexpected symbol */
 255:.\source\bsw\json/jsmn.h ****       default:
 256:.\source\bsw\json/jsmn.h ****         parser->pos = start;
 636              		.loc 1 256 0
 637 02a2 BA69     		ldr	r2, [r7, #24]
 638 02a4 FB68     		ldr	r3, [r7, #12]
 639 02a6 1A60     		str	r2, [r3]
 257:.\source\bsw\json/jsmn.h ****         return JSMN_ERROR_INVAL;
 640              		.loc 1 257 0
 641 02a8 6FF00103 		mvn	r3, #1
 642 02ac 17E0     		b	.L25
 643              	.L41:
ARM GAS  C:\Users\schmi\AppData\Local\Temp\ccJ6kb1p.s 			page 17


 237:.\source\bsw\json/jsmn.h ****       /* Allows escaped symbol \uXXXX */
 644              		.loc 1 237 0
 645 02ae 00BF     		nop
 646              	.L27:
 647              	.LBE3:
 648              	.LBE2:
 203:.\source\bsw\json/jsmn.h ****     char c = js[parser->pos];
 649              		.loc 1 203 0
 650 02b0 FB68     		ldr	r3, [r7, #12]
 651 02b2 1B68     		ldr	r3, [r3]
 652 02b4 5A1C     		adds	r2, r3, #1
 653 02b6 FB68     		ldr	r3, [r7, #12]
 654 02b8 1A60     		str	r2, [r3]
 655              	.L22:
 203:.\source\bsw\json/jsmn.h ****     char c = js[parser->pos];
 656              		.loc 1 203 0 is_stmt 0 discriminator 1
 657 02ba FB68     		ldr	r3, [r7, #12]
 658 02bc 1A68     		ldr	r2, [r3]
 659 02be 7B68     		ldr	r3, [r7, #4]
 660 02c0 9A42     		cmp	r2, r3
 661 02c2 07D2     		bcs	.L39
 203:.\source\bsw\json/jsmn.h ****     char c = js[parser->pos];
 662              		.loc 1 203 0 discriminator 2
 663 02c4 FB68     		ldr	r3, [r7, #12]
 664 02c6 1B68     		ldr	r3, [r3]
 665 02c8 BA68     		ldr	r2, [r7, #8]
 666 02ca 1344     		add	r3, r3, r2
 667 02cc 1B78     		ldrb	r3, [r3]	@ zero_extendqisi2
 668 02ce 002B     		cmp	r3, #0
 669 02d0 7FF4A6AE 		bne	.L40
 670              	.L39:
 258:.\source\bsw\json/jsmn.h ****       }
 259:.\source\bsw\json/jsmn.h ****     }
 260:.\source\bsw\json/jsmn.h ****   }
 261:.\source\bsw\json/jsmn.h ****   parser->pos = start;
 671              		.loc 1 261 0 is_stmt 1
 672 02d4 BA69     		ldr	r2, [r7, #24]
 673 02d6 FB68     		ldr	r3, [r7, #12]
 674 02d8 1A60     		str	r2, [r3]
 262:.\source\bsw\json/jsmn.h ****   return JSMN_ERROR_PART;
 675              		.loc 1 262 0
 676 02da 6FF00203 		mvn	r3, #2
 677              	.L25:
 263:.\source\bsw\json/jsmn.h **** }
 678              		.loc 1 263 0
 679 02de 1846     		mov	r0, r3
 680 02e0 2037     		adds	r7, r7, #32
 681              		.cfi_def_cfa_offset 8
 682 02e2 BD46     		mov	sp, r7
 683              		.cfi_def_cfa_register 13
 684              		@ sp needed
 685 02e4 80BD     		pop	{r7, pc}
 686              		.cfi_endproc
 687              	.LFE3:
 688              		.size	jsmn_parse_string, .-jsmn_parse_string
 689 02e6 00BF     		.section	.text.jsmn_init,"ax",%progbits
 690              		.align	2
ARM GAS  C:\Users\schmi\AppData\Local\Temp\ccJ6kb1p.s 			page 18


 691              		.global	jsmn_init
 692              		.thumb
 693              		.thumb_func
 694              		.type	jsmn_init, %function
 695              	jsmn_init:
 696              	.LFB4:
 697              		.file 2 "jsmn.c"
   1:jsmn.c        **** /* ========================================
   2:jsmn.c        ****  *
   3:jsmn.c        ****  * Copyright YOUR COMPANY, THE YEAR
   4:jsmn.c        ****  * All Rights Reserved
   5:jsmn.c        ****  * UNPUBLISHED, LICENSED SOFTWARE.
   6:jsmn.c        ****  *
   7:jsmn.c        ****  * CONFIDENTIAL AND PROPRIETARY INFORMATION
   8:jsmn.c        ****  * WHICH IS THE PROPERTY OF your company.
   9:jsmn.c        ****  *
  10:jsmn.c        ****  * ========================================
  11:jsmn.c        **** */
  12:jsmn.c        **** #include "jsmn.h"
  13:jsmn.c        **** 
  14:jsmn.c        **** 
  15:jsmn.c        **** /**
  16:jsmn.c        ****  * Creates a new parser based over a given buffer with an array of tokens
  17:jsmn.c        ****  * available.
  18:jsmn.c        ****  */
  19:jsmn.c        **** JSMN_API void jsmn_init(jsmn_parser *parser) {
 698              		.loc 2 19 0
 699              		.cfi_startproc
 700              		@ args = 0, pretend = 0, frame = 8
 701              		@ frame_needed = 1, uses_anonymous_args = 0
 702              		@ link register save eliminated.
 703 0000 80B4     		push	{r7}
 704              		.cfi_def_cfa_offset 4
 705              		.cfi_offset 7, -4
 706 0002 83B0     		sub	sp, sp, #12
 707              		.cfi_def_cfa_offset 16
 708 0004 00AF     		add	r7, sp, #0
 709              		.cfi_def_cfa_register 7
 710 0006 7860     		str	r0, [r7, #4]
  20:jsmn.c        ****   parser->pos = 0;
 711              		.loc 2 20 0
 712 0008 7B68     		ldr	r3, [r7, #4]
 713 000a 0022     		movs	r2, #0
 714 000c 1A60     		str	r2, [r3]
  21:jsmn.c        ****   parser->toknext = 0;
 715              		.loc 2 21 0
 716 000e 7B68     		ldr	r3, [r7, #4]
 717 0010 0022     		movs	r2, #0
 718 0012 5A60     		str	r2, [r3, #4]
  22:jsmn.c        ****   parser->toksuper = -1;
 719              		.loc 2 22 0
 720 0014 7B68     		ldr	r3, [r7, #4]
 721 0016 4FF0FF32 		mov	r2, #-1
 722 001a 9A60     		str	r2, [r3, #8]
  23:jsmn.c        **** }
 723              		.loc 2 23 0
 724 001c 00BF     		nop
ARM GAS  C:\Users\schmi\AppData\Local\Temp\ccJ6kb1p.s 			page 19


 725 001e 0C37     		adds	r7, r7, #12
 726              		.cfi_def_cfa_offset 4
 727 0020 BD46     		mov	sp, r7
 728              		.cfi_def_cfa_register 13
 729              		@ sp needed
 730 0022 80BC     		pop	{r7}
 731              		.cfi_restore 7
 732              		.cfi_def_cfa_offset 0
 733 0024 7047     		bx	lr
 734              		.cfi_endproc
 735              	.LFE4:
 736              		.size	jsmn_init, .-jsmn_init
 737 0026 00BF     		.section	.text.jsmn_parse,"ax",%progbits
 738              		.align	2
 739              		.global	jsmn_parse
 740              		.thumb
 741              		.thumb_func
 742              		.type	jsmn_parse, %function
 743              	jsmn_parse:
 744              	.LFB5:
  24:jsmn.c        **** 
  25:jsmn.c        **** /**
  26:jsmn.c        ****  * Parse JSON string and fill tokens.
  27:jsmn.c        ****  */
  28:jsmn.c        **** JSMN_API int jsmn_parse(jsmn_parser *parser, const char *js, const size_t len,
  29:jsmn.c        ****                         jsmntok_t *tokens, const unsigned int num_tokens) {
 745              		.loc 2 29 0
 746              		.cfi_startproc
 747              		@ args = 4, pretend = 0, frame = 40
 748              		@ frame_needed = 1, uses_anonymous_args = 0
 749 0000 80B5     		push	{r7, lr}
 750              		.cfi_def_cfa_offset 8
 751              		.cfi_offset 7, -8
 752              		.cfi_offset 14, -4
 753 0002 8CB0     		sub	sp, sp, #48
 754              		.cfi_def_cfa_offset 56
 755 0004 02AF     		add	r7, sp, #8
 756              		.cfi_def_cfa 7, 48
 757 0006 F860     		str	r0, [r7, #12]
 758 0008 B960     		str	r1, [r7, #8]
 759 000a 7A60     		str	r2, [r7, #4]
 760 000c 3B60     		str	r3, [r7]
  30:jsmn.c        ****   int r;
  31:jsmn.c        ****   int i;
  32:jsmn.c        ****   jsmntok_t *token;
  33:jsmn.c        ****   int count = parser->toknext;
 761              		.loc 2 33 0
 762 000e FB68     		ldr	r3, [r7, #12]
 763 0010 5B68     		ldr	r3, [r3, #4]
 764 0012 3B62     		str	r3, [r7, #32]
  34:jsmn.c        **** 
  35:jsmn.c        ****   for (; parser->pos < len && js[parser->pos] != '\0'; parser->pos++) {
 765              		.loc 2 35 0
 766 0014 5FE1     		b	.L44
 767              	.L85:
 768              	.LBB4:
  36:jsmn.c        ****     char c;
ARM GAS  C:\Users\schmi\AppData\Local\Temp\ccJ6kb1p.s 			page 20


  37:jsmn.c        ****     jsmntype_t type;
  38:jsmn.c        **** 
  39:jsmn.c        ****     c = js[parser->pos];
 769              		.loc 2 39 0
 770 0016 FB68     		ldr	r3, [r7, #12]
 771 0018 1B68     		ldr	r3, [r3]
 772 001a BA68     		ldr	r2, [r7, #8]
 773 001c 1344     		add	r3, r3, r2
 774 001e 1B78     		ldrb	r3, [r3]
 775 0020 FB77     		strb	r3, [r7, #31]
  40:jsmn.c        ****     switch (c) {
 776              		.loc 2 40 0
 777 0022 FB7F     		ldrb	r3, [r7, #31]	@ zero_extendqisi2
 778 0024 2C2B     		cmp	r3, #44
 779 0026 00F0DD80 		beq	.L46
 780 002a 2C2B     		cmp	r3, #44
 781 002c 10DC     		bgt	.L47
 782 002e 0D2B     		cmp	r3, #13
 783 0030 00F04181 		beq	.L90
 784 0034 0D2B     		cmp	r3, #13
 785 0036 04DC     		bgt	.L49
 786 0038 093B     		subs	r3, r3, #9
 787 003a 012B     		cmp	r3, #1
 788 003c 00F21981 		bhi	.L45
  41:jsmn.c        ****     case '{':
  42:jsmn.c        ****     case '[':
  43:jsmn.c        ****       count++;
  44:jsmn.c        ****       if (tokens == NULL) {
  45:jsmn.c        ****         break;
  46:jsmn.c        ****       }
  47:jsmn.c        ****       token = jsmn_alloc_token(parser, tokens, num_tokens);
  48:jsmn.c        ****       if (token == NULL) {
  49:jsmn.c        ****         return JSMN_ERROR_NOMEM;
  50:jsmn.c        ****       }
  51:jsmn.c        ****       if (parser->toksuper != -1) {
  52:jsmn.c        ****         jsmntok_t *t = &tokens[parser->toksuper];
  53:jsmn.c        **** #ifdef JSMN_STRICT
  54:jsmn.c        ****         /* In strict mode an object or array can't become a key */
  55:jsmn.c        ****         if (t->type == JSMN_OBJECT) {
  56:jsmn.c        ****           return JSMN_ERROR_INVAL;
  57:jsmn.c        ****         }
  58:jsmn.c        **** #endif
  59:jsmn.c        ****         t->size++;
  60:jsmn.c        **** #ifdef JSMN_PARENT_LINKS
  61:jsmn.c        ****         token->parent = parser->toksuper;
  62:jsmn.c        **** #endif
  63:jsmn.c        ****       }
  64:jsmn.c        ****       token->type = (c == '{' ? JSMN_OBJECT : JSMN_ARRAY);
  65:jsmn.c        ****       token->start = parser->pos;
  66:jsmn.c        ****       parser->toksuper = parser->toknext - 1;
  67:jsmn.c        ****       break;
  68:jsmn.c        ****     case '}':
  69:jsmn.c        ****     case ']':
  70:jsmn.c        ****       if (tokens == NULL) {
  71:jsmn.c        ****         break;
  72:jsmn.c        ****       }
  73:jsmn.c        ****       type = (c == '}' ? JSMN_OBJECT : JSMN_ARRAY);
ARM GAS  C:\Users\schmi\AppData\Local\Temp\ccJ6kb1p.s 			page 21


  74:jsmn.c        **** #ifdef JSMN_PARENT_LINKS
  75:jsmn.c        ****       if (parser->toknext < 1) {
  76:jsmn.c        ****         return JSMN_ERROR_INVAL;
  77:jsmn.c        ****       }
  78:jsmn.c        ****       token = &tokens[parser->toknext - 1];
  79:jsmn.c        ****       for (;;) {
  80:jsmn.c        ****         if (token->start != -1 && token->end == -1) {
  81:jsmn.c        ****           if (token->type != type) {
  82:jsmn.c        ****             return JSMN_ERROR_INVAL;
  83:jsmn.c        ****           }
  84:jsmn.c        ****           token->end = parser->pos + 1;
  85:jsmn.c        ****           parser->toksuper = token->parent;
  86:jsmn.c        ****           break;
  87:jsmn.c        ****         }
  88:jsmn.c        ****         if (token->parent == -1) {
  89:jsmn.c        ****           if (token->type != type || parser->toksuper == -1) {
  90:jsmn.c        ****             return JSMN_ERROR_INVAL;
  91:jsmn.c        ****           }
  92:jsmn.c        ****           break;
  93:jsmn.c        ****         }
  94:jsmn.c        ****         token = &tokens[token->parent];
  95:jsmn.c        ****       }
  96:jsmn.c        **** #else
  97:jsmn.c        ****       for (i = parser->toknext - 1; i >= 0; i--) {
  98:jsmn.c        ****         token = &tokens[i];
  99:jsmn.c        ****         if (token->start != -1 && token->end == -1) {
 100:jsmn.c        ****           if (token->type != type) {
 101:jsmn.c        ****             return JSMN_ERROR_INVAL;
 102:jsmn.c        ****           }
 103:jsmn.c        ****           parser->toksuper = -1;
 104:jsmn.c        ****           token->end = parser->pos + 1;
 105:jsmn.c        ****           break;
 106:jsmn.c        ****         }
 107:jsmn.c        ****       }
 108:jsmn.c        ****       /* Error if unmatched closing bracket */
 109:jsmn.c        ****       if (i == -1) {
 110:jsmn.c        ****         return JSMN_ERROR_INVAL;
 111:jsmn.c        ****       }
 112:jsmn.c        ****       for (; i >= 0; i--) {
 113:jsmn.c        ****         token = &tokens[i];
 114:jsmn.c        ****         if (token->start != -1 && token->end == -1) {
 115:jsmn.c        ****           parser->toksuper = i;
 116:jsmn.c        ****           break;
 117:jsmn.c        ****         }
 118:jsmn.c        ****       }
 119:jsmn.c        **** #endif
 120:jsmn.c        ****       break;
 121:jsmn.c        ****     case '\"':
 122:jsmn.c        ****       r = jsmn_parse_string(parser, js, len, tokens, num_tokens);
 123:jsmn.c        ****       if (r < 0) {
 124:jsmn.c        ****         return r;
 125:jsmn.c        ****       }
 126:jsmn.c        ****       count++;
 127:jsmn.c        ****       if (parser->toksuper != -1 && tokens != NULL) {
 128:jsmn.c        ****         tokens[parser->toksuper].size++;
 129:jsmn.c        ****       }
 130:jsmn.c        ****       break;
ARM GAS  C:\Users\schmi\AppData\Local\Temp\ccJ6kb1p.s 			page 22


 131:jsmn.c        ****     case '\t':
 132:jsmn.c        ****     case '\r':
 133:jsmn.c        ****     case '\n':
 134:jsmn.c        ****     case ' ':
 135:jsmn.c        ****       break;
 789              		.loc 2 135 0
 790 0040 39E1     		b	.L90
 791              	.L49:
  40:jsmn.c        ****     switch (c) {
 792              		.loc 2 40 0
 793 0042 202B     		cmp	r3, #32
 794 0044 00F03781 		beq	.L90
 795 0048 222B     		cmp	r3, #34
 796 004a 00F0A180 		beq	.L50
 797 004e 10E1     		b	.L45
 798              	.L47:
 799 0050 5D2B     		cmp	r3, #93
 800 0052 43D0     		beq	.L51
 801 0054 5D2B     		cmp	r3, #93
 802 0056 05DC     		bgt	.L52
 803 0058 3A2B     		cmp	r3, #58
 804 005a 00F0BC80 		beq	.L53
 805 005e 5B2B     		cmp	r3, #91
 806 0060 05D0     		beq	.L54
 807 0062 06E1     		b	.L45
 808              	.L52:
 809 0064 7B2B     		cmp	r3, #123
 810 0066 02D0     		beq	.L54
 811 0068 7D2B     		cmp	r3, #125
 812 006a 37D0     		beq	.L51
 813 006c 01E1     		b	.L45
 814              	.L54:
  43:jsmn.c        ****       if (tokens == NULL) {
 815              		.loc 2 43 0
 816 006e 3B6A     		ldr	r3, [r7, #32]
 817 0070 0133     		adds	r3, r3, #1
 818 0072 3B62     		str	r3, [r7, #32]
  44:jsmn.c        ****         break;
 819              		.loc 2 44 0
 820 0074 3B68     		ldr	r3, [r7]
 821 0076 002B     		cmp	r3, #0
 822 0078 00F01F81 		beq	.L91
  47:jsmn.c        ****       if (token == NULL) {
 823              		.loc 2 47 0
 824 007c 3A6B     		ldr	r2, [r7, #48]
 825 007e 3968     		ldr	r1, [r7]
 826 0080 F868     		ldr	r0, [r7, #12]
 827 0082 FFF7FEFF 		bl	jsmn_alloc_token
 828 0086 B861     		str	r0, [r7, #24]
  48:jsmn.c        ****         return JSMN_ERROR_NOMEM;
 829              		.loc 2 48 0
 830 0088 BB69     		ldr	r3, [r7, #24]
 831 008a 002B     		cmp	r3, #0
 832 008c 02D1     		bne	.L57
  49:jsmn.c        ****       }
 833              		.loc 2 49 0
 834 008e 4FF0FF33 		mov	r3, #-1
ARM GAS  C:\Users\schmi\AppData\Local\Temp\ccJ6kb1p.s 			page 23


 835 0092 4FE1     		b	.L58
 836              	.L57:
  51:jsmn.c        ****         jsmntok_t *t = &tokens[parser->toksuper];
 837              		.loc 2 51 0
 838 0094 FB68     		ldr	r3, [r7, #12]
 839 0096 9B68     		ldr	r3, [r3, #8]
 840 0098 B3F1FF3F 		cmp	r3, #-1
 841 009c 0AD0     		beq	.L59
 842              	.LBB5:
  52:jsmn.c        **** #ifdef JSMN_STRICT
 843              		.loc 2 52 0
 844 009e FB68     		ldr	r3, [r7, #12]
 845 00a0 9B68     		ldr	r3, [r3, #8]
 846 00a2 1B01     		lsls	r3, r3, #4
 847 00a4 3A68     		ldr	r2, [r7]
 848 00a6 1344     		add	r3, r3, r2
 849 00a8 3B61     		str	r3, [r7, #16]
  59:jsmn.c        **** #ifdef JSMN_PARENT_LINKS
 850              		.loc 2 59 0
 851 00aa 3B69     		ldr	r3, [r7, #16]
 852 00ac DB68     		ldr	r3, [r3, #12]
 853 00ae 5A1C     		adds	r2, r3, #1
 854 00b0 3B69     		ldr	r3, [r7, #16]
 855 00b2 DA60     		str	r2, [r3, #12]
 856              	.L59:
 857              	.LBE5:
  64:jsmn.c        ****       token->start = parser->pos;
 858              		.loc 2 64 0
 859 00b4 FB7F     		ldrb	r3, [r7, #31]	@ zero_extendqisi2
 860 00b6 7B2B     		cmp	r3, #123
 861 00b8 01D1     		bne	.L60
  64:jsmn.c        ****       token->start = parser->pos;
 862              		.loc 2 64 0 is_stmt 0 discriminator 1
 863 00ba 0122     		movs	r2, #1
 864 00bc 00E0     		b	.L61
 865              	.L60:
  64:jsmn.c        ****       token->start = parser->pos;
 866              		.loc 2 64 0 discriminator 2
 867 00be 0222     		movs	r2, #2
 868              	.L61:
  64:jsmn.c        ****       token->start = parser->pos;
 869              		.loc 2 64 0 discriminator 4
 870 00c0 BB69     		ldr	r3, [r7, #24]
 871 00c2 1A70     		strb	r2, [r3]
  65:jsmn.c        ****       parser->toksuper = parser->toknext - 1;
 872              		.loc 2 65 0 is_stmt 1 discriminator 4
 873 00c4 FB68     		ldr	r3, [r7, #12]
 874 00c6 1B68     		ldr	r3, [r3]
 875 00c8 1A46     		mov	r2, r3
 876 00ca BB69     		ldr	r3, [r7, #24]
 877 00cc 5A60     		str	r2, [r3, #4]
  66:jsmn.c        ****       break;
 878              		.loc 2 66 0 discriminator 4
 879 00ce FB68     		ldr	r3, [r7, #12]
 880 00d0 5B68     		ldr	r3, [r3, #4]
 881 00d2 013B     		subs	r3, r3, #1
 882 00d4 1A46     		mov	r2, r3
ARM GAS  C:\Users\schmi\AppData\Local\Temp\ccJ6kb1p.s 			page 24


 883 00d6 FB68     		ldr	r3, [r7, #12]
 884 00d8 9A60     		str	r2, [r3, #8]
  67:jsmn.c        ****     case '}':
 885              		.loc 2 67 0 discriminator 4
 886 00da F7E0     		b	.L56
 887              	.L51:
  70:jsmn.c        ****         break;
 888              		.loc 2 70 0
 889 00dc 3B68     		ldr	r3, [r7]
 890 00de 002B     		cmp	r3, #0
 891 00e0 00F0ED80 		beq	.L92
  73:jsmn.c        **** #ifdef JSMN_PARENT_LINKS
 892              		.loc 2 73 0
 893 00e4 FB7F     		ldrb	r3, [r7, #31]	@ zero_extendqisi2
 894 00e6 7D2B     		cmp	r3, #125
 895 00e8 01D1     		bne	.L63
  73:jsmn.c        **** #ifdef JSMN_PARENT_LINKS
 896              		.loc 2 73 0 is_stmt 0 discriminator 1
 897 00ea 0123     		movs	r3, #1
 898 00ec 00E0     		b	.L64
 899              	.L63:
  73:jsmn.c        **** #ifdef JSMN_PARENT_LINKS
 900              		.loc 2 73 0 discriminator 2
 901 00ee 0223     		movs	r3, #2
 902              	.L64:
  73:jsmn.c        **** #ifdef JSMN_PARENT_LINKS
 903              		.loc 2 73 0 discriminator 4
 904 00f0 BB77     		strb	r3, [r7, #30]
  97:jsmn.c        ****         token = &tokens[i];
 905              		.loc 2 97 0 is_stmt 1 discriminator 4
 906 00f2 FB68     		ldr	r3, [r7, #12]
 907 00f4 5B68     		ldr	r3, [r3, #4]
 908 00f6 013B     		subs	r3, r3, #1
 909 00f8 7B62     		str	r3, [r7, #36]
 910 00fa 24E0     		b	.L65
 911              	.L69:
  98:jsmn.c        ****         if (token->start != -1 && token->end == -1) {
 912              		.loc 2 98 0
 913 00fc 7B6A     		ldr	r3, [r7, #36]
 914 00fe 1B01     		lsls	r3, r3, #4
 915 0100 3A68     		ldr	r2, [r7]
 916 0102 1344     		add	r3, r3, r2
 917 0104 BB61     		str	r3, [r7, #24]
  99:jsmn.c        ****           if (token->type != type) {
 918              		.loc 2 99 0
 919 0106 BB69     		ldr	r3, [r7, #24]
 920 0108 5B68     		ldr	r3, [r3, #4]
 921 010a B3F1FF3F 		cmp	r3, #-1
 922 010e 17D0     		beq	.L66
  99:jsmn.c        ****           if (token->type != type) {
 923              		.loc 2 99 0 is_stmt 0 discriminator 1
 924 0110 BB69     		ldr	r3, [r7, #24]
 925 0112 9B68     		ldr	r3, [r3, #8]
 926 0114 B3F1FF3F 		cmp	r3, #-1
 927 0118 12D1     		bne	.L66
 100:jsmn.c        ****             return JSMN_ERROR_INVAL;
 928              		.loc 2 100 0 is_stmt 1
ARM GAS  C:\Users\schmi\AppData\Local\Temp\ccJ6kb1p.s 			page 25


 929 011a BB69     		ldr	r3, [r7, #24]
 930 011c 1B78     		ldrb	r3, [r3]	@ zero_extendqisi2
 931 011e BA7F     		ldrb	r2, [r7, #30]	@ zero_extendqisi2
 932 0120 9A42     		cmp	r2, r3
 933 0122 02D0     		beq	.L67
 101:jsmn.c        ****           }
 934              		.loc 2 101 0
 935 0124 6FF00103 		mvn	r3, #1
 936 0128 04E1     		b	.L58
 937              	.L67:
 103:jsmn.c        ****           token->end = parser->pos + 1;
 938              		.loc 2 103 0
 939 012a FB68     		ldr	r3, [r7, #12]
 940 012c 4FF0FF32 		mov	r2, #-1
 941 0130 9A60     		str	r2, [r3, #8]
 104:jsmn.c        ****           break;
 942              		.loc 2 104 0
 943 0132 FB68     		ldr	r3, [r7, #12]
 944 0134 1B68     		ldr	r3, [r3]
 945 0136 0133     		adds	r3, r3, #1
 946 0138 1A46     		mov	r2, r3
 947 013a BB69     		ldr	r3, [r7, #24]
 948 013c 9A60     		str	r2, [r3, #8]
 105:jsmn.c        ****         }
 949              		.loc 2 105 0
 950 013e 05E0     		b	.L68
 951              	.L66:
  97:jsmn.c        ****         token = &tokens[i];
 952              		.loc 2 97 0 discriminator 2
 953 0140 7B6A     		ldr	r3, [r7, #36]
 954 0142 013B     		subs	r3, r3, #1
 955 0144 7B62     		str	r3, [r7, #36]
 956              	.L65:
  97:jsmn.c        ****         token = &tokens[i];
 957              		.loc 2 97 0 is_stmt 0 discriminator 1
 958 0146 7B6A     		ldr	r3, [r7, #36]
 959 0148 002B     		cmp	r3, #0
 960 014a D7DA     		bge	.L69
 961              	.L68:
 109:jsmn.c        ****         return JSMN_ERROR_INVAL;
 962              		.loc 2 109 0 is_stmt 1
 963 014c 7B6A     		ldr	r3, [r7, #36]
 964 014e B3F1FF3F 		cmp	r3, #-1
 965 0152 19D1     		bne	.L71
 110:jsmn.c        ****       }
 966              		.loc 2 110 0
 967 0154 6FF00103 		mvn	r3, #1
 968 0158 ECE0     		b	.L58
 969              	.L74:
 113:jsmn.c        ****         if (token->start != -1 && token->end == -1) {
 970              		.loc 2 113 0
 971 015a 7B6A     		ldr	r3, [r7, #36]
 972 015c 1B01     		lsls	r3, r3, #4
 973 015e 3A68     		ldr	r2, [r7]
 974 0160 1344     		add	r3, r3, r2
 975 0162 BB61     		str	r3, [r7, #24]
 114:jsmn.c        ****           parser->toksuper = i;
ARM GAS  C:\Users\schmi\AppData\Local\Temp\ccJ6kb1p.s 			page 26


 976              		.loc 2 114 0
 977 0164 BB69     		ldr	r3, [r7, #24]
 978 0166 5B68     		ldr	r3, [r3, #4]
 979 0168 B3F1FF3F 		cmp	r3, #-1
 980 016c 09D0     		beq	.L72
 114:jsmn.c        ****           parser->toksuper = i;
 981              		.loc 2 114 0 is_stmt 0 discriminator 1
 982 016e BB69     		ldr	r3, [r7, #24]
 983 0170 9B68     		ldr	r3, [r3, #8]
 984 0172 B3F1FF3F 		cmp	r3, #-1
 985 0176 04D1     		bne	.L72
 115:jsmn.c        ****           break;
 986              		.loc 2 115 0 is_stmt 1
 987 0178 FB68     		ldr	r3, [r7, #12]
 988 017a 7A6A     		ldr	r2, [r7, #36]
 989 017c 9A60     		str	r2, [r3, #8]
 116:jsmn.c        ****         }
 990              		.loc 2 116 0
 991 017e 00BF     		nop
 120:jsmn.c        ****     case '\"':
 992              		.loc 2 120 0
 993 0180 A4E0     		b	.L56
 994              	.L72:
 112:jsmn.c        ****         token = &tokens[i];
 995              		.loc 2 112 0
 996 0182 7B6A     		ldr	r3, [r7, #36]
 997 0184 013B     		subs	r3, r3, #1
 998 0186 7B62     		str	r3, [r7, #36]
 999              	.L71:
 112:jsmn.c        ****         token = &tokens[i];
 1000              		.loc 2 112 0 is_stmt 0 discriminator 1
 1001 0188 7B6A     		ldr	r3, [r7, #36]
 1002 018a 002B     		cmp	r3, #0
 1003 018c E5DA     		bge	.L74
 120:jsmn.c        ****     case '\"':
 1004              		.loc 2 120 0 is_stmt 1
 1005 018e 9DE0     		b	.L56
 1006              	.L50:
 122:jsmn.c        ****       if (r < 0) {
 1007              		.loc 2 122 0
 1008 0190 3B6B     		ldr	r3, [r7, #48]
 1009 0192 0093     		str	r3, [sp]
 1010 0194 3B68     		ldr	r3, [r7]
 1011 0196 7A68     		ldr	r2, [r7, #4]
 1012 0198 B968     		ldr	r1, [r7, #8]
 1013 019a F868     		ldr	r0, [r7, #12]
 1014 019c FFF7FEFF 		bl	jsmn_parse_string
 1015 01a0 7861     		str	r0, [r7, #20]
 123:jsmn.c        ****         return r;
 1016              		.loc 2 123 0
 1017 01a2 7B69     		ldr	r3, [r7, #20]
 1018 01a4 002B     		cmp	r3, #0
 1019 01a6 01DA     		bge	.L75
 124:jsmn.c        ****       }
 1020              		.loc 2 124 0
 1021 01a8 7B69     		ldr	r3, [r7, #20]
 1022 01aa C3E0     		b	.L58
ARM GAS  C:\Users\schmi\AppData\Local\Temp\ccJ6kb1p.s 			page 27


 1023              	.L75:
 126:jsmn.c        ****       if (parser->toksuper != -1 && tokens != NULL) {
 1024              		.loc 2 126 0
 1025 01ac 3B6A     		ldr	r3, [r7, #32]
 1026 01ae 0133     		adds	r3, r3, #1
 1027 01b0 3B62     		str	r3, [r7, #32]
 127:jsmn.c        ****         tokens[parser->toksuper].size++;
 1028              		.loc 2 127 0
 1029 01b2 FB68     		ldr	r3, [r7, #12]
 1030 01b4 9B68     		ldr	r3, [r3, #8]
 1031 01b6 B3F1FF3F 		cmp	r3, #-1
 1032 01ba 00F08280 		beq	.L93
 127:jsmn.c        ****         tokens[parser->toksuper].size++;
 1033              		.loc 2 127 0 is_stmt 0 discriminator 1
 1034 01be 3B68     		ldr	r3, [r7]
 1035 01c0 002B     		cmp	r3, #0
 1036 01c2 7ED0     		beq	.L93
 128:jsmn.c        ****       }
 1037              		.loc 2 128 0 is_stmt 1
 1038 01c4 FB68     		ldr	r3, [r7, #12]
 1039 01c6 9B68     		ldr	r3, [r3, #8]
 1040 01c8 1B01     		lsls	r3, r3, #4
 1041 01ca 3A68     		ldr	r2, [r7]
 1042 01cc 1344     		add	r3, r3, r2
 1043 01ce DA68     		ldr	r2, [r3, #12]
 1044 01d0 0132     		adds	r2, r2, #1
 1045 01d2 DA60     		str	r2, [r3, #12]
 130:jsmn.c        ****     case '\t':
 1046              		.loc 2 130 0
 1047 01d4 75E0     		b	.L93
 1048              	.L53:
 136:jsmn.c        ****     case ':':
 137:jsmn.c        ****       parser->toksuper = parser->toknext - 1;
 1049              		.loc 2 137 0
 1050 01d6 FB68     		ldr	r3, [r7, #12]
 1051 01d8 5B68     		ldr	r3, [r3, #4]
 1052 01da 013B     		subs	r3, r3, #1
 1053 01dc 1A46     		mov	r2, r3
 1054 01de FB68     		ldr	r3, [r7, #12]
 1055 01e0 9A60     		str	r2, [r3, #8]
 138:jsmn.c        ****       break;
 1056              		.loc 2 138 0
 1057 01e2 73E0     		b	.L56
 1058              	.L46:
 139:jsmn.c        ****     case ',':
 140:jsmn.c        ****       if (tokens != NULL && parser->toksuper != -1 &&
 1059              		.loc 2 140 0
 1060 01e4 3B68     		ldr	r3, [r7]
 1061 01e6 002B     		cmp	r3, #0
 1062 01e8 6DD0     		beq	.L94
 1063              		.loc 2 140 0 is_stmt 0 discriminator 1
 1064 01ea FB68     		ldr	r3, [r7, #12]
 1065 01ec 9B68     		ldr	r3, [r3, #8]
 1066 01ee B3F1FF3F 		cmp	r3, #-1
 1067 01f2 68D0     		beq	.L94
 141:jsmn.c        ****           tokens[parser->toksuper].type != JSMN_ARRAY &&
 1068              		.loc 2 141 0 is_stmt 1 discriminator 2
ARM GAS  C:\Users\schmi\AppData\Local\Temp\ccJ6kb1p.s 			page 28


 1069 01f4 FB68     		ldr	r3, [r7, #12]
 1070 01f6 9B68     		ldr	r3, [r3, #8]
 1071 01f8 1B01     		lsls	r3, r3, #4
 1072 01fa 3A68     		ldr	r2, [r7]
 1073 01fc 1344     		add	r3, r3, r2
 1074 01fe 1B78     		ldrb	r3, [r3]	@ zero_extendqisi2
 140:jsmn.c        ****           tokens[parser->toksuper].type != JSMN_ARRAY &&
 1075              		.loc 2 140 0 discriminator 2
 1076 0200 022B     		cmp	r3, #2
 1077 0202 60D0     		beq	.L94
 142:jsmn.c        ****           tokens[parser->toksuper].type != JSMN_OBJECT) {
 1078              		.loc 2 142 0
 1079 0204 FB68     		ldr	r3, [r7, #12]
 1080 0206 9B68     		ldr	r3, [r3, #8]
 1081 0208 1B01     		lsls	r3, r3, #4
 1082 020a 3A68     		ldr	r2, [r7]
 1083 020c 1344     		add	r3, r3, r2
 1084 020e 1B78     		ldrb	r3, [r3]	@ zero_extendqisi2
 141:jsmn.c        ****           tokens[parser->toksuper].type != JSMN_ARRAY &&
 1085              		.loc 2 141 0
 1086 0210 012B     		cmp	r3, #1
 1087 0212 58D0     		beq	.L94
 143:jsmn.c        **** #ifdef JSMN_PARENT_LINKS
 144:jsmn.c        ****         parser->toksuper = tokens[parser->toksuper].parent;
 145:jsmn.c        **** #else
 146:jsmn.c        ****         for (i = parser->toknext - 1; i >= 0; i--) {
 1088              		.loc 2 146 0
 1089 0214 FB68     		ldr	r3, [r7, #12]
 1090 0216 5B68     		ldr	r3, [r3, #4]
 1091 0218 013B     		subs	r3, r3, #1
 1092 021a 7B62     		str	r3, [r7, #36]
 1093 021c 25E0     		b	.L78
 1094              	.L81:
 147:jsmn.c        ****           if (tokens[i].type == JSMN_ARRAY || tokens[i].type == JSMN_OBJECT) {
 1095              		.loc 2 147 0
 1096 021e 7B6A     		ldr	r3, [r7, #36]
 1097 0220 1B01     		lsls	r3, r3, #4
 1098 0222 3A68     		ldr	r2, [r7]
 1099 0224 1344     		add	r3, r3, r2
 1100 0226 1B78     		ldrb	r3, [r3]	@ zero_extendqisi2
 1101 0228 022B     		cmp	r3, #2
 1102 022a 06D0     		beq	.L79
 1103              		.loc 2 147 0 is_stmt 0 discriminator 1
 1104 022c 7B6A     		ldr	r3, [r7, #36]
 1105 022e 1B01     		lsls	r3, r3, #4
 1106 0230 3A68     		ldr	r2, [r7]
 1107 0232 1344     		add	r3, r3, r2
 1108 0234 1B78     		ldrb	r3, [r3]	@ zero_extendqisi2
 1109 0236 012B     		cmp	r3, #1
 1110 0238 14D1     		bne	.L80
 1111              	.L79:
 148:jsmn.c        ****             if (tokens[i].start != -1 && tokens[i].end == -1) {
 1112              		.loc 2 148 0 is_stmt 1
 1113 023a 7B6A     		ldr	r3, [r7, #36]
 1114 023c 1B01     		lsls	r3, r3, #4
 1115 023e 3A68     		ldr	r2, [r7]
 1116 0240 1344     		add	r3, r3, r2
ARM GAS  C:\Users\schmi\AppData\Local\Temp\ccJ6kb1p.s 			page 29


 1117 0242 5B68     		ldr	r3, [r3, #4]
 1118 0244 B3F1FF3F 		cmp	r3, #-1
 1119 0248 0CD0     		beq	.L80
 1120              		.loc 2 148 0 is_stmt 0 discriminator 1
 1121 024a 7B6A     		ldr	r3, [r7, #36]
 1122 024c 1B01     		lsls	r3, r3, #4
 1123 024e 3A68     		ldr	r2, [r7]
 1124 0250 1344     		add	r3, r3, r2
 1125 0252 9B68     		ldr	r3, [r3, #8]
 1126 0254 B3F1FF3F 		cmp	r3, #-1
 1127 0258 04D1     		bne	.L80
 149:jsmn.c        ****               parser->toksuper = i;
 1128              		.loc 2 149 0 is_stmt 1
 1129 025a FB68     		ldr	r3, [r7, #12]
 1130 025c 7A6A     		ldr	r2, [r7, #36]
 1131 025e 9A60     		str	r2, [r3, #8]
 150:jsmn.c        ****               break;
 1132              		.loc 2 150 0
 1133 0260 00BF     		nop
 151:jsmn.c        ****             }
 152:jsmn.c        ****           }
 153:jsmn.c        ****         }
 154:jsmn.c        **** #endif
 155:jsmn.c        ****       }
 156:jsmn.c        ****       break;
 1134              		.loc 2 156 0
 1135 0262 30E0     		b	.L94
 1136              	.L80:
 146:jsmn.c        ****           if (tokens[i].type == JSMN_ARRAY || tokens[i].type == JSMN_OBJECT) {
 1137              		.loc 2 146 0 discriminator 2
 1138 0264 7B6A     		ldr	r3, [r7, #36]
 1139 0266 013B     		subs	r3, r3, #1
 1140 0268 7B62     		str	r3, [r7, #36]
 1141              	.L78:
 146:jsmn.c        ****           if (tokens[i].type == JSMN_ARRAY || tokens[i].type == JSMN_OBJECT) {
 1142              		.loc 2 146 0 is_stmt 0 discriminator 1
 1143 026a 7B6A     		ldr	r3, [r7, #36]
 1144 026c 002B     		cmp	r3, #0
 1145 026e D6DA     		bge	.L81
 1146              		.loc 2 156 0 is_stmt 1
 1147 0270 29E0     		b	.L94
 1148              	.L45:
 157:jsmn.c        **** #ifdef JSMN_STRICT
 158:jsmn.c        ****     /* In strict mode primitives are: numbers and booleans */
 159:jsmn.c        ****     case '-':
 160:jsmn.c        ****     case '0':
 161:jsmn.c        ****     case '1':
 162:jsmn.c        ****     case '2':
 163:jsmn.c        ****     case '3':
 164:jsmn.c        ****     case '4':
 165:jsmn.c        ****     case '5':
 166:jsmn.c        ****     case '6':
 167:jsmn.c        ****     case '7':
 168:jsmn.c        ****     case '8':
 169:jsmn.c        ****     case '9':
 170:jsmn.c        ****     case 't':
 171:jsmn.c        ****     case 'f':
ARM GAS  C:\Users\schmi\AppData\Local\Temp\ccJ6kb1p.s 			page 30


 172:jsmn.c        ****     case 'n':
 173:jsmn.c        ****       /* And they must not be keys of the object */
 174:jsmn.c        ****       if (tokens != NULL && parser->toksuper != -1) {
 175:jsmn.c        ****         const jsmntok_t *t = &tokens[parser->toksuper];
 176:jsmn.c        ****         if (t->type == JSMN_OBJECT ||
 177:jsmn.c        ****             (t->type == JSMN_STRING && t->size != 0)) {
 178:jsmn.c        ****           return JSMN_ERROR_INVAL;
 179:jsmn.c        ****         }
 180:jsmn.c        ****       }
 181:jsmn.c        **** #else
 182:jsmn.c        ****     /* In non-strict mode every unquoted value is a primitive */
 183:jsmn.c        ****     default:
 184:jsmn.c        **** #endif
 185:jsmn.c        ****       r = jsmn_parse_primitive(parser, js, len, tokens, num_tokens);
 1149              		.loc 2 185 0
 1150 0272 3B6B     		ldr	r3, [r7, #48]
 1151 0274 0093     		str	r3, [sp]
 1152 0276 3B68     		ldr	r3, [r7]
 1153 0278 7A68     		ldr	r2, [r7, #4]
 1154 027a B968     		ldr	r1, [r7, #8]
 1155 027c F868     		ldr	r0, [r7, #12]
 1156 027e FFF7FEFF 		bl	jsmn_parse_primitive
 1157 0282 7861     		str	r0, [r7, #20]
 186:jsmn.c        ****       if (r < 0) {
 1158              		.loc 2 186 0
 1159 0284 7B69     		ldr	r3, [r7, #20]
 1160 0286 002B     		cmp	r3, #0
 1161 0288 01DA     		bge	.L82
 187:jsmn.c        ****         return r;
 1162              		.loc 2 187 0
 1163 028a 7B69     		ldr	r3, [r7, #20]
 1164 028c 52E0     		b	.L58
 1165              	.L82:
 188:jsmn.c        ****       }
 189:jsmn.c        ****       count++;
 1166              		.loc 2 189 0
 1167 028e 3B6A     		ldr	r3, [r7, #32]
 1168 0290 0133     		adds	r3, r3, #1
 1169 0292 3B62     		str	r3, [r7, #32]
 190:jsmn.c        ****       if (parser->toksuper != -1 && tokens != NULL) {
 1170              		.loc 2 190 0
 1171 0294 FB68     		ldr	r3, [r7, #12]
 1172 0296 9B68     		ldr	r3, [r3, #8]
 1173 0298 B3F1FF3F 		cmp	r3, #-1
 1174 029c 15D0     		beq	.L95
 1175              		.loc 2 190 0 is_stmt 0 discriminator 1
 1176 029e 3B68     		ldr	r3, [r7]
 1177 02a0 002B     		cmp	r3, #0
 1178 02a2 12D0     		beq	.L95
 191:jsmn.c        ****         tokens[parser->toksuper].size++;
 1179              		.loc 2 191 0 is_stmt 1
 1180 02a4 FB68     		ldr	r3, [r7, #12]
 1181 02a6 9B68     		ldr	r3, [r3, #8]
 1182 02a8 1B01     		lsls	r3, r3, #4
 1183 02aa 3A68     		ldr	r2, [r7]
 1184 02ac 1344     		add	r3, r3, r2
 1185 02ae DA68     		ldr	r2, [r3, #12]
ARM GAS  C:\Users\schmi\AppData\Local\Temp\ccJ6kb1p.s 			page 31


 1186 02b0 0132     		adds	r2, r2, #1
 1187 02b2 DA60     		str	r2, [r3, #12]
 192:jsmn.c        ****       }
 193:jsmn.c        ****       break;
 1188              		.loc 2 193 0
 1189 02b4 09E0     		b	.L95
 1190              	.L90:
 135:jsmn.c        ****     case ':':
 1191              		.loc 2 135 0
 1192 02b6 00BF     		nop
 1193 02b8 08E0     		b	.L56
 1194              	.L91:
  45:jsmn.c        ****       }
 1195              		.loc 2 45 0
 1196 02ba 00BF     		nop
 1197 02bc 06E0     		b	.L56
 1198              	.L92:
  71:jsmn.c        ****       }
 1199              		.loc 2 71 0
 1200 02be 00BF     		nop
 1201 02c0 04E0     		b	.L56
 1202              	.L93:
 130:jsmn.c        ****     case '\t':
 1203              		.loc 2 130 0
 1204 02c2 00BF     		nop
 1205 02c4 02E0     		b	.L56
 1206              	.L94:
 156:jsmn.c        **** #ifdef JSMN_STRICT
 1207              		.loc 2 156 0
 1208 02c6 00BF     		nop
 1209 02c8 00E0     		b	.L56
 1210              	.L95:
 1211              		.loc 2 193 0
 1212 02ca 00BF     		nop
 1213              	.L56:
 1214              	.LBE4:
  35:jsmn.c        ****     char c;
 1215              		.loc 2 35 0
 1216 02cc FB68     		ldr	r3, [r7, #12]
 1217 02ce 1B68     		ldr	r3, [r3]
 1218 02d0 5A1C     		adds	r2, r3, #1
 1219 02d2 FB68     		ldr	r3, [r7, #12]
 1220 02d4 1A60     		str	r2, [r3]
 1221              	.L44:
  35:jsmn.c        ****     char c;
 1222              		.loc 2 35 0 is_stmt 0 discriminator 1
 1223 02d6 FB68     		ldr	r3, [r7, #12]
 1224 02d8 1A68     		ldr	r2, [r3]
 1225 02da 7B68     		ldr	r3, [r7, #4]
 1226 02dc 9A42     		cmp	r2, r3
 1227 02de 07D2     		bcs	.L84
  35:jsmn.c        ****     char c;
 1228              		.loc 2 35 0 discriminator 2
 1229 02e0 FB68     		ldr	r3, [r7, #12]
 1230 02e2 1B68     		ldr	r3, [r3]
 1231 02e4 BA68     		ldr	r2, [r7, #8]
 1232 02e6 1344     		add	r3, r3, r2
ARM GAS  C:\Users\schmi\AppData\Local\Temp\ccJ6kb1p.s 			page 32


 1233 02e8 1B78     		ldrb	r3, [r3]	@ zero_extendqisi2
 1234 02ea 002B     		cmp	r3, #0
 1235 02ec 7FF493AE 		bne	.L85
 1236              	.L84:
 194:jsmn.c        **** 
 195:jsmn.c        **** #ifdef JSMN_STRICT
 196:jsmn.c        ****     /* Unexpected char in strict mode */
 197:jsmn.c        ****     default:
 198:jsmn.c        ****       return JSMN_ERROR_INVAL;
 199:jsmn.c        **** #endif
 200:jsmn.c        ****     }
 201:jsmn.c        ****   }
 202:jsmn.c        **** 
 203:jsmn.c        ****   if (tokens != NULL) {
 1237              		.loc 2 203 0 is_stmt 1
 1238 02f0 3B68     		ldr	r3, [r7]
 1239 02f2 002B     		cmp	r3, #0
 1240 02f4 1DD0     		beq	.L86
 204:jsmn.c        ****     for (i = parser->toknext - 1; i >= 0; i--) {
 1241              		.loc 2 204 0
 1242 02f6 FB68     		ldr	r3, [r7, #12]
 1243 02f8 5B68     		ldr	r3, [r3, #4]
 1244 02fa 013B     		subs	r3, r3, #1
 1245 02fc 7B62     		str	r3, [r7, #36]
 1246 02fe 15E0     		b	.L87
 1247              	.L89:
 205:jsmn.c        ****       /* Unmatched opened object or array */
 206:jsmn.c        ****       if (tokens[i].start != -1 && tokens[i].end == -1) {
 1248              		.loc 2 206 0
 1249 0300 7B6A     		ldr	r3, [r7, #36]
 1250 0302 1B01     		lsls	r3, r3, #4
 1251 0304 3A68     		ldr	r2, [r7]
 1252 0306 1344     		add	r3, r3, r2
 1253 0308 5B68     		ldr	r3, [r3, #4]
 1254 030a B3F1FF3F 		cmp	r3, #-1
 1255 030e 0AD0     		beq	.L88
 1256              		.loc 2 206 0 is_stmt 0 discriminator 1
 1257 0310 7B6A     		ldr	r3, [r7, #36]
 1258 0312 1B01     		lsls	r3, r3, #4
 1259 0314 3A68     		ldr	r2, [r7]
 1260 0316 1344     		add	r3, r3, r2
 1261 0318 9B68     		ldr	r3, [r3, #8]
 1262 031a B3F1FF3F 		cmp	r3, #-1
 1263 031e 02D1     		bne	.L88
 207:jsmn.c        ****         return JSMN_ERROR_PART;
 1264              		.loc 2 207 0 is_stmt 1
 1265 0320 6FF00203 		mvn	r3, #2
 1266 0324 06E0     		b	.L58
 1267              	.L88:
 204:jsmn.c        ****     for (i = parser->toknext - 1; i >= 0; i--) {
 1268              		.loc 2 204 0 discriminator 2
 1269 0326 7B6A     		ldr	r3, [r7, #36]
 1270 0328 013B     		subs	r3, r3, #1
 1271 032a 7B62     		str	r3, [r7, #36]
 1272              	.L87:
 204:jsmn.c        ****     for (i = parser->toknext - 1; i >= 0; i--) {
 1273              		.loc 2 204 0 is_stmt 0 discriminator 1
ARM GAS  C:\Users\schmi\AppData\Local\Temp\ccJ6kb1p.s 			page 33


 1274 032c 7B6A     		ldr	r3, [r7, #36]
 1275 032e 002B     		cmp	r3, #0
 1276 0330 E6DA     		bge	.L89
 1277              	.L86:
 208:jsmn.c        ****       }
 209:jsmn.c        ****     }
 210:jsmn.c        ****   }
 211:jsmn.c        **** 
 212:jsmn.c        ****   return count;
 1278              		.loc 2 212 0 is_stmt 1
 1279 0332 3B6A     		ldr	r3, [r7, #32]
 1280              	.L58:
 213:jsmn.c        **** }
 1281              		.loc 2 213 0
 1282 0334 1846     		mov	r0, r3
 1283 0336 2837     		adds	r7, r7, #40
 1284              		.cfi_def_cfa_offset 8
 1285 0338 BD46     		mov	sp, r7
 1286              		.cfi_def_cfa_register 13
 1287              		@ sp needed
 1288 033a 80BD     		pop	{r7, pc}
 1289              		.cfi_endproc
 1290              	.LFE5:
 1291              		.size	jsmn_parse, .-jsmn_parse
 1292              		.text
 1293              	.Letext0:
 1294              		.file 3 "c:\\program files (x86)\\cypress\\psoc creator\\4.4\\psoc creator\\import\\gnu\\arm\\5.4.