ARM GAS  C:\Users\schmi\AppData\Local\Temp\cc3rBAwr.s 			page 1


   1              		.syntax unified
   2              		.cpu cortex-m3
   3              		.fpu softvfp
   4              		.eabi_attribute 20, 1
   5              		.eabi_attribute 21, 1
   6              		.eabi_attribute 23, 3
   7              		.eabi_attribute 24, 1
   8              		.eabi_attribute 25, 1
   9              		.eabi_attribute 26, 1
  10              		.eabi_attribute 30, 6
  11              		.eabi_attribute 34, 1
  12              		.eabi_attribute 18, 4
  13              		.thumb
  14              		.syntax unified
  15              		.file	"message.c"
  16              		.text
  17              	.Ltext0:
  18              		.cfi_sections	.debug_frame
  19              		.section	.text.jsmn_alloc_token,"ax",%progbits
  20              		.align	2
  21              		.thumb
  22              		.thumb_func
  23              		.type	jsmn_alloc_token, %function
  24              	jsmn_alloc_token:
  25              	.LFB0:
  26              		.file 1 ".\\source\\bsw\\json/jsmn.h"
   1:.\source\bsw\json/jsmn.h **** /*
   2:.\source\bsw\json/jsmn.h ****  * MIT License
   3:.\source\bsw\json/jsmn.h ****  *
   4:.\source\bsw\json/jsmn.h ****  * Copyright (c) 2010 Serge Zaitsev
   5:.\source\bsw\json/jsmn.h ****  *
   6:.\source\bsw\json/jsmn.h ****  * Permission is hereby granted, free of charge, to any person obtaining a copy
   7:.\source\bsw\json/jsmn.h ****  * of this software and associated documentation files (the "Software"), to deal
   8:.\source\bsw\json/jsmn.h ****  * in the Software without restriction, including without limitation the rights
   9:.\source\bsw\json/jsmn.h ****  * to use, copy, modify, merge, publish, distribute, sublicense, and/or sell
  10:.\source\bsw\json/jsmn.h ****  * copies of the Software, and to permit persons to whom the Software is
  11:.\source\bsw\json/jsmn.h ****  * furnished to do so, subject to the following conditions:
  12:.\source\bsw\json/jsmn.h ****  *
  13:.\source\bsw\json/jsmn.h ****  * The above copyright notice and this permission notice shall be included in
  14:.\source\bsw\json/jsmn.h ****  * all copies or substantial portions of the Software.
  15:.\source\bsw\json/jsmn.h ****  *
  16:.\source\bsw\json/jsmn.h ****  * THE SOFTWARE IS PROVIDED "AS IS", WITHOUT WARRANTY OF ANY KIND, EXPRESS OR
  17:.\source\bsw\json/jsmn.h ****  * IMPLIED, INCLUDING BUT NOT LIMITED TO THE WARRANTIES OF MERCHANTABILITY,
  18:.\source\bsw\json/jsmn.h ****  * FITNESS FOR A PARTICULAR PURPOSE AND NONINFRINGEMENT. IN NO EVENT SHALL THE
  19:.\source\bsw\json/jsmn.h ****  * AUTHORS OR COPYRIGHT HOLDERS BE LIABLE FOR ANY CLAIM, DAMAGES OR OTHER
  20:.\source\bsw\json/jsmn.h ****  * LIABILITY, WHETHER IN AN ACTION OF CONTRACT, TORT OR OTHERWISE, ARISING FROM,
  21:.\source\bsw\json/jsmn.h ****  * OUT OF OR IN CONNECTION WITH THE SOFTWARE OR THE USE OR OTHER DEALINGS IN THE
  22:.\source\bsw\json/jsmn.h ****  * SOFTWARE.
  23:.\source\bsw\json/jsmn.h ****  */
  24:.\source\bsw\json/jsmn.h **** #ifndef JSMN_H
  25:.\source\bsw\json/jsmn.h **** #define JSMN_H
  26:.\source\bsw\json/jsmn.h **** 
  27:.\source\bsw\json/jsmn.h **** #include <stddef.h>
  28:.\source\bsw\json/jsmn.h **** 
  29:.\source\bsw\json/jsmn.h **** #ifdef __cplusplus
  30:.\source\bsw\json/jsmn.h **** extern "C" {
  31:.\source\bsw\json/jsmn.h **** #endif
ARM GAS  C:\Users\schmi\AppData\Local\Temp\cc3rBAwr.s 			page 2


  32:.\source\bsw\json/jsmn.h **** 
  33:.\source\bsw\json/jsmn.h **** #ifdef JSMN_STATIC
  34:.\source\bsw\json/jsmn.h **** #define JSMN_API static
  35:.\source\bsw\json/jsmn.h **** #else
  36:.\source\bsw\json/jsmn.h **** #define JSMN_API extern
  37:.\source\bsw\json/jsmn.h **** #endif
  38:.\source\bsw\json/jsmn.h **** 
  39:.\source\bsw\json/jsmn.h **** /**
  40:.\source\bsw\json/jsmn.h ****  * JSON type identifier. Basic types are:
  41:.\source\bsw\json/jsmn.h ****  * 	o Object
  42:.\source\bsw\json/jsmn.h ****  * 	o Array
  43:.\source\bsw\json/jsmn.h ****  * 	o String
  44:.\source\bsw\json/jsmn.h ****  * 	o Other primitive: number, boolean (true/false) or null
  45:.\source\bsw\json/jsmn.h ****  */
  46:.\source\bsw\json/jsmn.h **** typedef enum {
  47:.\source\bsw\json/jsmn.h ****   JSMN_UNDEFINED = 0,
  48:.\source\bsw\json/jsmn.h ****   JSMN_OBJECT = 1 << 0,
  49:.\source\bsw\json/jsmn.h ****   JSMN_ARRAY = 1 << 1,
  50:.\source\bsw\json/jsmn.h ****   JSMN_STRING = 1 << 2,
  51:.\source\bsw\json/jsmn.h ****   JSMN_PRIMITIVE = 1 << 3
  52:.\source\bsw\json/jsmn.h **** } jsmntype_t;
  53:.\source\bsw\json/jsmn.h **** 
  54:.\source\bsw\json/jsmn.h **** enum jsmnerr {
  55:.\source\bsw\json/jsmn.h ****   /* Not enough tokens were provided */
  56:.\source\bsw\json/jsmn.h ****   JSMN_ERROR_NOMEM = -1,
  57:.\source\bsw\json/jsmn.h ****   /* Invalid character inside JSON string */
  58:.\source\bsw\json/jsmn.h ****   JSMN_ERROR_INVAL = -2,
  59:.\source\bsw\json/jsmn.h ****   /* The string is not a full JSON packet, more bytes expected */
  60:.\source\bsw\json/jsmn.h ****   JSMN_ERROR_PART = -3
  61:.\source\bsw\json/jsmn.h **** };
  62:.\source\bsw\json/jsmn.h **** 
  63:.\source\bsw\json/jsmn.h **** /**
  64:.\source\bsw\json/jsmn.h ****  * JSON token description.
  65:.\source\bsw\json/jsmn.h ****  * type		type (object, array, string etc.)
  66:.\source\bsw\json/jsmn.h ****  * start	start position in JSON data string
  67:.\source\bsw\json/jsmn.h ****  * end		end position in JSON data string
  68:.\source\bsw\json/jsmn.h ****  */
  69:.\source\bsw\json/jsmn.h **** typedef struct jsmntok {
  70:.\source\bsw\json/jsmn.h ****   jsmntype_t type;
  71:.\source\bsw\json/jsmn.h ****   int start;
  72:.\source\bsw\json/jsmn.h ****   int end;
  73:.\source\bsw\json/jsmn.h ****   int size;
  74:.\source\bsw\json/jsmn.h **** #ifdef JSMN_PARENT_LINKS
  75:.\source\bsw\json/jsmn.h ****   int parent;
  76:.\source\bsw\json/jsmn.h **** #endif
  77:.\source\bsw\json/jsmn.h **** } jsmntok_t;
  78:.\source\bsw\json/jsmn.h **** 
  79:.\source\bsw\json/jsmn.h **** /**
  80:.\source\bsw\json/jsmn.h ****  * JSON parser. Contains an array of token blocks available. Also stores
  81:.\source\bsw\json/jsmn.h ****  * the string being parsed now and current position in that string.
  82:.\source\bsw\json/jsmn.h ****  */
  83:.\source\bsw\json/jsmn.h **** typedef struct jsmn_parser {
  84:.\source\bsw\json/jsmn.h ****   unsigned int pos;     /* offset in the JSON string */
  85:.\source\bsw\json/jsmn.h ****   unsigned int toknext; /* next token to allocate */
  86:.\source\bsw\json/jsmn.h ****   int toksuper;         /* superior token node, e.g. parent object or array */
  87:.\source\bsw\json/jsmn.h **** } jsmn_parser;
  88:.\source\bsw\json/jsmn.h **** 
ARM GAS  C:\Users\schmi\AppData\Local\Temp\cc3rBAwr.s 			page 3


  89:.\source\bsw\json/jsmn.h **** /**
  90:.\source\bsw\json/jsmn.h ****  * Create JSON parser over an array of tokens
  91:.\source\bsw\json/jsmn.h ****  */
  92:.\source\bsw\json/jsmn.h **** JSMN_API void jsmn_init(jsmn_parser *parser);
  93:.\source\bsw\json/jsmn.h **** 
  94:.\source\bsw\json/jsmn.h **** /**
  95:.\source\bsw\json/jsmn.h ****  * Run JSON parser. It parses a JSON data string into and array of tokens, each
  96:.\source\bsw\json/jsmn.h ****  * describing
  97:.\source\bsw\json/jsmn.h ****  * a single JSON object.
  98:.\source\bsw\json/jsmn.h ****  */
  99:.\source\bsw\json/jsmn.h **** JSMN_API int jsmn_parse(jsmn_parser *parser, const char *js, const size_t len,
 100:.\source\bsw\json/jsmn.h ****                         jsmntok_t *tokens, const unsigned int num_tokens);
 101:.\source\bsw\json/jsmn.h **** 
 102:.\source\bsw\json/jsmn.h **** #ifndef JSMN_HEADER
 103:.\source\bsw\json/jsmn.h **** /**
 104:.\source\bsw\json/jsmn.h ****  * Allocates a fresh unused token from the token pool.
 105:.\source\bsw\json/jsmn.h ****  */
 106:.\source\bsw\json/jsmn.h **** static jsmntok_t *jsmn_alloc_token(jsmn_parser *parser, jsmntok_t *tokens,
 107:.\source\bsw\json/jsmn.h ****                                    const size_t num_tokens) {
  27              		.loc 1 107 0
  28              		.cfi_startproc
  29              		@ args = 0, pretend = 0, frame = 24
  30              		@ frame_needed = 1, uses_anonymous_args = 0
  31              		@ link register save eliminated.
  32 0000 80B4     		push	{r7}
  33              		.cfi_def_cfa_offset 4
  34              		.cfi_offset 7, -4
  35 0002 87B0     		sub	sp, sp, #28
  36              		.cfi_def_cfa_offset 32
  37 0004 00AF     		add	r7, sp, #0
  38              		.cfi_def_cfa_register 7
  39 0006 F860     		str	r0, [r7, #12]
  40 0008 B960     		str	r1, [r7, #8]
  41 000a 7A60     		str	r2, [r7, #4]
 108:.\source\bsw\json/jsmn.h ****   jsmntok_t *tok;
 109:.\source\bsw\json/jsmn.h ****   if (parser->toknext >= num_tokens) {
  42              		.loc 1 109 0
  43 000c FB68     		ldr	r3, [r7, #12]
  44 000e 5A68     		ldr	r2, [r3, #4]
  45 0010 7B68     		ldr	r3, [r7, #4]
  46 0012 9A42     		cmp	r2, r3
  47 0014 01D3     		bcc	.L2
 110:.\source\bsw\json/jsmn.h ****     return NULL;
  48              		.loc 1 110 0
  49 0016 0023     		movs	r3, #0
  50 0018 14E0     		b	.L3
  51              	.L2:
 111:.\source\bsw\json/jsmn.h ****   }
 112:.\source\bsw\json/jsmn.h ****   tok = &tokens[parser->toknext++];
  52              		.loc 1 112 0
  53 001a FB68     		ldr	r3, [r7, #12]
  54 001c 5B68     		ldr	r3, [r3, #4]
  55 001e 591C     		adds	r1, r3, #1
  56 0020 FA68     		ldr	r2, [r7, #12]
  57 0022 5160     		str	r1, [r2, #4]
  58 0024 1B01     		lsls	r3, r3, #4
  59 0026 BA68     		ldr	r2, [r7, #8]
ARM GAS  C:\Users\schmi\AppData\Local\Temp\cc3rBAwr.s 			page 4


  60 0028 1344     		add	r3, r3, r2
  61 002a 7B61     		str	r3, [r7, #20]
 113:.\source\bsw\json/jsmn.h ****   tok->start = tok->end = -1;
  62              		.loc 1 113 0
  63 002c 7B69     		ldr	r3, [r7, #20]
  64 002e 4FF0FF32 		mov	r2, #-1
  65 0032 9A60     		str	r2, [r3, #8]
  66 0034 7B69     		ldr	r3, [r7, #20]
  67 0036 9A68     		ldr	r2, [r3, #8]
  68 0038 7B69     		ldr	r3, [r7, #20]
  69 003a 5A60     		str	r2, [r3, #4]
 114:.\source\bsw\json/jsmn.h ****   tok->size = 0;
  70              		.loc 1 114 0
  71 003c 7B69     		ldr	r3, [r7, #20]
  72 003e 0022     		movs	r2, #0
  73 0040 DA60     		str	r2, [r3, #12]
 115:.\source\bsw\json/jsmn.h **** #ifdef JSMN_PARENT_LINKS
 116:.\source\bsw\json/jsmn.h ****   tok->parent = -1;
 117:.\source\bsw\json/jsmn.h **** #endif
 118:.\source\bsw\json/jsmn.h ****   return tok;
  74              		.loc 1 118 0
  75 0042 7B69     		ldr	r3, [r7, #20]
  76              	.L3:
 119:.\source\bsw\json/jsmn.h **** }
  77              		.loc 1 119 0
  78 0044 1846     		mov	r0, r3
  79 0046 1C37     		adds	r7, r7, #28
  80              		.cfi_def_cfa_offset 4
  81 0048 BD46     		mov	sp, r7
  82              		.cfi_def_cfa_register 13
  83              		@ sp needed
  84 004a 80BC     		pop	{r7}
  85              		.cfi_restore 7
  86              		.cfi_def_cfa_offset 0
  87 004c 7047     		bx	lr
  88              		.cfi_endproc
  89              	.LFE0:
  90              		.size	jsmn_alloc_token, .-jsmn_alloc_token
  91 004e 00BF     		.section	.text.jsmn_fill_token,"ax",%progbits
  92              		.align	2
  93              		.thumb
  94              		.thumb_func
  95              		.type	jsmn_fill_token, %function
  96              	jsmn_fill_token:
  97              	.LFB1:
 120:.\source\bsw\json/jsmn.h **** 
 121:.\source\bsw\json/jsmn.h **** /**
 122:.\source\bsw\json/jsmn.h ****  * Fills token type and boundaries.
 123:.\source\bsw\json/jsmn.h ****  */
 124:.\source\bsw\json/jsmn.h **** static void jsmn_fill_token(jsmntok_t *token, const jsmntype_t type,
 125:.\source\bsw\json/jsmn.h ****                             const int start, const int end) {
  98              		.loc 1 125 0
  99              		.cfi_startproc
 100              		@ args = 0, pretend = 0, frame = 16
 101              		@ frame_needed = 1, uses_anonymous_args = 0
 102              		@ link register save eliminated.
 103 0000 80B4     		push	{r7}
ARM GAS  C:\Users\schmi\AppData\Local\Temp\cc3rBAwr.s 			page 5


 104              		.cfi_def_cfa_offset 4
 105              		.cfi_offset 7, -4
 106 0002 85B0     		sub	sp, sp, #20
 107              		.cfi_def_cfa_offset 24
 108 0004 00AF     		add	r7, sp, #0
 109              		.cfi_def_cfa_register 7
 110 0006 F860     		str	r0, [r7, #12]
 111 0008 7A60     		str	r2, [r7, #4]
 112 000a 3B60     		str	r3, [r7]
 113 000c 0B46     		mov	r3, r1
 114 000e FB72     		strb	r3, [r7, #11]
 126:.\source\bsw\json/jsmn.h ****   token->type = type;
 115              		.loc 1 126 0
 116 0010 FB68     		ldr	r3, [r7, #12]
 117 0012 FA7A     		ldrb	r2, [r7, #11]
 118 0014 1A70     		strb	r2, [r3]
 127:.\source\bsw\json/jsmn.h ****   token->start = start;
 119              		.loc 1 127 0
 120 0016 FB68     		ldr	r3, [r7, #12]
 121 0018 7A68     		ldr	r2, [r7, #4]
 122 001a 5A60     		str	r2, [r3, #4]
 128:.\source\bsw\json/jsmn.h ****   token->end = end;
 123              		.loc 1 128 0
 124 001c FB68     		ldr	r3, [r7, #12]
 125 001e 3A68     		ldr	r2, [r7]
 126 0020 9A60     		str	r2, [r3, #8]
 129:.\source\bsw\json/jsmn.h ****   token->size = 0;
 127              		.loc 1 129 0
 128 0022 FB68     		ldr	r3, [r7, #12]
 129 0024 0022     		movs	r2, #0
 130 0026 DA60     		str	r2, [r3, #12]
 130:.\source\bsw\json/jsmn.h **** }
 131              		.loc 1 130 0
 132 0028 00BF     		nop
 133 002a 1437     		adds	r7, r7, #20
 134              		.cfi_def_cfa_offset 4
 135 002c BD46     		mov	sp, r7
 136              		.cfi_def_cfa_register 13
 137              		@ sp needed
 138 002e 80BC     		pop	{r7}
 139              		.cfi_restore 7
 140              		.cfi_def_cfa_offset 0
 141 0030 7047     		bx	lr
 142              		.cfi_endproc
 143              	.LFE1:
 144              		.size	jsmn_fill_token, .-jsmn_fill_token
 145 0032 00BF     		.section	.text.jsmn_parse_primitive,"ax",%progbits
 146              		.align	2
 147              		.thumb
 148              		.thumb_func
 149              		.type	jsmn_parse_primitive, %function
 150              	jsmn_parse_primitive:
 151              	.LFB2:
 131:.\source\bsw\json/jsmn.h **** 
 132:.\source\bsw\json/jsmn.h **** /**
 133:.\source\bsw\json/jsmn.h ****  * Fills next available token with JSON primitive.
 134:.\source\bsw\json/jsmn.h ****  */
ARM GAS  C:\Users\schmi\AppData\Local\Temp\cc3rBAwr.s 			page 6


 135:.\source\bsw\json/jsmn.h **** static int jsmn_parse_primitive(jsmn_parser *parser, const char *js,
 136:.\source\bsw\json/jsmn.h ****                                 const size_t len, jsmntok_t *tokens,
 137:.\source\bsw\json/jsmn.h ****                                 const size_t num_tokens) {
 152              		.loc 1 137 0
 153              		.cfi_startproc
 154              		@ args = 4, pretend = 0, frame = 24
 155              		@ frame_needed = 1, uses_anonymous_args = 0
 156 0000 80B5     		push	{r7, lr}
 157              		.cfi_def_cfa_offset 8
 158              		.cfi_offset 7, -8
 159              		.cfi_offset 14, -4
 160 0002 86B0     		sub	sp, sp, #24
 161              		.cfi_def_cfa_offset 32
 162 0004 00AF     		add	r7, sp, #0
 163              		.cfi_def_cfa_register 7
 164 0006 F860     		str	r0, [r7, #12]
 165 0008 B960     		str	r1, [r7, #8]
 166 000a 7A60     		str	r2, [r7, #4]
 167 000c 3B60     		str	r3, [r7]
 138:.\source\bsw\json/jsmn.h ****   jsmntok_t *token;
 139:.\source\bsw\json/jsmn.h ****   int start;
 140:.\source\bsw\json/jsmn.h **** 
 141:.\source\bsw\json/jsmn.h ****   start = parser->pos;
 168              		.loc 1 141 0
 169 000e FB68     		ldr	r3, [r7, #12]
 170 0010 1B68     		ldr	r3, [r3]
 171 0012 7B61     		str	r3, [r7, #20]
 142:.\source\bsw\json/jsmn.h **** 
 143:.\source\bsw\json/jsmn.h ****   for (; parser->pos < len && js[parser->pos] != '\0'; parser->pos++) {
 172              		.loc 1 143 0
 173 0014 34E0     		b	.L6
 174              	.L15:
 144:.\source\bsw\json/jsmn.h ****     switch (js[parser->pos]) {
 175              		.loc 1 144 0
 176 0016 FB68     		ldr	r3, [r7, #12]
 177 0018 1B68     		ldr	r3, [r3]
 178 001a BA68     		ldr	r2, [r7, #8]
 179 001c 1344     		add	r3, r3, r2
 180 001e 1B78     		ldrb	r3, [r3]	@ zero_extendqisi2
 181 0020 202B     		cmp	r3, #32
 182 0022 3AD0     		beq	.L19
 183 0024 202B     		cmp	r3, #32
 184 0026 06DC     		bgt	.L9
 185 0028 092B     		cmp	r3, #9
 186 002a 0FDB     		blt	.L20
 187 002c 0A2B     		cmp	r3, #10
 188 002e 34DD     		ble	.L19
 189 0030 0D2B     		cmp	r3, #13
 190 0032 32D0     		beq	.L19
 145:.\source\bsw\json/jsmn.h **** #ifndef JSMN_STRICT
 146:.\source\bsw\json/jsmn.h ****     /* In strict mode primitive must be followed by "," or "}" or "]" */
 147:.\source\bsw\json/jsmn.h ****     case ':':
 148:.\source\bsw\json/jsmn.h **** #endif
 149:.\source\bsw\json/jsmn.h ****     case '\t':
 150:.\source\bsw\json/jsmn.h ****     case '\r':
 151:.\source\bsw\json/jsmn.h ****     case '\n':
 152:.\source\bsw\json/jsmn.h ****     case ' ':
ARM GAS  C:\Users\schmi\AppData\Local\Temp\cc3rBAwr.s 			page 7


 153:.\source\bsw\json/jsmn.h ****     case ',':
 154:.\source\bsw\json/jsmn.h ****     case ']':
 155:.\source\bsw\json/jsmn.h ****     case '}':
 156:.\source\bsw\json/jsmn.h ****       goto found;
 157:.\source\bsw\json/jsmn.h ****     default:
 158:.\source\bsw\json/jsmn.h ****                    /* to quiet a warning from gcc*/
 159:.\source\bsw\json/jsmn.h ****       break;
 191              		.loc 1 159 0
 192 0034 0AE0     		b	.L20
 193              	.L9:
 144:.\source\bsw\json/jsmn.h ****     switch (js[parser->pos]) {
 194              		.loc 1 144 0
 195 0036 3A2B     		cmp	r3, #58
 196 0038 2FD0     		beq	.L19
 197 003a 3A2B     		cmp	r3, #58
 198 003c 02DC     		bgt	.L10
 199 003e 2C2B     		cmp	r3, #44
 200 0040 2BD0     		beq	.L19
 201              		.loc 1 159 0
 202 0042 03E0     		b	.L20
 203              	.L10:
 144:.\source\bsw\json/jsmn.h ****     switch (js[parser->pos]) {
 204              		.loc 1 144 0
 205 0044 5D2B     		cmp	r3, #93
 206 0046 28D0     		beq	.L19
 207 0048 7D2B     		cmp	r3, #125
 208 004a 26D0     		beq	.L19
 209              	.L20:
 210              		.loc 1 159 0
 211 004c 00BF     		nop
 160:.\source\bsw\json/jsmn.h ****     }
 161:.\source\bsw\json/jsmn.h ****     if (js[parser->pos] < 32 || js[parser->pos] >= 127) {
 212              		.loc 1 161 0
 213 004e FB68     		ldr	r3, [r7, #12]
 214 0050 1B68     		ldr	r3, [r3]
 215 0052 BA68     		ldr	r2, [r7, #8]
 216 0054 1344     		add	r3, r3, r2
 217 0056 1B78     		ldrb	r3, [r3]	@ zero_extendqisi2
 218 0058 1F2B     		cmp	r3, #31
 219 005a 06D9     		bls	.L12
 220              		.loc 1 161 0 is_stmt 0 discriminator 1
 221 005c FB68     		ldr	r3, [r7, #12]
 222 005e 1B68     		ldr	r3, [r3]
 223 0060 BA68     		ldr	r2, [r7, #8]
 224 0062 1344     		add	r3, r3, r2
 225 0064 1B78     		ldrb	r3, [r3]	@ zero_extendqisi2
 226 0066 7E2B     		cmp	r3, #126
 227 0068 05D9     		bls	.L13
 228              	.L12:
 162:.\source\bsw\json/jsmn.h ****       parser->pos = start;
 229              		.loc 1 162 0 is_stmt 1
 230 006a 7A69     		ldr	r2, [r7, #20]
 231 006c FB68     		ldr	r3, [r7, #12]
 232 006e 1A60     		str	r2, [r3]
 163:.\source\bsw\json/jsmn.h ****       return JSMN_ERROR_INVAL;
 233              		.loc 1 163 0
 234 0070 6FF00103 		mvn	r3, #1
ARM GAS  C:\Users\schmi\AppData\Local\Temp\cc3rBAwr.s 			page 8


 235 0074 38E0     		b	.L14
 236              	.L13:
 143:.\source\bsw\json/jsmn.h ****     switch (js[parser->pos]) {
 237              		.loc 1 143 0
 238 0076 FB68     		ldr	r3, [r7, #12]
 239 0078 1B68     		ldr	r3, [r3]
 240 007a 5A1C     		adds	r2, r3, #1
 241 007c FB68     		ldr	r3, [r7, #12]
 242 007e 1A60     		str	r2, [r3]
 243              	.L6:
 143:.\source\bsw\json/jsmn.h ****     switch (js[parser->pos]) {
 244              		.loc 1 143 0 is_stmt 0 discriminator 1
 245 0080 FB68     		ldr	r3, [r7, #12]
 246 0082 1A68     		ldr	r2, [r3]
 247 0084 7B68     		ldr	r3, [r7, #4]
 248 0086 9A42     		cmp	r2, r3
 249 0088 08D2     		bcs	.L11
 143:.\source\bsw\json/jsmn.h ****     switch (js[parser->pos]) {
 250              		.loc 1 143 0 discriminator 2
 251 008a FB68     		ldr	r3, [r7, #12]
 252 008c 1B68     		ldr	r3, [r3]
 253 008e BA68     		ldr	r2, [r7, #8]
 254 0090 1344     		add	r3, r3, r2
 255 0092 1B78     		ldrb	r3, [r3]	@ zero_extendqisi2
 256 0094 002B     		cmp	r3, #0
 257 0096 BED1     		bne	.L15
 258 0098 00E0     		b	.L11
 259              	.L19:
 156:.\source\bsw\json/jsmn.h ****     default:
 260              		.loc 1 156 0 is_stmt 1
 261 009a 00BF     		nop
 262              	.L11:
 164:.\source\bsw\json/jsmn.h ****     }
 165:.\source\bsw\json/jsmn.h ****   }
 166:.\source\bsw\json/jsmn.h **** #ifdef JSMN_STRICT
 167:.\source\bsw\json/jsmn.h ****   /* In strict mode primitive must be followed by a comma/object/array */
 168:.\source\bsw\json/jsmn.h ****   parser->pos = start;
 169:.\source\bsw\json/jsmn.h ****   return JSMN_ERROR_PART;
 170:.\source\bsw\json/jsmn.h **** #endif
 171:.\source\bsw\json/jsmn.h **** 
 172:.\source\bsw\json/jsmn.h **** found:
 173:.\source\bsw\json/jsmn.h ****   if (tokens == NULL) {
 263              		.loc 1 173 0
 264 009c 3B68     		ldr	r3, [r7]
 265 009e 002B     		cmp	r3, #0
 266 00a0 06D1     		bne	.L16
 174:.\source\bsw\json/jsmn.h ****     parser->pos--;
 267              		.loc 1 174 0
 268 00a2 FB68     		ldr	r3, [r7, #12]
 269 00a4 1B68     		ldr	r3, [r3]
 270 00a6 5A1E     		subs	r2, r3, #1
 271 00a8 FB68     		ldr	r3, [r7, #12]
 272 00aa 1A60     		str	r2, [r3]
 175:.\source\bsw\json/jsmn.h ****     return 0;
 273              		.loc 1 175 0
 274 00ac 0023     		movs	r3, #0
 275 00ae 1BE0     		b	.L14
ARM GAS  C:\Users\schmi\AppData\Local\Temp\cc3rBAwr.s 			page 9


 276              	.L16:
 176:.\source\bsw\json/jsmn.h ****   }
 177:.\source\bsw\json/jsmn.h ****   token = jsmn_alloc_token(parser, tokens, num_tokens);
 277              		.loc 1 177 0
 278 00b0 3A6A     		ldr	r2, [r7, #32]
 279 00b2 3968     		ldr	r1, [r7]
 280 00b4 F868     		ldr	r0, [r7, #12]
 281 00b6 FFF7FEFF 		bl	jsmn_alloc_token
 282 00ba 3861     		str	r0, [r7, #16]
 178:.\source\bsw\json/jsmn.h ****   if (token == NULL) {
 283              		.loc 1 178 0
 284 00bc 3B69     		ldr	r3, [r7, #16]
 285 00be 002B     		cmp	r3, #0
 286 00c0 05D1     		bne	.L17
 179:.\source\bsw\json/jsmn.h ****     parser->pos = start;
 287              		.loc 1 179 0
 288 00c2 7A69     		ldr	r2, [r7, #20]
 289 00c4 FB68     		ldr	r3, [r7, #12]
 290 00c6 1A60     		str	r2, [r3]
 180:.\source\bsw\json/jsmn.h ****     return JSMN_ERROR_NOMEM;
 291              		.loc 1 180 0
 292 00c8 4FF0FF33 		mov	r3, #-1
 293 00cc 0CE0     		b	.L14
 294              	.L17:
 181:.\source\bsw\json/jsmn.h ****   }
 182:.\source\bsw\json/jsmn.h ****   jsmn_fill_token(token, JSMN_PRIMITIVE, start, parser->pos);
 295              		.loc 1 182 0
 296 00ce FB68     		ldr	r3, [r7, #12]
 297 00d0 1B68     		ldr	r3, [r3]
 298 00d2 7A69     		ldr	r2, [r7, #20]
 299 00d4 0821     		movs	r1, #8
 300 00d6 3869     		ldr	r0, [r7, #16]
 301 00d8 FFF7FEFF 		bl	jsmn_fill_token
 183:.\source\bsw\json/jsmn.h **** #ifdef JSMN_PARENT_LINKS
 184:.\source\bsw\json/jsmn.h ****   token->parent = parser->toksuper;
 185:.\source\bsw\json/jsmn.h **** #endif
 186:.\source\bsw\json/jsmn.h ****   parser->pos--;
 302              		.loc 1 186 0
 303 00dc FB68     		ldr	r3, [r7, #12]
 304 00de 1B68     		ldr	r3, [r3]
 305 00e0 5A1E     		subs	r2, r3, #1
 306 00e2 FB68     		ldr	r3, [r7, #12]
 307 00e4 1A60     		str	r2, [r3]
 187:.\source\bsw\json/jsmn.h ****   return 0;
 308              		.loc 1 187 0
 309 00e6 0023     		movs	r3, #0
 310              	.L14:
 188:.\source\bsw\json/jsmn.h **** }
 311              		.loc 1 188 0
 312 00e8 1846     		mov	r0, r3
 313 00ea 1837     		adds	r7, r7, #24
 314              		.cfi_def_cfa_offset 8
 315 00ec BD46     		mov	sp, r7
 316              		.cfi_def_cfa_register 13
 317              		@ sp needed
 318 00ee 80BD     		pop	{r7, pc}
 319              		.cfi_endproc
ARM GAS  C:\Users\schmi\AppData\Local\Temp\cc3rBAwr.s 			page 10


 320              	.LFE2:
 321              		.size	jsmn_parse_primitive, .-jsmn_parse_primitive
 322              		.section	.text.jsmn_parse_string,"ax",%progbits
 323              		.align	2
 324              		.thumb
 325              		.thumb_func
 326              		.type	jsmn_parse_string, %function
 327              	jsmn_parse_string:
 328              	.LFB3:
 189:.\source\bsw\json/jsmn.h **** 
 190:.\source\bsw\json/jsmn.h **** /**
 191:.\source\bsw\json/jsmn.h ****  * Fills next token with JSON string.
 192:.\source\bsw\json/jsmn.h ****  */
 193:.\source\bsw\json/jsmn.h **** static int jsmn_parse_string(jsmn_parser *parser, const char *js,
 194:.\source\bsw\json/jsmn.h ****                              const size_t len, jsmntok_t *tokens,
 195:.\source\bsw\json/jsmn.h ****                              const size_t num_tokens) {
 329              		.loc 1 195 0
 330              		.cfi_startproc
 331              		@ args = 4, pretend = 0, frame = 32
 332              		@ frame_needed = 1, uses_anonymous_args = 0
 333 0000 80B5     		push	{r7, lr}
 334              		.cfi_def_cfa_offset 8
 335              		.cfi_offset 7, -8
 336              		.cfi_offset 14, -4
 337 0002 88B0     		sub	sp, sp, #32
 338              		.cfi_def_cfa_offset 40
 339 0004 00AF     		add	r7, sp, #0
 340              		.cfi_def_cfa_register 7
 341 0006 F860     		str	r0, [r7, #12]
 342 0008 B960     		str	r1, [r7, #8]
 343 000a 7A60     		str	r2, [r7, #4]
 344 000c 3B60     		str	r3, [r7]
 196:.\source\bsw\json/jsmn.h ****   jsmntok_t *token;
 197:.\source\bsw\json/jsmn.h **** 
 198:.\source\bsw\json/jsmn.h ****   int start = parser->pos;
 345              		.loc 1 198 0
 346 000e FB68     		ldr	r3, [r7, #12]
 347 0010 1B68     		ldr	r3, [r3]
 348 0012 BB61     		str	r3, [r7, #24]
 199:.\source\bsw\json/jsmn.h ****   
 200:.\source\bsw\json/jsmn.h ****   /* Skip starting quote */
 201:.\source\bsw\json/jsmn.h ****   parser->pos++;
 349              		.loc 1 201 0
 350 0014 FB68     		ldr	r3, [r7, #12]
 351 0016 1B68     		ldr	r3, [r3]
 352 0018 5A1C     		adds	r2, r3, #1
 353 001a FB68     		ldr	r3, [r7, #12]
 354 001c 1A60     		str	r2, [r3]
 202:.\source\bsw\json/jsmn.h ****   
 203:.\source\bsw\json/jsmn.h ****   for (; parser->pos < len && js[parser->pos] != '\0'; parser->pos++) {
 355              		.loc 1 203 0
 356 001e 4CE1     		b	.L22
 357              	.L40:
 358              	.LBB2:
 204:.\source\bsw\json/jsmn.h ****     char c = js[parser->pos];
 359              		.loc 1 204 0
 360 0020 FB68     		ldr	r3, [r7, #12]
ARM GAS  C:\Users\schmi\AppData\Local\Temp\cc3rBAwr.s 			page 11


 361 0022 1B68     		ldr	r3, [r3]
 362 0024 BA68     		ldr	r2, [r7, #8]
 363 0026 1344     		add	r3, r3, r2
 364 0028 1B78     		ldrb	r3, [r3]
 365 002a FB75     		strb	r3, [r7, #23]
 205:.\source\bsw\json/jsmn.h **** 
 206:.\source\bsw\json/jsmn.h ****     /* Quote: end of string */
 207:.\source\bsw\json/jsmn.h ****     if (c == '\"') {
 366              		.loc 1 207 0
 367 002c FB7D     		ldrb	r3, [r7, #23]	@ zero_extendqisi2
 368 002e 222B     		cmp	r3, #34
 369 0030 1DD1     		bne	.L23
 208:.\source\bsw\json/jsmn.h ****       if (tokens == NULL) {
 370              		.loc 1 208 0
 371 0032 3B68     		ldr	r3, [r7]
 372 0034 002B     		cmp	r3, #0
 373 0036 01D1     		bne	.L24
 209:.\source\bsw\json/jsmn.h ****         return 0;
 374              		.loc 1 209 0
 375 0038 0023     		movs	r3, #0
 376 003a 50E1     		b	.L25
 377              	.L24:
 210:.\source\bsw\json/jsmn.h ****       }
 211:.\source\bsw\json/jsmn.h ****       token = jsmn_alloc_token(parser, tokens, num_tokens);
 378              		.loc 1 211 0
 379 003c BA6A     		ldr	r2, [r7, #40]
 380 003e 3968     		ldr	r1, [r7]
 381 0040 F868     		ldr	r0, [r7, #12]
 382 0042 FFF7FEFF 		bl	jsmn_alloc_token
 383 0046 3861     		str	r0, [r7, #16]
 212:.\source\bsw\json/jsmn.h ****       if (token == NULL) {
 384              		.loc 1 212 0
 385 0048 3B69     		ldr	r3, [r7, #16]
 386 004a 002B     		cmp	r3, #0
 387 004c 05D1     		bne	.L26
 213:.\source\bsw\json/jsmn.h ****         parser->pos = start;
 388              		.loc 1 213 0
 389 004e BA69     		ldr	r2, [r7, #24]
 390 0050 FB68     		ldr	r3, [r7, #12]
 391 0052 1A60     		str	r2, [r3]
 214:.\source\bsw\json/jsmn.h ****         return JSMN_ERROR_NOMEM;
 392              		.loc 1 214 0
 393 0054 4FF0FF33 		mov	r3, #-1
 394 0058 41E1     		b	.L25
 395              	.L26:
 215:.\source\bsw\json/jsmn.h ****       }
 216:.\source\bsw\json/jsmn.h ****       jsmn_fill_token(token, JSMN_STRING, start + 1, parser->pos);
 396              		.loc 1 216 0
 397 005a BB69     		ldr	r3, [r7, #24]
 398 005c 5A1C     		adds	r2, r3, #1
 399 005e FB68     		ldr	r3, [r7, #12]
 400 0060 1B68     		ldr	r3, [r3]
 401 0062 0421     		movs	r1, #4
 402 0064 3869     		ldr	r0, [r7, #16]
 403 0066 FFF7FEFF 		bl	jsmn_fill_token
 217:.\source\bsw\json/jsmn.h **** #ifdef JSMN_PARENT_LINKS
 218:.\source\bsw\json/jsmn.h ****       token->parent = parser->toksuper;
ARM GAS  C:\Users\schmi\AppData\Local\Temp\cc3rBAwr.s 			page 12


 219:.\source\bsw\json/jsmn.h **** #endif
 220:.\source\bsw\json/jsmn.h ****       return 0;
 404              		.loc 1 220 0
 405 006a 0023     		movs	r3, #0
 406 006c 37E1     		b	.L25
 407              	.L23:
 221:.\source\bsw\json/jsmn.h ****     }
 222:.\source\bsw\json/jsmn.h **** 
 223:.\source\bsw\json/jsmn.h ****     /* Backslash: Quoted symbol expected */
 224:.\source\bsw\json/jsmn.h ****     if (c == '\\' && parser->pos + 1 < len) {
 408              		.loc 1 224 0
 409 006e FB7D     		ldrb	r3, [r7, #23]	@ zero_extendqisi2
 410 0070 5C2B     		cmp	r3, #92
 411 0072 40F01D81 		bne	.L27
 412              		.loc 1 224 0 is_stmt 0 discriminator 1
 413 0076 FB68     		ldr	r3, [r7, #12]
 414 0078 1B68     		ldr	r3, [r3]
 415 007a 5A1C     		adds	r2, r3, #1
 416 007c 7B68     		ldr	r3, [r7, #4]
 417 007e 9A42     		cmp	r2, r3
 418 0080 80F01681 		bcs	.L27
 419              	.LBB3:
 225:.\source\bsw\json/jsmn.h ****       int i;
 226:.\source\bsw\json/jsmn.h ****       parser->pos++;
 420              		.loc 1 226 0 is_stmt 1
 421 0084 FB68     		ldr	r3, [r7, #12]
 422 0086 1B68     		ldr	r3, [r3]
 423 0088 5A1C     		adds	r2, r3, #1
 424 008a FB68     		ldr	r3, [r7, #12]
 425 008c 1A60     		str	r2, [r3]
 227:.\source\bsw\json/jsmn.h ****       switch (js[parser->pos]) {
 426              		.loc 1 227 0
 427 008e FB68     		ldr	r3, [r7, #12]
 428 0090 1B68     		ldr	r3, [r3]
 429 0092 BA68     		ldr	r2, [r7, #8]
 430 0094 1344     		add	r3, r3, r2
 431 0096 1B78     		ldrb	r3, [r3]	@ zero_extendqisi2
 432 0098 223B     		subs	r3, r3, #34
 433 009a 532B     		cmp	r3, #83
 434 009c 00F20181 		bhi	.L28
 435 00a0 01A2     		adr	r2, .L30
 436 00a2 52F823F0 		ldr	pc, [r2, r3, lsl #2]
 437 00a6 00BF     		.p2align 2
 438              	.L30:
 439 00a8 AF020000 		.word	.L41+1
 440 00ac A3020000 		.word	.L28+1
 441 00b0 A3020000 		.word	.L28+1
 442 00b4 A3020000 		.word	.L28+1
 443 00b8 A3020000 		.word	.L28+1
 444 00bc A3020000 		.word	.L28+1
 445 00c0 A3020000 		.word	.L28+1
 446 00c4 A3020000 		.word	.L28+1
 447 00c8 A3020000 		.word	.L28+1
 448 00cc A3020000 		.word	.L28+1
 449 00d0 A3020000 		.word	.L28+1
 450 00d4 A3020000 		.word	.L28+1
 451 00d8 A3020000 		.word	.L28+1
ARM GAS  C:\Users\schmi\AppData\Local\Temp\cc3rBAwr.s 			page 13


 452 00dc AF020000 		.word	.L41+1
 453 00e0 A3020000 		.word	.L28+1
 454 00e4 A3020000 		.word	.L28+1
 455 00e8 A3020000 		.word	.L28+1
 456 00ec A3020000 		.word	.L28+1
 457 00f0 A3020000 		.word	.L28+1
 458 00f4 A3020000 		.word	.L28+1
 459 00f8 A3020000 		.word	.L28+1
 460 00fc A3020000 		.word	.L28+1
 461 0100 A3020000 		.word	.L28+1
 462 0104 A3020000 		.word	.L28+1
 463 0108 A3020000 		.word	.L28+1
 464 010c A3020000 		.word	.L28+1
 465 0110 A3020000 		.word	.L28+1
 466 0114 A3020000 		.word	.L28+1
 467 0118 A3020000 		.word	.L28+1
 468 011c A3020000 		.word	.L28+1
 469 0120 A3020000 		.word	.L28+1
 470 0124 A3020000 		.word	.L28+1
 471 0128 A3020000 		.word	.L28+1
 472 012c A3020000 		.word	.L28+1
 473 0130 A3020000 		.word	.L28+1
 474 0134 A3020000 		.word	.L28+1
 475 0138 A3020000 		.word	.L28+1
 476 013c A3020000 		.word	.L28+1
 477 0140 A3020000 		.word	.L28+1
 478 0144 A3020000 		.word	.L28+1
 479 0148 A3020000 		.word	.L28+1
 480 014c A3020000 		.word	.L28+1
 481 0150 A3020000 		.word	.L28+1
 482 0154 A3020000 		.word	.L28+1
 483 0158 A3020000 		.word	.L28+1
 484 015c A3020000 		.word	.L28+1
 485 0160 A3020000 		.word	.L28+1
 486 0164 A3020000 		.word	.L28+1
 487 0168 A3020000 		.word	.L28+1
 488 016c A3020000 		.word	.L28+1
 489 0170 A3020000 		.word	.L28+1
 490 0174 A3020000 		.word	.L28+1
 491 0178 A3020000 		.word	.L28+1
 492 017c A3020000 		.word	.L28+1
 493 0180 A3020000 		.word	.L28+1
 494 0184 A3020000 		.word	.L28+1
 495 0188 A3020000 		.word	.L28+1
 496 018c A3020000 		.word	.L28+1
 497 0190 AF020000 		.word	.L41+1
 498 0194 A3020000 		.word	.L28+1
 499 0198 A3020000 		.word	.L28+1
 500 019c A3020000 		.word	.L28+1
 501 01a0 A3020000 		.word	.L28+1
 502 01a4 A3020000 		.word	.L28+1
 503 01a8 AF020000 		.word	.L41+1
 504 01ac A3020000 		.word	.L28+1
 505 01b0 A3020000 		.word	.L28+1
 506 01b4 A3020000 		.word	.L28+1
 507 01b8 AF020000 		.word	.L41+1
 508 01bc A3020000 		.word	.L28+1
ARM GAS  C:\Users\schmi\AppData\Local\Temp\cc3rBAwr.s 			page 14


 509 01c0 A3020000 		.word	.L28+1
 510 01c4 A3020000 		.word	.L28+1
 511 01c8 A3020000 		.word	.L28+1
 512 01cc A3020000 		.word	.L28+1
 513 01d0 A3020000 		.word	.L28+1
 514 01d4 A3020000 		.word	.L28+1
 515 01d8 AF020000 		.word	.L41+1
 516 01dc A3020000 		.word	.L28+1
 517 01e0 A3020000 		.word	.L28+1
 518 01e4 A3020000 		.word	.L28+1
 519 01e8 AF020000 		.word	.L41+1
 520 01ec A3020000 		.word	.L28+1
 521 01f0 AF020000 		.word	.L41+1
 522 01f4 F9010000 		.word	.L31+1
 523              		.p2align 1
 524              	.L31:
 228:.\source\bsw\json/jsmn.h ****       /* Allowed escaped symbols */
 229:.\source\bsw\json/jsmn.h ****       case '\"':
 230:.\source\bsw\json/jsmn.h ****       case '/':
 231:.\source\bsw\json/jsmn.h ****       case '\\':
 232:.\source\bsw\json/jsmn.h ****       case 'b':
 233:.\source\bsw\json/jsmn.h ****       case 'f':
 234:.\source\bsw\json/jsmn.h ****       case 'r':
 235:.\source\bsw\json/jsmn.h ****       case 'n':
 236:.\source\bsw\json/jsmn.h ****       case 't':
 237:.\source\bsw\json/jsmn.h ****         break;
 238:.\source\bsw\json/jsmn.h ****       /* Allows escaped symbol \uXXXX */
 239:.\source\bsw\json/jsmn.h ****       case 'u':
 240:.\source\bsw\json/jsmn.h ****         parser->pos++;
 525              		.loc 1 240 0
 526 01f8 FB68     		ldr	r3, [r7, #12]
 527 01fa 1B68     		ldr	r3, [r3]
 528 01fc 5A1C     		adds	r2, r3, #1
 529 01fe FB68     		ldr	r3, [r7, #12]
 530 0200 1A60     		str	r2, [r3]
 241:.\source\bsw\json/jsmn.h ****         for (i = 0; i < 4 && parser->pos < len && js[parser->pos] != '\0';
 531              		.loc 1 241 0
 532 0202 0023     		movs	r3, #0
 533 0204 FB61     		str	r3, [r7, #28]
 534 0206 37E0     		b	.L32
 535              	.L38:
 242:.\source\bsw\json/jsmn.h ****              i++) {
 243:.\source\bsw\json/jsmn.h ****           /* If it isn't a hex character we have an error */
 244:.\source\bsw\json/jsmn.h ****           if (!((js[parser->pos] >= 48 && js[parser->pos] <= 57) ||   /* 0-9 */
 536              		.loc 1 244 0
 537 0208 FB68     		ldr	r3, [r7, #12]
 538 020a 1B68     		ldr	r3, [r3]
 539 020c BA68     		ldr	r2, [r7, #8]
 540 020e 1344     		add	r3, r3, r2
 541 0210 1B78     		ldrb	r3, [r3]	@ zero_extendqisi2
 542 0212 2F2B     		cmp	r3, #47
 543 0214 06D9     		bls	.L33
 544              		.loc 1 244 0 is_stmt 0 discriminator 2
 545 0216 FB68     		ldr	r3, [r7, #12]
 546 0218 1B68     		ldr	r3, [r3]
 547 021a BA68     		ldr	r2, [r7, #8]
 548 021c 1344     		add	r3, r3, r2
ARM GAS  C:\Users\schmi\AppData\Local\Temp\cc3rBAwr.s 			page 15


 549 021e 1B78     		ldrb	r3, [r3]	@ zero_extendqisi2
 550 0220 392B     		cmp	r3, #57
 551 0222 21D9     		bls	.L34
 552              	.L33:
 245:.\source\bsw\json/jsmn.h ****                 (js[parser->pos] >= 65 && js[parser->pos] <= 70) ||   /* A-F */
 553              		.loc 1 245 0 is_stmt 1 discriminator 3
 554 0224 FB68     		ldr	r3, [r7, #12]
 555 0226 1B68     		ldr	r3, [r3]
 556 0228 BA68     		ldr	r2, [r7, #8]
 557 022a 1344     		add	r3, r3, r2
 558 022c 1B78     		ldrb	r3, [r3]	@ zero_extendqisi2
 244:.\source\bsw\json/jsmn.h ****                 (js[parser->pos] >= 65 && js[parser->pos] <= 70) ||   /* A-F */
 559              		.loc 1 244 0 discriminator 3
 560 022e 402B     		cmp	r3, #64
 561 0230 06D9     		bls	.L35
 562              		.loc 1 245 0
 563 0232 FB68     		ldr	r3, [r7, #12]
 564 0234 1B68     		ldr	r3, [r3]
 565 0236 BA68     		ldr	r2, [r7, #8]
 566 0238 1344     		add	r3, r3, r2
 567 023a 1B78     		ldrb	r3, [r3]	@ zero_extendqisi2
 568 023c 462B     		cmp	r3, #70
 569 023e 13D9     		bls	.L34
 570              	.L35:
 246:.\source\bsw\json/jsmn.h ****                 (js[parser->pos] >= 97 && js[parser->pos] <= 102))) { /* a-f */
 571              		.loc 1 246 0 discriminator 4
 572 0240 FB68     		ldr	r3, [r7, #12]
 573 0242 1B68     		ldr	r3, [r3]
 574 0244 BA68     		ldr	r2, [r7, #8]
 575 0246 1344     		add	r3, r3, r2
 576 0248 1B78     		ldrb	r3, [r3]	@ zero_extendqisi2
 244:.\source\bsw\json/jsmn.h ****                 (js[parser->pos] >= 65 && js[parser->pos] <= 70) ||   /* A-F */
 577              		.loc 1 244 0 discriminator 4
 578 024a 602B     		cmp	r3, #96
 579 024c 06D9     		bls	.L36
 580              		.loc 1 246 0
 581 024e FB68     		ldr	r3, [r7, #12]
 582 0250 1B68     		ldr	r3, [r3]
 583 0252 BA68     		ldr	r2, [r7, #8]
 584 0254 1344     		add	r3, r3, r2
 585 0256 1B78     		ldrb	r3, [r3]	@ zero_extendqisi2
 586 0258 662B     		cmp	r3, #102
 587 025a 05D9     		bls	.L34
 588              	.L36:
 247:.\source\bsw\json/jsmn.h ****             parser->pos = start;
 589              		.loc 1 247 0
 590 025c BA69     		ldr	r2, [r7, #24]
 591 025e FB68     		ldr	r3, [r7, #12]
 592 0260 1A60     		str	r2, [r3]
 248:.\source\bsw\json/jsmn.h ****             return JSMN_ERROR_INVAL;
 593              		.loc 1 248 0
 594 0262 6FF00103 		mvn	r3, #1
 595 0266 3AE0     		b	.L25
 596              	.L34:
 249:.\source\bsw\json/jsmn.h ****           }
 250:.\source\bsw\json/jsmn.h ****           parser->pos++;
 597              		.loc 1 250 0
ARM GAS  C:\Users\schmi\AppData\Local\Temp\cc3rBAwr.s 			page 16


 598 0268 FB68     		ldr	r3, [r7, #12]
 599 026a 1B68     		ldr	r3, [r3]
 600 026c 5A1C     		adds	r2, r3, #1
 601 026e FB68     		ldr	r3, [r7, #12]
 602 0270 1A60     		str	r2, [r3]
 242:.\source\bsw\json/jsmn.h ****           /* If it isn't a hex character we have an error */
 603              		.loc 1 242 0
 604 0272 FB69     		ldr	r3, [r7, #28]
 605 0274 0133     		adds	r3, r3, #1
 606 0276 FB61     		str	r3, [r7, #28]
 607              	.L32:
 241:.\source\bsw\json/jsmn.h ****              i++) {
 608              		.loc 1 241 0 discriminator 1
 609 0278 FB69     		ldr	r3, [r7, #28]
 610 027a 032B     		cmp	r3, #3
 611 027c 0BDC     		bgt	.L37
 241:.\source\bsw\json/jsmn.h ****              i++) {
 612              		.loc 1 241 0 is_stmt 0 discriminator 2
 613 027e FB68     		ldr	r3, [r7, #12]
 614 0280 1A68     		ldr	r2, [r3]
 615 0282 7B68     		ldr	r3, [r7, #4]
 616 0284 9A42     		cmp	r2, r3
 617 0286 06D2     		bcs	.L37
 241:.\source\bsw\json/jsmn.h ****              i++) {
 618              		.loc 1 241 0 discriminator 3
 619 0288 FB68     		ldr	r3, [r7, #12]
 620 028a 1B68     		ldr	r3, [r3]
 621 028c BA68     		ldr	r2, [r7, #8]
 622 028e 1344     		add	r3, r3, r2
 623 0290 1B78     		ldrb	r3, [r3]	@ zero_extendqisi2
 624 0292 002B     		cmp	r3, #0
 625 0294 B8D1     		bne	.L38
 626              	.L37:
 251:.\source\bsw\json/jsmn.h ****         }
 252:.\source\bsw\json/jsmn.h ****         parser->pos--;
 627              		.loc 1 252 0 is_stmt 1
 628 0296 FB68     		ldr	r3, [r7, #12]
 629 0298 1B68     		ldr	r3, [r3]
 630 029a 5A1E     		subs	r2, r3, #1
 631 029c FB68     		ldr	r3, [r7, #12]
 632 029e 1A60     		str	r2, [r3]
 253:.\source\bsw\json/jsmn.h ****         break;
 633              		.loc 1 253 0
 634 02a0 06E0     		b	.L27
 635              	.L28:
 254:.\source\bsw\json/jsmn.h ****       /* Unexpected symbol */
 255:.\source\bsw\json/jsmn.h ****       default:
 256:.\source\bsw\json/jsmn.h ****         parser->pos = start;
 636              		.loc 1 256 0
 637 02a2 BA69     		ldr	r2, [r7, #24]
 638 02a4 FB68     		ldr	r3, [r7, #12]
 639 02a6 1A60     		str	r2, [r3]
 257:.\source\bsw\json/jsmn.h ****         return JSMN_ERROR_INVAL;
 640              		.loc 1 257 0
 641 02a8 6FF00103 		mvn	r3, #1
 642 02ac 17E0     		b	.L25
 643              	.L41:
ARM GAS  C:\Users\schmi\AppData\Local\Temp\cc3rBAwr.s 			page 17


 237:.\source\bsw\json/jsmn.h ****       /* Allows escaped symbol \uXXXX */
 644              		.loc 1 237 0
 645 02ae 00BF     		nop
 646              	.L27:
 647              	.LBE3:
 648              	.LBE2:
 203:.\source\bsw\json/jsmn.h ****     char c = js[parser->pos];
 649              		.loc 1 203 0
 650 02b0 FB68     		ldr	r3, [r7, #12]
 651 02b2 1B68     		ldr	r3, [r3]
 652 02b4 5A1C     		adds	r2, r3, #1
 653 02b6 FB68     		ldr	r3, [r7, #12]
 654 02b8 1A60     		str	r2, [r3]
 655              	.L22:
 203:.\source\bsw\json/jsmn.h ****     char c = js[parser->pos];
 656              		.loc 1 203 0 is_stmt 0 discriminator 1
 657 02ba FB68     		ldr	r3, [r7, #12]
 658 02bc 1A68     		ldr	r2, [r3]
 659 02be 7B68     		ldr	r3, [r7, #4]
 660 02c0 9A42     		cmp	r2, r3
 661 02c2 07D2     		bcs	.L39
 203:.\source\bsw\json/jsmn.h ****     char c = js[parser->pos];
 662              		.loc 1 203 0 discriminator 2
 663 02c4 FB68     		ldr	r3, [r7, #12]
 664 02c6 1B68     		ldr	r3, [r3]
 665 02c8 BA68     		ldr	r2, [r7, #8]
 666 02ca 1344     		add	r3, r3, r2
 667 02cc 1B78     		ldrb	r3, [r3]	@ zero_extendqisi2
 668 02ce 002B     		cmp	r3, #0
 669 02d0 7FF4A6AE 		bne	.L40
 670              	.L39:
 258:.\source\bsw\json/jsmn.h ****       }
 259:.\source\bsw\json/jsmn.h ****     }
 260:.\source\bsw\json/jsmn.h ****   }
 261:.\source\bsw\json/jsmn.h ****   parser->pos = start;
 671              		.loc 1 261 0 is_stmt 1
 672 02d4 BA69     		ldr	r2, [r7, #24]
 673 02d6 FB68     		ldr	r3, [r7, #12]
 674 02d8 1A60     		str	r2, [r3]
 262:.\source\bsw\json/jsmn.h ****   return JSMN_ERROR_PART;
 675              		.loc 1 262 0
 676 02da 6FF00203 		mvn	r3, #2
 677              	.L25:
 263:.\source\bsw\json/jsmn.h **** }
 678              		.loc 1 263 0
 679 02de 1846     		mov	r0, r3
 680 02e0 2037     		adds	r7, r7, #32
 681              		.cfi_def_cfa_offset 8
 682 02e2 BD46     		mov	sp, r7
 683              		.cfi_def_cfa_register 13
 684              		@ sp needed
 685 02e4 80BD     		pop	{r7, pc}
 686              		.cfi_endproc
 687              	.LFE3:
 688              		.size	jsmn_parse_string, .-jsmn_parse_string
 689              		.comm	drawer_commands,70,4
 690 02e6 00BF     		.section	.text.mb_ringbufferInit,"ax",%progbits
ARM GAS  C:\Users\schmi\AppData\Local\Temp\cc3rBAwr.s 			page 18


 691              		.align	2
 692              		.global	mb_ringbufferInit
 693              		.thumb
 694              		.thumb_func
 695              		.type	mb_ringbufferInit, %function
 696              	mb_ringbufferInit:
 697              	.LFB115:
 698              		.file 2 "message.c"
   1:message.c     **** /* ========================================
   2:message.c     ****  *
   3:message.c     ****  * Copyright YOUR COMPANY, THE YEAR
   4:message.c     ****  * All Rights Reserved
   5:message.c     ****  * UNPUBLISHED, LICENSED SOFTWARE.
   6:message.c     ****  *
   7:message.c     ****  * CONFIDENTIAL AND PROPRIETARY INFORMATION
   8:message.c     ****  * WHICH IS THE PROPERTY OF your company.
   9:message.c     ****  *
  10:message.c     ****  * ========================================
  11:message.c     **** */
  12:message.c     **** #include "message.h"
  13:message.c     **** 
  14:message.c     **** RC_t mb_ringbufferInit(messagebox_t* const me){
 699              		.loc 2 14 0
 700              		.cfi_startproc
 701              		@ args = 0, pretend = 0, frame = 16
 702              		@ frame_needed = 1, uses_anonymous_args = 0
 703 0000 80B5     		push	{r7, lr}
 704              		.cfi_def_cfa_offset 8
 705              		.cfi_offset 7, -8
 706              		.cfi_offset 14, -4
 707 0002 84B0     		sub	sp, sp, #16
 708              		.cfi_def_cfa_offset 24
 709 0004 00AF     		add	r7, sp, #0
 710              		.cfi_def_cfa_register 7
 711 0006 7860     		str	r0, [r7, #4]
  15:message.c     ****     me->mb_readIndex = 0;
 712              		.loc 2 15 0
 713 0008 7B68     		ldr	r3, [r7, #4]
 714 000a 0022     		movs	r2, #0
 715 000c A3F82023 		strh	r2, [r3, #800]	@ movhi
  16:message.c     ****     me->mb_writeIndex = 0;
 716              		.loc 2 16 0
 717 0010 7B68     		ldr	r3, [r7, #4]
 718 0012 0022     		movs	r2, #0
 719 0014 A3F82223 		strh	r2, [r3, #802]	@ movhi
  17:message.c     ****     me->mb_fillLevel = 0;
 720              		.loc 2 17 0
 721 0018 7B68     		ldr	r3, [r7, #4]
 722 001a 0022     		movs	r2, #0
 723 001c A3F82423 		strh	r2, [r3, #804]	@ movhi
  18:message.c     ****     me->mb_size = POSTBOX_SIZE;
 724              		.loc 2 18 0
 725 0020 7B68     		ldr	r3, [r7, #4]
 726 0022 6422     		movs	r2, #100
 727 0024 A3F82623 		strh	r2, [r3, #806]	@ movhi
  19:message.c     ****     me->mb_ev = MB_NOEVENT;
 728              		.loc 2 19 0
ARM GAS  C:\Users\schmi\AppData\Local\Temp\cc3rBAwr.s 			page 19


 729 0028 7B68     		ldr	r3, [r7, #4]
 730 002a 0222     		movs	r2, #2
 731 002c 83F82A23 		strb	r2, [r3, #810]
  20:message.c     ****     me->mb_taskType = MB_NOTASK;
 732              		.loc 2 20 0
 733 0030 7B68     		ldr	r3, [r7, #4]
 734 0032 0222     		movs	r2, #2
 735 0034 83F82923 		strb	r2, [r3, #809]
 736              	.LBB4:
  21:message.c     ****     for(int i = 0 ; i < POSTBOX_SIZE; i++){
 737              		.loc 2 21 0
 738 0038 0023     		movs	r3, #0
 739 003a FB60     		str	r3, [r7, #12]
 740 003c 08E0     		b	.L43
 741              	.L44:
  22:message.c     ****          me->mb_buffer[i].m_pBuffer = NULL;   
 742              		.loc 2 22 0 discriminator 3
 743 003e 7A68     		ldr	r2, [r7, #4]
 744 0040 FB68     		ldr	r3, [r7, #12]
 745 0042 DB00     		lsls	r3, r3, #3
 746 0044 1344     		add	r3, r3, r2
 747 0046 0022     		movs	r2, #0
 748 0048 5A60     		str	r2, [r3, #4]
  21:message.c     ****     for(int i = 0 ; i < POSTBOX_SIZE; i++){
 749              		.loc 2 21 0 discriminator 3
 750 004a FB68     		ldr	r3, [r7, #12]
 751 004c 0133     		adds	r3, r3, #1
 752 004e FB60     		str	r3, [r7, #12]
 753              	.L43:
  21:message.c     ****     for(int i = 0 ; i < POSTBOX_SIZE; i++){
 754              		.loc 2 21 0 is_stmt 0 discriminator 1
 755 0050 FB68     		ldr	r3, [r7, #12]
 756 0052 632B     		cmp	r3, #99
 757 0054 F3DD     		ble	.L44
 758              	.LBE4:
  23:message.c     ****     }
  24:message.c     ****     dw_ringbufferInit(&drawer_commands);
 759              		.loc 2 24 0 is_stmt 1
 760 0056 0448     		ldr	r0, .L46
 761 0058 FFF7FEFF 		bl	dw_ringbufferInit
  25:message.c     ****     return RC_SUCCESS;   
 762              		.loc 2 25 0
 763 005c 0023     		movs	r3, #0
  26:message.c     **** }
 764              		.loc 2 26 0
 765 005e 1846     		mov	r0, r3
 766 0060 1037     		adds	r7, r7, #16
 767              		.cfi_def_cfa_offset 8
 768 0062 BD46     		mov	sp, r7
 769              		.cfi_def_cfa_register 13
 770              		@ sp needed
 771 0064 80BD     		pop	{r7, pc}
 772              	.L47:
 773 0066 00BF     		.align	2
 774              	.L46:
 775 0068 00000000 		.word	drawer_commands
 776              		.cfi_endproc
ARM GAS  C:\Users\schmi\AppData\Local\Temp\cc3rBAwr.s 			page 20


 777              	.LFE115:
 778              		.size	mb_ringbufferInit, .-mb_ringbufferInit
 779              		.section	.text.mb_setHMIEventAndTaskType,"ax",%progbits
 780              		.align	2
 781              		.global	mb_setHMIEventAndTaskType
 782              		.thumb
 783              		.thumb_func
 784              		.type	mb_setHMIEventAndTaskType, %function
 785              	mb_setHMIEventAndTaskType:
 786              	.LFB116:
  27:message.c     **** RC_t mb_setHMIEventAndTaskType(messagebox_t * const me,MB_EventMaskType ev, MB_TaskType tsk)
  28:message.c     **** {
 787              		.loc 2 28 0
 788              		.cfi_startproc
 789              		@ args = 0, pretend = 0, frame = 16
 790              		@ frame_needed = 1, uses_anonymous_args = 0
 791              		@ link register save eliminated.
 792 0000 80B4     		push	{r7}
 793              		.cfi_def_cfa_offset 4
 794              		.cfi_offset 7, -4
 795 0002 85B0     		sub	sp, sp, #20
 796              		.cfi_def_cfa_offset 24
 797 0004 00AF     		add	r7, sp, #0
 798              		.cfi_def_cfa_register 7
 799 0006 7860     		str	r0, [r7, #4]
 800 0008 0B46     		mov	r3, r1
 801 000a FB70     		strb	r3, [r7, #3]
 802 000c 1346     		mov	r3, r2
 803 000e BB70     		strb	r3, [r7, #2]
  29:message.c     ****     RC_t res = RC_SUCCESS;
 804              		.loc 2 29 0
 805 0010 0023     		movs	r3, #0
 806 0012 FB73     		strb	r3, [r7, #15]
  30:message.c     ****     //GetResource(res_messagebox);
  31:message.c     ****     me->mb_taskType = tsk;
 807              		.loc 2 31 0
 808 0014 7B68     		ldr	r3, [r7, #4]
 809 0016 BA78     		ldrb	r2, [r7, #2]
 810 0018 83F82923 		strb	r2, [r3, #809]
  32:message.c     ****     me->mb_ev = ev;
 811              		.loc 2 32 0
 812 001c 7B68     		ldr	r3, [r7, #4]
 813 001e FA78     		ldrb	r2, [r7, #3]
 814 0020 83F82A23 		strb	r2, [r3, #810]
  33:message.c     ****     //ReleaseResource(res_messagebox);
  34:message.c     ****     return res;
 815              		.loc 2 34 0
 816 0024 97F90F30 		ldrsb	r3, [r7, #15]
  35:message.c     **** }
 817              		.loc 2 35 0
 818 0028 1846     		mov	r0, r3
 819 002a 1437     		adds	r7, r7, #20
 820              		.cfi_def_cfa_offset 4
 821 002c BD46     		mov	sp, r7
 822              		.cfi_def_cfa_register 13
 823              		@ sp needed
 824 002e 80BC     		pop	{r7}
ARM GAS  C:\Users\schmi\AppData\Local\Temp\cc3rBAwr.s 			page 21


 825              		.cfi_restore 7
 826              		.cfi_def_cfa_offset 0
 827 0030 7047     		bx	lr
 828              		.cfi_endproc
 829              	.LFE116:
 830              		.size	mb_setHMIEventAndTaskType, .-mb_setHMIEventAndTaskType
 831 0032 00BF     		.section	.text.mb_HMIFired,"ax",%progbits
 832              		.align	2
 833              		.global	mb_HMIFired
 834              		.thumb
 835              		.thumb_func
 836              		.type	mb_HMIFired, %function
 837              	mb_HMIFired:
 838              	.LFB117:
  36:message.c     **** 
  37:message.c     **** boolean_t mb_HMIFired(messagebox_t * const me){
 839              		.loc 2 37 0
 840              		.cfi_startproc
 841              		@ args = 0, pretend = 0, frame = 16
 842              		@ frame_needed = 1, uses_anonymous_args = 0
 843              		@ link register save eliminated.
 844 0000 80B4     		push	{r7}
 845              		.cfi_def_cfa_offset 4
 846              		.cfi_offset 7, -4
 847 0002 85B0     		sub	sp, sp, #20
 848              		.cfi_def_cfa_offset 24
 849 0004 00AF     		add	r7, sp, #0
 850              		.cfi_def_cfa_register 7
 851 0006 7860     		str	r0, [r7, #4]
  38:message.c     ****     boolean_t ret = 0;
 852              		.loc 2 38 0
 853 0008 0023     		movs	r3, #0
 854 000a FB73     		strb	r3, [r7, #15]
  39:message.c     ****     ret = 0;
 855              		.loc 2 39 0
 856 000c 0023     		movs	r3, #0
 857 000e FB73     		strb	r3, [r7, #15]
  40:message.c     ****     //GetResource(res_messagebox);
  41:message.c     ****     if(me->mb_taskType == MB_HMI && me->mb_ev == MB_HMI_DATA_READY){
 858              		.loc 2 41 0
 859 0010 7B68     		ldr	r3, [r7, #4]
 860 0012 93F82933 		ldrb	r3, [r3, #809]	@ zero_extendqisi2
 861 0016 002B     		cmp	r3, #0
 862 0018 06D1     		bne	.L51
 863              		.loc 2 41 0 is_stmt 0 discriminator 1
 864 001a 7B68     		ldr	r3, [r7, #4]
 865 001c 93F82A33 		ldrb	r3, [r3, #810]	@ zero_extendqisi2
 866 0020 002B     		cmp	r3, #0
 867 0022 01D1     		bne	.L51
  42:message.c     ****         ret = 1;   
 868              		.loc 2 42 0 is_stmt 1
 869 0024 0123     		movs	r3, #1
 870 0026 FB73     		strb	r3, [r7, #15]
 871              	.L51:
  43:message.c     ****     }
  44:message.c     ****     //ReleaseResource(res_messagebox);
  45:message.c     ****     return ret;   
ARM GAS  C:\Users\schmi\AppData\Local\Temp\cc3rBAwr.s 			page 22


 872              		.loc 2 45 0
 873 0028 FB7B     		ldrb	r3, [r7, #15]	@ zero_extendqisi2
  46:message.c     **** }
 874              		.loc 2 46 0
 875 002a 1846     		mov	r0, r3
 876 002c 1437     		adds	r7, r7, #20
 877              		.cfi_def_cfa_offset 4
 878 002e BD46     		mov	sp, r7
 879              		.cfi_def_cfa_register 13
 880              		@ sp needed
 881 0030 80BC     		pop	{r7}
 882              		.cfi_restore 7
 883              		.cfi_def_cfa_offset 0
 884 0032 7047     		bx	lr
 885              		.cfi_endproc
 886              	.LFE117:
 887              		.size	mb_HMIFired, .-mb_HMIFired
 888              		.section	.rodata
 889              		.align	2
 890              	.LC0:
 891 0000 72656400 		.ascii	"red\000"
 892              		.section	.text.mb_transferTokenIntoDrawer,"ax",%progbits
 893              		.align	2
 894              		.global	mb_transferTokenIntoDrawer
 895              		.thumb
 896              		.thumb_func
 897              		.type	mb_transferTokenIntoDrawer, %function
 898              	mb_transferTokenIntoDrawer:
 899              	.LFB118:
  47:message.c     **** 
  48:message.c     **** RC_t mb_transferTokenIntoDrawer(messagebox_t* const me, 
  49:message.c     ****                                 int nbrTokens, 
  50:message.c     ****                                 char tftCommands[commandsRows][commandsColumns],
  51:message.c     ****                                 jsmntok_t tokens[token_nbr],
  52:message.c     ****                                 char* jsonString, 
  53:message.c     ****                                 Drawer_t* local_drawer)
  54:message.c     **** {
 900              		.loc 2 54 0
 901              		.cfi_startproc
 902              		@ args = 8, pretend = 0, frame = 48
 903              		@ frame_needed = 1, uses_anonymous_args = 0
 904 0000 80B5     		push	{r7, lr}
 905              		.cfi_def_cfa_offset 8
 906              		.cfi_offset 7, -8
 907              		.cfi_offset 14, -4
 908 0002 8CB0     		sub	sp, sp, #48
 909              		.cfi_def_cfa_offset 56
 910 0004 00AF     		add	r7, sp, #0
 911              		.cfi_def_cfa_register 7
 912 0006 F860     		str	r0, [r7, #12]
 913 0008 B960     		str	r1, [r7, #8]
 914 000a 7A60     		str	r2, [r7, #4]
 915 000c 3B60     		str	r3, [r7]
  55:message.c     ****     //check for Json Strings and put them into an 2D array, for easy access.
  56:message.c     ****     RC_t res = RC_ERROR;
 916              		.loc 2 56 0
 917 000e FF23     		movs	r3, #255
ARM GAS  C:\Users\schmi\AppData\Local\Temp\cc3rBAwr.s 			page 23


 918 0010 FB74     		strb	r3, [r7, #19]
  57:message.c     ****     unsigned int index_tokens = 0;
 919              		.loc 2 57 0
 920 0012 0023     		movs	r3, #0
 921 0014 FB62     		str	r3, [r7, #44]
  58:message.c     ****     unsigned int tftCommandToken = 0; 
 922              		.loc 2 58 0
 923 0016 0023     		movs	r3, #0
 924 0018 BB62     		str	r3, [r7, #40]
 925              	.LBB5:
  59:message.c     ****     for(int i = 0; i < nbrTokens ; i++)
 926              		.loc 2 59 0
 927 001a 0023     		movs	r3, #0
 928 001c 7B62     		str	r3, [r7, #36]
 929 001e 41E0     		b	.L54
 930              	.L59:
  60:message.c     ****     {
  61:message.c     ****         if((tokens[index_tokens].type == JSMN_STRING)||
 931              		.loc 2 61 0
 932 0020 FB6A     		ldr	r3, [r7, #44]
 933 0022 1B01     		lsls	r3, r3, #4
 934 0024 3A68     		ldr	r2, [r7]
 935 0026 1344     		add	r3, r3, r2
 936 0028 1B78     		ldrb	r3, [r3]	@ zero_extendqisi2
 937 002a 042B     		cmp	r3, #4
 938 002c 0DD0     		beq	.L55
  62:message.c     ****            (tokens[index_tokens].type == JSMN_ARRAY)||
 939              		.loc 2 62 0 discriminator 1
 940 002e FB6A     		ldr	r3, [r7, #44]
 941 0030 1B01     		lsls	r3, r3, #4
 942 0032 3A68     		ldr	r2, [r7]
 943 0034 1344     		add	r3, r3, r2
 944 0036 1B78     		ldrb	r3, [r3]	@ zero_extendqisi2
  61:message.c     ****            (tokens[index_tokens].type == JSMN_ARRAY)||
 945              		.loc 2 61 0 discriminator 1
 946 0038 022B     		cmp	r3, #2
 947 003a 06D0     		beq	.L55
  63:message.c     ****            (tokens[index_tokens].type == JSMN_PRIMITIVE))
 948              		.loc 2 63 0
 949 003c FB6A     		ldr	r3, [r7, #44]
 950 003e 1B01     		lsls	r3, r3, #4
 951 0040 3A68     		ldr	r2, [r7]
 952 0042 1344     		add	r3, r3, r2
 953 0044 1B78     		ldrb	r3, [r3]	@ zero_extendqisi2
  62:message.c     ****            (tokens[index_tokens].type == JSMN_ARRAY)||
 954              		.loc 2 62 0
 955 0046 082B     		cmp	r3, #8
 956 0048 26D1     		bne	.L56
 957              	.L55:
 958              	.LBB6:
  64:message.c     ****            {
  65:message.c     ****                 int TokenContent = 0;
 959              		.loc 2 65 0
 960 004a 0023     		movs	r3, #0
 961 004c 3B62     		str	r3, [r7, #32]
 962              	.LBB7:
  66:message.c     ****                 for( int tokenPosition = tokens[index_tokens].start; tokenPosition < tokens[index_t
ARM GAS  C:\Users\schmi\AppData\Local\Temp\cc3rBAwr.s 			page 24


 963              		.loc 2 66 0
 964 004e FB6A     		ldr	r3, [r7, #44]
 965 0050 1B01     		lsls	r3, r3, #4
 966 0052 3A68     		ldr	r2, [r7]
 967 0054 1344     		add	r3, r3, r2
 968 0056 5B68     		ldr	r3, [r3, #4]
 969 0058 FB61     		str	r3, [r7, #28]
 970 005a 12E0     		b	.L57
 971              	.L58:
  67:message.c     ****                     tftCommands[tftCommandToken][TokenContent++] = jsonString[tokenPosition];
 972              		.loc 2 67 0 discriminator 3
 973 005c BA6A     		ldr	r2, [r7, #40]
 974 005e 1346     		mov	r3, r2
 975 0060 9B00     		lsls	r3, r3, #2
 976 0062 1344     		add	r3, r3, r2
 977 0064 9B00     		lsls	r3, r3, #2
 978 0066 1A46     		mov	r2, r3
 979 0068 7B68     		ldr	r3, [r7, #4]
 980 006a 1A44     		add	r2, r2, r3
 981 006c 3B6A     		ldr	r3, [r7, #32]
 982 006e 591C     		adds	r1, r3, #1
 983 0070 3962     		str	r1, [r7, #32]
 984 0072 F969     		ldr	r1, [r7, #28]
 985 0074 B86B     		ldr	r0, [r7, #56]
 986 0076 0144     		add	r1, r1, r0
 987 0078 0978     		ldrb	r1, [r1]	@ zero_extendqisi2
 988 007a D154     		strb	r1, [r2, r3]
  66:message.c     ****                 for( int tokenPosition = tokens[index_tokens].start; tokenPosition < tokens[index_t
 989              		.loc 2 66 0 discriminator 3
 990 007c FB69     		ldr	r3, [r7, #28]
 991 007e 0133     		adds	r3, r3, #1
 992 0080 FB61     		str	r3, [r7, #28]
 993              	.L57:
  66:message.c     ****                 for( int tokenPosition = tokens[index_tokens].start; tokenPosition < tokens[index_t
 994              		.loc 2 66 0 is_stmt 0 discriminator 1
 995 0082 FB6A     		ldr	r3, [r7, #44]
 996 0084 1B01     		lsls	r3, r3, #4
 997 0086 3A68     		ldr	r2, [r7]
 998 0088 1344     		add	r3, r3, r2
 999 008a 9A68     		ldr	r2, [r3, #8]
 1000 008c FB69     		ldr	r3, [r7, #28]
 1001 008e 9A42     		cmp	r2, r3
 1002 0090 E4DC     		bgt	.L58
 1003              	.LBE7:
  68:message.c     ****                 }
  69:message.c     ****                 tftCommandToken++;
 1004              		.loc 2 69 0 is_stmt 1
 1005 0092 BB6A     		ldr	r3, [r7, #40]
 1006 0094 0133     		adds	r3, r3, #1
 1007 0096 BB62     		str	r3, [r7, #40]
 1008              	.L56:
 1009              	.LBE6:
  70:message.c     ****             }
  71:message.c     ****             index_tokens++;
 1010              		.loc 2 71 0 discriminator 2
 1011 0098 FB6A     		ldr	r3, [r7, #44]
 1012 009a 0133     		adds	r3, r3, #1
ARM GAS  C:\Users\schmi\AppData\Local\Temp\cc3rBAwr.s 			page 25


 1013 009c FB62     		str	r3, [r7, #44]
  59:message.c     ****     {
 1014              		.loc 2 59 0 discriminator 2
 1015 009e 7B6A     		ldr	r3, [r7, #36]
 1016 00a0 0133     		adds	r3, r3, #1
 1017 00a2 7B62     		str	r3, [r7, #36]
 1018              	.L54:
  59:message.c     ****     {
 1019              		.loc 2 59 0 is_stmt 0 discriminator 1
 1020 00a4 7A6A     		ldr	r2, [r7, #36]
 1021 00a6 BB68     		ldr	r3, [r7, #8]
 1022 00a8 9A42     		cmp	r2, r3
 1023 00aa B9DB     		blt	.L59
 1024              	.LBE5:
  72:message.c     ****     }
  73:message.c     ****         //Read out information of the json strings and put them into global drawer object
  74:message.c     ****         
  75:message.c     ****     nbrTokens--;
 1025              		.loc 2 75 0 is_stmt 1
 1026 00ac BB68     		ldr	r3, [r7, #8]
 1027 00ae 013B     		subs	r3, r3, #1
 1028 00b0 BB60     		str	r3, [r7, #8]
  76:message.c     ****     int color = 0;
 1029              		.loc 2 76 0
 1030 00b2 0023     		movs	r3, #0
 1031 00b4 BB61     		str	r3, [r7, #24]
 1032              	.LBB8:
  77:message.c     ****     for(int even_commands = 0; even_commands < nbrTokens ; even_commands+=2){
 1033              		.loc 2 77 0
 1034 00b6 0023     		movs	r3, #0
 1035 00b8 7B61     		str	r3, [r7, #20]
 1036 00ba 92E0     		b	.L60
 1037              	.L67:
  78:message.c     ****         if(tftCommands[even_commands][0] == 'c'){
 1038              		.loc 2 78 0
 1039 00bc 7A69     		ldr	r2, [r7, #20]
 1040 00be 1346     		mov	r3, r2
 1041 00c0 9B00     		lsls	r3, r3, #2
 1042 00c2 1344     		add	r3, r3, r2
 1043 00c4 9B00     		lsls	r3, r3, #2
 1044 00c6 1A46     		mov	r2, r3
 1045 00c8 7B68     		ldr	r3, [r7, #4]
 1046 00ca 1344     		add	r3, r3, r2
 1047 00cc 1B78     		ldrb	r3, [r3]	@ zero_extendqisi2
 1048 00ce 632B     		cmp	r3, #99
 1049 00d0 1FD1     		bne	.L61
  79:message.c     ****             if(!strcmp(tftCommands[even_commands+1],"red"))
 1050              		.loc 2 79 0
 1051 00d2 7B69     		ldr	r3, [r7, #20]
 1052 00d4 5A1C     		adds	r2, r3, #1
 1053 00d6 1346     		mov	r3, r2
 1054 00d8 9B00     		lsls	r3, r3, #2
 1055 00da 1344     		add	r3, r3, r2
 1056 00dc 9B00     		lsls	r3, r3, #2
 1057 00de 1A46     		mov	r2, r3
 1058 00e0 7B68     		ldr	r3, [r7, #4]
 1059 00e2 1344     		add	r3, r3, r2
ARM GAS  C:\Users\schmi\AppData\Local\Temp\cc3rBAwr.s 			page 26


 1060 00e4 4449     		ldr	r1, .L69
 1061 00e6 1846     		mov	r0, r3
 1062 00e8 FFF7FEFF 		bl	strcmp
 1063 00ec 0346     		mov	r3, r0
 1064 00ee 002B     		cmp	r3, #0
 1065 00f0 01D1     		bne	.L62
  80:message.c     ****             {
  81:message.c     ****                 color = 1;
 1066              		.loc 2 81 0
 1067 00f2 0123     		movs	r3, #1
 1068 00f4 BB61     		str	r3, [r7, #24]
 1069              	.L62:
  82:message.c     ****             }
  83:message.c     ****             if(tftCommands[even_commands+1][0] == 'b')
 1070              		.loc 2 83 0
 1071 00f6 7B69     		ldr	r3, [r7, #20]
 1072 00f8 5A1C     		adds	r2, r3, #1
 1073 00fa 1346     		mov	r3, r2
 1074 00fc 9B00     		lsls	r3, r3, #2
 1075 00fe 1344     		add	r3, r3, r2
 1076 0100 9B00     		lsls	r3, r3, #2
 1077 0102 1A46     		mov	r2, r3
 1078 0104 7B68     		ldr	r3, [r7, #4]
 1079 0106 1344     		add	r3, r3, r2
 1080 0108 1B78     		ldrb	r3, [r3]	@ zero_extendqisi2
 1081 010a 622B     		cmp	r3, #98
 1082 010c 01D1     		bne	.L61
  84:message.c     ****             {   
  85:message.c     ****                 color = 2;
 1083              		.loc 2 85 0
 1084 010e 0223     		movs	r3, #2
 1085 0110 BB61     		str	r3, [r7, #24]
 1086              	.L61:
  86:message.c     ****             }
  87:message.c     ****         }
  88:message.c     ****         if(tftCommands[even_commands][0] == 'd'){
 1087              		.loc 2 88 0
 1088 0112 7A69     		ldr	r2, [r7, #20]
 1089 0114 1346     		mov	r3, r2
 1090 0116 9B00     		lsls	r3, r3, #2
 1091 0118 1344     		add	r3, r3, r2
 1092 011a 9B00     		lsls	r3, r3, #2
 1093 011c 1A46     		mov	r2, r3
 1094 011e 7B68     		ldr	r3, [r7, #4]
 1095 0120 1344     		add	r3, r3, r2
 1096 0122 1B78     		ldrb	r3, [r3]	@ zero_extendqisi2
 1097 0124 642B     		cmp	r3, #100
 1098 0126 59D1     		bne	.L63
  89:message.c     ****             if(color == 1){
 1099              		.loc 2 89 0
 1100 0128 BB69     		ldr	r3, [r7, #24]
 1101 012a 012B     		cmp	r3, #1
 1102 012c 03D1     		bne	.L64
  90:message.c     ****                      local_drawer->data.color = RED;  
 1103              		.loc 2 90 0
 1104 012e FB6B     		ldr	r3, [r7, #60]
 1105 0130 1F22     		movs	r2, #31
ARM GAS  C:\Users\schmi\AppData\Local\Temp\cc3rBAwr.s 			page 27


 1106 0132 5A80     		strh	r2, [r3, #2]	@ movhi
 1107 0134 0BE0     		b	.L65
 1108              	.L64:
  91:message.c     ****             }
  92:message.c     ****             else if( color == 2)
 1109              		.loc 2 92 0
 1110 0136 BB69     		ldr	r3, [r7, #24]
 1111 0138 022B     		cmp	r3, #2
 1112 013a 04D1     		bne	.L66
  93:message.c     ****             {
  94:message.c     ****                     local_drawer->data.color = BLUE;
 1113              		.loc 2 94 0
 1114 013c FB6B     		ldr	r3, [r7, #60]
 1115 013e 4FF47842 		mov	r2, #63488
 1116 0142 5A80     		strh	r2, [r3, #2]	@ movhi
 1117 0144 03E0     		b	.L65
 1118              	.L66:
  95:message.c     ****             }
  96:message.c     ****             else
  97:message.c     ****             {
  98:message.c     ****                 local_drawer->data.color = YELLOW;
 1119              		.loc 2 98 0
 1120 0146 FB6B     		ldr	r3, [r7, #60]
 1121 0148 40F2FF72 		movw	r2, #2047
 1122 014c 5A80     		strh	r2, [r3, #2]	@ movhi
 1123              	.L65:
  99:message.c     ****             }
 100:message.c     ****             local_drawer->data.coordinate[0] = atoi(tftCommands[even_commands+2]);
 1124              		.loc 2 100 0
 1125 014e 7A69     		ldr	r2, [r7, #20]
 1126 0150 1346     		mov	r3, r2
 1127 0152 9B00     		lsls	r3, r3, #2
 1128 0154 1344     		add	r3, r3, r2
 1129 0156 9B00     		lsls	r3, r3, #2
 1130 0158 2833     		adds	r3, r3, #40
 1131 015a 7A68     		ldr	r2, [r7, #4]
 1132 015c 1344     		add	r3, r3, r2
 1133 015e 1846     		mov	r0, r3
 1134 0160 FFF7FEFF 		bl	atoi
 1135 0164 0346     		mov	r3, r0
 1136 0166 DAB2     		uxtb	r2, r3
 1137 0168 FB6B     		ldr	r3, [r7, #60]
 1138 016a 9A70     		strb	r2, [r3, #2]
 101:message.c     ****             local_drawer->data.coordinate[1] = atoi(tftCommands[even_commands+3]);
 1139              		.loc 2 101 0
 1140 016c 7A69     		ldr	r2, [r7, #20]
 1141 016e 1346     		mov	r3, r2
 1142 0170 9B00     		lsls	r3, r3, #2
 1143 0172 1344     		add	r3, r3, r2
 1144 0174 9B00     		lsls	r3, r3, #2
 1145 0176 3C33     		adds	r3, r3, #60
 1146 0178 7A68     		ldr	r2, [r7, #4]
 1147 017a 1344     		add	r3, r3, r2
 1148 017c 1846     		mov	r0, r3
 1149 017e FFF7FEFF 		bl	atoi
 1150 0182 0346     		mov	r3, r0
 1151 0184 DAB2     		uxtb	r2, r3
ARM GAS  C:\Users\schmi\AppData\Local\Temp\cc3rBAwr.s 			page 28


 1152 0186 FB6B     		ldr	r3, [r7, #60]
 1153 0188 DA70     		strb	r2, [r3, #3]
 102:message.c     ****             local_drawer->data.coordinate[2] = atoi(tftCommands[even_commands+4]);
 1154              		.loc 2 102 0
 1155 018a 7A69     		ldr	r2, [r7, #20]
 1156 018c 1346     		mov	r3, r2
 1157 018e 9B00     		lsls	r3, r3, #2
 1158 0190 1344     		add	r3, r3, r2
 1159 0192 9B00     		lsls	r3, r3, #2
 1160 0194 5033     		adds	r3, r3, #80
 1161 0196 7A68     		ldr	r2, [r7, #4]
 1162 0198 1344     		add	r3, r3, r2
 1163 019a 1846     		mov	r0, r3
 1164 019c FFF7FEFF 		bl	atoi
 1165 01a0 0346     		mov	r3, r0
 1166 01a2 DAB2     		uxtb	r2, r3
 1167 01a4 FB6B     		ldr	r3, [r7, #60]
 1168 01a6 1A71     		strb	r2, [r3, #4]
 103:message.c     ****             local_drawer->data.coordinate[3] = atoi(tftCommands[even_commands+5]);
 1169              		.loc 2 103 0
 1170 01a8 7A69     		ldr	r2, [r7, #20]
 1171 01aa 1346     		mov	r3, r2
 1172 01ac 9B00     		lsls	r3, r3, #2
 1173 01ae 1344     		add	r3, r3, r2
 1174 01b0 9B00     		lsls	r3, r3, #2
 1175 01b2 6433     		adds	r3, r3, #100
 1176 01b4 7A68     		ldr	r2, [r7, #4]
 1177 01b6 1344     		add	r3, r3, r2
 1178 01b8 1846     		mov	r0, r3
 1179 01ba FFF7FEFF 		bl	atoi
 1180 01be 0346     		mov	r3, r0
 1181 01c0 DAB2     		uxtb	r2, r3
 1182 01c2 FB6B     		ldr	r3, [r7, #60]
 1183 01c4 5A71     		strb	r2, [r3, #5]
 104:message.c     ****         
 105:message.c     ****             //GetResource(res_messagebox);  
 106:message.c     ****             MESSAGE_BUFFER_WRITE(me, (void*)local_drawer, BUFFERTYPE_DRAWER, sizeof(local_drawer)+1
 1184              		.loc 2 106 0
 1185 01c6 0523     		movs	r3, #5
 1186 01c8 0022     		movs	r2, #0
 1187 01ca F96B     		ldr	r1, [r7, #60]
 1188 01cc F868     		ldr	r0, [r7, #12]
 1189 01ce FFF7FEFF 		bl	MESSAGE_BUFFER_WRITE
 107:message.c     ****             mb_setHMIEventAndTaskType(me,MB_HMI_DATA_READY, MB_HMI);
 1190              		.loc 2 107 0
 1191 01d2 0022     		movs	r2, #0
 1192 01d4 0021     		movs	r1, #0
 1193 01d6 F868     		ldr	r0, [r7, #12]
 1194 01d8 FFF7FEFF 		bl	mb_setHMIEventAndTaskType
 1195              	.L63:
  77:message.c     ****         if(tftCommands[even_commands][0] == 'c'){
 1196              		.loc 2 77 0 discriminator 2
 1197 01dc 7B69     		ldr	r3, [r7, #20]
 1198 01de 0233     		adds	r3, r3, #2
 1199 01e0 7B61     		str	r3, [r7, #20]
 1200              	.L60:
  77:message.c     ****         if(tftCommands[even_commands][0] == 'c'){
ARM GAS  C:\Users\schmi\AppData\Local\Temp\cc3rBAwr.s 			page 29


 1201              		.loc 2 77 0 is_stmt 0 discriminator 1
 1202 01e2 7A69     		ldr	r2, [r7, #20]
 1203 01e4 BB68     		ldr	r3, [r7, #8]
 1204 01e6 9A42     		cmp	r2, r3
 1205 01e8 FFF668AF 		blt	.L67
 1206              	.LBE8:
 108:message.c     ****             //ReleaseResource(res_messagebox);
 109:message.c     ****         }
 110:message.c     ****     }
 111:message.c     ****     return res;
 1207              		.loc 2 111 0 is_stmt 1
 1208 01ec 97F91330 		ldrsb	r3, [r7, #19]
 112:message.c     **** }
 1209              		.loc 2 112 0
 1210 01f0 1846     		mov	r0, r3
 1211 01f2 3037     		adds	r7, r7, #48
 1212              		.cfi_def_cfa_offset 8
 1213 01f4 BD46     		mov	sp, r7
 1214              		.cfi_def_cfa_register 13
 1215              		@ sp needed
 1216 01f6 80BD     		pop	{r7, pc}
 1217              	.L70:
 1218              		.align	2
 1219              	.L69:
 1220 01f8 00000000 		.word	.LC0
 1221              		.cfi_endproc
 1222              	.LFE118:
 1223              		.size	mb_transferTokenIntoDrawer, .-mb_transferTokenIntoDrawer
 1224              		.section	.text.MESSAGE_BUFFER_WRITE,"ax",%progbits
 1225              		.align	2
 1226              		.global	MESSAGE_BUFFER_WRITE
 1227              		.thumb
 1228              		.thumb_func
 1229              		.type	MESSAGE_BUFFER_WRITE, %function
 1230              	MESSAGE_BUFFER_WRITE:
 1231              	.LFB119:
 113:message.c     **** 
 114:message.c     **** RC_t MESSAGE_BUFFER_WRITE(messagebox_t* messagebox, void const*const buffer_data, type_t type, uint
 1232              		.loc 2 114 0
 1233              		.cfi_startproc
 1234              		@ args = 0, pretend = 0, frame = 32
 1235              		@ frame_needed = 1, uses_anonymous_args = 0
 1236 0000 80B5     		push	{r7, lr}
 1237              		.cfi_def_cfa_offset 8
 1238              		.cfi_offset 7, -8
 1239              		.cfi_offset 14, -4
 1240 0002 88B0     		sub	sp, sp, #32
 1241              		.cfi_def_cfa_offset 40
 1242 0004 00AF     		add	r7, sp, #0
 1243              		.cfi_def_cfa_register 7
 1244 0006 F860     		str	r0, [r7, #12]
 1245 0008 B960     		str	r1, [r7, #8]
 1246 000a 1146     		mov	r1, r2
 1247 000c 1A46     		mov	r2, r3
 1248 000e 0B46     		mov	r3, r1
 1249 0010 FB71     		strb	r3, [r7, #7]
 1250 0012 1346     		mov	r3, r2	@ movhi
ARM GAS  C:\Users\schmi\AppData\Local\Temp\cc3rBAwr.s 			page 30


 1251 0014 BB80     		strh	r3, [r7, #4]	@ movhi
 115:message.c     ****     if(messagebox->mb_fillLevel >= POSTBOX_SIZE){
 1252              		.loc 2 115 0
 1253 0016 FB68     		ldr	r3, [r7, #12]
 1254 0018 B3F82433 		ldrh	r3, [r3, #804]
 1255 001c 632B     		cmp	r3, #99
 1256 001e 02D9     		bls	.L72
 116:message.c     ****         return RC_ERROR_BUFFER_FULL;
 1257              		.loc 2 116 0
 1258 0020 6FF00703 		mvn	r3, #7
 1259 0024 5AE0     		b	.L73
 1260              	.L72:
 117:message.c     ****     }
 118:message.c     ****     void* buffer = malloc(size);
 1261              		.loc 2 118 0
 1262 0026 BB88     		ldrh	r3, [r7, #4]
 1263 0028 1846     		mov	r0, r3
 1264 002a FFF7FEFF 		bl	malloc
 1265 002e 0346     		mov	r3, r0
 1266 0030 BB61     		str	r3, [r7, #24]
 119:message.c     ****     
 120:message.c     ****     if(buffer == NULL || buffer_data == NULL){
 1267              		.loc 2 120 0
 1268 0032 BB69     		ldr	r3, [r7, #24]
 1269 0034 002B     		cmp	r3, #0
 1270 0036 02D0     		beq	.L74
 1271              		.loc 2 120 0 is_stmt 0 discriminator 1
 1272 0038 BB68     		ldr	r3, [r7, #8]
 1273 003a 002B     		cmp	r3, #0
 1274 003c 02D1     		bne	.L75
 1275              	.L74:
 121:message.c     ****         return RC_ERROR_MEMORY;   
 1276              		.loc 2 121 0 is_stmt 1
 1277 003e 6FF00303 		mvn	r3, #3
 1278 0042 4BE0     		b	.L73
 1279              	.L75:
 122:message.c     ****     }
 123:message.c     ****     uint8_t* src = (uint8_t*)buffer_data;
 1280              		.loc 2 123 0
 1281 0044 BB68     		ldr	r3, [r7, #8]
 1282 0046 7B61     		str	r3, [r7, #20]
 124:message.c     ****     uint8_t* dst = (uint8_t*)buffer;
 1283              		.loc 2 124 0
 1284 0048 BB69     		ldr	r3, [r7, #24]
 1285 004a 3B61     		str	r3, [r7, #16]
 1286              	.LBB9:
 125:message.c     ****     
 126:message.c     ****     for(int i = 0; i <= size; i++){
 1287              		.loc 2 126 0
 1288 004c 0023     		movs	r3, #0
 1289 004e FB61     		str	r3, [r7, #28]
 1290 0050 0AE0     		b	.L76
 1291              	.L77:
 127:message.c     ****         dst[i] = src[i];
 1292              		.loc 2 127 0 discriminator 3
 1293 0052 FB69     		ldr	r3, [r7, #28]
 1294 0054 3A69     		ldr	r2, [r7, #16]
ARM GAS  C:\Users\schmi\AppData\Local\Temp\cc3rBAwr.s 			page 31


 1295 0056 1344     		add	r3, r3, r2
 1296 0058 FA69     		ldr	r2, [r7, #28]
 1297 005a 7969     		ldr	r1, [r7, #20]
 1298 005c 0A44     		add	r2, r2, r1
 1299 005e 1278     		ldrb	r2, [r2]	@ zero_extendqisi2
 1300 0060 1A70     		strb	r2, [r3]
 126:message.c     ****         dst[i] = src[i];
 1301              		.loc 2 126 0 discriminator 3
 1302 0062 FB69     		ldr	r3, [r7, #28]
 1303 0064 0133     		adds	r3, r3, #1
 1304 0066 FB61     		str	r3, [r7, #28]
 1305              	.L76:
 126:message.c     ****         dst[i] = src[i];
 1306              		.loc 2 126 0 is_stmt 0 discriminator 1
 1307 0068 BA88     		ldrh	r2, [r7, #4]
 1308 006a FB69     		ldr	r3, [r7, #28]
 1309 006c 9A42     		cmp	r2, r3
 1310 006e F0DA     		bge	.L77
 1311              	.LBE9:
 128:message.c     ****     }
 129:message.c     ****     
 130:message.c     ****     if(buffer != 0)
 1312              		.loc 2 130 0 is_stmt 1
 1313 0070 BB69     		ldr	r3, [r7, #24]
 1314 0072 002B     		cmp	r3, #0
 1315 0074 31D0     		beq	.L78
 131:message.c     ****     {
 132:message.c     ****         messagebox->mb_buffer[messagebox->mb_writeIndex].m_pBuffer = buffer;
 1316              		.loc 2 132 0
 1317 0076 FB68     		ldr	r3, [r7, #12]
 1318 0078 B3F82233 		ldrh	r3, [r3, #802]
 1319 007c FA68     		ldr	r2, [r7, #12]
 1320 007e DB00     		lsls	r3, r3, #3
 1321 0080 1344     		add	r3, r3, r2
 1322 0082 BA69     		ldr	r2, [r7, #24]
 1323 0084 5A60     		str	r2, [r3, #4]
 133:message.c     ****         messagebox->mb_buffer[messagebox->mb_writeIndex].m_size = size;
 1324              		.loc 2 133 0
 1325 0086 FB68     		ldr	r3, [r7, #12]
 1326 0088 B3F82233 		ldrh	r3, [r3, #802]
 1327 008c 1946     		mov	r1, r3
 1328 008e FB68     		ldr	r3, [r7, #12]
 1329 0090 BA88     		ldrh	r2, [r7, #4]	@ movhi
 1330 0092 23F83120 		strh	r2, [r3, r1, lsl #3]	@ movhi
 134:message.c     ****         messagebox->mb_writeIndex = ( messagebox->mb_writeIndex + 1 )%POSTBOX_SIZE;
 1331              		.loc 2 134 0
 1332 0096 FB68     		ldr	r3, [r7, #12]
 1333 0098 B3F82233 		ldrh	r3, [r3, #802]
 1334 009c 0133     		adds	r3, r3, #1
 1335 009e 114A     		ldr	r2, .L79
 1336 00a0 82FB0312 		smull	r1, r2, r2, r3
 1337 00a4 5111     		asrs	r1, r2, #5
 1338 00a6 DA17     		asrs	r2, r3, #31
 1339 00a8 8A1A     		subs	r2, r1, r2
 1340 00aa 6421     		movs	r1, #100
 1341 00ac 01FB02F2 		mul	r2, r1, r2
 1342 00b0 9A1A     		subs	r2, r3, r2
ARM GAS  C:\Users\schmi\AppData\Local\Temp\cc3rBAwr.s 			page 32


 1343 00b2 92B2     		uxth	r2, r2
 1344 00b4 FB68     		ldr	r3, [r7, #12]
 1345 00b6 A3F82223 		strh	r2, [r3, #802]	@ movhi
 135:message.c     ****         messagebox->mb_fillLevel++;
 1346              		.loc 2 135 0
 1347 00ba FB68     		ldr	r3, [r7, #12]
 1348 00bc B3F82433 		ldrh	r3, [r3, #804]
 1349 00c0 0133     		adds	r3, r3, #1
 1350 00c2 9AB2     		uxth	r2, r3
 1351 00c4 FB68     		ldr	r3, [r7, #12]
 1352 00c6 A3F82423 		strh	r2, [r3, #804]	@ movhi
 136:message.c     ****         messagebox->mb_type = type;
 1353              		.loc 2 136 0
 1354 00ca FB68     		ldr	r3, [r7, #12]
 1355 00cc FA79     		ldrb	r2, [r7, #7]
 1356 00ce 83F82823 		strb	r2, [r3, #808]
 137:message.c     ****         messagebox->mb_size = size;
 1357              		.loc 2 137 0
 1358 00d2 FB68     		ldr	r3, [r7, #12]
 1359 00d4 BA88     		ldrh	r2, [r7, #4]	@ movhi
 1360 00d6 A3F82623 		strh	r2, [r3, #806]	@ movhi
 1361              	.L78:
 138:message.c     ****     }
 139:message.c     ****     return RC_SUCCESS;   
 1362              		.loc 2 139 0
 1363 00da 0023     		movs	r3, #0
 1364              	.L73:
 140:message.c     **** }
 1365              		.loc 2 140 0
 1366 00dc 1846     		mov	r0, r3
 1367 00de 2037     		adds	r7, r7, #32
 1368              		.cfi_def_cfa_offset 8
 1369 00e0 BD46     		mov	sp, r7
 1370              		.cfi_def_cfa_register 13
 1371              		@ sp needed
 1372 00e2 80BD     		pop	{r7, pc}
 1373              	.L80:
 1374              		.align	2
 1375              	.L79:
 1376 00e4 1F85EB51 		.word	1374389535
 1377              		.cfi_endproc
 1378              	.LFE119:
 1379              		.size	MESSAGE_BUFFER_WRITE, .-MESSAGE_BUFFER_WRITE
 1380              		.section	.text.MESSAGE_BUFFER_READ,"ax",%progbits
 1381              		.align	2
 1382              		.global	MESSAGE_BUFFER_READ
 1383              		.thumb
 1384              		.thumb_func
 1385              		.type	MESSAGE_BUFFER_READ, %function
 1386              	MESSAGE_BUFFER_READ:
 1387              	.LFB120:
 141:message.c     **** 
 142:message.c     **** RC_t MESSAGE_BUFFER_READ(messagebox_t* messagebox, void* output_data, type_t type, uint16_t size){
 1388              		.loc 2 142 0
 1389              		.cfi_startproc
 1390              		@ args = 0, pretend = 0, frame = 32
 1391              		@ frame_needed = 1, uses_anonymous_args = 0
ARM GAS  C:\Users\schmi\AppData\Local\Temp\cc3rBAwr.s 			page 33


 1392 0000 80B5     		push	{r7, lr}
 1393              		.cfi_def_cfa_offset 8
 1394              		.cfi_offset 7, -8
 1395              		.cfi_offset 14, -4
 1396 0002 88B0     		sub	sp, sp, #32
 1397              		.cfi_def_cfa_offset 40
 1398 0004 00AF     		add	r7, sp, #0
 1399              		.cfi_def_cfa_register 7
 1400 0006 F860     		str	r0, [r7, #12]
 1401 0008 B960     		str	r1, [r7, #8]
 1402 000a 1146     		mov	r1, r2
 1403 000c 1A46     		mov	r2, r3
 1404 000e 0B46     		mov	r3, r1
 1405 0010 FB71     		strb	r3, [r7, #7]
 1406 0012 1346     		mov	r3, r2	@ movhi
 1407 0014 BB80     		strh	r3, [r7, #4]	@ movhi
 143:message.c     ****     if(messagebox->mb_fillLevel < 1){
 1408              		.loc 2 143 0
 1409 0016 FB68     		ldr	r3, [r7, #12]
 1410 0018 B3F82433 		ldrh	r3, [r3, #804]
 1411 001c 002B     		cmp	r3, #0
 1412 001e 02D1     		bne	.L82
 144:message.c     ****         return RC_ERROR_BUFFER_EMTPY;
 1413              		.loc 2 144 0
 1414 0020 6FF00803 		mvn	r3, #8
 1415 0024 48E0     		b	.L83
 1416              	.L82:
 145:message.c     ****     }
 146:message.c     ****     
 147:message.c     ****     
 148:message.c     ****     uint8_t* dst = (uint8_t*)output_data;
 1417              		.loc 2 148 0
 1418 0026 BB68     		ldr	r3, [r7, #8]
 1419 0028 BB61     		str	r3, [r7, #24]
 149:message.c     ****     uint8_t* src = (uint8_t*)messagebox->mb_buffer[messagebox->mb_readIndex].m_pBuffer;
 1420              		.loc 2 149 0
 1421 002a FB68     		ldr	r3, [r7, #12]
 1422 002c B3F82033 		ldrh	r3, [r3, #800]
 1423 0030 FA68     		ldr	r2, [r7, #12]
 1424 0032 DB00     		lsls	r3, r3, #3
 1425 0034 1344     		add	r3, r3, r2
 1426 0036 5B68     		ldr	r3, [r3, #4]
 1427 0038 7B61     		str	r3, [r7, #20]
 1428              	.LBB10:
 150:message.c     ****     
 151:message.c     ****     for(int i = 0; i <= size; i++)
 1429              		.loc 2 151 0
 1430 003a 0023     		movs	r3, #0
 1431 003c FB61     		str	r3, [r7, #28]
 1432 003e 0AE0     		b	.L84
 1433              	.L85:
 152:message.c     ****     {
 153:message.c     ****         dst[i] = src[i];
 1434              		.loc 2 153 0 discriminator 3
 1435 0040 FB69     		ldr	r3, [r7, #28]
 1436 0042 BA69     		ldr	r2, [r7, #24]
 1437 0044 1344     		add	r3, r3, r2
ARM GAS  C:\Users\schmi\AppData\Local\Temp\cc3rBAwr.s 			page 34


 1438 0046 FA69     		ldr	r2, [r7, #28]
 1439 0048 7969     		ldr	r1, [r7, #20]
 1440 004a 0A44     		add	r2, r2, r1
 1441 004c 1278     		ldrb	r2, [r2]	@ zero_extendqisi2
 1442 004e 1A70     		strb	r2, [r3]
 151:message.c     ****     {
 1443              		.loc 2 151 0 discriminator 3
 1444 0050 FB69     		ldr	r3, [r7, #28]
 1445 0052 0133     		adds	r3, r3, #1
 1446 0054 FB61     		str	r3, [r7, #28]
 1447              	.L84:
 151:message.c     ****     {
 1448              		.loc 2 151 0 is_stmt 0 discriminator 1
 1449 0056 BA88     		ldrh	r2, [r7, #4]
 1450 0058 FB69     		ldr	r3, [r7, #28]
 1451 005a 9A42     		cmp	r2, r3
 1452 005c F0DA     		bge	.L85
 1453              	.LBE10:
 154:message.c     ****     }
 155:message.c     ****     
 156:message.c     ****     free(messagebox->mb_buffer[messagebox->mb_readIndex].m_pBuffer);
 1454              		.loc 2 156 0 is_stmt 1
 1455 005e FB68     		ldr	r3, [r7, #12]
 1456 0060 B3F82033 		ldrh	r3, [r3, #800]
 1457 0064 FA68     		ldr	r2, [r7, #12]
 1458 0066 DB00     		lsls	r3, r3, #3
 1459 0068 1344     		add	r3, r3, r2
 1460 006a 5B68     		ldr	r3, [r3, #4]
 1461 006c 1846     		mov	r0, r3
 1462 006e FFF7FEFF 		bl	free
 157:message.c     ****     messagebox->mb_buffer[messagebox->mb_readIndex].m_pBuffer = NULL;
 1463              		.loc 2 157 0
 1464 0072 FB68     		ldr	r3, [r7, #12]
 1465 0074 B3F82033 		ldrh	r3, [r3, #800]
 1466 0078 FA68     		ldr	r2, [r7, #12]
 1467 007a DB00     		lsls	r3, r3, #3
 1468 007c 1344     		add	r3, r3, r2
 1469 007e 0022     		movs	r2, #0
 1470 0080 5A60     		str	r2, [r3, #4]
 158:message.c     ****     
 159:message.c     ****     messagebox->mb_readIndex = (messagebox->mb_readIndex + 1) % POSTBOX_SIZE;
 1471              		.loc 2 159 0
 1472 0082 FB68     		ldr	r3, [r7, #12]
 1473 0084 B3F82033 		ldrh	r3, [r3, #800]
 1474 0088 0133     		adds	r3, r3, #1
 1475 008a 0D4A     		ldr	r2, .L86
 1476 008c 82FB0312 		smull	r1, r2, r2, r3
 1477 0090 5111     		asrs	r1, r2, #5
 1478 0092 DA17     		asrs	r2, r3, #31
 1479 0094 8A1A     		subs	r2, r1, r2
 1480 0096 6421     		movs	r1, #100
 1481 0098 01FB02F2 		mul	r2, r1, r2
 1482 009c 9A1A     		subs	r2, r3, r2
 1483 009e 92B2     		uxth	r2, r2
 1484 00a0 FB68     		ldr	r3, [r7, #12]
 1485 00a2 A3F82023 		strh	r2, [r3, #800]	@ movhi
 160:message.c     ****     messagebox->mb_fillLevel--;
ARM GAS  C:\Users\schmi\AppData\Local\Temp\cc3rBAwr.s 			page 35


 1486              		.loc 2 160 0
 1487 00a6 FB68     		ldr	r3, [r7, #12]
 1488 00a8 B3F82433 		ldrh	r3, [r3, #804]
 1489 00ac 013B     		subs	r3, r3, #1
 1490 00ae 9AB2     		uxth	r2, r3
 1491 00b0 FB68     		ldr	r3, [r7, #12]
 1492 00b2 A3F82423 		strh	r2, [r3, #804]	@ movhi
 161:message.c     ****     
 162:message.c     ****     return RC_SUCCESS;   
 1493              		.loc 2 162 0
 1494 00b6 0023     		movs	r3, #0
 1495              	.L83:
 163:message.c     **** }
 1496              		.loc 2 163 0
 1497 00b8 1846     		mov	r0, r3
 1498 00ba 2037     		adds	r7, r7, #32
 1499              		.cfi_def_cfa_offset 8
 1500 00bc BD46     		mov	sp, r7
 1501              		.cfi_def_cfa_register 13
 1502              		@ sp needed
 1503 00be 80BD     		pop	{r7, pc}
 1504              	.L87:
 1505              		.align	2
 1506              	.L86:
 1507 00c0 1F85EB51 		.word	1374389535
 1508              		.cfi_endproc
 1509              	.LFE120:
 1510              		.size	MESSAGE_BUFFER_READ, .-MESSAGE_BUFFER_READ
 1511              		.text
 1512              	.Letext0:
 1513              		.file 3 "c:\\program files (x86)\\cypress\\psoc creator\\4.4\\psoc creator\\import\\gnu\\arm\\5.4.
 1514              		.file 4 ".\\source\\bsw/global.h"
 1515              		.file 5 "c:\\program files (x86)\\cypress\\psoc creator\\4.4\\psoc creator\\import\\gnu\\arm\\5.4.
 1516              		.file 6 "c:\\program files (x86)\\cypress\\psoc creator\\4.4\\psoc creator\\import\\gnu\\arm\\5.4.
 1517              		.file 7 ".\\source\\bsw\\tft/tft.h"
 1518              		.file 8 "Generated_Source\\PSoC5/ErikaOS_1_common_ee_types.inc"
 1519              		.file 9 "Generated_Source\\PSoC5/ErikaOS_1_cortex_mx_ee_cpu.inc"
 1520              		.file 10 "bufferTypes.h"
 1521              		.file 11 "drawer.h"
 1522              		.file 12 "message.h"
 1523              		.file 13 "Generated_Source\\PSoC5/ErikaOS_1_ee_oo_intfunc.inc"
 1524              		.file 14 "Generated_Source\\PSoC5/ErikaOS_1_cortex_mx_ee_context.inc"
 1525              		.file 15 "Generated_Source\\PSoC5/ErikaOS_1_common_ee_primitives.inc"
 1526              		.file 16 "Generated_Source\\PSoC5/core_cm3.h"