ARM GAS  C:\Users\schmi\AppData\Local\Temp\ccCETGRg.s 			page 1


   1              		.syntax unified
   2              		.cpu cortex-m3
   3              		.fpu softvfp
   4              		.eabi_attribute 20, 1
   5              		.eabi_attribute 21, 1
   6              		.eabi_attribute 23, 3
   7              		.eabi_attribute 24, 1
   8              		.eabi_attribute 25, 1
   9              		.eabi_attribute 26, 1
  10              		.eabi_attribute 30, 6
  11              		.eabi_attribute 34, 1
  12              		.eabi_attribute 18, 4
  13              		.thumb
  14              		.syntax unified
  15              		.file	"ringbuffer.c"
  16              		.text
  17              	.Ltext0:
  18              		.cfi_sections	.debug_frame
  19              		.comm	hey,104,4
  20              		.section	.text.ringbufferInit,"ax",%progbits
  21              		.align	2
  22              		.global	ringbufferInit
  23              		.thumb
  24              		.thumb_func
  25              		.type	ringbufferInit, %function
  26              	ringbufferInit:
  27              	.LFB0:
  28              		.file 1 "source\\bsw\\json\\ringbuffer.c"
   1:source\bsw\json/ringbuffer.c **** #include "ringbuffer.h"
   2:source\bsw\json/ringbuffer.c **** 
   3:source\bsw\json/ringbuffer.c **** RC_t ringbufferInit(){
  29              		.loc 1 3 0
  30              		.cfi_startproc
  31              		@ args = 0, pretend = 0, frame = 0
  32              		@ frame_needed = 1, uses_anonymous_args = 0
  33              		@ link register save eliminated.
  34 0000 80B4     		push	{r7}
  35              		.cfi_def_cfa_offset 4
  36              		.cfi_offset 7, -4
  37 0002 00AF     		add	r7, sp, #0
  38              		.cfi_def_cfa_register 7
   4:source\bsw\json/ringbuffer.c ****     hey.rb_readIndex = 0;
  39              		.loc 1 4 0
  40 0004 064B     		ldr	r3, .L3
  41 0006 0022     		movs	r2, #0
  42 0008 A3F86420 		strh	r2, [r3, #100]	@ movhi
   5:source\bsw\json/ringbuffer.c ****     hey.rb_writeIndex = 0;
  43              		.loc 1 5 0
  44 000c 044B     		ldr	r3, .L3
  45 000e 0022     		movs	r2, #0
  46 0010 A3F86620 		strh	r2, [r3, #102]	@ movhi
   6:source\bsw\json/ringbuffer.c ****     return RC_SUCCESS;   
  47              		.loc 1 6 0
  48 0014 0023     		movs	r3, #0
   7:source\bsw\json/ringbuffer.c **** }
  49              		.loc 1 7 0
  50 0016 1846     		mov	r0, r3
ARM GAS  C:\Users\schmi\AppData\Local\Temp\ccCETGRg.s 			page 2


  51 0018 BD46     		mov	sp, r7
  52              		.cfi_def_cfa_register 13
  53              		@ sp needed
  54 001a 80BC     		pop	{r7}
  55              		.cfi_restore 7
  56              		.cfi_def_cfa_offset 0
  57 001c 7047     		bx	lr
  58              	.L4:
  59 001e 00BF     		.align	2
  60              	.L3:
  61 0020 00000000 		.word	hey
  62              		.cfi_endproc
  63              	.LFE0:
  64              		.size	ringbufferInit, .-ringbufferInit
  65              		.section	.text.writeToRingbuffer,"ax",%progbits
  66              		.align	2
  67              		.global	writeToRingbuffer
  68              		.thumb
  69              		.thumb_func
  70              		.type	writeToRingbuffer, %function
  71              	writeToRingbuffer:
  72              	.LFB1:
   8:source\bsw\json/ringbuffer.c **** RC_t writeToRingbuffer(rb_Ringbuffer_t* const me, uint8_t byteToWrite){
  73              		.loc 1 8 0
  74              		.cfi_startproc
  75              		@ args = 0, pretend = 0, frame = 8
  76              		@ frame_needed = 1, uses_anonymous_args = 0
  77              		@ link register save eliminated.
  78 0000 80B4     		push	{r7}
  79              		.cfi_def_cfa_offset 4
  80              		.cfi_offset 7, -4
  81 0002 83B0     		sub	sp, sp, #12
  82              		.cfi_def_cfa_offset 16
  83 0004 00AF     		add	r7, sp, #0
  84              		.cfi_def_cfa_register 7
  85 0006 7860     		str	r0, [r7, #4]
  86 0008 0B46     		mov	r3, r1
  87 000a FB70     		strb	r3, [r7, #3]
   9:source\bsw\json/ringbuffer.c ****     me->rb_buffer[(me->rb_writeIndex++)%BUFFER_SIZE] = byteToWrite;
  88              		.loc 1 9 0
  89 000c 7B68     		ldr	r3, [r7, #4]
  90 000e B3F86630 		ldrh	r3, [r3, #102]
  91 0012 5A1C     		adds	r2, r3, #1
  92 0014 91B2     		uxth	r1, r2
  93 0016 7A68     		ldr	r2, [r7, #4]
  94 0018 A2F86610 		strh	r1, [r2, #102]	@ movhi
  95 001c 094A     		ldr	r2, .L7
  96 001e A2FB0312 		umull	r1, r2, r2, r3
  97 0022 5209     		lsrs	r2, r2, #5
  98 0024 6421     		movs	r1, #100
  99 0026 01FB02F2 		mul	r2, r1, r2
 100 002a 9B1A     		subs	r3, r3, r2
 101 002c 9BB2     		uxth	r3, r3
 102 002e 1946     		mov	r1, r3
 103 0030 7B68     		ldr	r3, [r7, #4]
 104 0032 FA78     		ldrb	r2, [r7, #3]
 105 0034 5A54     		strb	r2, [r3, r1]
ARM GAS  C:\Users\schmi\AppData\Local\Temp\ccCETGRg.s 			page 3


  10:source\bsw\json/ringbuffer.c ****     return RC_SUCCESS;
 106              		.loc 1 10 0
 107 0036 0023     		movs	r3, #0
  11:source\bsw\json/ringbuffer.c **** }
 108              		.loc 1 11 0
 109 0038 1846     		mov	r0, r3
 110 003a 0C37     		adds	r7, r7, #12
 111              		.cfi_def_cfa_offset 4
 112 003c BD46     		mov	sp, r7
 113              		.cfi_def_cfa_register 13
 114              		@ sp needed
 115 003e 80BC     		pop	{r7}
 116              		.cfi_restore 7
 117              		.cfi_def_cfa_offset 0
 118 0040 7047     		bx	lr
 119              	.L8:
 120 0042 00BF     		.align	2
 121              	.L7:
 122 0044 1F85EB51 		.word	1374389535
 123              		.cfi_endproc
 124              	.LFE1:
 125              		.size	writeToRingbuffer, .-writeToRingbuffer
 126              		.section	.text.readFromRingbuffer,"ax",%progbits
 127              		.align	2
 128              		.global	readFromRingbuffer
 129              		.thumb
 130              		.thumb_func
 131              		.type	readFromRingbuffer, %function
 132              	readFromRingbuffer:
 133              	.LFB2:
  12:source\bsw\json/ringbuffer.c **** 
  13:source\bsw\json/ringbuffer.c **** uint8_t readFromRingbuffer(rb_Ringbuffer_t * const me){
 134              		.loc 1 13 0
 135              		.cfi_startproc
 136              		@ args = 0, pretend = 0, frame = 8
 137              		@ frame_needed = 1, uses_anonymous_args = 0
 138              		@ link register save eliminated.
 139 0000 80B4     		push	{r7}
 140              		.cfi_def_cfa_offset 4
 141              		.cfi_offset 7, -4
 142 0002 83B0     		sub	sp, sp, #12
 143              		.cfi_def_cfa_offset 16
 144 0004 00AF     		add	r7, sp, #0
 145              		.cfi_def_cfa_register 7
 146 0006 7860     		str	r0, [r7, #4]
  14:source\bsw\json/ringbuffer.c ****     return me->rb_buffer[(me->rb_readIndex++)%BUFFER_SIZE];
 147              		.loc 1 14 0
 148 0008 7B68     		ldr	r3, [r7, #4]
 149 000a B3F86430 		ldrh	r3, [r3, #100]
 150 000e 5A1C     		adds	r2, r3, #1
 151 0010 91B2     		uxth	r1, r2
 152 0012 7A68     		ldr	r2, [r7, #4]
 153 0014 A2F86410 		strh	r1, [r2, #100]	@ movhi
 154 0018 084A     		ldr	r2, .L11
 155 001a A2FB0312 		umull	r1, r2, r2, r3
 156 001e 5209     		lsrs	r2, r2, #5
 157 0020 6421     		movs	r1, #100
ARM GAS  C:\Users\schmi\AppData\Local\Temp\ccCETGRg.s 			page 4


 158 0022 01FB02F2 		mul	r2, r1, r2
 159 0026 9B1A     		subs	r3, r3, r2
 160 0028 9BB2     		uxth	r3, r3
 161 002a 1A46     		mov	r2, r3
 162 002c 7B68     		ldr	r3, [r7, #4]
 163 002e 9B5C     		ldrb	r3, [r3, r2]	@ zero_extendqisi2
  15:source\bsw\json/ringbuffer.c **** }
 164              		.loc 1 15 0
 165 0030 1846     		mov	r0, r3
 166 0032 0C37     		adds	r7, r7, #12
 167              		.cfi_def_cfa_offset 4
 168 0034 BD46     		mov	sp, r7
 169              		.cfi_def_cfa_register 13
 170              		@ sp needed
 171 0036 80BC     		pop	{r7}
 172              		.cfi_restore 7
 173              		.cfi_def_cfa_offset 0
 174 0038 7047     		bx	lr
 175              	.L12:
 176 003a 00BF     		.align	2
 177              	.L11:
 178 003c 1F85EB51 		.word	1374389535
 179              		.cfi_endproc
 180              	.LFE2:
 181              		.size	readFromRingbuffer, .-readFromRingbuffer
 182              		.text
 183              	.Letext0:
 184              		.file 2 ".\\source\\bsw/global.h"
 185              		.file 3 "source\\bsw\\json\\ringbuffer.h"