ARM GAS  C:\Users\schmi\AppData\Local\Temp\ccWsfia6.s 			page 1


   1              		.syntax unified
   2              		.cpu cortex-m3
   3              		.fpu softvfp
   4              		.eabi_attribute 20, 1
   5              		.eabi_attribute 21, 1
   6              		.eabi_attribute 23, 3
   7              		.eabi_attribute 24, 1
   8              		.eabi_attribute 25, 1
   9              		.eabi_attribute 26, 1
  10              		.eabi_attribute 30, 6
  11              		.eabi_attribute 34, 1
  12              		.eabi_attribute 18, 4
  13              		.thumb
  14              		.syntax unified
  15              		.file	"seven.c"
  16              		.text
  17              	.Ltext0:
  18              		.cfi_sections	.debug_frame
  19              		.section	.rodata
  20              		.align	2
  21              		.type	SEVEN__BitPattern, %object
  22              		.size	SEVEN__BitPattern, 17
  23              	SEVEN__BitPattern:
  24 0000 FC       		.byte	-4
  25 0001 60       		.byte	96
  26 0002 DA       		.byte	-38
  27 0003 F2       		.byte	-14
  28 0004 66       		.byte	102
  29 0005 B6       		.byte	-74
  30 0006 BE       		.byte	-66
  31 0007 E0       		.byte	-32
  32 0008 FE       		.byte	-2
  33 0009 F6       		.byte	-10
  34 000a EE       		.byte	-18
  35 000b 3E       		.byte	62
  36 000c 9C       		.byte	-100
  37 000d 7A       		.byte	122
  38 000e 9E       		.byte	-98
  39 000f 8E       		.byte	-114
  40 0010 01       		.byte	1
  41              		.data
  42              		.align	2
  43              		.type	SEVEN__latch_value, %object
  44              		.size	SEVEN__latch_value, 2
  45              	SEVEN__latch_value:
  46 0000 FF       		.byte	-1
  47 0001 FF       		.byte	-1
  48              		.bss
  49              		.align	2
  50              	SEVEN__latch_pattern:
  51 0000 0000     		.space	2
  52              		.section	.text.SEVEN_Init,"ax",%progbits
  53              		.align	2
  54              		.global	SEVEN_Init
  55              		.thumb
  56              		.thumb_func
  57              		.type	SEVEN_Init, %function
ARM GAS  C:\Users\schmi\AppData\Local\Temp\ccWsfia6.s 			page 2


  58              	SEVEN_Init:
  59              	.LFB110:
  60              		.file 1 "source\\bsw\\labboard\\seven.c"
   1:source\bsw\labboard/seven.c **** /**
   2:source\bsw\labboard/seven.c **** * \file seven.c
   3:source\bsw\labboard/seven.c **** * \author P. Fromm
   4:source\bsw\labboard/seven.c **** * \date 28.8.17
   5:source\bsw\labboard/seven.c **** *
   6:source\bsw\labboard/seven.c **** * \brief Driver for 7 segment displays
   7:source\bsw\labboard/seven.c **** *
   8:source\bsw\labboard/seven.c **** * \copyright Copyright ©2016
   9:source\bsw\labboard/seven.c **** * Department of electrical engineering and information technology, Hochschule Darmstadt - Universit
  10:source\bsw\labboard/seven.c **** * Permission to use, copy, modify, and distribute this software and its documentation for education
  11:source\bsw\labboard/seven.c **** * (unless permitted by h_da) and official h_da projects, is hereby granted for enrolled students of
  12:source\bsw\labboard/seven.c **** * this paragraph and the following paragraph appear in all copies, modifications, and distributions
  13:source\bsw\labboard/seven.c **** * Contact Prof.Dr.-Ing. Peter Fromm, peter.fromm@h-da.de, Birkenweg 8 64295 Darmstadt - GERMANY for
  14:source\bsw\labboard/seven.c **** *
  15:source\bsw\labboard/seven.c **** * \warning This software is a PROTOTYPE version and is not designed or intended for use in producti
  16:source\bsw\labboard/seven.c **** * The user represents and warrants that it will NOT use or redistribute the Software for such purpo
  17:source\bsw\labboard/seven.c **** * This prototype is for research purposes only. This software is provided "AS IS," without a warran
  18:source\bsw\labboard/seven.c **** */
  19:source\bsw\labboard/seven.c **** 
  20:source\bsw\labboard/seven.c **** /*****************************************************************************/
  21:source\bsw\labboard/seven.c **** /* Include files                                                             */
  22:source\bsw\labboard/seven.c **** /*****************************************************************************/
  23:source\bsw\labboard/seven.c **** #include "project.h"
  24:source\bsw\labboard/seven.c **** #include "seven.h"
  25:source\bsw\labboard/seven.c **** 
  26:source\bsw\labboard/seven.c **** 
  27:source\bsw\labboard/seven.c **** 
  28:source\bsw\labboard/seven.c **** 
  29:source\bsw\labboard/seven.c **** /*****************************************************************************/
  30:source\bsw\labboard/seven.c **** /* Local pre-processor symbols/macros ('#define')                            */
  31:source\bsw\labboard/seven.c **** /*****************************************************************************/
  32:source\bsw\labboard/seven.c **** 
  33:source\bsw\labboard/seven.c **** #define SEVEN__A  0b10000000
  34:source\bsw\labboard/seven.c **** #define SEVEN__B  0b01000000
  35:source\bsw\labboard/seven.c **** #define SEVEN__C  0b00100000
  36:source\bsw\labboard/seven.c **** #define SEVEN__D  0b00010000
  37:source\bsw\labboard/seven.c **** #define SEVEN__E  0b00001000
  38:source\bsw\labboard/seven.c **** #define SEVEN__F  0b00000100
  39:source\bsw\labboard/seven.c **** #define SEVEN__G  0b00000010
  40:source\bsw\labboard/seven.c **** #define SEVEN__DP 0b00000001
  41:source\bsw\labboard/seven.c **** 
  42:source\bsw\labboard/seven.c **** 
  43:source\bsw\labboard/seven.c **** /*****************************************************************************/
  44:source\bsw\labboard/seven.c **** /* Global variable definitions (declared in header file with 'extern')       */
  45:source\bsw\labboard/seven.c **** /*****************************************************************************/
  46:source\bsw\labboard/seven.c **** 
  47:source\bsw\labboard/seven.c **** /*****************************************************************************/
  48:source\bsw\labboard/seven.c **** /* Local type definitions ('typedef')                                        */
  49:source\bsw\labboard/seven.c **** /*****************************************************************************/
  50:source\bsw\labboard/seven.c **** 
  51:source\bsw\labboard/seven.c **** /*****************************************************************************/
  52:source\bsw\labboard/seven.c **** /* Local variable definitions ('static')                                     */
  53:source\bsw\labboard/seven.c **** /*****************************************************************************/
  54:source\bsw\labboard/seven.c **** 
ARM GAS  C:\Users\schmi\AppData\Local\Temp\ccWsfia6.s 			page 3


  55:source\bsw\labboard/seven.c **** //    ABCDEFG
  56:source\bsw\labboard/seven.c **** const static uint8_t SEVEN__BitPattern[] = 
  57:source\bsw\labboard/seven.c **** {
  58:source\bsw\labboard/seven.c ****     0b11111100,     //0
  59:source\bsw\labboard/seven.c ****     0b01100000,     //1
  60:source\bsw\labboard/seven.c ****     0b11011010,     //2
  61:source\bsw\labboard/seven.c ****     0b11110010,     //3
  62:source\bsw\labboard/seven.c ****     0b01100110,     //4
  63:source\bsw\labboard/seven.c ****     0b10110110,     //5
  64:source\bsw\labboard/seven.c ****     0b10111110,     //6
  65:source\bsw\labboard/seven.c ****     0b11100000,     //7
  66:source\bsw\labboard/seven.c ****     0b11111110,     //8
  67:source\bsw\labboard/seven.c ****     0b11110110,     //9
  68:source\bsw\labboard/seven.c ****     0b11101110,     //a
  69:source\bsw\labboard/seven.c ****     0b00111110,     //b
  70:source\bsw\labboard/seven.c ****     0b10011100,     //c
  71:source\bsw\labboard/seven.c ****     0b01111010,     //d
  72:source\bsw\labboard/seven.c ****     0b10011110,     //e
  73:source\bsw\labboard/seven.c ****     0b10001110,     //f
  74:source\bsw\labboard/seven.c ****     0b00000001      //decimal point
  75:source\bsw\labboard/seven.c **** };
  76:source\bsw\labboard/seven.c ****     
  77:source\bsw\labboard/seven.c **** //We need to store the last latch value per display
  78:source\bsw\labboard/seven.c **** //-1 means empty
  79:source\bsw\labboard/seven.c **** static sint8_t SEVEN__latch_value[2] = {-1,-1};
  80:source\bsw\labboard/seven.c **** static uint8_t SEVEN__latch_pattern[2] = {0,0};
  81:source\bsw\labboard/seven.c **** 
  82:source\bsw\labboard/seven.c **** /*****************************************************************************/
  83:source\bsw\labboard/seven.c **** /* Local function prototypes ('static')                                      */
  84:source\bsw\labboard/seven.c **** /*****************************************************************************/
  85:source\bsw\labboard/seven.c **** 
  86:source\bsw\labboard/seven.c **** 
  87:source\bsw\labboard/seven.c **** /*****************************************************************************/
  88:source\bsw\labboard/seven.c **** /* Function implementation - global ('extern') and local ('static')          */
  89:source\bsw\labboard/seven.c **** /*****************************************************************************/
  90:source\bsw\labboard/seven.c **** 
  91:source\bsw\labboard/seven.c **** 
  92:source\bsw\labboard/seven.c **** 
  93:source\bsw\labboard/seven.c **** /**
  94:source\bsw\labboard/seven.c ****  * Initilasation of the seven segment display
  95:source\bsw\labboard/seven.c ****  * @return RC_SUCCESS if function was executed correctly, other value in case of error
  96:source\bsw\labboard/seven.c ****  */
  97:source\bsw\labboard/seven.c **** RC_t SEVEN_Init()
  98:source\bsw\labboard/seven.c **** {
  61              		.loc 1 98 0
  62              		.cfi_startproc
  63              		@ args = 0, pretend = 0, frame = 0
  64              		@ frame_needed = 1, uses_anonymous_args = 0
  65 0000 80B5     		push	{r7, lr}
  66              		.cfi_def_cfa_offset 8
  67              		.cfi_offset 7, -8
  68              		.cfi_offset 14, -4
  69 0002 00AF     		add	r7, sp, #0
  70              		.cfi_def_cfa_register 7
  99:source\bsw\labboard/seven.c ****     
 100:source\bsw\labboard/seven.c ****     SEVEN_Clear(SEVEN_0);
  71              		.loc 1 100 0
ARM GAS  C:\Users\schmi\AppData\Local\Temp\ccWsfia6.s 			page 4


  72 0004 0020     		movs	r0, #0
  73 0006 FFF7FEFF 		bl	SEVEN_Clear
 101:source\bsw\labboard/seven.c ****     SEVEN_Clear(SEVEN_1);
  74              		.loc 1 101 0
  75 000a 0120     		movs	r0, #1
  76 000c FFF7FEFF 		bl	SEVEN_Clear
 102:source\bsw\labboard/seven.c ****     
 103:source\bsw\labboard/seven.c ****     return RC_SUCCESS;
  77              		.loc 1 103 0
  78 0010 0023     		movs	r3, #0
 104:source\bsw\labboard/seven.c **** }
  79              		.loc 1 104 0
  80 0012 1846     		mov	r0, r3
  81 0014 80BD     		pop	{r7, pc}
  82              		.cfi_endproc
  83              	.LFE110:
  84              		.size	SEVEN_Init, .-SEVEN_Init
  85 0016 00BF     		.section	.text.SEVEN_Set,"ax",%progbits
  86              		.align	2
  87              		.global	SEVEN_Set
  88              		.thumb
  89              		.thumb_func
  90              		.type	SEVEN_Set, %function
  91              	SEVEN_Set:
  92              	.LFB111:
 105:source\bsw\labboard/seven.c **** 
 106:source\bsw\labboard/seven.c **** 
 107:source\bsw\labboard/seven.c **** /**
 108:source\bsw\labboard/seven.c ****  * Sets value for one display
 109:source\bsw\labboard/seven.c ****  * @param SEVEN_id_t sevenId - identifier for the segment to be set
 110:source\bsw\labboard/seven.c ****  * @param uint8_t value - value to be set, valid range 0...15
 111:source\bsw\labboard/seven.c ****  * @return RC_SUCCESS if function was executed correctly, other value in case of error
 112:source\bsw\labboard/seven.c ****  */
 113:source\bsw\labboard/seven.c **** RC_t SEVEN_Set(SEVEN_id_t sevenId, uint8_t value)
 114:source\bsw\labboard/seven.c **** {
  93              		.loc 1 114 0
  94              		.cfi_startproc
  95              		@ args = 0, pretend = 0, frame = 16
  96              		@ frame_needed = 1, uses_anonymous_args = 0
  97 0000 80B5     		push	{r7, lr}
  98              		.cfi_def_cfa_offset 8
  99              		.cfi_offset 7, -8
 100              		.cfi_offset 14, -4
 101 0002 84B0     		sub	sp, sp, #16
 102              		.cfi_def_cfa_offset 24
 103 0004 00AF     		add	r7, sp, #0
 104              		.cfi_def_cfa_register 7
 105 0006 0346     		mov	r3, r0
 106 0008 0A46     		mov	r2, r1
 107 000a FB71     		strb	r3, [r7, #7]
 108 000c 1346     		mov	r3, r2
 109 000e BB71     		strb	r3, [r7, #6]
 115:source\bsw\labboard/seven.c ****     if (value > 0x0F)
 110              		.loc 1 115 0
 111 0010 BB79     		ldrb	r3, [r7, #6]	@ zero_extendqisi2
 112 0012 0F2B     		cmp	r3, #15
 113 0014 02D9     		bls	.L4
ARM GAS  C:\Users\schmi\AppData\Local\Temp\ccWsfia6.s 			page 5


 116:source\bsw\labboard/seven.c ****     {
 117:source\bsw\labboard/seven.c ****         return RC_ERROR_BAD_PARAM;
 114              		.loc 1 117 0
 115 0016 6FF01303 		mvn	r3, #19
 116 001a 15E0     		b	.L5
 117              	.L4:
 118:source\bsw\labboard/seven.c ****     }
 119:source\bsw\labboard/seven.c ****     
 120:source\bsw\labboard/seven.c ****     //Set the selection bit for the display
 121:source\bsw\labboard/seven.c ****     SEVEN_SELECT_Write((uint8_t)sevenId);
 118              		.loc 1 121 0
 119 001c FB79     		ldrb	r3, [r7, #7]	@ zero_extendqisi2
 120 001e 1846     		mov	r0, r3
 121 0020 FFF7FEFF 		bl	SEVEN_SELECT_Write
 122:source\bsw\labboard/seven.c ****     
 123:source\bsw\labboard/seven.c ****     //Set the bitpattern
 124:source\bsw\labboard/seven.c ****     //As we do not have a single port, we have to do it bit by bit
 125:source\bsw\labboard/seven.c ****     
 126:source\bsw\labboard/seven.c ****     uint8_t pattern = SEVEN__BitPattern[value];
 122              		.loc 1 126 0
 123 0024 BB79     		ldrb	r3, [r7, #6]	@ zero_extendqisi2
 124 0026 0A4A     		ldr	r2, .L6
 125 0028 D35C     		ldrb	r3, [r2, r3]
 126 002a FB73     		strb	r3, [r7, #15]
 127:source\bsw\labboard/seven.c ****     
 128:source\bsw\labboard/seven.c ****     //Store the current pattern in the software latch (needed for the DP function)
 129:source\bsw\labboard/seven.c ****     SEVEN__latch_value[(uint8_t)sevenId] = value;
 127              		.loc 1 129 0
 128 002c FB79     		ldrb	r3, [r7, #7]	@ zero_extendqisi2
 129 002e 97F90610 		ldrsb	r1, [r7, #6]
 130 0032 084A     		ldr	r2, .L6+4
 131 0034 D154     		strb	r1, [r2, r3]
 130:source\bsw\labboard/seven.c ****     SEVEN__latch_pattern[(uint8_t)sevenId] = pattern;
 132              		.loc 1 130 0
 133 0036 FB79     		ldrb	r3, [r7, #7]	@ zero_extendqisi2
 134 0038 0749     		ldr	r1, .L6+8
 135 003a FA7B     		ldrb	r2, [r7, #15]
 136 003c CA54     		strb	r2, [r1, r3]
 131:source\bsw\labboard/seven.c ****     
 132:source\bsw\labboard/seven.c ****     SEVEN_reg_Write(pattern);
 137              		.loc 1 132 0
 138 003e FB7B     		ldrb	r3, [r7, #15]	@ zero_extendqisi2
 139 0040 1846     		mov	r0, r3
 140 0042 FFF7FEFF 		bl	SEVEN_reg_Write
 133:source\bsw\labboard/seven.c ****     return RC_SUCCESS;
 141              		.loc 1 133 0
 142 0046 0023     		movs	r3, #0
 143              	.L5:
 134:source\bsw\labboard/seven.c ****     
 135:source\bsw\labboard/seven.c **** }
 144              		.loc 1 135 0
 145 0048 1846     		mov	r0, r3
 146 004a 1037     		adds	r7, r7, #16
 147              		.cfi_def_cfa_offset 8
 148 004c BD46     		mov	sp, r7
 149              		.cfi_def_cfa_register 13
 150              		@ sp needed
ARM GAS  C:\Users\schmi\AppData\Local\Temp\ccWsfia6.s 			page 6


 151 004e 80BD     		pop	{r7, pc}
 152              	.L7:
 153              		.align	2
 154              	.L6:
 155 0050 00000000 		.word	SEVEN__BitPattern
 156 0054 00000000 		.word	SEVEN__latch_value
 157 0058 00000000 		.word	SEVEN__latch_pattern
 158              		.cfi_endproc
 159              	.LFE111:
 160              		.size	SEVEN_Set, .-SEVEN_Set
 161              		.section	.text.SEVEN_Get,"ax",%progbits
 162              		.align	2
 163              		.global	SEVEN_Get
 164              		.thumb
 165              		.thumb_func
 166              		.type	SEVEN_Get, %function
 167              	SEVEN_Get:
 168              	.LFB112:
 136:source\bsw\labboard/seven.c **** 
 137:source\bsw\labboard/seven.c **** /**
 138:source\bsw\labboard/seven.c ****  * Get value for one display
 139:source\bsw\labboard/seven.c ****  * @param SEVEN_id_t sevenId - identifier for the segment to be set
 140:source\bsw\labboard/seven.c ****  * @param uint8_t value - current value, valid range 0...15
 141:source\bsw\labboard/seven.c ****  * @return RC_SUCCESS if function was executed correctly, other value in case of error
 142:source\bsw\labboard/seven.c ****  */
 143:source\bsw\labboard/seven.c **** RC_t SEVEN_Get(SEVEN_id_t sevenId, sint8_t* value)
 144:source\bsw\labboard/seven.c **** {
 169              		.loc 1 144 0
 170              		.cfi_startproc
 171              		@ args = 0, pretend = 0, frame = 8
 172              		@ frame_needed = 1, uses_anonymous_args = 0
 173              		@ link register save eliminated.
 174 0000 80B4     		push	{r7}
 175              		.cfi_def_cfa_offset 4
 176              		.cfi_offset 7, -4
 177 0002 83B0     		sub	sp, sp, #12
 178              		.cfi_def_cfa_offset 16
 179 0004 00AF     		add	r7, sp, #0
 180              		.cfi_def_cfa_register 7
 181 0006 0346     		mov	r3, r0
 182 0008 3960     		str	r1, [r7]
 183 000a FB71     		strb	r3, [r7, #7]
 145:source\bsw\labboard/seven.c ****     *value = SEVEN__latch_value[(uint8_t)sevenId];
 184              		.loc 1 145 0
 185 000c FB79     		ldrb	r3, [r7, #7]	@ zero_extendqisi2
 186 000e 054A     		ldr	r2, .L10
 187 0010 D256     		ldrsb	r2, [r2, r3]
 188 0012 3B68     		ldr	r3, [r7]
 189 0014 1A70     		strb	r2, [r3]
 146:source\bsw\labboard/seven.c ****     return RC_SUCCESS;
 190              		.loc 1 146 0
 191 0016 0023     		movs	r3, #0
 147:source\bsw\labboard/seven.c **** }
 192              		.loc 1 147 0
 193 0018 1846     		mov	r0, r3
 194 001a 0C37     		adds	r7, r7, #12
 195              		.cfi_def_cfa_offset 4
ARM GAS  C:\Users\schmi\AppData\Local\Temp\ccWsfia6.s 			page 7


 196 001c BD46     		mov	sp, r7
 197              		.cfi_def_cfa_register 13
 198              		@ sp needed
 199 001e 80BC     		pop	{r7}
 200              		.cfi_restore 7
 201              		.cfi_def_cfa_offset 0
 202 0020 7047     		bx	lr
 203              	.L11:
 204 0022 00BF     		.align	2
 205              	.L10:
 206 0024 00000000 		.word	SEVEN__latch_value
 207              		.cfi_endproc
 208              	.LFE112:
 209              		.size	SEVEN_Get, .-SEVEN_Get
 210              		.section	.text.SEVEN_SetHex,"ax",%progbits
 211              		.align	2
 212              		.global	SEVEN_SetHex
 213              		.thumb
 214              		.thumb_func
 215              		.type	SEVEN_SetHex, %function
 216              	SEVEN_SetHex:
 217              	.LFB113:
 148:source\bsw\labboard/seven.c **** 
 149:source\bsw\labboard/seven.c **** 
 150:source\bsw\labboard/seven.c **** /**
 151:source\bsw\labboard/seven.c ****  * Sets both displays
 152:source\bsw\labboard/seven.c ****  * @param uint8_t value - value to be set, valid range 0...255
 153:source\bsw\labboard/seven.c ****  * @return RC_SUCCESS if function was executed correctly, other value in case of error
 154:source\bsw\labboard/seven.c ****  */
 155:source\bsw\labboard/seven.c **** RC_t SEVEN_SetHex(uint8_t value)
 156:source\bsw\labboard/seven.c **** {
 218              		.loc 1 156 0
 219              		.cfi_startproc
 220              		@ args = 0, pretend = 0, frame = 8
 221              		@ frame_needed = 1, uses_anonymous_args = 0
 222 0000 80B5     		push	{r7, lr}
 223              		.cfi_def_cfa_offset 8
 224              		.cfi_offset 7, -8
 225              		.cfi_offset 14, -4
 226 0002 82B0     		sub	sp, sp, #8
 227              		.cfi_def_cfa_offset 16
 228 0004 00AF     		add	r7, sp, #0
 229              		.cfi_def_cfa_register 7
 230 0006 0346     		mov	r3, r0
 231 0008 FB71     		strb	r3, [r7, #7]
 157:source\bsw\labboard/seven.c ****     SEVEN_Set(SEVEN_1, value / 16);
 232              		.loc 1 157 0
 233 000a FB79     		ldrb	r3, [r7, #7]	@ zero_extendqisi2
 234 000c 1B09     		lsrs	r3, r3, #4
 235 000e DBB2     		uxtb	r3, r3
 236 0010 1946     		mov	r1, r3
 237 0012 0120     		movs	r0, #1
 238 0014 FFF7FEFF 		bl	SEVEN_Set
 158:source\bsw\labboard/seven.c ****     SEVEN_Set(SEVEN_0, value % 16);
 239              		.loc 1 158 0
 240 0018 FB79     		ldrb	r3, [r7, #7]
 241 001a 03F00F03 		and	r3, r3, #15
ARM GAS  C:\Users\schmi\AppData\Local\Temp\ccWsfia6.s 			page 8


 242 001e DBB2     		uxtb	r3, r3
 243 0020 1946     		mov	r1, r3
 244 0022 0020     		movs	r0, #0
 245 0024 FFF7FEFF 		bl	SEVEN_Set
 159:source\bsw\labboard/seven.c ****     
 160:source\bsw\labboard/seven.c ****     return RC_SUCCESS;
 246              		.loc 1 160 0
 247 0028 0023     		movs	r3, #0
 161:source\bsw\labboard/seven.c **** }
 248              		.loc 1 161 0
 249 002a 1846     		mov	r0, r3
 250 002c 0837     		adds	r7, r7, #8
 251              		.cfi_def_cfa_offset 8
 252 002e BD46     		mov	sp, r7
 253              		.cfi_def_cfa_register 13
 254              		@ sp needed
 255 0030 80BD     		pop	{r7, pc}
 256              		.cfi_endproc
 257              	.LFE113:
 258              		.size	SEVEN_SetHex, .-SEVEN_SetHex
 259 0032 00BF     		.section	.text.SEVEN_SetDP,"ax",%progbits
 260              		.align	2
 261              		.global	SEVEN_SetDP
 262              		.thumb
 263              		.thumb_func
 264              		.type	SEVEN_SetDP, %function
 265              	SEVEN_SetDP:
 266              	.LFB114:
 162:source\bsw\labboard/seven.c **** 
 163:source\bsw\labboard/seven.c **** /**
 164:source\bsw\labboard/seven.c ****  * Sets decimal point for one display
 165:source\bsw\labboard/seven.c ****  * @param SEVEN_id_t sevenId - identifier for the segment to be set
 166:source\bsw\labboard/seven.c ****  * @param uint8_t value - value to be set, valid range 0 (OFF)...1(ON)
 167:source\bsw\labboard/seven.c ****  * @return RC_SUCCESS if function was executed correctly, other value in case of error
 168:source\bsw\labboard/seven.c ****  */
 169:source\bsw\labboard/seven.c **** RC_t SEVEN_SetDP(SEVEN_id_t sevenId, uint8_t value)
 170:source\bsw\labboard/seven.c **** {
 267              		.loc 1 170 0
 268              		.cfi_startproc
 269              		@ args = 0, pretend = 0, frame = 16
 270              		@ frame_needed = 1, uses_anonymous_args = 0
 271 0000 80B5     		push	{r7, lr}
 272              		.cfi_def_cfa_offset 8
 273              		.cfi_offset 7, -8
 274              		.cfi_offset 14, -4
 275 0002 84B0     		sub	sp, sp, #16
 276              		.cfi_def_cfa_offset 24
 277 0004 00AF     		add	r7, sp, #0
 278              		.cfi_def_cfa_register 7
 279 0006 0346     		mov	r3, r0
 280 0008 0A46     		mov	r2, r1
 281 000a FB71     		strb	r3, [r7, #7]
 282 000c 1346     		mov	r3, r2
 283 000e BB71     		strb	r3, [r7, #6]
 171:source\bsw\labboard/seven.c ****     
 172:source\bsw\labboard/seven.c ****     if (value > 1)
 284              		.loc 1 172 0
ARM GAS  C:\Users\schmi\AppData\Local\Temp\ccWsfia6.s 			page 9


 285 0010 BB79     		ldrb	r3, [r7, #6]	@ zero_extendqisi2
 286 0012 012B     		cmp	r3, #1
 287 0014 02D9     		bls	.L15
 173:source\bsw\labboard/seven.c ****     {
 174:source\bsw\labboard/seven.c ****         return RC_ERROR_BAD_PARAM;
 288              		.loc 1 174 0
 289 0016 6FF01303 		mvn	r3, #19
 290 001a 18E0     		b	.L16
 291              	.L15:
 175:source\bsw\labboard/seven.c ****     }
 176:source\bsw\labboard/seven.c ****     
 177:source\bsw\labboard/seven.c ****     //Restore the last display pattern
 178:source\bsw\labboard/seven.c ****     uint8_t pattern = 0;
 292              		.loc 1 178 0
 293 001c 0023     		movs	r3, #0
 294 001e FB73     		strb	r3, [r7, #15]
 179:source\bsw\labboard/seven.c ****     if (SEVEN__latch_value[(uint8_t)sevenId] != -1)
 295              		.loc 1 179 0
 296 0020 FB79     		ldrb	r3, [r7, #7]	@ zero_extendqisi2
 297 0022 0D4A     		ldr	r2, .L18
 298 0024 D356     		ldrsb	r3, [r2, r3]
 299 0026 B3F1FF3F 		cmp	r3, #-1
 300 002a 03D0     		beq	.L17
 180:source\bsw\labboard/seven.c ****     {
 181:source\bsw\labboard/seven.c ****         pattern = SEVEN__latch_pattern[(uint8_t)sevenId];
 301              		.loc 1 181 0
 302 002c FB79     		ldrb	r3, [r7, #7]	@ zero_extendqisi2
 303 002e 0B4A     		ldr	r2, .L18+4
 304 0030 D35C     		ldrb	r3, [r2, r3]
 305 0032 FB73     		strb	r3, [r7, #15]
 306              	.L17:
 182:source\bsw\labboard/seven.c ****     }
 183:source\bsw\labboard/seven.c ****     
 184:source\bsw\labboard/seven.c ****     //Set the selection bit for the display
 185:source\bsw\labboard/seven.c ****     SEVEN_SELECT_Write((uint8_t)sevenId);
 307              		.loc 1 185 0
 308 0034 FB79     		ldrb	r3, [r7, #7]	@ zero_extendqisi2
 309 0036 1846     		mov	r0, r3
 310 0038 FFF7FEFF 		bl	SEVEN_SELECT_Write
 186:source\bsw\labboard/seven.c ****     
 187:source\bsw\labboard/seven.c ****     //Set the port to the pattern currently active
 188:source\bsw\labboard/seven.c ****     SEVEN_reg_Write(pattern);
 311              		.loc 1 188 0
 312 003c FB7B     		ldrb	r3, [r7, #15]	@ zero_extendqisi2
 313 003e 1846     		mov	r0, r3
 314 0040 FFF7FEFF 		bl	SEVEN_reg_Write
 189:source\bsw\labboard/seven.c ****     
 190:source\bsw\labboard/seven.c ****     //Set the decimal point
 191:source\bsw\labboard/seven.c ****     SEVEN_DP_Write(value);
 315              		.loc 1 191 0
 316 0044 BB79     		ldrb	r3, [r7, #6]	@ zero_extendqisi2
 317 0046 1846     		mov	r0, r3
 318 0048 FFF7FEFF 		bl	SEVEN_DP_Write
 192:source\bsw\labboard/seven.c **** 
 193:source\bsw\labboard/seven.c ****     return RC_SUCCESS;
 319              		.loc 1 193 0
 320 004c 0023     		movs	r3, #0
ARM GAS  C:\Users\schmi\AppData\Local\Temp\ccWsfia6.s 			page 10


 321              	.L16:
 194:source\bsw\labboard/seven.c **** }
 322              		.loc 1 194 0
 323 004e 1846     		mov	r0, r3
 324 0050 1037     		adds	r7, r7, #16
 325              		.cfi_def_cfa_offset 8
 326 0052 BD46     		mov	sp, r7
 327              		.cfi_def_cfa_register 13
 328              		@ sp needed
 329 0054 80BD     		pop	{r7, pc}
 330              	.L19:
 331 0056 00BF     		.align	2
 332              	.L18:
 333 0058 00000000 		.word	SEVEN__latch_value
 334 005c 00000000 		.word	SEVEN__latch_pattern
 335              		.cfi_endproc
 336              	.LFE114:
 337              		.size	SEVEN_SetDP, .-SEVEN_SetDP
 338              		.section	.text.SEVEN_Clear,"ax",%progbits
 339              		.align	2
 340              		.global	SEVEN_Clear
 341              		.thumb
 342              		.thumb_func
 343              		.type	SEVEN_Clear, %function
 344              	SEVEN_Clear:
 345              	.LFB115:
 195:source\bsw\labboard/seven.c **** 
 196:source\bsw\labboard/seven.c **** /**
 197:source\bsw\labboard/seven.c ****  * Clears one display
 198:source\bsw\labboard/seven.c ****  * @param SEVEN_id_t sevenId - identifier for the segment to be set
 199:source\bsw\labboard/seven.c ****  * @return RC_SUCCESS if function was executed correctly, other value in case of error
 200:source\bsw\labboard/seven.c ****  */
 201:source\bsw\labboard/seven.c **** RC_t SEVEN_Clear(SEVEN_id_t sevenId)
 202:source\bsw\labboard/seven.c **** {
 346              		.loc 1 202 0
 347              		.cfi_startproc
 348              		@ args = 0, pretend = 0, frame = 8
 349              		@ frame_needed = 1, uses_anonymous_args = 0
 350 0000 80B5     		push	{r7, lr}
 351              		.cfi_def_cfa_offset 8
 352              		.cfi_offset 7, -8
 353              		.cfi_offset 14, -4
 354 0002 82B0     		sub	sp, sp, #8
 355              		.cfi_def_cfa_offset 16
 356 0004 00AF     		add	r7, sp, #0
 357              		.cfi_def_cfa_register 7
 358 0006 0346     		mov	r3, r0
 359 0008 FB71     		strb	r3, [r7, #7]
 203:source\bsw\labboard/seven.c ****     //Set software latch to cleared
 204:source\bsw\labboard/seven.c ****     SEVEN__latch_value[(uint8_t)sevenId] = -1;
 360              		.loc 1 204 0
 361 000a FB79     		ldrb	r3, [r7, #7]	@ zero_extendqisi2
 362 000c 074A     		ldr	r2, .L22
 363 000e FF21     		movs	r1, #255
 364 0010 D154     		strb	r1, [r2, r3]
 205:source\bsw\labboard/seven.c ****     
 206:source\bsw\labboard/seven.c ****     //Set the selection bit for the display
ARM GAS  C:\Users\schmi\AppData\Local\Temp\ccWsfia6.s 			page 11


 207:source\bsw\labboard/seven.c ****     SEVEN_SELECT_Write((uint8_t)sevenId);
 365              		.loc 1 207 0
 366 0012 FB79     		ldrb	r3, [r7, #7]	@ zero_extendqisi2
 367 0014 1846     		mov	r0, r3
 368 0016 FFF7FEFF 		bl	SEVEN_SELECT_Write
 208:source\bsw\labboard/seven.c ****     
 209:source\bsw\labboard/seven.c ****     //Clear every bit
 210:source\bsw\labboard/seven.c ****     SEVEN_reg_Write(0);
 369              		.loc 1 210 0
 370 001a 0020     		movs	r0, #0
 371 001c FFF7FEFF 		bl	SEVEN_reg_Write
 211:source\bsw\labboard/seven.c ****     
 212:source\bsw\labboard/seven.c ****     return RC_SUCCESS;
 372              		.loc 1 212 0
 373 0020 0023     		movs	r3, #0
 213:source\bsw\labboard/seven.c **** }...
 374              		.loc 1 213 0
 375 0022 1846     		mov	r0, r3
 376 0024 0837     		adds	r7, r7, #8
 377              		.cfi_def_cfa_offset 8
 378 0026 BD46     		mov	sp, r7
 379              		.cfi_def_cfa_register 13
 380              		@ sp needed
 381 0028 80BD     		pop	{r7, pc}
 382              	.L23:
 383 002a 00BF     		.align	2
 384              	.L22:
 385 002c 00000000 		.word	SEVEN__latch_value
 386              		.cfi_endproc
 387              	.LFE115:
 388              		.size	SEVEN_Clear, .-SEVEN_Clear
 389              		.text
 390              	.Letext0:
 391              		.file 2 "c:\\program files (x86)\\cypress\\psoc creator\\4.4\\psoc creator\\import\\gnu\\arm\\5.4.
 392              		.file 3 "c:\\program files (x86)\\cypress\\psoc creator\\4.4\\psoc creator\\import\\gnu\\arm\\5.4.
 393              		.file 4 "Generated_Source\\PSoC5/ErikaOS_1_common_ee_types.inc"
 394              		.file 5 "Generated_Source\\PSoC5/ErikaOS_1_cortex_mx_ee_cpu.inc"
 395              		.file 6 ".\\source\\bsw/global.h"
 396              		.file 7 "source\\bsw\\labboard\\seven.h"
 397              		.file 8 "Generated_Source\\PSoC5/ErikaOS_1_ee_oo_intfunc.inc"
 398              		.file 9 "Generated_Source\\PSoC5/ErikaOS_1_cortex_mx_ee_context.inc"
 399              		.file 10 "Generated_Source\\PSoC5/ErikaOS_1_common_ee_primitives.inc"
 400              		.file 11 "Generated_Source\\PSoC5/core_cm3.h"