ARM GAS  C:\Users\schmi\AppData\Local\Temp\ccFjB1oM.s 			page 1


   1              		.syntax unified
   2              		.cpu cortex-m3
   3              		.fpu softvfp
   4              		.eabi_attribute 20, 1
   5              		.eabi_attribute 21, 1
   6              		.eabi_attribute 23, 3
   7              		.eabi_attribute 24, 1
   8              		.eabi_attribute 25, 1
   9              		.eabi_attribute 26, 1
  10              		.eabi_attribute 30, 6
  11              		.eabi_attribute 34, 1
  12              		.eabi_attribute 18, 4
  13              		.thumb
  14              		.syntax unified
  15              		.file	"sevenSegDriver.c"
  16              		.text
  17              	.Ltext0:
  18              		.cfi_sections	.debug_frame
  19              		.comm	funny,1,1
  20              		.section	.text.init_sev,"ax",%progbits
  21              		.align	2
  22              		.global	init_sev
  23              		.thumb
  24              		.thumb_func
  25              		.type	init_sev, %function
  26              	init_sev:
  27              	.LFB0:
  28              		.file 1 "sevenSegDriver.c"
   1:sevenSegDriver.c **** /* ========================================
   2:sevenSegDriver.c ****  *
   3:sevenSegDriver.c ****  * Copyright YOUR COMPANY, THE YEAR
   4:sevenSegDriver.c ****  * All Rights Reserved
   5:sevenSegDriver.c ****  * UNPUBLISHED, LICENSED SOFTWARE.
   6:sevenSegDriver.c ****  *
   7:sevenSegDriver.c ****  * CONFIDENTIAL AND PROPRIETARY INFORMATION
   8:sevenSegDriver.c ****  * WHICH IS THE PROPERTY OF your company.
   9:sevenSegDriver.c ****  *
  10:sevenSegDriver.c ****  * ========================================
  11:sevenSegDriver.c **** */
  12:sevenSegDriver.c **** 
  13:sevenSegDriver.c **** /* [] END OF FILE */
  14:sevenSegDriver.c **** 
  15:sevenSegDriver.c **** #include "sevenSegDriver.h"
  16:sevenSegDriver.c **** #include "SEVEN_CONTROL.h"
  17:sevenSegDriver.c **** #include "SEVEN_SELECT.h"
  18:sevenSegDriver.c **** 
  19:sevenSegDriver.c **** void init_sev( segment_t seg){
  29              		.loc 1 19 0
  30              		.cfi_startproc
  31              		@ args = 0, pretend = 0, frame = 8
  32              		@ frame_needed = 1, uses_anonymous_args = 0
  33 0000 80B5     		push	{r7, lr}
  34              		.cfi_def_cfa_offset 8
  35              		.cfi_offset 7, -8
  36              		.cfi_offset 14, -4
  37 0002 82B0     		sub	sp, sp, #8
  38              		.cfi_def_cfa_offset 16
ARM GAS  C:\Users\schmi\AppData\Local\Temp\ccFjB1oM.s 			page 2


  39 0004 00AF     		add	r7, sp, #0
  40              		.cfi_def_cfa_register 7
  41 0006 0346     		mov	r3, r0
  42 0008 FB71     		strb	r3, [r7, #7]
  20:sevenSegDriver.c ****     if(seg == SEG1){
  43              		.loc 1 20 0
  44 000a FB79     		ldrb	r3, [r7, #7]	@ zero_extendqisi2
  45 000c 002B     		cmp	r3, #0
  46 000e 03D1     		bne	.L2
  21:sevenSegDriver.c ****         SEVEN_SELECT_Write(1);
  47              		.loc 1 21 0
  48 0010 0120     		movs	r0, #1
  49 0012 FFF7FEFF 		bl	SEVEN_SELECT_Write
  22:sevenSegDriver.c ****     }else{
  23:sevenSegDriver.c ****         SEVEN_SELECT_Write(0);   
  24:sevenSegDriver.c ****     }
  25:sevenSegDriver.c ****     return;   
  50              		.loc 1 25 0
  51 0016 03E0     		b	.L1
  52              	.L2:
  23:sevenSegDriver.c ****     }
  53              		.loc 1 23 0
  54 0018 0020     		movs	r0, #0
  55 001a FFF7FEFF 		bl	SEVEN_SELECT_Write
  56              		.loc 1 25 0
  57 001e 00BF     		nop
  58              	.L1:
  26:sevenSegDriver.c **** }
  59              		.loc 1 26 0
  60 0020 0837     		adds	r7, r7, #8
  61              		.cfi_def_cfa_offset 8
  62 0022 BD46     		mov	sp, r7
  63              		.cfi_def_cfa_register 13
  64              		@ sp needed
  65 0024 80BD     		pop	{r7, pc}
  66              		.cfi_endproc
  67              	.LFE0:
  68              		.size	init_sev, .-init_sev
  69 0026 00BF     		.section	.text.getSegSign,"ax",%progbits
  70              		.align	2
  71              		.global	getSegSign
  72              		.thumb
  73              		.thumb_func
  74              		.type	getSegSign, %function
  75              	getSegSign:
  76              	.LFB1:
  27:sevenSegDriver.c **** 
  28:sevenSegDriver.c **** sign_t getSegSign(){
  77              		.loc 1 28 0
  78              		.cfi_startproc
  79              		@ args = 0, pretend = 0, frame = 0
  80              		@ frame_needed = 1, uses_anonymous_args = 0
  81 0000 80B5     		push	{r7, lr}
  82              		.cfi_def_cfa_offset 8
  83              		.cfi_offset 7, -8
  84              		.cfi_offset 14, -4
  85 0002 00AF     		add	r7, sp, #0
ARM GAS  C:\Users\schmi\AppData\Local\Temp\ccFjB1oM.s 			page 3


  86              		.cfi_def_cfa_register 7
  29:sevenSegDriver.c ****     return  SEVEN_CONTROL_Read();
  87              		.loc 1 29 0
  88 0004 FFF7FEFF 		bl	SEVEN_CONTROL_Read
  89 0008 0346     		mov	r3, r0
  30:sevenSegDriver.c **** }
  90              		.loc 1 30 0
  91 000a 1846     		mov	r0, r3
  92 000c 80BD     		pop	{r7, pc}
  93              		.cfi_endproc
  94              	.LFE1:
  95              		.size	getSegSign, .-getSegSign
  96 000e 00BF     		.section	.text.setSegSign,"ax",%progbits
  97              		.align	2
  98              		.global	setSegSign
  99              		.thumb
 100              		.thumb_func
 101              		.type	setSegSign, %function
 102              	setSegSign:
 103              	.LFB2:
  31:sevenSegDriver.c **** 
  32:sevenSegDriver.c **** void setSegSign(sign_t sign){
 104              		.loc 1 32 0
 105              		.cfi_startproc
 106              		@ args = 0, pretend = 0, frame = 8
 107              		@ frame_needed = 1, uses_anonymous_args = 0
 108 0000 80B5     		push	{r7, lr}
 109              		.cfi_def_cfa_offset 8
 110              		.cfi_offset 7, -8
 111              		.cfi_offset 14, -4
 112 0002 82B0     		sub	sp, sp, #8
 113              		.cfi_def_cfa_offset 16
 114 0004 00AF     		add	r7, sp, #0
 115              		.cfi_def_cfa_register 7
 116 0006 0346     		mov	r3, r0
 117 0008 FB71     		strb	r3, [r7, #7]
  33:sevenSegDriver.c **** switch(sign){
 118              		.loc 1 33 0
 119 000a FB79     		ldrb	r3, [r7, #7]	@ zero_extendqisi2
 120 000c 0F2B     		cmp	r3, #15
 121 000e 64D8     		bhi	.L27
 122 0010 01A2     		adr	r2, .L10
 123 0012 52F823F0 		ldr	pc, [r2, r3, lsl #2]
 124 0016 00BF     		.p2align 2
 125              	.L10:
 126 0018 59000000 		.word	.L9+1
 127 001c 61000000 		.word	.L11+1
 128 0020 69000000 		.word	.L12+1
 129 0024 71000000 		.word	.L13+1
 130 0028 79000000 		.word	.L14+1
 131 002c 81000000 		.word	.L15+1
 132 0030 89000000 		.word	.L16+1
 133 0034 91000000 		.word	.L17+1
 134 0038 99000000 		.word	.L18+1
 135 003c A1000000 		.word	.L19+1
 136 0040 A9000000 		.word	.L20+1
 137 0044 B1000000 		.word	.L21+1
ARM GAS  C:\Users\schmi\AppData\Local\Temp\ccFjB1oM.s 			page 4


 138 0048 B9000000 		.word	.L22+1
 139 004c C1000000 		.word	.L23+1
 140 0050 C9000000 		.word	.L24+1
 141 0054 D1000000 		.word	.L25+1
 142              		.p2align 1
 143              	.L9:
  34:sevenSegDriver.c ****     case A: SEVEN_CONTROL_Write(238); break;
 144              		.loc 1 34 0
 145 0058 EE20     		movs	r0, #238
 146 005a FFF7FEFF 		bl	SEVEN_CONTROL_Write
 147 005e 3BE0     		b	.L8
 148              	.L11:
  35:sevenSegDriver.c ****     case B: SEVEN_CONTROL_Write(0b11111110); break;
 149              		.loc 1 35 0
 150 0060 FE20     		movs	r0, #254
 151 0062 FFF7FEFF 		bl	SEVEN_CONTROL_Write
 152 0066 37E0     		b	.L8
 153              	.L12:
  36:sevenSegDriver.c ****     case C: SEVEN_CONTROL_Write(156); break;
 154              		.loc 1 36 0
 155 0068 9C20     		movs	r0, #156
 156 006a FFF7FEFF 		bl	SEVEN_CONTROL_Write
 157 006e 33E0     		b	.L8
 158              	.L13:
  37:sevenSegDriver.c ****     case D: SEVEN_CONTROL_Write(252); break;
 159              		.loc 1 37 0
 160 0070 FC20     		movs	r0, #252
 161 0072 FFF7FEFF 		bl	SEVEN_CONTROL_Write
 162 0076 2FE0     		b	.L8
 163              	.L14:
  38:sevenSegDriver.c ****     case E: SEVEN_CONTROL_Write(158); break;
 164              		.loc 1 38 0
 165 0078 9E20     		movs	r0, #158
 166 007a FFF7FEFF 		bl	SEVEN_CONTROL_Write
 167 007e 2BE0     		b	.L8
 168              	.L15:
  39:sevenSegDriver.c ****     case F: SEVEN_CONTROL_Write(142); break;
 169              		.loc 1 39 0
 170 0080 8E20     		movs	r0, #142
 171 0082 FFF7FEFF 		bl	SEVEN_CONTROL_Write
 172 0086 27E0     		b	.L8
 173              	.L16:
  40:sevenSegDriver.c ****     case ZERO: SEVEN_CONTROL_Write(252); break;
 174              		.loc 1 40 0
 175 0088 FC20     		movs	r0, #252
 176 008a FFF7FEFF 		bl	SEVEN_CONTROL_Write
 177 008e 23E0     		b	.L8
 178              	.L17:
  41:sevenSegDriver.c ****     case EINS: SEVEN_CONTROL_Write(96); break;
 179              		.loc 1 41 0
 180 0090 6020     		movs	r0, #96
 181 0092 FFF7FEFF 		bl	SEVEN_CONTROL_Write
 182 0096 1FE0     		b	.L8
 183              	.L18:
  42:sevenSegDriver.c ****     case ZWEI: SEVEN_CONTROL_Write(218); break;
 184              		.loc 1 42 0
 185 0098 DA20     		movs	r0, #218
ARM GAS  C:\Users\schmi\AppData\Local\Temp\ccFjB1oM.s 			page 5


 186 009a FFF7FEFF 		bl	SEVEN_CONTROL_Write
 187 009e 1BE0     		b	.L8
 188              	.L19:
  43:sevenSegDriver.c ****     case DREI: SEVEN_CONTROL_Write(242); break;
 189              		.loc 1 43 0
 190 00a0 F220     		movs	r0, #242
 191 00a2 FFF7FEFF 		bl	SEVEN_CONTROL_Write
 192 00a6 17E0     		b	.L8
 193              	.L20:
  44:sevenSegDriver.c ****     case VIER: SEVEN_CONTROL_Write(102); break;
 194              		.loc 1 44 0
 195 00a8 6620     		movs	r0, #102
 196 00aa FFF7FEFF 		bl	SEVEN_CONTROL_Write
 197 00ae 13E0     		b	.L8
 198              	.L21:
  45:sevenSegDriver.c ****     case FUENF: SEVEN_CONTROL_Write(182); break;
 199              		.loc 1 45 0
 200 00b0 B620     		movs	r0, #182
 201 00b2 FFF7FEFF 		bl	SEVEN_CONTROL_Write
 202 00b6 0FE0     		b	.L8
 203              	.L22:
  46:sevenSegDriver.c ****     case SECHS: SEVEN_CONTROL_Write(188); break;
 204              		.loc 1 46 0
 205 00b8 BC20     		movs	r0, #188
 206 00ba FFF7FEFF 		bl	SEVEN_CONTROL_Write
 207 00be 0BE0     		b	.L8
 208              	.L23:
  47:sevenSegDriver.c ****     case SIEBEN: SEVEN_CONTROL_Write(224); break;
 209              		.loc 1 47 0
 210 00c0 E020     		movs	r0, #224
 211 00c2 FFF7FEFF 		bl	SEVEN_CONTROL_Write
 212 00c6 07E0     		b	.L8
 213              	.L24:
  48:sevenSegDriver.c ****     case ACHT: SEVEN_CONTROL_Write(254); break;
 214              		.loc 1 48 0
 215 00c8 FE20     		movs	r0, #254
 216 00ca FFF7FEFF 		bl	SEVEN_CONTROL_Write
 217 00ce 03E0     		b	.L8
 218              	.L25:
  49:sevenSegDriver.c ****     case NEUN: SEVEN_CONTROL_Write(236); break;
 219              		.loc 1 49 0
 220 00d0 EC20     		movs	r0, #236
 221 00d2 FFF7FEFF 		bl	SEVEN_CONTROL_Write
 222 00d6 00BF     		nop
 223              	.L8:
  50:sevenSegDriver.c **** };
  51:sevenSegDriver.c ****     return;   
 224              		.loc 1 51 0
 225 00d8 00BF     		nop
 226              	.L27:
 227 00da 00BF     		nop
  52:sevenSegDriver.c **** }...
 228              		.loc 1 52 0
 229 00dc 0837     		adds	r7, r7, #8
 230              		.cfi_def_cfa_offset 8
 231 00de BD46     		mov	sp, r7
 232              		.cfi_def_cfa_register 13
ARM GAS  C:\Users\schmi\AppData\Local\Temp\ccFjB1oM.s 			page 6


 233              		@ sp needed
 234 00e0 80BD     		pop	{r7, pc}
 235              		.cfi_endproc
 236              	.LFE2:
 237              		.size	setSegSign, .-setSegSign
 238 00e2 00BF     		.text
 239              	.Letext0:
 240              		.file 2 "sevenSegDriver.h"