ARM GAS  C:\Users\schmi\AppData\Local\Temp\ccA9az4I.s 			page 1


   1              		.syntax unified
   2              		.cpu cortex-m3
   3              		.fpu softvfp
   4              		.eabi_attribute 20, 1
   5              		.eabi_attribute 21, 1
   6              		.eabi_attribute 23, 3
   7              		.eabi_attribute 24, 1
   8              		.eabi_attribute 25, 1
   9              		.eabi_attribute 26, 1
  10              		.eabi_attribute 30, 6
  11              		.eabi_attribute 34, 1
  12              		.eabi_attribute 18, 4
  13              		.thumb
  14              		.syntax unified
  15              		.file	"tft.c"
  16              		.text
  17              	.Ltext0:
  18              		.cfi_sections	.debug_frame
  19              		.section	.rodata
  20              		.align	2
  21              		.type	SST35S_init_seq, %object
  22              		.size	SST35S_init_seq, 88
  23              	SST35S_init_seq:
  24 0000 0F       		.byte	15
  25 0001 B1       		.byte	-79
  26 0002 03       		.byte	3
  27 0003 05       		.byte	5
  28 0004 3C       		.byte	60
  29 0005 3C       		.byte	60
  30 0006 B2       		.byte	-78
  31 0007 03       		.byte	3
  32 0008 05       		.byte	5
  33 0009 3C       		.byte	60
  34 000a 3C       		.byte	60
  35 000b B3       		.byte	-77
  36 000c 06       		.byte	6
  37 000d 05       		.byte	5
  38 000e 3C       		.byte	60
  39 000f 3C       		.byte	60
  40 0010 05       		.byte	5
  41 0011 3C       		.byte	60
  42 0012 3C       		.byte	60
  43 0013 B4       		.byte	-76
  44 0014 01       		.byte	1
  45 0015 03       		.byte	3
  46 0016 C0       		.byte	-64
  47 0017 03       		.byte	3
  48 0018 28       		.byte	40
  49 0019 08       		.byte	8
  50 001a 04       		.byte	4
  51 001b C1       		.byte	-63
  52 001c 01       		.byte	1
  53 001d C0       		.byte	-64
  54 001e C2       		.byte	-62
  55 001f 02       		.byte	2
  56 0020 0D       		.byte	13
  57 0021 00       		.byte	0
ARM GAS  C:\Users\schmi\AppData\Local\Temp\ccA9az4I.s 			page 2


  58 0022 C3       		.byte	-61
  59 0023 02       		.byte	2
  60 0024 8D       		.byte	-115
  61 0025 2A       		.byte	42
  62 0026 C4       		.byte	-60
  63 0027 02       		.byte	2
  64 0028 8D       		.byte	-115
  65 0029 EE       		.byte	-18
  66 002a C5       		.byte	-59
  67 002b 01       		.byte	1
  68 002c 1A       		.byte	26
  69 002d 36       		.byte	54
  70 002e 01       		.byte	1
  71 002f C0       		.byte	-64
  72 0030 E0       		.byte	-32
  73 0031 10       		.byte	16
  74 0032 04       		.byte	4
  75 0033 22       		.byte	34
  76 0034 07       		.byte	7
  77 0035 0A       		.byte	10
  78 0036 2E       		.byte	46
  79 0037 30       		.byte	48
  80 0038 25       		.byte	37
  81 0039 2A       		.byte	42
  82 003a 28       		.byte	40
  83 003b 26       		.byte	38
  84 003c 2E       		.byte	46
  85 003d 3A       		.byte	58
  86 003e 00       		.byte	0
  87 003f 01       		.byte	1
  88 0040 03       		.byte	3
  89 0041 13       		.byte	19
  90 0042 E1       		.byte	-31
  91 0043 0F       		.byte	15
  92 0044 16       		.byte	22
  93 0045 06       		.byte	6
  94 0046 0D       		.byte	13
  95 0047 2D       		.byte	45
  96 0048 26       		.byte	38
  97 0049 23       		.byte	35
  98 004a 27       		.byte	39
  99 004b 27       		.byte	39
 100 004c 25       		.byte	37
 101 004d 2D       		.byte	45
 102 004e 3B       		.byte	59
 103 004f 00       		.byte	0
 104 0050 01       		.byte	1
 105 0051 04       		.byte	4
 106 0052 13       		.byte	19
 107 0053 3A       		.byte	58
 108 0054 01       		.byte	1
 109 0055 05       		.byte	5
 110 0056 29       		.byte	41
 111 0057 00       		.byte	0
 112              		.align	2
 113              		.type	font, %object
 114              		.size	font, 1280
ARM GAS  C:\Users\schmi\AppData\Local\Temp\ccA9az4I.s 			page 3


 115              	font:
 116 0058 00       		.byte	0
 117 0059 00       		.byte	0
 118 005a 00       		.byte	0
 119 005b 00       		.byte	0
 120 005c 00       		.byte	0
 121 005d 3E       		.byte	62
 122 005e 5B       		.byte	91
 123 005f 4F       		.byte	79
 124 0060 5B       		.byte	91
 125 0061 3E       		.byte	62
 126 0062 3E       		.byte	62
 127 0063 6B       		.byte	107
 128 0064 4F       		.byte	79
 129 0065 6B       		.byte	107
 130 0066 3E       		.byte	62
 131 0067 1C       		.byte	28
 132 0068 3E       		.byte	62
 133 0069 7C       		.byte	124
 134 006a 3E       		.byte	62
 135 006b 1C       		.byte	28
 136 006c 18       		.byte	24
 137 006d 3C       		.byte	60
 138 006e 7E       		.byte	126
 139 006f 3C       		.byte	60
 140 0070 18       		.byte	24
 141 0071 1C       		.byte	28
 142 0072 57       		.byte	87
 143 0073 7D       		.byte	125
 144 0074 57       		.byte	87
 145 0075 1C       		.byte	28
 146 0076 1C       		.byte	28
 147 0077 5E       		.byte	94
 148 0078 7F       		.byte	127
 149 0079 5E       		.byte	94
 150 007a 1C       		.byte	28
 151 007b 00       		.byte	0
 152 007c 18       		.byte	24
 153 007d 3C       		.byte	60
 154 007e 18       		.byte	24
 155 007f 00       		.byte	0
 156 0080 FF       		.byte	-1
 157 0081 E7       		.byte	-25
 158 0082 C3       		.byte	-61
 159 0083 E7       		.byte	-25
 160 0084 FF       		.byte	-1
 161 0085 00       		.byte	0
 162 0086 18       		.byte	24
 163 0087 24       		.byte	36
 164 0088 18       		.byte	24
 165 0089 00       		.byte	0
 166 008a FF       		.byte	-1
 167 008b E7       		.byte	-25
 168 008c DB       		.byte	-37
 169 008d E7       		.byte	-25
 170 008e FF       		.byte	-1
 171 008f 30       		.byte	48
ARM GAS  C:\Users\schmi\AppData\Local\Temp\ccA9az4I.s 			page 4


 172 0090 48       		.byte	72
 173 0091 3A       		.byte	58
 174 0092 06       		.byte	6
 175 0093 0E       		.byte	14
 176 0094 26       		.byte	38
 177 0095 29       		.byte	41
 178 0096 79       		.byte	121
 179 0097 29       		.byte	41
 180 0098 26       		.byte	38
 181 0099 40       		.byte	64
 182 009a 7F       		.byte	127
 183 009b 05       		.byte	5
 184 009c 05       		.byte	5
 185 009d 07       		.byte	7
 186 009e 40       		.byte	64
 187 009f 7F       		.byte	127
 188 00a0 05       		.byte	5
 189 00a1 25       		.byte	37
 190 00a2 3F       		.byte	63
 191 00a3 5A       		.byte	90
 192 00a4 3C       		.byte	60
 193 00a5 E7       		.byte	-25
 194 00a6 3C       		.byte	60
 195 00a7 5A       		.byte	90
 196 00a8 7F       		.byte	127
 197 00a9 3E       		.byte	62
 198 00aa 1C       		.byte	28
 199 00ab 1C       		.byte	28
 200 00ac 08       		.byte	8
 201 00ad 08       		.byte	8
 202 00ae 1C       		.byte	28
 203 00af 1C       		.byte	28
 204 00b0 3E       		.byte	62
 205 00b1 7F       		.byte	127
 206 00b2 14       		.byte	20
 207 00b3 22       		.byte	34
 208 00b4 7F       		.byte	127
 209 00b5 22       		.byte	34
 210 00b6 14       		.byte	20
 211 00b7 5F       		.byte	95
 212 00b8 5F       		.byte	95
 213 00b9 00       		.byte	0
 214 00ba 5F       		.byte	95
 215 00bb 5F       		.byte	95
 216 00bc 06       		.byte	6
 217 00bd 09       		.byte	9
 218 00be 7F       		.byte	127
 219 00bf 01       		.byte	1
 220 00c0 7F       		.byte	127
 221 00c1 00       		.byte	0
 222 00c2 66       		.byte	102
 223 00c3 89       		.byte	-119
 224 00c4 95       		.byte	-107
 225 00c5 6A       		.byte	106
 226 00c6 60       		.byte	96
 227 00c7 60       		.byte	96
 228 00c8 60       		.byte	96
ARM GAS  C:\Users\schmi\AppData\Local\Temp\ccA9az4I.s 			page 5


 229 00c9 60       		.byte	96
 230 00ca 60       		.byte	96
 231 00cb 94       		.byte	-108
 232 00cc A2       		.byte	-94
 233 00cd FF       		.byte	-1
 234 00ce A2       		.byte	-94
 235 00cf 94       		.byte	-108
 236 00d0 08       		.byte	8
 237 00d1 04       		.byte	4
 238 00d2 7E       		.byte	126
 239 00d3 04       		.byte	4
 240 00d4 08       		.byte	8
 241 00d5 10       		.byte	16
 242 00d6 20       		.byte	32
 243 00d7 7E       		.byte	126
 244 00d8 20       		.byte	32
 245 00d9 10       		.byte	16
 246 00da 08       		.byte	8
 247 00db 08       		.byte	8
 248 00dc 2A       		.byte	42
 249 00dd 1C       		.byte	28
 250 00de 08       		.byte	8
 251 00df 08       		.byte	8
 252 00e0 1C       		.byte	28
 253 00e1 2A       		.byte	42
 254 00e2 08       		.byte	8
 255 00e3 08       		.byte	8
 256 00e4 1E       		.byte	30
 257 00e5 10       		.byte	16
 258 00e6 10       		.byte	16
 259 00e7 10       		.byte	16
 260 00e8 10       		.byte	16
 261 00e9 0C       		.byte	12
 262 00ea 1E       		.byte	30
 263 00eb 0C       		.byte	12
 264 00ec 1E       		.byte	30
 265 00ed 0C       		.byte	12
 266 00ee 30       		.byte	48
 267 00ef 38       		.byte	56
 268 00f0 3E       		.byte	62
 269 00f1 38       		.byte	56
 270 00f2 30       		.byte	48
 271 00f3 06       		.byte	6
 272 00f4 0E       		.byte	14
 273 00f5 3E       		.byte	62
 274 00f6 0E       		.byte	14
 275 00f7 06       		.byte	6
 276 00f8 00       		.byte	0
 277 00f9 00       		.byte	0
 278 00fa 00       		.byte	0
 279 00fb 00       		.byte	0
 280 00fc 00       		.byte	0
 281 00fd 00       		.byte	0
 282 00fe 00       		.byte	0
 283 00ff 5F       		.byte	95
 284 0100 00       		.byte	0
 285 0101 00       		.byte	0
ARM GAS  C:\Users\schmi\AppData\Local\Temp\ccA9az4I.s 			page 6


 286 0102 00       		.byte	0
 287 0103 07       		.byte	7
 288 0104 00       		.byte	0
 289 0105 07       		.byte	7
 290 0106 00       		.byte	0
 291 0107 14       		.byte	20
 292 0108 7F       		.byte	127
 293 0109 14       		.byte	20
 294 010a 7F       		.byte	127
 295 010b 14       		.byte	20
 296 010c 24       		.byte	36
 297 010d 2A       		.byte	42
 298 010e 7F       		.byte	127
 299 010f 2A       		.byte	42
 300 0110 12       		.byte	18
 301 0111 23       		.byte	35
 302 0112 13       		.byte	19
 303 0113 08       		.byte	8
 304 0114 64       		.byte	100
 305 0115 62       		.byte	98
 306 0116 36       		.byte	54
 307 0117 49       		.byte	73
 308 0118 56       		.byte	86
 309 0119 20       		.byte	32
 310 011a 50       		.byte	80
 311 011b 00       		.byte	0
 312 011c 08       		.byte	8
 313 011d 07       		.byte	7
 314 011e 03       		.byte	3
 315 011f 00       		.byte	0
 316 0120 00       		.byte	0
 317 0121 1C       		.byte	28
 318 0122 22       		.byte	34
 319 0123 41       		.byte	65
 320 0124 00       		.byte	0
 321 0125 00       		.byte	0
 322 0126 41       		.byte	65
 323 0127 22       		.byte	34
 324 0128 1C       		.byte	28
 325 0129 00       		.byte	0
 326 012a 2A       		.byte	42
 327 012b 1C       		.byte	28
 328 012c 7F       		.byte	127
 329 012d 1C       		.byte	28
 330 012e 2A       		.byte	42
 331 012f 08       		.byte	8
 332 0130 08       		.byte	8
 333 0131 3E       		.byte	62
 334 0132 08       		.byte	8
 335 0133 08       		.byte	8
 336 0134 00       		.byte	0
 337 0135 80       		.byte	-128
 338 0136 70       		.byte	112
 339 0137 30       		.byte	48
 340 0138 00       		.byte	0
 341 0139 08       		.byte	8
 342 013a 08       		.byte	8
ARM GAS  C:\Users\schmi\AppData\Local\Temp\ccA9az4I.s 			page 7


 343 013b 08       		.byte	8
 344 013c 08       		.byte	8
 345 013d 08       		.byte	8
 346 013e 00       		.byte	0
 347 013f 00       		.byte	0
 348 0140 60       		.byte	96
 349 0141 60       		.byte	96
 350 0142 00       		.byte	0
 351 0143 20       		.byte	32
 352 0144 10       		.byte	16
 353 0145 08       		.byte	8
 354 0146 04       		.byte	4
 355 0147 02       		.byte	2
 356 0148 3E       		.byte	62
 357 0149 51       		.byte	81
 358 014a 49       		.byte	73
 359 014b 45       		.byte	69
 360 014c 3E       		.byte	62
 361 014d 00       		.byte	0
 362 014e 42       		.byte	66
 363 014f 7F       		.byte	127
 364 0150 40       		.byte	64
 365 0151 00       		.byte	0
 366 0152 72       		.byte	114
 367 0153 49       		.byte	73
 368 0154 49       		.byte	73
 369 0155 49       		.byte	73
 370 0156 46       		.byte	70
 371 0157 21       		.byte	33
 372 0158 41       		.byte	65
 373 0159 49       		.byte	73
 374 015a 4D       		.byte	77
 375 015b 33       		.byte	51
 376 015c 18       		.byte	24
 377 015d 14       		.byte	20
 378 015e 12       		.byte	18
 379 015f 7F       		.byte	127
 380 0160 10       		.byte	16
 381 0161 27       		.byte	39
 382 0162 45       		.byte	69
 383 0163 45       		.byte	69
 384 0164 45       		.byte	69
 385 0165 39       		.byte	57
 386 0166 3C       		.byte	60
 387 0167 4A       		.byte	74
 388 0168 49       		.byte	73
 389 0169 49       		.byte	73
 390 016a 31       		.byte	49
 391 016b 41       		.byte	65
 392 016c 21       		.byte	33
 393 016d 11       		.byte	17
 394 016e 09       		.byte	9
 395 016f 07       		.byte	7
 396 0170 36       		.byte	54
 397 0171 49       		.byte	73
 398 0172 49       		.byte	73
 399 0173 49       		.byte	73
ARM GAS  C:\Users\schmi\AppData\Local\Temp\ccA9az4I.s 			page 8


 400 0174 36       		.byte	54
 401 0175 46       		.byte	70
 402 0176 49       		.byte	73
 403 0177 49       		.byte	73
 404 0178 29       		.byte	41
 405 0179 1E       		.byte	30
 406 017a 00       		.byte	0
 407 017b 00       		.byte	0
 408 017c 14       		.byte	20
 409 017d 00       		.byte	0
 410 017e 00       		.byte	0
 411 017f 00       		.byte	0
 412 0180 40       		.byte	64
 413 0181 34       		.byte	52
 414 0182 00       		.byte	0
 415 0183 00       		.byte	0
 416 0184 00       		.byte	0
 417 0185 08       		.byte	8
 418 0186 14       		.byte	20
 419 0187 22       		.byte	34
 420 0188 41       		.byte	65
 421 0189 14       		.byte	20
 422 018a 14       		.byte	20
 423 018b 14       		.byte	20
 424 018c 14       		.byte	20
 425 018d 14       		.byte	20
 426 018e 00       		.byte	0
 427 018f 41       		.byte	65
 428 0190 22       		.byte	34
 429 0191 14       		.byte	20
 430 0192 08       		.byte	8
 431 0193 02       		.byte	2
 432 0194 01       		.byte	1
 433 0195 59       		.byte	89
 434 0196 09       		.byte	9
 435 0197 06       		.byte	6
 436 0198 3E       		.byte	62
 437 0199 41       		.byte	65
 438 019a 5D       		.byte	93
 439 019b 59       		.byte	89
 440 019c 4E       		.byte	78
 441 019d 7C       		.byte	124
 442 019e 12       		.byte	18
 443 019f 11       		.byte	17
 444 01a0 12       		.byte	18
 445 01a1 7C       		.byte	124
 446 01a2 7F       		.byte	127
 447 01a3 49       		.byte	73
 448 01a4 49       		.byte	73
 449 01a5 49       		.byte	73
 450 01a6 36       		.byte	54
 451 01a7 3E       		.byte	62
 452 01a8 41       		.byte	65
 453 01a9 41       		.byte	65
 454 01aa 41       		.byte	65
 455 01ab 22       		.byte	34
 456 01ac 7F       		.byte	127
ARM GAS  C:\Users\schmi\AppData\Local\Temp\ccA9az4I.s 			page 9


 457 01ad 41       		.byte	65
 458 01ae 41       		.byte	65
 459 01af 41       		.byte	65
 460 01b0 3E       		.byte	62
 461 01b1 7F       		.byte	127
 462 01b2 49       		.byte	73
 463 01b3 49       		.byte	73
 464 01b4 49       		.byte	73
 465 01b5 41       		.byte	65
 466 01b6 7F       		.byte	127
 467 01b7 09       		.byte	9
 468 01b8 09       		.byte	9
 469 01b9 09       		.byte	9
 470 01ba 01       		.byte	1
 471 01bb 3E       		.byte	62
 472 01bc 41       		.byte	65
 473 01bd 41       		.byte	65
 474 01be 51       		.byte	81
 475 01bf 73       		.byte	115
 476 01c0 7F       		.byte	127
 477 01c1 08       		.byte	8
 478 01c2 08       		.byte	8
 479 01c3 08       		.byte	8
 480 01c4 7F       		.byte	127
 481 01c5 00       		.byte	0
 482 01c6 41       		.byte	65
 483 01c7 7F       		.byte	127
 484 01c8 41       		.byte	65
 485 01c9 00       		.byte	0
 486 01ca 20       		.byte	32
 487 01cb 40       		.byte	64
 488 01cc 41       		.byte	65
 489 01cd 3F       		.byte	63
 490 01ce 01       		.byte	1
 491 01cf 7F       		.byte	127
 492 01d0 08       		.byte	8
 493 01d1 14       		.byte	20
 494 01d2 22       		.byte	34
 495 01d3 41       		.byte	65
 496 01d4 7F       		.byte	127
 497 01d5 40       		.byte	64
 498 01d6 40       		.byte	64
 499 01d7 40       		.byte	64
 500 01d8 40       		.byte	64
 501 01d9 7F       		.byte	127
 502 01da 02       		.byte	2
 503 01db 1C       		.byte	28
 504 01dc 02       		.byte	2
 505 01dd 7F       		.byte	127
 506 01de 7F       		.byte	127
 507 01df 04       		.byte	4
 508 01e0 08       		.byte	8
 509 01e1 10       		.byte	16
 510 01e2 7F       		.byte	127
 511 01e3 3E       		.byte	62
 512 01e4 41       		.byte	65
 513 01e5 41       		.byte	65
ARM GAS  C:\Users\schmi\AppData\Local\Temp\ccA9az4I.s 			page 10


 514 01e6 41       		.byte	65
 515 01e7 3E       		.byte	62
 516 01e8 7F       		.byte	127
 517 01e9 09       		.byte	9
 518 01ea 09       		.byte	9
 519 01eb 09       		.byte	9
 520 01ec 06       		.byte	6
 521 01ed 3E       		.byte	62
 522 01ee 41       		.byte	65
 523 01ef 51       		.byte	81
 524 01f0 21       		.byte	33
 525 01f1 5E       		.byte	94
 526 01f2 7F       		.byte	127
 527 01f3 09       		.byte	9
 528 01f4 19       		.byte	25
 529 01f5 29       		.byte	41
 530 01f6 46       		.byte	70
 531 01f7 26       		.byte	38
 532 01f8 49       		.byte	73
 533 01f9 49       		.byte	73
 534 01fa 49       		.byte	73
 535 01fb 32       		.byte	50
 536 01fc 03       		.byte	3
 537 01fd 01       		.byte	1
 538 01fe 7F       		.byte	127
 539 01ff 01       		.byte	1
 540 0200 03       		.byte	3
 541 0201 3F       		.byte	63
 542 0202 40       		.byte	64
 543 0203 40       		.byte	64
 544 0204 40       		.byte	64
 545 0205 3F       		.byte	63
 546 0206 1F       		.byte	31
 547 0207 20       		.byte	32
 548 0208 40       		.byte	64
 549 0209 20       		.byte	32
 550 020a 1F       		.byte	31
 551 020b 3F       		.byte	63
 552 020c 40       		.byte	64
 553 020d 38       		.byte	56
 554 020e 40       		.byte	64
 555 020f 3F       		.byte	63
 556 0210 63       		.byte	99
 557 0211 14       		.byte	20
 558 0212 08       		.byte	8
 559 0213 14       		.byte	20
 560 0214 63       		.byte	99
 561 0215 03       		.byte	3
 562 0216 04       		.byte	4
 563 0217 78       		.byte	120
 564 0218 04       		.byte	4
 565 0219 03       		.byte	3
 566 021a 61       		.byte	97
 567 021b 59       		.byte	89
 568 021c 49       		.byte	73
 569 021d 4D       		.byte	77
 570 021e 43       		.byte	67
ARM GAS  C:\Users\schmi\AppData\Local\Temp\ccA9az4I.s 			page 11


 571 021f 00       		.byte	0
 572 0220 7F       		.byte	127
 573 0221 41       		.byte	65
 574 0222 41       		.byte	65
 575 0223 41       		.byte	65
 576 0224 02       		.byte	2
 577 0225 04       		.byte	4
 578 0226 08       		.byte	8
 579 0227 10       		.byte	16
 580 0228 20       		.byte	32
 581 0229 00       		.byte	0
 582 022a 41       		.byte	65
 583 022b 41       		.byte	65
 584 022c 41       		.byte	65
 585 022d 7F       		.byte	127
 586 022e 04       		.byte	4
 587 022f 02       		.byte	2
 588 0230 01       		.byte	1
 589 0231 02       		.byte	2
 590 0232 04       		.byte	4
 591 0233 40       		.byte	64
 592 0234 40       		.byte	64
 593 0235 40       		.byte	64
 594 0236 40       		.byte	64
 595 0237 40       		.byte	64
 596 0238 00       		.byte	0
 597 0239 03       		.byte	3
 598 023a 07       		.byte	7
 599 023b 08       		.byte	8
 600 023c 00       		.byte	0
 601 023d 20       		.byte	32
 602 023e 54       		.byte	84
 603 023f 54       		.byte	84
 604 0240 78       		.byte	120
 605 0241 40       		.byte	64
 606 0242 7F       		.byte	127
 607 0243 28       		.byte	40
 608 0244 44       		.byte	68
 609 0245 44       		.byte	68
 610 0246 38       		.byte	56
 611 0247 38       		.byte	56
 612 0248 44       		.byte	68
 613 0249 44       		.byte	68
 614 024a 44       		.byte	68
 615 024b 28       		.byte	40
 616 024c 38       		.byte	56
 617 024d 44       		.byte	68
 618 024e 44       		.byte	68
 619 024f 28       		.byte	40
 620 0250 7F       		.byte	127
 621 0251 38       		.byte	56
 622 0252 54       		.byte	84
 623 0253 54       		.byte	84
 624 0254 54       		.byte	84
 625 0255 18       		.byte	24
 626 0256 00       		.byte	0
 627 0257 08       		.byte	8
ARM GAS  C:\Users\schmi\AppData\Local\Temp\ccA9az4I.s 			page 12


 628 0258 7E       		.byte	126
 629 0259 09       		.byte	9
 630 025a 02       		.byte	2
 631 025b 18       		.byte	24
 632 025c A4       		.byte	-92
 633 025d A4       		.byte	-92
 634 025e 9C       		.byte	-100
 635 025f 78       		.byte	120
 636 0260 7F       		.byte	127
 637 0261 08       		.byte	8
 638 0262 04       		.byte	4
 639 0263 04       		.byte	4
 640 0264 78       		.byte	120
 641 0265 00       		.byte	0
 642 0266 44       		.byte	68
 643 0267 7D       		.byte	125
 644 0268 40       		.byte	64
 645 0269 00       		.byte	0
 646 026a 20       		.byte	32
 647 026b 40       		.byte	64
 648 026c 40       		.byte	64
 649 026d 3D       		.byte	61
 650 026e 00       		.byte	0
 651 026f 7F       		.byte	127
 652 0270 10       		.byte	16
 653 0271 28       		.byte	40
 654 0272 44       		.byte	68
 655 0273 00       		.byte	0
 656 0274 00       		.byte	0
 657 0275 41       		.byte	65
 658 0276 7F       		.byte	127
 659 0277 40       		.byte	64
 660 0278 00       		.byte	0
 661 0279 7C       		.byte	124
 662 027a 04       		.byte	4
 663 027b 78       		.byte	120
 664 027c 04       		.byte	4
 665 027d 78       		.byte	120
 666 027e 7C       		.byte	124
 667 027f 08       		.byte	8
 668 0280 04       		.byte	4
 669 0281 04       		.byte	4
 670 0282 78       		.byte	120
 671 0283 38       		.byte	56
 672 0284 44       		.byte	68
 673 0285 44       		.byte	68
 674 0286 44       		.byte	68
 675 0287 38       		.byte	56
 676 0288 FC       		.byte	-4
 677 0289 18       		.byte	24
 678 028a 24       		.byte	36
 679 028b 24       		.byte	36
 680 028c 18       		.byte	24
 681 028d 18       		.byte	24
 682 028e 24       		.byte	36
 683 028f 24       		.byte	36
 684 0290 18       		.byte	24
ARM GAS  C:\Users\schmi\AppData\Local\Temp\ccA9az4I.s 			page 13


 685 0291 FC       		.byte	-4
 686 0292 7C       		.byte	124
 687 0293 08       		.byte	8
 688 0294 04       		.byte	4
 689 0295 04       		.byte	4
 690 0296 08       		.byte	8
 691 0297 48       		.byte	72
 692 0298 54       		.byte	84
 693 0299 54       		.byte	84
 694 029a 54       		.byte	84
 695 029b 24       		.byte	36
 696 029c 04       		.byte	4
 697 029d 04       		.byte	4
 698 029e 3F       		.byte	63
 699 029f 44       		.byte	68
 700 02a0 24       		.byte	36
 701 02a1 3C       		.byte	60
 702 02a2 40       		.byte	64
 703 02a3 40       		.byte	64
 704 02a4 20       		.byte	32
 705 02a5 7C       		.byte	124
 706 02a6 1C       		.byte	28
 707 02a7 20       		.byte	32
 708 02a8 40       		.byte	64
 709 02a9 20       		.byte	32
 710 02aa 1C       		.byte	28
 711 02ab 3C       		.byte	60
 712 02ac 40       		.byte	64
 713 02ad 30       		.byte	48
 714 02ae 40       		.byte	64
 715 02af 3C       		.byte	60
 716 02b0 44       		.byte	68
 717 02b1 28       		.byte	40
 718 02b2 10       		.byte	16
 719 02b3 28       		.byte	40
 720 02b4 44       		.byte	68
 721 02b5 4C       		.byte	76
 722 02b6 90       		.byte	-112
 723 02b7 90       		.byte	-112
 724 02b8 90       		.byte	-112
 725 02b9 7C       		.byte	124
 726 02ba 44       		.byte	68
 727 02bb 64       		.byte	100
 728 02bc 54       		.byte	84
 729 02bd 4C       		.byte	76
 730 02be 44       		.byte	68
 731 02bf 00       		.byte	0
 732 02c0 08       		.byte	8
 733 02c1 36       		.byte	54
 734 02c2 41       		.byte	65
 735 02c3 00       		.byte	0
 736 02c4 00       		.byte	0
 737 02c5 00       		.byte	0
 738 02c6 77       		.byte	119
 739 02c7 00       		.byte	0
 740 02c8 00       		.byte	0
 741 02c9 00       		.byte	0
ARM GAS  C:\Users\schmi\AppData\Local\Temp\ccA9az4I.s 			page 14


 742 02ca 41       		.byte	65
 743 02cb 36       		.byte	54
 744 02cc 08       		.byte	8
 745 02cd 00       		.byte	0
 746 02ce 02       		.byte	2
 747 02cf 01       		.byte	1
 748 02d0 02       		.byte	2
 749 02d1 04       		.byte	4
 750 02d2 02       		.byte	2
 751 02d3 3C       		.byte	60
 752 02d4 26       		.byte	38
 753 02d5 23       		.byte	35
 754 02d6 26       		.byte	38
 755 02d7 3C       		.byte	60
 756 02d8 1E       		.byte	30
 757 02d9 A1       		.byte	-95
 758 02da A1       		.byte	-95
 759 02db 61       		.byte	97
 760 02dc 12       		.byte	18
 761 02dd 3A       		.byte	58
 762 02de 40       		.byte	64
 763 02df 40       		.byte	64
 764 02e0 20       		.byte	32
 765 02e1 7A       		.byte	122
 766 02e2 38       		.byte	56
 767 02e3 54       		.byte	84
 768 02e4 54       		.byte	84
 769 02e5 55       		.byte	85
 770 02e6 59       		.byte	89
 771 02e7 21       		.byte	33
 772 02e8 55       		.byte	85
 773 02e9 55       		.byte	85
 774 02ea 79       		.byte	121
 775 02eb 41       		.byte	65
 776 02ec 22       		.byte	34
 777 02ed 54       		.byte	84
 778 02ee 54       		.byte	84
 779 02ef 78       		.byte	120
 780 02f0 42       		.byte	66
 781 02f1 21       		.byte	33
 782 02f2 55       		.byte	85
 783 02f3 54       		.byte	84
 784 02f4 78       		.byte	120
 785 02f5 40       		.byte	64
 786 02f6 20       		.byte	32
 787 02f7 54       		.byte	84
 788 02f8 55       		.byte	85
 789 02f9 79       		.byte	121
 790 02fa 40       		.byte	64
 791 02fb 0C       		.byte	12
 792 02fc 1E       		.byte	30
 793 02fd 52       		.byte	82
 794 02fe 72       		.byte	114
 795 02ff 12       		.byte	18
 796 0300 39       		.byte	57
 797 0301 55       		.byte	85
 798 0302 55       		.byte	85
ARM GAS  C:\Users\schmi\AppData\Local\Temp\ccA9az4I.s 			page 15


 799 0303 55       		.byte	85
 800 0304 59       		.byte	89
 801 0305 39       		.byte	57
 802 0306 54       		.byte	84
 803 0307 54       		.byte	84
 804 0308 54       		.byte	84
 805 0309 59       		.byte	89
 806 030a 39       		.byte	57
 807 030b 55       		.byte	85
 808 030c 54       		.byte	84
 809 030d 54       		.byte	84
 810 030e 58       		.byte	88
 811 030f 00       		.byte	0
 812 0310 00       		.byte	0
 813 0311 45       		.byte	69
 814 0312 7C       		.byte	124
 815 0313 41       		.byte	65
 816 0314 00       		.byte	0
 817 0315 02       		.byte	2
 818 0316 45       		.byte	69
 819 0317 7D       		.byte	125
 820 0318 42       		.byte	66
 821 0319 00       		.byte	0
 822 031a 01       		.byte	1
 823 031b 45       		.byte	69
 824 031c 7C       		.byte	124
 825 031d 40       		.byte	64
 826 031e 7D       		.byte	125
 827 031f 12       		.byte	18
 828 0320 11       		.byte	17
 829 0321 12       		.byte	18
 830 0322 7D       		.byte	125
 831 0323 F0       		.byte	-16
 832 0324 28       		.byte	40
 833 0325 25       		.byte	37
 834 0326 28       		.byte	40
 835 0327 F0       		.byte	-16
 836 0328 7C       		.byte	124
 837 0329 54       		.byte	84
 838 032a 55       		.byte	85
 839 032b 45       		.byte	69
 840 032c 00       		.byte	0
 841 032d 20       		.byte	32
 842 032e 54       		.byte	84
 843 032f 54       		.byte	84
 844 0330 7C       		.byte	124
 845 0331 54       		.byte	84
 846 0332 7C       		.byte	124
 847 0333 0A       		.byte	10
 848 0334 09       		.byte	9
 849 0335 7F       		.byte	127
 850 0336 49       		.byte	73
 851 0337 32       		.byte	50
 852 0338 49       		.byte	73
 853 0339 49       		.byte	73
 854 033a 49       		.byte	73
 855 033b 32       		.byte	50
ARM GAS  C:\Users\schmi\AppData\Local\Temp\ccA9az4I.s 			page 16


 856 033c 3A       		.byte	58
 857 033d 44       		.byte	68
 858 033e 44       		.byte	68
 859 033f 44       		.byte	68
 860 0340 3A       		.byte	58
 861 0341 32       		.byte	50
 862 0342 4A       		.byte	74
 863 0343 48       		.byte	72
 864 0344 48       		.byte	72
 865 0345 30       		.byte	48
 866 0346 3A       		.byte	58
 867 0347 41       		.byte	65
 868 0348 41       		.byte	65
 869 0349 21       		.byte	33
 870 034a 7A       		.byte	122
 871 034b 3A       		.byte	58
 872 034c 42       		.byte	66
 873 034d 40       		.byte	64
 874 034e 20       		.byte	32
 875 034f 78       		.byte	120
 876 0350 00       		.byte	0
 877 0351 9D       		.byte	-99
 878 0352 A0       		.byte	-96
 879 0353 A0       		.byte	-96
 880 0354 7D       		.byte	125
 881 0355 3D       		.byte	61
 882 0356 42       		.byte	66
 883 0357 42       		.byte	66
 884 0358 42       		.byte	66
 885 0359 3D       		.byte	61
 886 035a 3D       		.byte	61
 887 035b 40       		.byte	64
 888 035c 40       		.byte	64
 889 035d 40       		.byte	64
 890 035e 3D       		.byte	61
 891 035f 3C       		.byte	60
 892 0360 24       		.byte	36
 893 0361 FF       		.byte	-1
 894 0362 24       		.byte	36
 895 0363 24       		.byte	36
 896 0364 48       		.byte	72
 897 0365 7E       		.byte	126
 898 0366 49       		.byte	73
 899 0367 43       		.byte	67
 900 0368 66       		.byte	102
 901 0369 2B       		.byte	43
 902 036a 2F       		.byte	47
 903 036b FC       		.byte	-4
 904 036c 2F       		.byte	47
 905 036d 2B       		.byte	43
 906 036e FF       		.byte	-1
 907 036f 09       		.byte	9
 908 0370 29       		.byte	41
 909 0371 F6       		.byte	-10
 910 0372 20       		.byte	32
 911 0373 C0       		.byte	-64
 912 0374 88       		.byte	-120
ARM GAS  C:\Users\schmi\AppData\Local\Temp\ccA9az4I.s 			page 17


 913 0375 7E       		.byte	126
 914 0376 09       		.byte	9
 915 0377 03       		.byte	3
 916 0378 20       		.byte	32
 917 0379 54       		.byte	84
 918 037a 54       		.byte	84
 919 037b 79       		.byte	121
 920 037c 41       		.byte	65
 921 037d 00       		.byte	0
 922 037e 00       		.byte	0
 923 037f 44       		.byte	68
 924 0380 7D       		.byte	125
 925 0381 41       		.byte	65
 926 0382 30       		.byte	48
 927 0383 48       		.byte	72
 928 0384 48       		.byte	72
 929 0385 4A       		.byte	74
 930 0386 32       		.byte	50
 931 0387 38       		.byte	56
 932 0388 40       		.byte	64
 933 0389 40       		.byte	64
 934 038a 22       		.byte	34
 935 038b 7A       		.byte	122
 936 038c 00       		.byte	0
 937 038d 7A       		.byte	122
 938 038e 0A       		.byte	10
 939 038f 0A       		.byte	10
 940 0390 72       		.byte	114
 941 0391 7D       		.byte	125
 942 0392 0D       		.byte	13
 943 0393 19       		.byte	25
 944 0394 31       		.byte	49
 945 0395 7D       		.byte	125
 946 0396 26       		.byte	38
 947 0397 29       		.byte	41
 948 0398 29       		.byte	41
 949 0399 2F       		.byte	47
 950 039a 28       		.byte	40
 951 039b 26       		.byte	38
 952 039c 29       		.byte	41
 953 039d 29       		.byte	41
 954 039e 29       		.byte	41
 955 039f 26       		.byte	38
 956 03a0 30       		.byte	48
 957 03a1 48       		.byte	72
 958 03a2 4D       		.byte	77
 959 03a3 40       		.byte	64
 960 03a4 20       		.byte	32
 961 03a5 38       		.byte	56
 962 03a6 08       		.byte	8
 963 03a7 08       		.byte	8
 964 03a8 08       		.byte	8
 965 03a9 08       		.byte	8
 966 03aa 08       		.byte	8
 967 03ab 08       		.byte	8
 968 03ac 08       		.byte	8
 969 03ad 08       		.byte	8
ARM GAS  C:\Users\schmi\AppData\Local\Temp\ccA9az4I.s 			page 18


 970 03ae 38       		.byte	56
 971 03af 2F       		.byte	47
 972 03b0 10       		.byte	16
 973 03b1 C8       		.byte	-56
 974 03b2 AC       		.byte	-84
 975 03b3 BA       		.byte	-70
 976 03b4 2F       		.byte	47
 977 03b5 10       		.byte	16
 978 03b6 28       		.byte	40
 979 03b7 34       		.byte	52
 980 03b8 FA       		.byte	-6
 981 03b9 00       		.byte	0
 982 03ba 00       		.byte	0
 983 03bb 7B       		.byte	123
 984 03bc 00       		.byte	0
 985 03bd 00       		.byte	0
 986 03be 08       		.byte	8
 987 03bf 14       		.byte	20
 988 03c0 2A       		.byte	42
 989 03c1 14       		.byte	20
 990 03c2 22       		.byte	34
 991 03c3 22       		.byte	34
 992 03c4 14       		.byte	20
 993 03c5 2A       		.byte	42
 994 03c6 14       		.byte	20
 995 03c7 08       		.byte	8
 996 03c8 55       		.byte	85
 997 03c9 00       		.byte	0
 998 03ca 55       		.byte	85
 999 03cb 00       		.byte	0
 1000 03cc 55       		.byte	85
 1001 03cd AA       		.byte	-86
 1002 03ce 55       		.byte	85
 1003 03cf AA       		.byte	-86
 1004 03d0 55       		.byte	85
 1005 03d1 AA       		.byte	-86
 1006 03d2 FF       		.byte	-1
 1007 03d3 55       		.byte	85
 1008 03d4 FF       		.byte	-1
 1009 03d5 55       		.byte	85
 1010 03d6 FF       		.byte	-1
 1011 03d7 00       		.byte	0
 1012 03d8 00       		.byte	0
 1013 03d9 00       		.byte	0
 1014 03da FF       		.byte	-1
 1015 03db 00       		.byte	0
 1016 03dc 10       		.byte	16
 1017 03dd 10       		.byte	16
 1018 03de 10       		.byte	16
 1019 03df FF       		.byte	-1
 1020 03e0 00       		.byte	0
 1021 03e1 14       		.byte	20
 1022 03e2 14       		.byte	20
 1023 03e3 14       		.byte	20
 1024 03e4 FF       		.byte	-1
 1025 03e5 00       		.byte	0
 1026 03e6 10       		.byte	16
ARM GAS  C:\Users\schmi\AppData\Local\Temp\ccA9az4I.s 			page 19


 1027 03e7 10       		.byte	16
 1028 03e8 FF       		.byte	-1
 1029 03e9 00       		.byte	0
 1030 03ea FF       		.byte	-1
 1031 03eb 10       		.byte	16
 1032 03ec 10       		.byte	16
 1033 03ed F0       		.byte	-16
 1034 03ee 10       		.byte	16
 1035 03ef F0       		.byte	-16
 1036 03f0 14       		.byte	20
 1037 03f1 14       		.byte	20
 1038 03f2 14       		.byte	20
 1039 03f3 FC       		.byte	-4
 1040 03f4 00       		.byte	0
 1041 03f5 14       		.byte	20
 1042 03f6 14       		.byte	20
 1043 03f7 F7       		.byte	-9
 1044 03f8 00       		.byte	0
 1045 03f9 FF       		.byte	-1
 1046 03fa 00       		.byte	0
 1047 03fb 00       		.byte	0
 1048 03fc FF       		.byte	-1
 1049 03fd 00       		.byte	0
 1050 03fe FF       		.byte	-1
 1051 03ff 14       		.byte	20
 1052 0400 14       		.byte	20
 1053 0401 F4       		.byte	-12
 1054 0402 04       		.byte	4
 1055 0403 FC       		.byte	-4
 1056 0404 14       		.byte	20
 1057 0405 14       		.byte	20
 1058 0406 17       		.byte	23
 1059 0407 10       		.byte	16
 1060 0408 1F       		.byte	31
 1061 0409 10       		.byte	16
 1062 040a 10       		.byte	16
 1063 040b 1F       		.byte	31
 1064 040c 10       		.byte	16
 1065 040d 1F       		.byte	31
 1066 040e 14       		.byte	20
 1067 040f 14       		.byte	20
 1068 0410 14       		.byte	20
 1069 0411 1F       		.byte	31
 1070 0412 00       		.byte	0
 1071 0413 10       		.byte	16
 1072 0414 10       		.byte	16
 1073 0415 10       		.byte	16
 1074 0416 F0       		.byte	-16
 1075 0417 00       		.byte	0
 1076 0418 00       		.byte	0
 1077 0419 00       		.byte	0
 1078 041a 00       		.byte	0
 1079 041b 1F       		.byte	31
 1080 041c 10       		.byte	16
 1081 041d 10       		.byte	16
 1082 041e 10       		.byte	16
 1083 041f 10       		.byte	16
ARM GAS  C:\Users\schmi\AppData\Local\Temp\ccA9az4I.s 			page 20


 1084 0420 1F       		.byte	31
 1085 0421 10       		.byte	16
 1086 0422 10       		.byte	16
 1087 0423 10       		.byte	16
 1088 0424 10       		.byte	16
 1089 0425 F0       		.byte	-16
 1090 0426 10       		.byte	16
 1091 0427 00       		.byte	0
 1092 0428 00       		.byte	0
 1093 0429 00       		.byte	0
 1094 042a FF       		.byte	-1
 1095 042b 10       		.byte	16
 1096 042c 10       		.byte	16
 1097 042d 10       		.byte	16
 1098 042e 10       		.byte	16
 1099 042f 10       		.byte	16
 1100 0430 10       		.byte	16
 1101 0431 10       		.byte	16
 1102 0432 10       		.byte	16
 1103 0433 10       		.byte	16
 1104 0434 FF       		.byte	-1
 1105 0435 10       		.byte	16
 1106 0436 00       		.byte	0
 1107 0437 00       		.byte	0
 1108 0438 00       		.byte	0
 1109 0439 FF       		.byte	-1
 1110 043a 14       		.byte	20
 1111 043b 00       		.byte	0
 1112 043c 00       		.byte	0
 1113 043d FF       		.byte	-1
 1114 043e 00       		.byte	0
 1115 043f FF       		.byte	-1
 1116 0440 00       		.byte	0
 1117 0441 00       		.byte	0
 1118 0442 1F       		.byte	31
 1119 0443 10       		.byte	16
 1120 0444 17       		.byte	23
 1121 0445 00       		.byte	0
 1122 0446 00       		.byte	0
 1123 0447 FC       		.byte	-4
 1124 0448 04       		.byte	4
 1125 0449 F4       		.byte	-12
 1126 044a 14       		.byte	20
 1127 044b 14       		.byte	20
 1128 044c 17       		.byte	23
 1129 044d 10       		.byte	16
 1130 044e 17       		.byte	23
 1131 044f 14       		.byte	20
 1132 0450 14       		.byte	20
 1133 0451 F4       		.byte	-12
 1134 0452 04       		.byte	4
 1135 0453 F4       		.byte	-12
 1136 0454 00       		.byte	0
 1137 0455 00       		.byte	0
 1138 0456 FF       		.byte	-1
 1139 0457 00       		.byte	0
 1140 0458 F7       		.byte	-9
ARM GAS  C:\Users\schmi\AppData\Local\Temp\ccA9az4I.s 			page 21


 1141 0459 14       		.byte	20
 1142 045a 14       		.byte	20
 1143 045b 14       		.byte	20
 1144 045c 14       		.byte	20
 1145 045d 14       		.byte	20
 1146 045e 14       		.byte	20
 1147 045f 14       		.byte	20
 1148 0460 F7       		.byte	-9
 1149 0461 00       		.byte	0
 1150 0462 F7       		.byte	-9
 1151 0463 14       		.byte	20
 1152 0464 14       		.byte	20
 1153 0465 14       		.byte	20
 1154 0466 17       		.byte	23
 1155 0467 14       		.byte	20
 1156 0468 10       		.byte	16
 1157 0469 10       		.byte	16
 1158 046a 1F       		.byte	31
 1159 046b 10       		.byte	16
 1160 046c 1F       		.byte	31
 1161 046d 14       		.byte	20
 1162 046e 14       		.byte	20
 1163 046f 14       		.byte	20
 1164 0470 F4       		.byte	-12
 1165 0471 14       		.byte	20
 1166 0472 10       		.byte	16
 1167 0473 10       		.byte	16
 1168 0474 F0       		.byte	-16
 1169 0475 10       		.byte	16
 1170 0476 F0       		.byte	-16
 1171 0477 00       		.byte	0
 1172 0478 00       		.byte	0
 1173 0479 1F       		.byte	31
 1174 047a 10       		.byte	16
 1175 047b 1F       		.byte	31
 1176 047c 00       		.byte	0
 1177 047d 00       		.byte	0
 1178 047e 00       		.byte	0
 1179 047f 1F       		.byte	31
 1180 0480 14       		.byte	20
 1181 0481 00       		.byte	0
 1182 0482 00       		.byte	0
 1183 0483 00       		.byte	0
 1184 0484 FC       		.byte	-4
 1185 0485 14       		.byte	20
 1186 0486 00       		.byte	0
 1187 0487 00       		.byte	0
 1188 0488 F0       		.byte	-16
 1189 0489 10       		.byte	16
 1190 048a F0       		.byte	-16
 1191 048b 10       		.byte	16
 1192 048c 10       		.byte	16
 1193 048d FF       		.byte	-1
 1194 048e 10       		.byte	16
 1195 048f FF       		.byte	-1
 1196 0490 14       		.byte	20
 1197 0491 14       		.byte	20
ARM GAS  C:\Users\schmi\AppData\Local\Temp\ccA9az4I.s 			page 22


 1198 0492 14       		.byte	20
 1199 0493 FF       		.byte	-1
 1200 0494 14       		.byte	20
 1201 0495 10       		.byte	16
 1202 0496 10       		.byte	16
 1203 0497 10       		.byte	16
 1204 0498 1F       		.byte	31
 1205 0499 00       		.byte	0
 1206 049a 00       		.byte	0
 1207 049b 00       		.byte	0
 1208 049c 00       		.byte	0
 1209 049d F0       		.byte	-16
 1210 049e 10       		.byte	16
 1211 049f FF       		.byte	-1
 1212 04a0 FF       		.byte	-1
 1213 04a1 FF       		.byte	-1
 1214 04a2 FF       		.byte	-1
 1215 04a3 FF       		.byte	-1
 1216 04a4 F0       		.byte	-16
 1217 04a5 F0       		.byte	-16
 1218 04a6 F0       		.byte	-16
 1219 04a7 F0       		.byte	-16
 1220 04a8 F0       		.byte	-16
 1221 04a9 FF       		.byte	-1
 1222 04aa FF       		.byte	-1
 1223 04ab FF       		.byte	-1
 1224 04ac 00       		.byte	0
 1225 04ad 00       		.byte	0
 1226 04ae 00       		.byte	0
 1227 04af 00       		.byte	0
 1228 04b0 00       		.byte	0
 1229 04b1 FF       		.byte	-1
 1230 04b2 FF       		.byte	-1
 1231 04b3 0F       		.byte	15
 1232 04b4 0F       		.byte	15
 1233 04b5 0F       		.byte	15
 1234 04b6 0F       		.byte	15
 1235 04b7 0F       		.byte	15
 1236 04b8 38       		.byte	56
 1237 04b9 44       		.byte	68
 1238 04ba 44       		.byte	68
 1239 04bb 38       		.byte	56
 1240 04bc 44       		.byte	68
 1241 04bd FC       		.byte	-4
 1242 04be 4A       		.byte	74
 1243 04bf 4A       		.byte	74
 1244 04c0 4A       		.byte	74
 1245 04c1 34       		.byte	52
 1246 04c2 7E       		.byte	126
 1247 04c3 02       		.byte	2
 1248 04c4 02       		.byte	2
 1249 04c5 06       		.byte	6
 1250 04c6 06       		.byte	6
 1251 04c7 02       		.byte	2
 1252 04c8 7E       		.byte	126
 1253 04c9 02       		.byte	2
 1254 04ca 7E       		.byte	126
ARM GAS  C:\Users\schmi\AppData\Local\Temp\ccA9az4I.s 			page 23


 1255 04cb 02       		.byte	2
 1256 04cc 63       		.byte	99
 1257 04cd 55       		.byte	85
 1258 04ce 49       		.byte	73
 1259 04cf 41       		.byte	65
 1260 04d0 63       		.byte	99
 1261 04d1 38       		.byte	56
 1262 04d2 44       		.byte	68
 1263 04d3 44       		.byte	68
 1264 04d4 3C       		.byte	60
 1265 04d5 04       		.byte	4
 1266 04d6 40       		.byte	64
 1267 04d7 7E       		.byte	126
 1268 04d8 20       		.byte	32
 1269 04d9 1E       		.byte	30
 1270 04da 20       		.byte	32
 1271 04db 06       		.byte	6
 1272 04dc 02       		.byte	2
 1273 04dd 7E       		.byte	126
 1274 04de 02       		.byte	2
 1275 04df 02       		.byte	2
 1276 04e0 99       		.byte	-103
 1277 04e1 A5       		.byte	-91
 1278 04e2 E7       		.byte	-25
 1279 04e3 A5       		.byte	-91
 1280 04e4 99       		.byte	-103
 1281 04e5 1C       		.byte	28
 1282 04e6 2A       		.byte	42
 1283 04e7 49       		.byte	73
 1284 04e8 2A       		.byte	42
 1285 04e9 1C       		.byte	28
 1286 04ea 4C       		.byte	76
 1287 04eb 72       		.byte	114
 1288 04ec 01       		.byte	1
 1289 04ed 72       		.byte	114
 1290 04ee 4C       		.byte	76
 1291 04ef 30       		.byte	48
 1292 04f0 4A       		.byte	74
 1293 04f1 4D       		.byte	77
 1294 04f2 4D       		.byte	77
 1295 04f3 30       		.byte	48
 1296 04f4 30       		.byte	48
 1297 04f5 48       		.byte	72
 1298 04f6 78       		.byte	120
 1299 04f7 48       		.byte	72
 1300 04f8 30       		.byte	48
 1301 04f9 BC       		.byte	-68
 1302 04fa 62       		.byte	98
 1303 04fb 5A       		.byte	90
 1304 04fc 46       		.byte	70
 1305 04fd 3D       		.byte	61
 1306 04fe 3E       		.byte	62
 1307 04ff 49       		.byte	73
 1308 0500 49       		.byte	73
 1309 0501 49       		.byte	73
 1310 0502 00       		.byte	0
 1311 0503 7E       		.byte	126
ARM GAS  C:\Users\schmi\AppData\Local\Temp\ccA9az4I.s 			page 24


 1312 0504 01       		.byte	1
 1313 0505 01       		.byte	1
 1314 0506 01       		.byte	1
 1315 0507 7E       		.byte	126
 1316 0508 2A       		.byte	42
 1317 0509 2A       		.byte	42
 1318 050a 2A       		.byte	42
 1319 050b 2A       		.byte	42
 1320 050c 2A       		.byte	42
 1321 050d 44       		.byte	68
 1322 050e 44       		.byte	68
 1323 050f 5F       		.byte	95
 1324 0510 44       		.byte	68
 1325 0511 44       		.byte	68
 1326 0512 40       		.byte	64
 1327 0513 51       		.byte	81
 1328 0514 4A       		.byte	74
 1329 0515 44       		.byte	68
 1330 0516 40       		.byte	64
 1331 0517 40       		.byte	64
 1332 0518 44       		.byte	68
 1333 0519 4A       		.byte	74
 1334 051a 51       		.byte	81
 1335 051b 40       		.byte	64
 1336 051c 00       		.byte	0
 1337 051d 00       		.byte	0
 1338 051e FF       		.byte	-1
 1339 051f 01       		.byte	1
 1340 0520 03       		.byte	3
 1341 0521 E0       		.byte	-32
 1342 0522 80       		.byte	-128
 1343 0523 FF       		.byte	-1
 1344 0524 00       		.byte	0
 1345 0525 00       		.byte	0
 1346 0526 08       		.byte	8
 1347 0527 08       		.byte	8
 1348 0528 6B       		.byte	107
 1349 0529 6B       		.byte	107
 1350 052a 08       		.byte	8
 1351 052b 36       		.byte	54
 1352 052c 12       		.byte	18
 1353 052d 36       		.byte	54
 1354 052e 24       		.byte	36
 1355 052f 36       		.byte	54
 1356 0530 06       		.byte	6
 1357 0531 0F       		.byte	15
 1358 0532 09       		.byte	9
 1359 0533 0F       		.byte	15
 1360 0534 06       		.byte	6
 1361 0535 00       		.byte	0
 1362 0536 00       		.byte	0
 1363 0537 18       		.byte	24
 1364 0538 18       		.byte	24
 1365 0539 00       		.byte	0
 1366 053a 00       		.byte	0
 1367 053b 00       		.byte	0
 1368 053c 10       		.byte	16
ARM GAS  C:\Users\schmi\AppData\Local\Temp\ccA9az4I.s 			page 25


 1369 053d 10       		.byte	16
 1370 053e 00       		.byte	0
 1371 053f 30       		.byte	48
 1372 0540 40       		.byte	64
 1373 0541 FF       		.byte	-1
 1374 0542 01       		.byte	1
 1375 0543 01       		.byte	1
 1376 0544 00       		.byte	0
 1377 0545 1F       		.byte	31
 1378 0546 01       		.byte	1
 1379 0547 01       		.byte	1
 1380 0548 1E       		.byte	30
 1381 0549 00       		.byte	0
 1382 054a 19       		.byte	25
 1383 054b 1D       		.byte	29
 1384 054c 17       		.byte	23
 1385 054d 12       		.byte	18
 1386 054e 00       		.byte	0
 1387 054f 3C       		.byte	60
 1388 0550 3C       		.byte	60
 1389 0551 3C       		.byte	60
 1390 0552 3C       		.byte	60
 1391 0553 00       		.byte	0
 1392 0554 00       		.byte	0
 1393 0555 00       		.byte	0
 1394 0556 00       		.byte	0
 1395 0557 00       		.byte	0
 1396              		.align	2
 1397              	.LC0:
 1398 0558 54465400 		.ascii	"TFT\000"
 1399              		.data
 1400              		.align	2
 1401              		.type	TAG, %object
 1402              		.size	TAG, 4
 1403              	TAG:
 1404 0000 58050000 		.word	.LC0
 1405              		.bss
 1406              	colstart:
 1407 0000 00       		.space	1
 1408              	rowstart:
 1409 0001 00       		.space	1
 1410              	xstart:
 1411 0002 00       		.space	1
 1412              	ystart:
 1413 0003 00       		.space	1
 1414              	textsize:
 1415 0004 00       		.space	1
 1416              	rotation:
 1417 0005 00       		.space	1
 1418              		.align	1
 1419              	_width:
 1420 0006 0000     		.space	2
 1421              		.align	1
 1422              	_height:
 1423 0008 0000     		.space	2
 1424              		.align	1
 1425              	cursor_x:
ARM GAS  C:\Users\schmi\AppData\Local\Temp\ccA9az4I.s 			page 26


 1426 000a 0000     		.space	2
 1427              		.align	1
 1428              	cursor_y:
 1429 000c 0000     		.space	2
 1430              		.align	1
 1431              	color:
 1432 000e 0000     		.space	2
 1433              		.align	1
 1434              	bgcolor:
 1435 0010 0000     		.space	2
 1436              	wrap:
 1437 0012 00       		.space	1
 1438 0013 00       		.align	2
 1439              	gfxFont:
 1440 0014 00000000 		.space	4
 1441              		.align	2
 1442              	TFT_RB_out:
 1443 0018 00000000 		.space	206
 1443      00000000 
 1443      00000000 
 1443      00000000 
 1443      00000000 
 1444              		.section	.text.__TFT_SPI_TX_ISR,"ax",%progbits
 1445              		.align	2
 1446              		.global	__TFT_SPI_TX_ISR
 1447              		.thumb
 1448              		.thumb_func
 1449              		.type	__TFT_SPI_TX_ISR, %function
 1450              	__TFT_SPI_TX_ISR:
 1451              	.LFB116:
 1452              		.file 1 "source\\bsw\\tft\\tft.c"
   1:source\bsw\tft/tft.c **** /**
   2:source\bsw\tft/tft.c ****  * \file	TFT.c
   3:source\bsw\tft/tft.c ****  * \author	Limor Fried 	Adafruit Industries
   4:source\bsw\tft/tft.c ****  * \author	Thomas Barth 	Hochschule Darmstadt - thomas.barth@h-da.de
   5:source\bsw\tft/tft.c ****  * \date 	08.08.2017
   6:source\bsw\tft/tft.c ****  * \version	0.1
   7:source\bsw\tft/tft.c ****  *
   8:source\bsw\tft/tft.c ****  * \copyright Copyright ©2017
   9:source\bsw\tft/tft.c ****  * Department of electrical engineering and information technology, Hochschule Darmstadt - Universi
  10:source\bsw\tft/tft.c ****  * Permission to use, copy, modify, and distribute this software and its documentation for educatio
  11:source\bsw\tft/tft.c ****  * (unless permitted by h_da) and official h_da projects, is hereby granted for enrolled students o
  12:source\bsw\tft/tft.c ****  * this paragraph and the following paragraph appear in all copies, modifications, and distribution
  13:source\bsw\tft/tft.c ****  * Contact Prof.Dr.-Ing. Peter Fromm, peter.fromm@h-da.de, Birkenweg 8 64295 Darmstadt - GERMANY fo
  14:source\bsw\tft/tft.c ****  *
  15:source\bsw\tft/tft.c ****  * \warning This software is a PROTOTYPE version and is not designed or intended for use in product
  16:source\bsw\tft/tft.c ****  * The user represents and warrants that it will NOT use or redistribute the Software for such purp
  17:source\bsw\tft/tft.c ****  * This prototype is for research purposes only. This software is provided "AS IS," without a warra
  18:source\bsw\tft/tft.c ****  */
  19:source\bsw\tft/tft.c **** 
  20:source\bsw\tft/tft.c **** #include "tft.h"
  21:source\bsw\tft/tft.c **** #include "ST7735.h"
  22:source\bsw\tft/tft.c **** #include "glcdfont.h"
  23:source\bsw\tft/tft.c **** #include "math_helper.h"
  24:source\bsw\tft/tft.c **** #include "logging.h"
  25:source\bsw\tft/tft.c **** 
  26:source\bsw\tft/tft.c **** //-------------------------------------[Definitions]
ARM GAS  C:\Users\schmi\AppData\Local\Temp\ccA9az4I.s 			page 27


  27:source\bsw\tft/tft.c **** 
  28:source\bsw\tft/tft.c **** /** 
  29:source\bsw\tft/tft.c **** * \brief API glue for the SPI module
  30:source\bsw\tft/tft.c **** */
  31:source\bsw\tft/tft.c **** #define MODULE_SPI(x)       PPCAT(CFG_TFT_SPI_MODULE, x)
  32:source\bsw\tft/tft.c **** 
  33:source\bsw\tft/tft.c **** /** 
  34:source\bsw\tft/tft.c **** * \brief API glue for the backlight PWM module
  35:source\bsw\tft/tft.c **** */
  36:source\bsw\tft/tft.c **** #define MODULE_PWM(x)       PPCAT(CFG_TFT_LED_MODULE, x)
  37:source\bsw\tft/tft.c **** 
  38:source\bsw\tft/tft.c **** // API glue for the Pins
  39:source\bsw\tft/tft.c **** #define MODULE_DC(x)        PPCAT(CFG_TFT_DC_PIN, x)      
  40:source\bsw\tft/tft.c **** #define MODULE_RES(x)       PPCAT(CFG_TFT_RES_PIN, x)  
  41:source\bsw\tft/tft.c **** #define TFT_DC_LOW          MODULE_DC(Write)(0)     /**< \brief Macro to set the DC(A0) pin LOW*/
  42:source\bsw\tft/tft.c **** #define TFT_DC_HIGH         MODULE_DC(Write)(1)     /**< \brief Macro to set the DC(A0) pin HIGH*/
  43:source\bsw\tft/tft.c **** #define TFT_RES_LOW         MODULE_RES(Write)(0)    /**< \brief Macro to set the Reset pin LOW*/
  44:source\bsw\tft/tft.c **** #define TFT_RES_HIGH        MODULE_RES(Write)(1)    /**< \brief Macro to set the Reset pin HIGH*/
  45:source\bsw\tft/tft.c **** 
  46:source\bsw\tft/tft.c **** /** 
  47:source\bsw\tft/tft.c **** * \brief swap 2 int 16 values
  48:source\bsw\tft/tft.c **** */
  49:source\bsw\tft/tft.c **** #ifndef _swap_int16_t
  50:source\bsw\tft/tft.c **** #define _swap_int16_t(a, b) { int16_t t = a; a = b; b = t; }
  51:source\bsw\tft/tft.c **** #endif
  52:source\bsw\tft/tft.c **** 
  53:source\bsw\tft/tft.c **** // The code comes from an AVR. Those are macros to overcome that strange PROGMEM read stuff
  54:source\bsw\tft/tft.c **** #ifndef pgm_read_byte
  55:source\bsw\tft/tft.c ****  #define pgm_read_byte(addr) (*(const unsigned char *)(addr))
  56:source\bsw\tft/tft.c **** #endif
  57:source\bsw\tft/tft.c **** #ifndef pgm_read_word
  58:source\bsw\tft/tft.c ****  #define pgm_read_word(addr) (*(const unsigned short *)(addr))
  59:source\bsw\tft/tft.c **** #endif
  60:source\bsw\tft/tft.c **** #ifndef pgm_read_dword
  61:source\bsw\tft/tft.c ****  #define pgm_read_dword(addr) (*(const unsigned long *)(addr))
  62:source\bsw\tft/tft.c **** #endif
  63:source\bsw\tft/tft.c **** 
  64:source\bsw\tft/tft.c **** // Pointers are a peculiar case...typically 16-bit on AVR boards,
  65:source\bsw\tft/tft.c **** // 32 bits elsewhere.  Try to accommodate both...
  66:source\bsw\tft/tft.c **** #if !defined(__INT_MAX__) || (__INT_MAX__ > 0xFFFF)
  67:source\bsw\tft/tft.c ****  #define pgm_read_pointer(addr) ((void *)pgm_read_dword(addr))
  68:source\bsw\tft/tft.c **** #else
  69:source\bsw\tft/tft.c ****  #define pgm_read_pointer(addr) ((void *)pgm_read_word(addr))
  70:source\bsw\tft/tft.c **** #endif
  71:source\bsw\tft/tft.c **** 
  72:source\bsw\tft/tft.c **** #define TFT_write_cmd(x)            TFT_send(TFT_CMD,x)
  73:source\bsw\tft/tft.c **** #define TFT_write_data(x)           TFT_send(TFT_DATA,x)
  74:source\bsw\tft/tft.c **** #define TFT_write_stream(x)         TFT_send(TFT_STREAM,x)
  75:source\bsw\tft/tft.c **** 
  76:source\bsw\tft/tft.c **** //-------------------------------------[types]
  77:source\bsw\tft/tft.c **** /**
  78:source\bsw\tft/tft.c **** * \brief Data send to the TFT is either DATA or COMMAND data.
  79:source\bsw\tft/tft.c **** */
  80:source\bsw\tft/tft.c **** typedef enum{
  81:source\bsw\tft/tft.c ****     TFT_CMD,                        /**< Payload is command. */
  82:source\bsw\tft/tft.c ****     TFT_DATA,                       /**< Payload is data */
  83:source\bsw\tft/tft.c ****     TFT_STREAM                      /**< D/C has already been set */
ARM GAS  C:\Users\schmi\AppData\Local\Temp\ccA9az4I.s 			page 28


  84:source\bsw\tft/tft.c **** }TFT_payload_t;
  85:source\bsw\tft/tft.c **** 
  86:source\bsw\tft/tft.c **** /**
  87:source\bsw\tft/tft.c **** * \brief Outgoing data to the tft
  88:source\bsw\tft/tft.c **** */
  89:source\bsw\tft/tft.c **** typedef struct{
  90:source\bsw\tft/tft.c ****     TFT_payload_t   DC;             /**< Determines if this is a a command (#TFT_CMD) or data (#TFT
  91:source\bsw\tft/tft.c ****     uint8_t         payload;
  92:source\bsw\tft/tft.c **** }TFT_data_t;
  93:source\bsw\tft/tft.c **** 
  94:source\bsw\tft/tft.c **** typedef struct {
  95:source\bsw\tft/tft.c ****     uint16_t    read;
  96:source\bsw\tft/tft.c ****     uint16_t    write;
  97:source\bsw\tft/tft.c ****     uint16_t    fill;
  98:source\bsw\tft/tft.c ****     TFT_data_t  buffer[CFG_TFT_RB_OUT_SZ];
  99:source\bsw\tft/tft.c **** }TFT_RB_out_t;
 100:source\bsw\tft/tft.c **** 
 101:source\bsw\tft/tft.c **** 
 102:source\bsw\tft/tft.c **** //-------------------------------------[local variables]
 103:source\bsw\tft/tft.c **** 
 104:source\bsw\tft/tft.c **** static const char* TAG="TFT";
 105:source\bsw\tft/tft.c **** 
 106:source\bsw\tft/tft.c **** static uint8_t  colstart;           /**< \brief Column (RAM) start*/
 107:source\bsw\tft/tft.c **** static uint8_t  rowstart;           /**< \brief Row (RAM) start*/
 108:source\bsw\tft/tft.c **** static uint8_t  xstart;             /**< \brief x position start*/
 109:source\bsw\tft/tft.c **** static uint8_t  ystart;             /**< \brief y position start*/
 110:source\bsw\tft/tft.c **** 
 111:source\bsw\tft/tft.c **** static uint8_t  textsize;           /**< \brief current text size*/
 112:source\bsw\tft/tft.c **** static uint8_t  rotation;           /**< \brief current orientation/rotation*/
 113:source\bsw\tft/tft.c **** 
 114:source\bsw\tft/tft.c **** static int16_t  _width;             /**< \brief Display width as modified by current rotation*/
 115:source\bsw\tft/tft.c **** static uint16_t _height;            /**< \brief Display heigth as modified by current rotation*/ 
 116:source\bsw\tft/tft.c **** static uint16_t cursor_x;           /**< \brief Cursor X position*/
 117:source\bsw\tft/tft.c **** static uint16_t cursor_y;           /**< \brief Cursor Y position*/
 118:source\bsw\tft/tft.c **** static TFT_color_t color;              /**< \brief Current foreground color*/
 119:source\bsw\tft/tft.c **** static TFT_color_t bgcolor;            /**< \brief Current background color*/
 120:source\bsw\tft/tft.c **** 
 121:source\bsw\tft/tft.c **** static boolean_t wrap;              /**< \brief If set, 'wrap' text at right edge of display*/ 
 122:source\bsw\tft/tft.c ****     
 123:source\bsw\tft/tft.c **** static GFXfont *gfxFont;            /**< \brief Current Font*/ 
 124:source\bsw\tft/tft.c **** 
 125:source\bsw\tft/tft.c **** static TFT_RB_out_t TFT_RB_out;     /**< \brief Ringbuffer for SPI communication*/
 126:source\bsw\tft/tft.c ****     
 127:source\bsw\tft/tft.c **** //-------------------------------------[local function prototypes]
 128:source\bsw\tft/tft.c **** 
 129:source\bsw\tft/tft.c **** static void setAddrWindow(uint8_t x0, uint8_t y0, uint8_t x1, uint8_t y1);
 130:source\bsw\tft/tft.c **** static void charBounds(char c, int16_t *x, int16_t *y,  int16_t *minx, int16_t *miny, int16_t *maxx
 131:source\bsw\tft/tft.c **** static void TFT_drawCircleHelper(int16_t x0, int16_t y0, int16_t r, uint8_t cornername, TFT_color_t
 132:source\bsw\tft/tft.c **** static void TFT_fillCircleHelper(int16_t x0, int16_t y0, int16_t r, uint8_t cornername, int16_t del
 133:source\bsw\tft/tft.c **** 
 134:source\bsw\tft/tft.c **** static RC_t TFT_send(TFT_payload_t type, uint8_t payload);
 135:source\bsw\tft/tft.c **** //-------------------------------------[Implementation]
 136:source\bsw\tft/tft.c **** 
 137:source\bsw\tft/tft.c **** //----------------- Ringbuffer
 138:source\bsw\tft/tft.c **** 
 139:source\bsw\tft/tft.c **** void __TFT_SPI_TX_ISR(void){
 1453              		.loc 1 139 0
ARM GAS  C:\Users\schmi\AppData\Local\Temp\ccA9az4I.s 			page 29


 1454              		.cfi_startproc
 1455              		@ args = 0, pretend = 0, frame = 8
 1456              		@ frame_needed = 1, uses_anonymous_args = 0
 1457 0000 80B5     		push	{r7, lr}
 1458              		.cfi_def_cfa_offset 8
 1459              		.cfi_offset 7, -8
 1460              		.cfi_offset 14, -4
 1461 0002 82B0     		sub	sp, sp, #8
 1462              		.cfi_def_cfa_offset 16
 1463 0004 00AF     		add	r7, sp, #0
 1464              		.cfi_def_cfa_register 7
 140:source\bsw\tft/tft.c ****     
 141:source\bsw\tft/tft.c ****     //check if we have data waiting
 142:source\bsw\tft/tft.c ****     if(TFT_RB_out.fill==0)
 1465              		.loc 1 142 0
 1466 0006 1D4B     		ldr	r3, .L9
 1467 0008 9B88     		ldrh	r3, [r3, #4]
 1468 000a 002B     		cmp	r3, #0
 1469 000c 32D0     		beq	.L8
 143:source\bsw\tft/tft.c ****         return;
 144:source\bsw\tft/tft.c ****     
 145:source\bsw\tft/tft.c ****     //get the next frame to be send
 146:source\bsw\tft/tft.c ****     TFT_data_t* p_next_frame=&TFT_RB_out.buffer[TFT_RB_out.read++];
 1470              		.loc 1 146 0
 1471 000e 1B4B     		ldr	r3, .L9
 1472 0010 1B88     		ldrh	r3, [r3]
 1473 0012 5A1C     		adds	r2, r3, #1
 1474 0014 91B2     		uxth	r1, r2
 1475 0016 194A     		ldr	r2, .L9
 1476 0018 1180     		strh	r1, [r2]	@ movhi
 1477 001a 5B00     		lsls	r3, r3, #1
 1478 001c 174A     		ldr	r2, .L9
 1479 001e 1344     		add	r3, r3, r2
 1480 0020 0633     		adds	r3, r3, #6
 1481 0022 7B60     		str	r3, [r7, #4]
 147:source\bsw\tft/tft.c ****     
 148:source\bsw\tft/tft.c ****     //adjust read index and fill level
 149:source\bsw\tft/tft.c ****     TFT_RB_out.read%=CFG_TFT_RB_OUT_SZ;
 1482              		.loc 1 149 0
 1483 0024 154B     		ldr	r3, .L9
 1484 0026 1B88     		ldrh	r3, [r3]
 1485 0028 154A     		ldr	r2, .L9+4
 1486 002a A2FB0312 		umull	r1, r2, r2, r3
 1487 002e 5209     		lsrs	r2, r2, #5
 1488 0030 6421     		movs	r1, #100
 1489 0032 01FB02F2 		mul	r2, r1, r2
 1490 0036 9B1A     		subs	r3, r3, r2
 1491 0038 9AB2     		uxth	r2, r3
 1492 003a 104B     		ldr	r3, .L9
 1493 003c 1A80     		strh	r2, [r3]	@ movhi
 150:source\bsw\tft/tft.c ****     TFT_RB_out.fill--;
 1494              		.loc 1 150 0
 1495 003e 0F4B     		ldr	r3, .L9
 1496 0040 9B88     		ldrh	r3, [r3, #4]
 1497 0042 013B     		subs	r3, r3, #1
 1498 0044 9AB2     		uxth	r2, r3
 1499 0046 0D4B     		ldr	r3, .L9
ARM GAS  C:\Users\schmi\AppData\Local\Temp\ccA9az4I.s 			page 30


 1500 0048 9A80     		strh	r2, [r3, #4]	@ movhi
 151:source\bsw\tft/tft.c ****     
 152:source\bsw\tft/tft.c ****     //check payload type
 153:source\bsw\tft/tft.c ****     switch(p_next_frame->DC){
 1501              		.loc 1 153 0
 1502 004a 7B68     		ldr	r3, [r7, #4]
 1503 004c 1B78     		ldrb	r3, [r3]	@ zero_extendqisi2
 1504 004e 002B     		cmp	r3, #0
 1505 0050 02D0     		beq	.L5
 1506 0052 012B     		cmp	r3, #1
 1507 0054 04D0     		beq	.L6
 154:source\bsw\tft/tft.c ****         case TFT_CMD:
 155:source\bsw\tft/tft.c ****             TFT_DC_LOW;
 156:source\bsw\tft/tft.c ****             break;
 157:source\bsw\tft/tft.c ****         
 158:source\bsw\tft/tft.c ****         case TFT_DATA:
 159:source\bsw\tft/tft.c ****             TFT_DC_HIGH;
 160:source\bsw\tft/tft.c ****             break;
 161:source\bsw\tft/tft.c ****         default:
 162:source\bsw\tft/tft.c ****         break;
 1508              		.loc 1 162 0
 1509 0056 07E0     		b	.L7
 1510              	.L5:
 155:source\bsw\tft/tft.c ****             break;
 1511              		.loc 1 155 0
 1512 0058 0020     		movs	r0, #0
 1513 005a FFF7FEFF 		bl	TFT_DC_Write
 156:source\bsw\tft/tft.c ****         
 1514              		.loc 1 156 0
 1515 005e 03E0     		b	.L7
 1516              	.L6:
 159:source\bsw\tft/tft.c ****             break;
 1517              		.loc 1 159 0
 1518 0060 0120     		movs	r0, #1
 1519 0062 FFF7FEFF 		bl	TFT_DC_Write
 160:source\bsw\tft/tft.c ****         default:
 1520              		.loc 1 160 0
 1521 0066 00BF     		nop
 1522              	.L7:
 163:source\bsw\tft/tft.c ****     }
 164:source\bsw\tft/tft.c **** 
 165:source\bsw\tft/tft.c ****     MODULE_SPI(WriteTxData)(p_next_frame->payload);    
 1523              		.loc 1 165 0
 1524 0068 7B68     		ldr	r3, [r7, #4]
 1525 006a 5B78     		ldrb	r3, [r3, #1]	@ zero_extendqisi2
 1526 006c 1846     		mov	r0, r3
 1527 006e FFF7FEFF 		bl	TFT_SPI_WriteTxData
 1528 0072 00E0     		b	.L1
 1529              	.L8:
 143:source\bsw\tft/tft.c ****     
 1530              		.loc 1 143 0
 1531 0074 00BF     		nop
 1532              	.L1:
 166:source\bsw\tft/tft.c **** }
 1533              		.loc 1 166 0
 1534 0076 0837     		adds	r7, r7, #8
 1535              		.cfi_def_cfa_offset 8
ARM GAS  C:\Users\schmi\AppData\Local\Temp\ccA9az4I.s 			page 31


 1536 0078 BD46     		mov	sp, r7
 1537              		.cfi_def_cfa_register 13
 1538              		@ sp needed
 1539 007a 80BD     		pop	{r7, pc}
 1540              	.L10:
 1541              		.align	2
 1542              	.L9:
 1543 007c 18000000 		.word	TFT_RB_out
 1544 0080 1F85EB51 		.word	1374389535
 1545              		.cfi_endproc
 1546              	.LFE116:
 1547              		.size	__TFT_SPI_TX_ISR, .-__TFT_SPI_TX_ISR
 1548              		.section	.rodata
 1549              		.align	2
 1550              	.LC1:
 1551 055c 42756666 		.ascii	"Buffer overflow\000"
 1551      6572206F 
 1551      76657266 
 1551      6C6F7700 
 1552              		.section	.text.TFT_send,"ax",%progbits
 1553              		.align	2
 1554              		.thumb
 1555              		.thumb_func
 1556              		.type	TFT_send, %function
 1557              	TFT_send:
 1558              	.LFB117:
 167:source\bsw\tft/tft.c **** 
 168:source\bsw\tft/tft.c **** RC_t TFT_send(TFT_payload_t type, uint8_t payload){
 1559              		.loc 1 168 0
 1560              		.cfi_startproc
 1561              		@ args = 0, pretend = 0, frame = 176
 1562              		@ frame_needed = 1, uses_anonymous_args = 0
 1563 0000 B0B5     		push	{r4, r5, r7, lr}
 1564              		.cfi_def_cfa_offset 16
 1565              		.cfi_offset 4, -16
 1566              		.cfi_offset 5, -12
 1567              		.cfi_offset 7, -8
 1568              		.cfi_offset 14, -4
 1569 0002 ACB0     		sub	sp, sp, #176
 1570              		.cfi_def_cfa_offset 192
 1571 0004 00AF     		add	r7, sp, #0
 1572              		.cfi_def_cfa_register 7
 1573 0006 0346     		mov	r3, r0
 1574 0008 0A46     		mov	r2, r1
 1575 000a FB71     		strb	r3, [r7, #7]
 1576 000c 1346     		mov	r3, r2
 1577 000e BB71     		strb	r3, [r7, #6]
 169:source\bsw\tft/tft.c **** 
 170:source\bsw\tft/tft.c ****     //check if buffer is full
 171:source\bsw\tft/tft.c ****     if(TFT_RB_out.fill>=CFG_TFT_RB_OUT_SZ){
 1578              		.loc 1 171 0
 1579 0010 284B     		ldr	r3, .L15
 1580 0012 9B88     		ldrh	r3, [r3, #4]
 1581 0014 632B     		cmp	r3, #99
 1582 0016 1DD9     		bls	.L12
 1583              	.LBB2:
 172:source\bsw\tft/tft.c ****         //TODO: fire event or DET STOP
ARM GAS  C:\Users\schmi\AppData\Local\Temp\ccA9az4I.s 			page 32


 173:source\bsw\tft/tft.c ****         LOG_E(TAG,"Buffer overflow");
 1584              		.loc 1 173 0 discriminator 1
 1585 0018 0323     		movs	r3, #3
 1586 001a 3B72     		strb	r3, [r7, #8]
 1587 001c 264B     		ldr	r3, .L15+4
 1588 001e 1A68     		ldr	r2, [r3]
 1589 0020 07F10803 		add	r3, r7, #8
 1590 0024 0133     		adds	r3, r3, #1
 1591 0026 1146     		mov	r1, r2
 1592 0028 1846     		mov	r0, r3
 1593 002a FFF7FEFF 		bl	strcpy
 1594 002e 07F10803 		add	r3, r7, #8
 1595 0032 1133     		adds	r3, r3, #17
 1596 0034 214A     		ldr	r2, .L15+8
 1597 0036 1C46     		mov	r4, r3
 1598 0038 1546     		mov	r5, r2
 1599 003a 0FCD     		ldmia	r5!, {r0, r1, r2, r3}
 1600 003c 2060     		str	r0, [r4]	@ unaligned
 1601 003e 6160     		str	r1, [r4, #4]	@ unaligned
 1602 0040 A260     		str	r2, [r4, #8]	@ unaligned
 1603 0042 E360     		str	r3, [r4, #12]	@ unaligned
 1604 0044 07F10803 		add	r3, r7, #8
 1605 0048 1846     		mov	r0, r3
 1606 004a FFF7FEFF 		bl	LOG_send
 1607              	.LBE2:
 174:source\bsw\tft/tft.c ****         return RC_ERROR_BUFFER_FULL;
 1608              		.loc 1 174 0 discriminator 1
 1609 004e 6FF00703 		mvn	r3, #7
 1610 0052 2AE0     		b	.L13
 1611              	.L12:
 175:source\bsw\tft/tft.c ****     }
 176:source\bsw\tft/tft.c ****     
 177:source\bsw\tft/tft.c ****     //add frame to buffer
 178:source\bsw\tft/tft.c ****     TFT_RB_out.buffer[TFT_RB_out.write++]=(TFT_data_t){type,payload};
 1612              		.loc 1 178 0
 1613 0054 174B     		ldr	r3, .L15
 1614 0056 5B88     		ldrh	r3, [r3, #2]
 1615 0058 5A1C     		adds	r2, r3, #1
 1616 005a 91B2     		uxth	r1, r2
 1617 005c 154A     		ldr	r2, .L15
 1618 005e 5180     		strh	r1, [r2, #2]	@ movhi
 1619 0060 1A46     		mov	r2, r3
 1620 0062 1449     		ldr	r1, .L15
 1621 0064 5300     		lsls	r3, r2, #1
 1622 0066 0B44     		add	r3, r3, r1
 1623 0068 F979     		ldrb	r1, [r7, #7]
 1624 006a 9971     		strb	r1, [r3, #6]
 1625 006c 1149     		ldr	r1, .L15
 1626 006e 5300     		lsls	r3, r2, #1
 1627 0070 0B44     		add	r3, r3, r1
 1628 0072 BA79     		ldrb	r2, [r7, #6]
 1629 0074 DA71     		strb	r2, [r3, #7]
 179:source\bsw\tft/tft.c **** 
 180:source\bsw\tft/tft.c ****     //adjust write index and fill level
 181:source\bsw\tft/tft.c ****     TFT_RB_out.write%=CFG_TFT_RB_OUT_SZ;
 1630              		.loc 1 181 0
 1631 0076 0F4B     		ldr	r3, .L15
ARM GAS  C:\Users\schmi\AppData\Local\Temp\ccA9az4I.s 			page 33


 1632 0078 5B88     		ldrh	r3, [r3, #2]
 1633 007a 114A     		ldr	r2, .L15+12
 1634 007c A2FB0312 		umull	r1, r2, r2, r3
 1635 0080 5209     		lsrs	r2, r2, #5
 1636 0082 6421     		movs	r1, #100
 1637 0084 01FB02F2 		mul	r2, r1, r2
 1638 0088 9B1A     		subs	r3, r3, r2
 1639 008a 9AB2     		uxth	r2, r3
 1640 008c 094B     		ldr	r3, .L15
 1641 008e 5A80     		strh	r2, [r3, #2]	@ movhi
 182:source\bsw\tft/tft.c ****     TFT_RB_out.fill++;
 1642              		.loc 1 182 0
 1643 0090 084B     		ldr	r3, .L15
 1644 0092 9B88     		ldrh	r3, [r3, #4]
 1645 0094 0133     		adds	r3, r3, #1
 1646 0096 9AB2     		uxth	r2, r3
 1647 0098 064B     		ldr	r3, .L15
 1648 009a 9A80     		strh	r2, [r3, #4]	@ movhi
 183:source\bsw\tft/tft.c ****     
 184:source\bsw\tft/tft.c ****     //check if this is the only entry in the ringbuffer and trigger the ISR
 185:source\bsw\tft/tft.c ****     if(TFT_RB_out.fill==1)
 1649              		.loc 1 185 0
 1650 009c 054B     		ldr	r3, .L15
 1651 009e 9B88     		ldrh	r3, [r3, #4]
 1652 00a0 012B     		cmp	r3, #1
 1653 00a2 01D1     		bne	.L14
 186:source\bsw\tft/tft.c ****         __TFT_SPI_TX_ISR();
 1654              		.loc 1 186 0
 1655 00a4 FFF7FEFF 		bl	__TFT_SPI_TX_ISR
 1656              	.L14:
 187:source\bsw\tft/tft.c **** 
 188:source\bsw\tft/tft.c ****     return RC_SUCCESS;
 1657              		.loc 1 188 0
 1658 00a8 0023     		movs	r3, #0
 1659              	.L13:
 189:source\bsw\tft/tft.c **** }
 1660              		.loc 1 189 0
 1661 00aa 1846     		mov	r0, r3
 1662 00ac B037     		adds	r7, r7, #176
 1663              		.cfi_def_cfa_offset 16
 1664 00ae BD46     		mov	sp, r7
 1665              		.cfi_def_cfa_register 13
 1666              		@ sp needed
 1667 00b0 B0BD     		pop	{r4, r5, r7, pc}
 1668              	.L16:
 1669 00b2 00BF     		.align	2
 1670              	.L15:
 1671 00b4 18000000 		.word	TFT_RB_out
 1672 00b8 00000000 		.word	TAG
 1673 00bc 5C050000 		.word	.LC1
 1674 00c0 1F85EB51 		.word	1374389535
 1675              		.cfi_endproc
 1676              	.LFE117:
 1677              		.size	TFT_send, .-TFT_send
 1678              		.section	.text.TFT_init,"ax",%progbits
 1679              		.align	2
 1680              		.global	TFT_init
ARM GAS  C:\Users\schmi\AppData\Local\Temp\ccA9az4I.s 			page 34


 1681              		.thumb
 1682              		.thumb_func
 1683              		.type	TFT_init, %function
 1684              	TFT_init:
 1685              	.LFB118:
 190:source\bsw\tft/tft.c **** 
 191:source\bsw\tft/tft.c **** 
 192:source\bsw\tft/tft.c **** //----------------- CTRL
 193:source\bsw\tft/tft.c **** void TFT_init(){
 1686              		.loc 1 193 0
 1687              		.cfi_startproc
 1688              		@ args = 0, pretend = 0, frame = 8
 1689              		@ frame_needed = 1, uses_anonymous_args = 0
 1690 0000 80B5     		push	{r7, lr}
 1691              		.cfi_def_cfa_offset 8
 1692              		.cfi_offset 7, -8
 1693              		.cfi_offset 14, -4
 1694 0002 82B0     		sub	sp, sp, #8
 1695              		.cfi_def_cfa_offset 16
 1696 0004 00AF     		add	r7, sp, #0
 1697              		.cfi_def_cfa_register 7
 194:source\bsw\tft/tft.c ****     
 195:source\bsw\tft/tft.c ****     //init local vars
 196:source\bsw\tft/tft.c ****     _width    = CFG_TFT_WIDTH;
 1698              		.loc 1 196 0
 1699 0006 484B     		ldr	r3, .L22
 1700 0008 8022     		movs	r2, #128
 1701 000a 1A80     		strh	r2, [r3]	@ movhi
 197:source\bsw\tft/tft.c ****     _height   = CFG_TFT_HEIGHT;
 1702              		.loc 1 197 0
 1703 000c 474B     		ldr	r3, .L22+4
 1704 000e A022     		movs	r2, #160
 1705 0010 1A80     		strh	r2, [r3]	@ movhi
 198:source\bsw\tft/tft.c ****     rotation=0;
 1706              		.loc 1 198 0
 1707 0012 474B     		ldr	r3, .L22+8
 1708 0014 0022     		movs	r2, #0
 1709 0016 1A70     		strb	r2, [r3]
 199:source\bsw\tft/tft.c ****     cursor_x=0;
 1710              		.loc 1 199 0
 1711 0018 464B     		ldr	r3, .L22+12
 1712 001a 0022     		movs	r2, #0
 1713 001c 1A80     		strh	r2, [r3]	@ movhi
 200:source\bsw\tft/tft.c ****     cursor_y=0;
 1714              		.loc 1 200 0
 1715 001e 464B     		ldr	r3, .L22+16
 1716 0020 0022     		movs	r2, #0
 1717 0022 1A80     		strh	r2, [r3]	@ movhi
 201:source\bsw\tft/tft.c ****     textsize=1;
 1718              		.loc 1 201 0
 1719 0024 454B     		ldr	r3, .L22+20
 1720 0026 0122     		movs	r2, #1
 1721 0028 1A70     		strb	r2, [r3]
 202:source\bsw\tft/tft.c ****     color=CFG_TFT_COLOR_TEXT;
 1722              		.loc 1 202 0
 1723 002a 454B     		ldr	r3, .L22+24
 1724 002c 4FF6FF72 		movw	r2, #65535
ARM GAS  C:\Users\schmi\AppData\Local\Temp\ccA9az4I.s 			page 35


 1725 0030 1A80     		strh	r2, [r3]	@ movhi
 203:source\bsw\tft/tft.c ****     bgcolor=CFG_TFT_COLOR_TEXTBG;
 1726              		.loc 1 203 0
 1727 0032 444B     		ldr	r3, .L22+28
 1728 0034 0022     		movs	r2, #0
 1729 0036 1A80     		strh	r2, [r3]	@ movhi
 204:source\bsw\tft/tft.c ****     wrap=TRUE;
 1730              		.loc 1 204 0
 1731 0038 434B     		ldr	r3, .L22+32
 1732 003a 0122     		movs	r2, #1
 1733 003c 1A70     		strb	r2, [r3]
 205:source\bsw\tft/tft.c ****     gfxFont=NULL;
 1734              		.loc 1 205 0
 1735 003e 434B     		ldr	r3, .L22+36
 1736 0040 0022     		movs	r2, #0
 1737 0042 1A60     		str	r2, [r3]
 206:source\bsw\tft/tft.c ****     ystart = xstart = colstart  = rowstart = 0;
 1738              		.loc 1 206 0
 1739 0044 424B     		ldr	r3, .L22+40
 1740 0046 0022     		movs	r2, #0
 1741 0048 1A70     		strb	r2, [r3]
 1742 004a 414B     		ldr	r3, .L22+40
 1743 004c 1A78     		ldrb	r2, [r3]	@ zero_extendqisi2
 1744 004e 414B     		ldr	r3, .L22+44
 1745 0050 1A70     		strb	r2, [r3]
 1746 0052 404B     		ldr	r3, .L22+44
 1747 0054 1A78     		ldrb	r2, [r3]	@ zero_extendqisi2
 1748 0056 404B     		ldr	r3, .L22+48
 1749 0058 1A70     		strb	r2, [r3]
 1750 005a 3F4B     		ldr	r3, .L22+48
 1751 005c 1A78     		ldrb	r2, [r3]	@ zero_extendqisi2
 1752 005e 3F4B     		ldr	r3, .L22+52
 1753 0060 1A70     		strb	r2, [r3]
 207:source\bsw\tft/tft.c ****     
 208:source\bsw\tft/tft.c ****     //init ringbuffer
 209:source\bsw\tft/tft.c ****     TFT_RB_out.read=0;
 1754              		.loc 1 209 0
 1755 0062 3F4B     		ldr	r3, .L22+56
 1756 0064 0022     		movs	r2, #0
 1757 0066 1A80     		strh	r2, [r3]	@ movhi
 210:source\bsw\tft/tft.c ****     TFT_RB_out.write=0;
 1758              		.loc 1 210 0
 1759 0068 3D4B     		ldr	r3, .L22+56
 1760 006a 0022     		movs	r2, #0
 1761 006c 5A80     		strh	r2, [r3, #2]	@ movhi
 211:source\bsw\tft/tft.c ****     TFT_RB_out.fill=0;
 1762              		.loc 1 211 0
 1763 006e 3C4B     		ldr	r3, .L22+56
 1764 0070 0022     		movs	r2, #0
 1765 0072 9A80     		strh	r2, [r3, #4]	@ movhi
 212:source\bsw\tft/tft.c ****     
 213:source\bsw\tft/tft.c ****     //Start SPI Interface
 214:source\bsw\tft/tft.c ****     MODULE_SPI(Start)();
 1766              		.loc 1 214 0
 1767 0074 FFF7FEFF 		bl	TFT_SPI_Start
 215:source\bsw\tft/tft.c ****     
 216:source\bsw\tft/tft.c ****     //Perform Hardware reset
ARM GAS  C:\Users\schmi\AppData\Local\Temp\ccA9az4I.s 			page 36


 217:source\bsw\tft/tft.c ****     TFT_RES_HIGH;
 1768              		.loc 1 217 0
 1769 0078 0120     		movs	r0, #1
 1770 007a FFF7FEFF 		bl	TFT_RES_Write
 218:source\bsw\tft/tft.c ****     CFG_TFT_DELAY_MS(100);
 1771              		.loc 1 218 0
 1772 007e 6420     		movs	r0, #100
 1773 0080 FFF7FEFF 		bl	CyDelay
 219:source\bsw\tft/tft.c ****     TFT_RES_LOW;
 1774              		.loc 1 219 0
 1775 0084 0020     		movs	r0, #0
 1776 0086 FFF7FEFF 		bl	TFT_RES_Write
 220:source\bsw\tft/tft.c **** 	CFG_TFT_DELAY_MS(100);
 1777              		.loc 1 220 0
 1778 008a 6420     		movs	r0, #100
 1779 008c FFF7FEFF 		bl	CyDelay
 221:source\bsw\tft/tft.c **** 	TFT_RES_HIGH;
 1780              		.loc 1 221 0
 1781 0090 0120     		movs	r0, #1
 1782 0092 FFF7FEFF 		bl	TFT_RES_Write
 222:source\bsw\tft/tft.c **** 	CFG_TFT_DELAY_MS(20);
 1783              		.loc 1 222 0
 1784 0096 1420     		movs	r0, #20
 1785 0098 FFF7FEFF 		bl	CyDelay
 223:source\bsw\tft/tft.c ****     
 224:source\bsw\tft/tft.c ****     //Software reset
 225:source\bsw\tft/tft.c ****     TFT_write_cmd(ST7735_SWRESET);
 1786              		.loc 1 225 0
 1787 009c 0121     		movs	r1, #1
 1788 009e 0020     		movs	r0, #0
 1789 00a0 FFF7FEFF 		bl	TFT_send
 226:source\bsw\tft/tft.c ****     CFG_TFT_DELAY_MS(50);
 1790              		.loc 1 226 0
 1791 00a4 3220     		movs	r0, #50
 1792 00a6 FFF7FEFF 		bl	CyDelay
 227:source\bsw\tft/tft.c ****     
 228:source\bsw\tft/tft.c ****     //sleep out
 229:source\bsw\tft/tft.c ****     TFT_write_cmd(ST7735_SLPOUT);    //Sleep out
 1793              		.loc 1 229 0
 1794 00aa 1121     		movs	r1, #17
 1795 00ac 0020     		movs	r0, #0
 1796 00ae FFF7FEFF 		bl	TFT_send
 230:source\bsw\tft/tft.c **** 	CFG_TFT_DELAY_MS(120);              //Delay 120ms
 1797              		.loc 1 230 0
 1798 00b2 7820     		movs	r0, #120
 1799 00b4 FFF7FEFF 		bl	CyDelay
 231:source\bsw\tft/tft.c ****     
 232:source\bsw\tft/tft.c ****     //send init commands
 233:source\bsw\tft/tft.c ****     uint8_t* addr=(uint8_t*)SST35S_init_seq;    
 1800              		.loc 1 233 0
 1801 00b8 2A4B     		ldr	r3, .L22+60
 1802 00ba 7B60     		str	r3, [r7, #4]
 234:source\bsw\tft/tft.c ****     uint8_t  numCommands, numArgs;
 235:source\bsw\tft/tft.c ****     numCommands = *(addr++);        // Number of commands to follow
 1803              		.loc 1 235 0
 1804 00bc 7B68     		ldr	r3, [r7, #4]
 1805 00be 5A1C     		adds	r2, r3, #1
ARM GAS  C:\Users\schmi\AppData\Local\Temp\ccA9az4I.s 			page 37


 1806 00c0 7A60     		str	r2, [r7, #4]
 1807 00c2 1B78     		ldrb	r3, [r3]
 1808 00c4 FB70     		strb	r3, [r7, #3]
 236:source\bsw\tft/tft.c ****     while(numCommands--) {          // For each command...
 1809              		.loc 1 236 0
 1810 00c6 1AE0     		b	.L18
 1811              	.L21:
 237:source\bsw\tft/tft.c ****         TFT_write_cmd(*(addr++));    // Read, issue command
 1812              		.loc 1 237 0
 1813 00c8 7B68     		ldr	r3, [r7, #4]
 1814 00ca 5A1C     		adds	r2, r3, #1
 1815 00cc 7A60     		str	r2, [r7, #4]
 1816 00ce 1B78     		ldrb	r3, [r3]	@ zero_extendqisi2
 1817 00d0 1946     		mov	r1, r3
 1818 00d2 0020     		movs	r0, #0
 1819 00d4 FFF7FEFF 		bl	TFT_send
 238:source\bsw\tft/tft.c ****         numArgs  = *(addr++);       // Number of args to follow
 1820              		.loc 1 238 0
 1821 00d8 7B68     		ldr	r3, [r7, #4]
 1822 00da 5A1C     		adds	r2, r3, #1
 1823 00dc 7A60     		str	r2, [r7, #4]
 1824 00de 1B78     		ldrb	r3, [r3]
 1825 00e0 BB70     		strb	r3, [r7, #2]
 239:source\bsw\tft/tft.c ****         while(numArgs--) {          // For each argument...
 1826              		.loc 1 239 0
 1827 00e2 07E0     		b	.L19
 1828              	.L20:
 240:source\bsw\tft/tft.c ****           TFT_write_data(*(addr++));     // Read, issue argument
 1829              		.loc 1 240 0
 1830 00e4 7B68     		ldr	r3, [r7, #4]
 1831 00e6 5A1C     		adds	r2, r3, #1
 1832 00e8 7A60     		str	r2, [r7, #4]
 1833 00ea 1B78     		ldrb	r3, [r3]	@ zero_extendqisi2
 1834 00ec 1946     		mov	r1, r3
 1835 00ee 0120     		movs	r0, #1
 1836 00f0 FFF7FEFF 		bl	TFT_send
 1837              	.L19:
 239:source\bsw\tft/tft.c ****         while(numArgs--) {          // For each argument...
 1838              		.loc 1 239 0
 1839 00f4 BB78     		ldrb	r3, [r7, #2]	@ zero_extendqisi2
 1840 00f6 5A1E     		subs	r2, r3, #1
 1841 00f8 BA70     		strb	r2, [r7, #2]
 1842 00fa 002B     		cmp	r3, #0
 1843 00fc F2D1     		bne	.L20
 1844              	.L18:
 236:source\bsw\tft/tft.c ****         TFT_write_cmd(*(addr++));    // Read, issue command
 1845              		.loc 1 236 0
 1846 00fe FB78     		ldrb	r3, [r7, #3]	@ zero_extendqisi2
 1847 0100 5A1E     		subs	r2, r3, #1
 1848 0102 FA70     		strb	r2, [r7, #3]
 1849 0104 002B     		cmp	r3, #0
 1850 0106 DFD1     		bne	.L21
 241:source\bsw\tft/tft.c ****         }
 242:source\bsw\tft/tft.c ****     }
 243:source\bsw\tft/tft.c ****     
 244:source\bsw\tft/tft.c ****     //set roation
 245:source\bsw\tft/tft.c ****     TFT_setRotation(CFG_TFT_ORIENTATION);
ARM GAS  C:\Users\schmi\AppData\Local\Temp\ccA9az4I.s 			page 38


 1851              		.loc 1 245 0
 1852 0108 0220     		movs	r0, #2
 1853 010a FFF7FEFF 		bl	TFT_setRotation
 246:source\bsw\tft/tft.c ****     
 247:source\bsw\tft/tft.c ****     //init RAM
 248:source\bsw\tft/tft.c ****     TFT_fillScreen(BLACK);
 1854              		.loc 1 248 0
 1855 010e 0020     		movs	r0, #0
 1856 0110 FFF7FEFF 		bl	TFT_fillScreen
 249:source\bsw\tft/tft.c ****     
 250:source\bsw\tft/tft.c ****     //activate backlight
 251:source\bsw\tft/tft.c ****     MODULE_PWM(Start)();
 1857              		.loc 1 251 0
 1858 0114 FFF7FEFF 		bl	TFT_BackLight_Start
 252:source\bsw\tft/tft.c ****     MODULE_PWM(WriteCompare)(CFG_TFT_BACKLIGHT);
 1859              		.loc 1 252 0
 1860 0118 6420     		movs	r0, #100
 1861 011a FFF7FEFF 		bl	TFT_BackLight_WriteCompare
 253:source\bsw\tft/tft.c **** }
 1862              		.loc 1 253 0
 1863 011e 00BF     		nop
 1864 0120 0837     		adds	r7, r7, #8
 1865              		.cfi_def_cfa_offset 8
 1866 0122 BD46     		mov	sp, r7
 1867              		.cfi_def_cfa_register 13
 1868              		@ sp needed
 1869 0124 80BD     		pop	{r7, pc}
 1870              	.L23:
 1871 0126 00BF     		.align	2
 1872              	.L22:
 1873 0128 06000000 		.word	_width
 1874 012c 08000000 		.word	_height
 1875 0130 05000000 		.word	rotation
 1876 0134 0A000000 		.word	cursor_x
 1877 0138 0C000000 		.word	cursor_y
 1878 013c 04000000 		.word	textsize
 1879 0140 0E000000 		.word	color
 1880 0144 10000000 		.word	bgcolor
 1881 0148 12000000 		.word	wrap
 1882 014c 14000000 		.word	gfxFont
 1883 0150 01000000 		.word	rowstart
 1884 0154 00000000 		.word	colstart
 1885 0158 02000000 		.word	xstart
 1886 015c 03000000 		.word	ystart
 1887 0160 18000000 		.word	TFT_RB_out
 1888 0164 00000000 		.word	SST35S_init_seq
 1889              		.cfi_endproc
 1890              	.LFE118:
 1891              		.size	TFT_init, .-TFT_init
 1892              		.section	.text.TFT_setBacklight,"ax",%progbits
 1893              		.align	2
 1894              		.global	TFT_setBacklight
 1895              		.thumb
 1896              		.thumb_func
 1897              		.type	TFT_setBacklight, %function
 1898              	TFT_setBacklight:
 1899              	.LFB119:
ARM GAS  C:\Users\schmi\AppData\Local\Temp\ccA9az4I.s 			page 39


 254:source\bsw\tft/tft.c **** 
 255:source\bsw\tft/tft.c **** void TFT_setBacklight(uint8_t b){
 1900              		.loc 1 255 0
 1901              		.cfi_startproc
 1902              		@ args = 0, pretend = 0, frame = 8
 1903              		@ frame_needed = 1, uses_anonymous_args = 0
 1904 0000 80B5     		push	{r7, lr}
 1905              		.cfi_def_cfa_offset 8
 1906              		.cfi_offset 7, -8
 1907              		.cfi_offset 14, -4
 1908 0002 82B0     		sub	sp, sp, #8
 1909              		.cfi_def_cfa_offset 16
 1910 0004 00AF     		add	r7, sp, #0
 1911              		.cfi_def_cfa_register 7
 1912 0006 0346     		mov	r3, r0
 1913 0008 FB71     		strb	r3, [r7, #7]
 256:source\bsw\tft/tft.c ****     if(b>100)
 1914              		.loc 1 256 0
 1915 000a FB79     		ldrb	r3, [r7, #7]	@ zero_extendqisi2
 1916 000c 642B     		cmp	r3, #100
 1917 000e 01D9     		bls	.L25
 257:source\bsw\tft/tft.c ****         b=100;
 1918              		.loc 1 257 0
 1919 0010 6423     		movs	r3, #100
 1920 0012 FB71     		strb	r3, [r7, #7]
 1921              	.L25:
 258:source\bsw\tft/tft.c ****     MODULE_PWM(WriteCompare)(b);
 1922              		.loc 1 258 0
 1923 0014 FB79     		ldrb	r3, [r7, #7]	@ zero_extendqisi2
 1924 0016 1846     		mov	r0, r3
 1925 0018 FFF7FEFF 		bl	TFT_BackLight_WriteCompare
 259:source\bsw\tft/tft.c **** }
 1926              		.loc 1 259 0
 1927 001c 00BF     		nop
 1928 001e 0837     		adds	r7, r7, #8
 1929              		.cfi_def_cfa_offset 8
 1930 0020 BD46     		mov	sp, r7
 1931              		.cfi_def_cfa_register 13
 1932              		@ sp needed
 1933 0022 80BD     		pop	{r7, pc}
 1934              		.cfi_endproc
 1935              	.LFE119:
 1936              		.size	TFT_setBacklight, .-TFT_setBacklight
 1937              		.section	.text.TFT_getBacklight,"ax",%progbits
 1938              		.align	2
 1939              		.global	TFT_getBacklight
 1940              		.thumb
 1941              		.thumb_func
 1942              		.type	TFT_getBacklight, %function
 1943              	TFT_getBacklight:
 1944              	.LFB120:
 260:source\bsw\tft/tft.c **** 
 261:source\bsw\tft/tft.c **** uint8_t TFT_getBacklight(){
 1945              		.loc 1 261 0
 1946              		.cfi_startproc
 1947              		@ args = 0, pretend = 0, frame = 0
 1948              		@ frame_needed = 1, uses_anonymous_args = 0
ARM GAS  C:\Users\schmi\AppData\Local\Temp\ccA9az4I.s 			page 40


 1949 0000 80B5     		push	{r7, lr}
 1950              		.cfi_def_cfa_offset 8
 1951              		.cfi_offset 7, -8
 1952              		.cfi_offset 14, -4
 1953 0002 00AF     		add	r7, sp, #0
 1954              		.cfi_def_cfa_register 7
 262:source\bsw\tft/tft.c ****     return MODULE_PWM(ReadCompare)();
 1955              		.loc 1 262 0
 1956 0004 FFF7FEFF 		bl	TFT_BackLight_ReadCompare
 1957 0008 0346     		mov	r3, r0
 263:source\bsw\tft/tft.c **** };
 1958              		.loc 1 263 0
 1959 000a 1846     		mov	r0, r3
 1960 000c 80BD     		pop	{r7, pc}
 1961              		.cfi_endproc
 1962              	.LFE120:
 1963              		.size	TFT_getBacklight, .-TFT_getBacklight
 1964 000e 00BF     		.section	.text.setAddrWindow,"ax",%progbits
 1965              		.align	2
 1966              		.thumb
 1967              		.thumb_func
 1968              		.type	setAddrWindow, %function
 1969              	setAddrWindow:
 1970              	.LFB121:
 264:source\bsw\tft/tft.c **** 
 265:source\bsw\tft/tft.c **** void setAddrWindow(uint8_t x0, uint8_t y0, uint8_t x1, uint8_t y1) {
 1971              		.loc 1 265 0
 1972              		.cfi_startproc
 1973              		@ args = 0, pretend = 0, frame = 8
 1974              		@ frame_needed = 1, uses_anonymous_args = 0
 1975 0000 90B5     		push	{r4, r7, lr}
 1976              		.cfi_def_cfa_offset 12
 1977              		.cfi_offset 4, -12
 1978              		.cfi_offset 7, -8
 1979              		.cfi_offset 14, -4
 1980 0002 83B0     		sub	sp, sp, #12
 1981              		.cfi_def_cfa_offset 24
 1982 0004 00AF     		add	r7, sp, #0
 1983              		.cfi_def_cfa_register 7
 1984 0006 0446     		mov	r4, r0
 1985 0008 0846     		mov	r0, r1
 1986 000a 1146     		mov	r1, r2
 1987 000c 1A46     		mov	r2, r3
 1988 000e 2346     		mov	r3, r4
 1989 0010 FB71     		strb	r3, [r7, #7]
 1990 0012 0346     		mov	r3, r0
 1991 0014 BB71     		strb	r3, [r7, #6]
 1992 0016 0B46     		mov	r3, r1
 1993 0018 7B71     		strb	r3, [r7, #5]
 1994 001a 1346     		mov	r3, r2
 1995 001c 3B71     		strb	r3, [r7, #4]
 266:source\bsw\tft/tft.c **** 
 267:source\bsw\tft/tft.c ****     TFT_write_cmd(ST7735_CASET);   // Column addr set
 1996              		.loc 1 267 0
 1997 001e 2A21     		movs	r1, #42
 1998 0020 0020     		movs	r0, #0
 1999 0022 FFF7FEFF 		bl	TFT_send
ARM GAS  C:\Users\schmi\AppData\Local\Temp\ccA9az4I.s 			page 41


 268:source\bsw\tft/tft.c ****     TFT_write_data(0x00);
 2000              		.loc 1 268 0
 2001 0026 0021     		movs	r1, #0
 2002 0028 0120     		movs	r0, #1
 2003 002a FFF7FEFF 		bl	TFT_send
 269:source\bsw\tft/tft.c ****     TFT_write_data(x0+xstart);         // XSTART 
 2004              		.loc 1 269 0
 2005 002e 1E4B     		ldr	r3, .L29
 2006 0030 1A78     		ldrb	r2, [r3]	@ zero_extendqisi2
 2007 0032 FB79     		ldrb	r3, [r7, #7]
 2008 0034 1344     		add	r3, r3, r2
 2009 0036 DBB2     		uxtb	r3, r3
 2010 0038 1946     		mov	r1, r3
 2011 003a 0120     		movs	r0, #1
 2012 003c FFF7FEFF 		bl	TFT_send
 270:source\bsw\tft/tft.c ****     TFT_write_data(0x00);
 2013              		.loc 1 270 0
 2014 0040 0021     		movs	r1, #0
 2015 0042 0120     		movs	r0, #1
 2016 0044 FFF7FEFF 		bl	TFT_send
 271:source\bsw\tft/tft.c ****     TFT_write_data(x1+xstart);         // XEND
 2017              		.loc 1 271 0
 2018 0048 174B     		ldr	r3, .L29
 2019 004a 1A78     		ldrb	r2, [r3]	@ zero_extendqisi2
 2020 004c 7B79     		ldrb	r3, [r7, #5]
 2021 004e 1344     		add	r3, r3, r2
 2022 0050 DBB2     		uxtb	r3, r3
 2023 0052 1946     		mov	r1, r3
 2024 0054 0120     		movs	r0, #1
 2025 0056 FFF7FEFF 		bl	TFT_send
 272:source\bsw\tft/tft.c **** 
 273:source\bsw\tft/tft.c ****     TFT_write_cmd(ST7735_RASET);   // Row addr set
 2026              		.loc 1 273 0
 2027 005a 2B21     		movs	r1, #43
 2028 005c 0020     		movs	r0, #0
 2029 005e FFF7FEFF 		bl	TFT_send
 274:source\bsw\tft/tft.c ****     TFT_write_data(0x00);
 2030              		.loc 1 274 0
 2031 0062 0021     		movs	r1, #0
 2032 0064 0120     		movs	r0, #1
 2033 0066 FFF7FEFF 		bl	TFT_send
 275:source\bsw\tft/tft.c ****     TFT_write_data(y0+ystart);         // YSTART
 2034              		.loc 1 275 0
 2035 006a 104B     		ldr	r3, .L29+4
 2036 006c 1A78     		ldrb	r2, [r3]	@ zero_extendqisi2
 2037 006e BB79     		ldrb	r3, [r7, #6]
 2038 0070 1344     		add	r3, r3, r2
 2039 0072 DBB2     		uxtb	r3, r3
 2040 0074 1946     		mov	r1, r3
 2041 0076 0120     		movs	r0, #1
 2042 0078 FFF7FEFF 		bl	TFT_send
 276:source\bsw\tft/tft.c ****     TFT_write_data(0x00);
 2043              		.loc 1 276 0
 2044 007c 0021     		movs	r1, #0
 2045 007e 0120     		movs	r0, #1
 2046 0080 FFF7FEFF 		bl	TFT_send
 277:source\bsw\tft/tft.c ****     TFT_write_data(y1+ystart);         // YEND
ARM GAS  C:\Users\schmi\AppData\Local\Temp\ccA9az4I.s 			page 42


 2047              		.loc 1 277 0
 2048 0084 094B     		ldr	r3, .L29+4
 2049 0086 1A78     		ldrb	r2, [r3]	@ zero_extendqisi2
 2050 0088 3B79     		ldrb	r3, [r7, #4]
 2051 008a 1344     		add	r3, r3, r2
 2052 008c DBB2     		uxtb	r3, r3
 2053 008e 1946     		mov	r1, r3
 2054 0090 0120     		movs	r0, #1
 2055 0092 FFF7FEFF 		bl	TFT_send
 278:source\bsw\tft/tft.c **** 
 279:source\bsw\tft/tft.c ****     TFT_write_cmd(ST7735_RAMWR);   // write to RAM
 2056              		.loc 1 279 0
 2057 0096 2C21     		movs	r1, #44
 2058 0098 0020     		movs	r0, #0
 2059 009a FFF7FEFF 		bl	TFT_send
 280:source\bsw\tft/tft.c **** }
 2060              		.loc 1 280 0
 2061 009e 00BF     		nop
 2062 00a0 0C37     		adds	r7, r7, #12
 2063              		.cfi_def_cfa_offset 12
 2064 00a2 BD46     		mov	sp, r7
 2065              		.cfi_def_cfa_register 13
 2066              		@ sp needed
 2067 00a4 90BD     		pop	{r4, r7, pc}
 2068              	.L30:
 2069 00a6 00BF     		.align	2
 2070              	.L29:
 2071 00a8 02000000 		.word	xstart
 2072 00ac 03000000 		.word	ystart
 2073              		.cfi_endproc
 2074              	.LFE121:
 2075              		.size	setAddrWindow, .-setAddrWindow
 2076              		.section	.text.TFT_setRotation,"ax",%progbits
 2077              		.align	2
 2078              		.global	TFT_setRotation
 2079              		.thumb
 2080              		.thumb_func
 2081              		.type	TFT_setRotation, %function
 2082              	TFT_setRotation:
 2083              	.LFB122:
 281:source\bsw\tft/tft.c **** 
 282:source\bsw\tft/tft.c **** void TFT_setRotation(TFT_rotation_t m) {
 2084              		.loc 1 282 0
 2085              		.cfi_startproc
 2086              		@ args = 0, pretend = 0, frame = 8
 2087              		@ frame_needed = 1, uses_anonymous_args = 0
 2088 0000 80B5     		push	{r7, lr}
 2089              		.cfi_def_cfa_offset 8
 2090              		.cfi_offset 7, -8
 2091              		.cfi_offset 14, -4
 2092 0002 82B0     		sub	sp, sp, #8
 2093              		.cfi_def_cfa_offset 16
 2094 0004 00AF     		add	r7, sp, #0
 2095              		.cfi_def_cfa_register 7
 2096 0006 0346     		mov	r3, r0
 2097 0008 FB71     		strb	r3, [r7, #7]
 283:source\bsw\tft/tft.c **** 
ARM GAS  C:\Users\schmi\AppData\Local\Temp\ccA9az4I.s 			page 43


 284:source\bsw\tft/tft.c ****     //Memory data access control entry
 285:source\bsw\tft/tft.c ****     TFT_write_cmd(ST7735_MADCTL);
 2098              		.loc 1 285 0
 2099 000a 3621     		movs	r1, #54
 2100 000c 0020     		movs	r0, #0
 2101 000e FFF7FEFF 		bl	TFT_send
 286:source\bsw\tft/tft.c ****     rotation = m % 4; // can't be higher than 3
 2102              		.loc 1 286 0
 2103 0012 FB79     		ldrb	r3, [r7, #7]
 2104 0014 03F00303 		and	r3, r3, #3
 2105 0018 DAB2     		uxtb	r2, r3
 2106 001a 304B     		ldr	r3, .L39
 2107 001c 1A70     		strb	r2, [r3]
 287:source\bsw\tft/tft.c ****     switch (rotation) {
 2108              		.loc 1 287 0
 2109 001e 2F4B     		ldr	r3, .L39
 2110 0020 1B78     		ldrb	r3, [r3]	@ zero_extendqisi2
 2111 0022 032B     		cmp	r3, #3
 2112 0024 56D8     		bhi	.L38
 2113 0026 01A2     		adr	r2, .L34
 2114 0028 52F823F0 		ldr	pc, [r2, r3, lsl #2]
 2115              		.p2align 2
 2116              	.L34:
 2117 002c 3D000000 		.word	.L33+1
 2118 0030 63000000 		.word	.L35+1
 2119 0034 89000000 		.word	.L36+1
 2120 0038 AF000000 		.word	.L37+1
 2121              		.p2align 1
 2122              	.L33:
 288:source\bsw\tft/tft.c ****         case 0:
 289:source\bsw\tft/tft.c ****             TFT_write_data(ST7735_MADCTL_MX | ST7735_MADCTL_MY | ST7735_MADCTL_RGB);
 2123              		.loc 1 289 0
 2124 003c C221     		movs	r1, #194
 2125 003e 0120     		movs	r0, #1
 2126 0040 FFF7FEFF 		bl	TFT_send
 290:source\bsw\tft/tft.c ****             _height = CFG_TFT_HEIGHT;
 2127              		.loc 1 290 0
 2128 0044 264B     		ldr	r3, .L39+4
 2129 0046 A022     		movs	r2, #160
 2130 0048 1A80     		strh	r2, [r3]	@ movhi
 291:source\bsw\tft/tft.c ****             _width  = CFG_TFT_WIDTH;
 2131              		.loc 1 291 0
 2132 004a 264B     		ldr	r3, .L39+8
 2133 004c 8022     		movs	r2, #128
 2134 004e 1A80     		strh	r2, [r3]	@ movhi
 292:source\bsw\tft/tft.c ****             xstart = colstart;
 2135              		.loc 1 292 0
 2136 0050 254B     		ldr	r3, .L39+12
 2137 0052 1A78     		ldrb	r2, [r3]	@ zero_extendqisi2
 2138 0054 254B     		ldr	r3, .L39+16
 2139 0056 1A70     		strb	r2, [r3]
 293:source\bsw\tft/tft.c ****             ystart = rowstart;
 2140              		.loc 1 293 0
 2141 0058 254B     		ldr	r3, .L39+20
 2142 005a 1A78     		ldrb	r2, [r3]	@ zero_extendqisi2
 2143 005c 254B     		ldr	r3, .L39+24
 2144 005e 1A70     		strb	r2, [r3]
ARM GAS  C:\Users\schmi\AppData\Local\Temp\ccA9az4I.s 			page 44


 294:source\bsw\tft/tft.c ****             break;
 2145              		.loc 1 294 0
 2146 0060 38E0     		b	.L32
 2147              	.L35:
 295:source\bsw\tft/tft.c ****         case 1:
 296:source\bsw\tft/tft.c ****             TFT_write_data(ST7735_MADCTL_MY | ST7735_MADCTL_MV | ST7735_MADCTL_RGB);
 2148              		.loc 1 296 0
 2149 0062 A221     		movs	r1, #162
 2150 0064 0120     		movs	r0, #1
 2151 0066 FFF7FEFF 		bl	TFT_send
 297:source\bsw\tft/tft.c ****             _width = CFG_TFT_HEIGHT;
 2152              		.loc 1 297 0
 2153 006a 1E4B     		ldr	r3, .L39+8
 2154 006c A022     		movs	r2, #160
 2155 006e 1A80     		strh	r2, [r3]	@ movhi
 298:source\bsw\tft/tft.c ****             _height = CFG_TFT_WIDTH;
 2156              		.loc 1 298 0
 2157 0070 1B4B     		ldr	r3, .L39+4
 2158 0072 8022     		movs	r2, #128
 2159 0074 1A80     		strh	r2, [r3]	@ movhi
 299:source\bsw\tft/tft.c ****             ystart = colstart;
 2160              		.loc 1 299 0
 2161 0076 1C4B     		ldr	r3, .L39+12
 2162 0078 1A78     		ldrb	r2, [r3]	@ zero_extendqisi2
 2163 007a 1E4B     		ldr	r3, .L39+24
 2164 007c 1A70     		strb	r2, [r3]
 300:source\bsw\tft/tft.c ****             xstart = rowstart;
 2165              		.loc 1 300 0
 2166 007e 1C4B     		ldr	r3, .L39+20
 2167 0080 1A78     		ldrb	r2, [r3]	@ zero_extendqisi2
 2168 0082 1A4B     		ldr	r3, .L39+16
 2169 0084 1A70     		strb	r2, [r3]
 301:source\bsw\tft/tft.c ****             break;
 2170              		.loc 1 301 0
 2171 0086 25E0     		b	.L32
 2172              	.L36:
 302:source\bsw\tft/tft.c ****         case 2:
 303:source\bsw\tft/tft.c ****             TFT_write_data(ST7735_MADCTL_BGR);
 2173              		.loc 1 303 0
 2174 0088 0821     		movs	r1, #8
 2175 008a 0120     		movs	r0, #1
 2176 008c FFF7FEFF 		bl	TFT_send
 304:source\bsw\tft/tft.c ****             _height = CFG_TFT_HEIGHT;
 2177              		.loc 1 304 0
 2178 0090 134B     		ldr	r3, .L39+4
 2179 0092 A022     		movs	r2, #160
 2180 0094 1A80     		strh	r2, [r3]	@ movhi
 305:source\bsw\tft/tft.c ****             _width  = CFG_TFT_WIDTH;
 2181              		.loc 1 305 0
 2182 0096 134B     		ldr	r3, .L39+8
 2183 0098 8022     		movs	r2, #128
 2184 009a 1A80     		strh	r2, [r3]	@ movhi
 306:source\bsw\tft/tft.c ****             xstart = colstart;
 2185              		.loc 1 306 0
 2186 009c 124B     		ldr	r3, .L39+12
 2187 009e 1A78     		ldrb	r2, [r3]	@ zero_extendqisi2
 2188 00a0 124B     		ldr	r3, .L39+16
ARM GAS  C:\Users\schmi\AppData\Local\Temp\ccA9az4I.s 			page 45


 2189 00a2 1A70     		strb	r2, [r3]
 307:source\bsw\tft/tft.c ****             ystart = rowstart;
 2190              		.loc 1 307 0
 2191 00a4 124B     		ldr	r3, .L39+20
 2192 00a6 1A78     		ldrb	r2, [r3]	@ zero_extendqisi2
 2193 00a8 124B     		ldr	r3, .L39+24
 2194 00aa 1A70     		strb	r2, [r3]
 308:source\bsw\tft/tft.c ****             break;
 2195              		.loc 1 308 0
 2196 00ac 12E0     		b	.L32
 2197              	.L37:
 309:source\bsw\tft/tft.c ****         case 3:
 310:source\bsw\tft/tft.c ****             TFT_write_data(ST7735_MADCTL_MX | ST7735_MADCTL_MV | ST7735_MADCTL_RGB);
 2198              		.loc 1 310 0
 2199 00ae 6221     		movs	r1, #98
 2200 00b0 0120     		movs	r0, #1
 2201 00b2 FFF7FEFF 		bl	TFT_send
 311:source\bsw\tft/tft.c ****             _width = CFG_TFT_HEIGHT;
 2202              		.loc 1 311 0
 2203 00b6 0B4B     		ldr	r3, .L39+8
 2204 00b8 A022     		movs	r2, #160
 2205 00ba 1A80     		strh	r2, [r3]	@ movhi
 312:source\bsw\tft/tft.c ****             _height = CFG_TFT_WIDTH;
 2206              		.loc 1 312 0
 2207 00bc 084B     		ldr	r3, .L39+4
 2208 00be 8022     		movs	r2, #128
 2209 00c0 1A80     		strh	r2, [r3]	@ movhi
 313:source\bsw\tft/tft.c ****             ystart = colstart;
 2210              		.loc 1 313 0
 2211 00c2 094B     		ldr	r3, .L39+12
 2212 00c4 1A78     		ldrb	r2, [r3]	@ zero_extendqisi2
 2213 00c6 0B4B     		ldr	r3, .L39+24
 2214 00c8 1A70     		strb	r2, [r3]
 314:source\bsw\tft/tft.c ****             xstart = rowstart;
 2215              		.loc 1 314 0
 2216 00ca 094B     		ldr	r3, .L39+20
 2217 00cc 1A78     		ldrb	r2, [r3]	@ zero_extendqisi2
 2218 00ce 074B     		ldr	r3, .L39+16
 2219 00d0 1A70     		strb	r2, [r3]
 315:source\bsw\tft/tft.c ****             break;
 2220              		.loc 1 315 0
 2221 00d2 00BF     		nop
 2222              	.L32:
 2223              	.L38:
 316:source\bsw\tft/tft.c ****     }
 317:source\bsw\tft/tft.c **** }
 2224              		.loc 1 317 0
 2225 00d4 00BF     		nop
 2226 00d6 0837     		adds	r7, r7, #8
 2227              		.cfi_def_cfa_offset 8
 2228 00d8 BD46     		mov	sp, r7
 2229              		.cfi_def_cfa_register 13
 2230              		@ sp needed
 2231 00da 80BD     		pop	{r7, pc}
 2232              	.L40:
 2233              		.align	2
 2234              	.L39:
ARM GAS  C:\Users\schmi\AppData\Local\Temp\ccA9az4I.s 			page 46


 2235 00dc 05000000 		.word	rotation
 2236 00e0 08000000 		.word	_height
 2237 00e4 06000000 		.word	_width
 2238 00e8 00000000 		.word	colstart
 2239 00ec 02000000 		.word	xstart
 2240 00f0 01000000 		.word	rowstart
 2241 00f4 03000000 		.word	ystart
 2242              		.cfi_endproc
 2243              	.LFE122:
 2244              		.size	TFT_setRotation, .-TFT_setRotation
 2245              		.section	.text.TFT_setCursor,"ax",%progbits
 2246              		.align	2
 2247              		.global	TFT_setCursor
 2248              		.thumb
 2249              		.thumb_func
 2250              		.type	TFT_setCursor, %function
 2251              	TFT_setCursor:
 2252              	.LFB123:
 318:source\bsw\tft/tft.c **** 
 319:source\bsw\tft/tft.c **** //----------------- USR CTRL
 320:source\bsw\tft/tft.c **** 
 321:source\bsw\tft/tft.c **** void TFT_setCursor(int16_t x, int16_t y) {
 2253              		.loc 1 321 0
 2254              		.cfi_startproc
 2255              		@ args = 0, pretend = 0, frame = 8
 2256              		@ frame_needed = 1, uses_anonymous_args = 0
 2257              		@ link register save eliminated.
 2258 0000 80B4     		push	{r7}
 2259              		.cfi_def_cfa_offset 4
 2260              		.cfi_offset 7, -4
 2261 0002 83B0     		sub	sp, sp, #12
 2262              		.cfi_def_cfa_offset 16
 2263 0004 00AF     		add	r7, sp, #0
 2264              		.cfi_def_cfa_register 7
 2265 0006 0346     		mov	r3, r0
 2266 0008 0A46     		mov	r2, r1
 2267 000a FB80     		strh	r3, [r7, #6]	@ movhi
 2268 000c 1346     		mov	r3, r2	@ movhi
 2269 000e BB80     		strh	r3, [r7, #4]	@ movhi
 322:source\bsw\tft/tft.c ****     cursor_x = x;
 2270              		.loc 1 322 0
 2271 0010 FA88     		ldrh	r2, [r7, #6]
 2272 0012 054B     		ldr	r3, .L42
 2273 0014 1A80     		strh	r2, [r3]	@ movhi
 323:source\bsw\tft/tft.c ****     cursor_y = y;
 2274              		.loc 1 323 0
 2275 0016 BA88     		ldrh	r2, [r7, #4]
 2276 0018 044B     		ldr	r3, .L42+4
 2277 001a 1A80     		strh	r2, [r3]	@ movhi
 324:source\bsw\tft/tft.c **** }
 2278              		.loc 1 324 0
 2279 001c 00BF     		nop
 2280 001e 0C37     		adds	r7, r7, #12
 2281              		.cfi_def_cfa_offset 4
 2282 0020 BD46     		mov	sp, r7
 2283              		.cfi_def_cfa_register 13
 2284              		@ sp needed
ARM GAS  C:\Users\schmi\AppData\Local\Temp\ccA9az4I.s 			page 47


 2285 0022 80BC     		pop	{r7}
 2286              		.cfi_restore 7
 2287              		.cfi_def_cfa_offset 0
 2288 0024 7047     		bx	lr
 2289              	.L43:
 2290 0026 00BF     		.align	2
 2291              	.L42:
 2292 0028 0A000000 		.word	cursor_x
 2293 002c 0C000000 		.word	cursor_y
 2294              		.cfi_endproc
 2295              	.LFE123:
 2296              		.size	TFT_setCursor, .-TFT_setCursor
 2297              		.section	.text.TFT_setTextColor,"ax",%progbits
 2298              		.align	2
 2299              		.global	TFT_setTextColor
 2300              		.thumb
 2301              		.thumb_func
 2302              		.type	TFT_setTextColor, %function
 2303              	TFT_setTextColor:
 2304              	.LFB124:
 325:source\bsw\tft/tft.c **** 
 326:source\bsw\tft/tft.c **** void TFT_setTextColor(uint16_t c){
 2305              		.loc 1 326 0
 2306              		.cfi_startproc
 2307              		@ args = 0, pretend = 0, frame = 8
 2308              		@ frame_needed = 1, uses_anonymous_args = 0
 2309              		@ link register save eliminated.
 2310 0000 80B4     		push	{r7}
 2311              		.cfi_def_cfa_offset 4
 2312              		.cfi_offset 7, -4
 2313 0002 83B0     		sub	sp, sp, #12
 2314              		.cfi_def_cfa_offset 16
 2315 0004 00AF     		add	r7, sp, #0
 2316              		.cfi_def_cfa_register 7
 2317 0006 0346     		mov	r3, r0
 2318 0008 FB80     		strh	r3, [r7, #6]	@ movhi
 327:source\bsw\tft/tft.c ****     color   = c;
 2319              		.loc 1 327 0
 2320 000a 044A     		ldr	r2, .L45
 2321 000c FB88     		ldrh	r3, [r7, #6]	@ movhi
 2322 000e 1380     		strh	r3, [r2]	@ movhi
 328:source\bsw\tft/tft.c **** }
 2323              		.loc 1 328 0
 2324 0010 00BF     		nop
 2325 0012 0C37     		adds	r7, r7, #12
 2326              		.cfi_def_cfa_offset 4
 2327 0014 BD46     		mov	sp, r7
 2328              		.cfi_def_cfa_register 13
 2329              		@ sp needed
 2330 0016 80BC     		pop	{r7}
 2331              		.cfi_restore 7
 2332              		.cfi_def_cfa_offset 0
 2333 0018 7047     		bx	lr
 2334              	.L46:
 2335 001a 00BF     		.align	2
 2336              	.L45:
 2337 001c 0E000000 		.word	color
ARM GAS  C:\Users\schmi\AppData\Local\Temp\ccA9az4I.s 			page 48


 2338              		.cfi_endproc
 2339              	.LFE124:
 2340              		.size	TFT_setTextColor, .-TFT_setTextColor
 2341              		.section	.text.TFT_setcolor,"ax",%progbits
 2342              		.align	2
 2343              		.global	TFT_setcolor
 2344              		.thumb
 2345              		.thumb_func
 2346              		.type	TFT_setcolor, %function
 2347              	TFT_setcolor:
 2348              	.LFB125:
 329:source\bsw\tft/tft.c **** 
 330:source\bsw\tft/tft.c **** void TFT_setcolor(uint16_t c) {
 2349              		.loc 1 330 0
 2350              		.cfi_startproc
 2351              		@ args = 0, pretend = 0, frame = 8
 2352              		@ frame_needed = 1, uses_anonymous_args = 0
 2353              		@ link register save eliminated.
 2354 0000 80B4     		push	{r7}
 2355              		.cfi_def_cfa_offset 4
 2356              		.cfi_offset 7, -4
 2357 0002 83B0     		sub	sp, sp, #12
 2358              		.cfi_def_cfa_offset 16
 2359 0004 00AF     		add	r7, sp, #0
 2360              		.cfi_def_cfa_register 7
 2361 0006 0346     		mov	r3, r0
 2362 0008 FB80     		strh	r3, [r7, #6]	@ movhi
 331:source\bsw\tft/tft.c ****     // For 'transparent' background, we'll set the bg
 332:source\bsw\tft/tft.c ****     // to the same as fg instead of using a flag
 333:source\bsw\tft/tft.c ****     color = bgcolor = c;
 2363              		.loc 1 333 0
 2364 000a 064A     		ldr	r2, .L48
 2365 000c FB88     		ldrh	r3, [r7, #6]	@ movhi
 2366 000e 1380     		strh	r3, [r2]	@ movhi
 2367 0010 044B     		ldr	r3, .L48
 2368 0012 1A88     		ldrh	r2, [r3]
 2369 0014 044B     		ldr	r3, .L48+4
 2370 0016 1A80     		strh	r2, [r3]	@ movhi
 334:source\bsw\tft/tft.c **** }
 2371              		.loc 1 334 0
 2372 0018 00BF     		nop
 2373 001a 0C37     		adds	r7, r7, #12
 2374              		.cfi_def_cfa_offset 4
 2375 001c BD46     		mov	sp, r7
 2376              		.cfi_def_cfa_register 13
 2377              		@ sp needed
 2378 001e 80BC     		pop	{r7}
 2379              		.cfi_restore 7
 2380              		.cfi_def_cfa_offset 0
 2381 0020 7047     		bx	lr
 2382              	.L49:
 2383 0022 00BF     		.align	2
 2384              	.L48:
 2385 0024 10000000 		.word	bgcolor
 2386 0028 0E000000 		.word	color
 2387              		.cfi_endproc
 2388              	.LFE125:
ARM GAS  C:\Users\schmi\AppData\Local\Temp\ccA9az4I.s 			page 49


 2389              		.size	TFT_setcolor, .-TFT_setcolor
 2390              		.section	.text.TFT_setColors,"ax",%progbits
 2391              		.align	2
 2392              		.global	TFT_setColors
 2393              		.thumb
 2394              		.thumb_func
 2395              		.type	TFT_setColors, %function
 2396              	TFT_setColors:
 2397              	.LFB126:
 335:source\bsw\tft/tft.c **** 
 336:source\bsw\tft/tft.c **** void TFT_setColors(uint16_t c, uint16_t b) {
 2398              		.loc 1 336 0
 2399              		.cfi_startproc
 2400              		@ args = 0, pretend = 0, frame = 8
 2401              		@ frame_needed = 1, uses_anonymous_args = 0
 2402              		@ link register save eliminated.
 2403 0000 80B4     		push	{r7}
 2404              		.cfi_def_cfa_offset 4
 2405              		.cfi_offset 7, -4
 2406 0002 83B0     		sub	sp, sp, #12
 2407              		.cfi_def_cfa_offset 16
 2408 0004 00AF     		add	r7, sp, #0
 2409              		.cfi_def_cfa_register 7
 2410 0006 0346     		mov	r3, r0
 2411 0008 0A46     		mov	r2, r1
 2412 000a FB80     		strh	r3, [r7, #6]	@ movhi
 2413 000c 1346     		mov	r3, r2	@ movhi
 2414 000e BB80     		strh	r3, [r7, #4]	@ movhi
 337:source\bsw\tft/tft.c ****     color   = c;
 2415              		.loc 1 337 0
 2416 0010 054A     		ldr	r2, .L51
 2417 0012 FB88     		ldrh	r3, [r7, #6]	@ movhi
 2418 0014 1380     		strh	r3, [r2]	@ movhi
 338:source\bsw\tft/tft.c ****     bgcolor = b;
 2419              		.loc 1 338 0
 2420 0016 054A     		ldr	r2, .L51+4
 2421 0018 BB88     		ldrh	r3, [r7, #4]	@ movhi
 2422 001a 1380     		strh	r3, [r2]	@ movhi
 339:source\bsw\tft/tft.c **** }
 2423              		.loc 1 339 0
 2424 001c 00BF     		nop
 2425 001e 0C37     		adds	r7, r7, #12
 2426              		.cfi_def_cfa_offset 4
 2427 0020 BD46     		mov	sp, r7
 2428              		.cfi_def_cfa_register 13
 2429              		@ sp needed
 2430 0022 80BC     		pop	{r7}
 2431              		.cfi_restore 7
 2432              		.cfi_def_cfa_offset 0
 2433 0024 7047     		bx	lr
 2434              	.L52:
 2435 0026 00BF     		.align	2
 2436              	.L51:
 2437 0028 0E000000 		.word	color
 2438 002c 10000000 		.word	bgcolor
 2439              		.cfi_endproc
 2440              	.LFE126:
ARM GAS  C:\Users\schmi\AppData\Local\Temp\ccA9az4I.s 			page 50


 2441              		.size	TFT_setColors, .-TFT_setColors
 2442              		.section	.text.TFT_getFGcolor,"ax",%progbits
 2443              		.align	2
 2444              		.global	TFT_getFGcolor
 2445              		.thumb
 2446              		.thumb_func
 2447              		.type	TFT_getFGcolor, %function
 2448              	TFT_getFGcolor:
 2449              	.LFB127:
 340:source\bsw\tft/tft.c **** 
 341:source\bsw\tft/tft.c **** 
 342:source\bsw\tft/tft.c **** TFT_color_t TFT_getFGcolor(void){return color;};
 2450              		.loc 1 342 0
 2451              		.cfi_startproc
 2452              		@ args = 0, pretend = 0, frame = 0
 2453              		@ frame_needed = 1, uses_anonymous_args = 0
 2454              		@ link register save eliminated.
 2455 0000 80B4     		push	{r7}
 2456              		.cfi_def_cfa_offset 4
 2457              		.cfi_offset 7, -4
 2458 0002 00AF     		add	r7, sp, #0
 2459              		.cfi_def_cfa_register 7
 2460              		.loc 1 342 0
 2461 0004 024B     		ldr	r3, .L55
 2462 0006 1B88     		ldrh	r3, [r3]
 2463 0008 1846     		mov	r0, r3
 2464 000a BD46     		mov	sp, r7
 2465              		.cfi_def_cfa_register 13
 2466              		@ sp needed
 2467 000c 80BC     		pop	{r7}
 2468              		.cfi_restore 7
 2469              		.cfi_def_cfa_offset 0
 2470 000e 7047     		bx	lr
 2471              	.L56:
 2472              		.align	2
 2473              	.L55:
 2474 0010 0E000000 		.word	color
 2475              		.cfi_endproc
 2476              	.LFE127:
 2477              		.size	TFT_getFGcolor, .-TFT_getFGcolor
 2478              		.section	.text.TFT_getBGcolor,"ax",%progbits
 2479              		.align	2
 2480              		.global	TFT_getBGcolor
 2481              		.thumb
 2482              		.thumb_func
 2483              		.type	TFT_getBGcolor, %function
 2484              	TFT_getBGcolor:
 2485              	.LFB128:
 343:source\bsw\tft/tft.c **** 
 344:source\bsw\tft/tft.c **** TFT_color_t TFT_getBGcolor(void){return bgcolor;};
 2486              		.loc 1 344 0
 2487              		.cfi_startproc
 2488              		@ args = 0, pretend = 0, frame = 0
 2489              		@ frame_needed = 1, uses_anonymous_args = 0
 2490              		@ link register save eliminated.
 2491 0000 80B4     		push	{r7}
 2492              		.cfi_def_cfa_offset 4
ARM GAS  C:\Users\schmi\AppData\Local\Temp\ccA9az4I.s 			page 51


 2493              		.cfi_offset 7, -4
 2494 0002 00AF     		add	r7, sp, #0
 2495              		.cfi_def_cfa_register 7
 2496              		.loc 1 344 0
 2497 0004 024B     		ldr	r3, .L59
 2498 0006 1B88     		ldrh	r3, [r3]
 2499 0008 1846     		mov	r0, r3
 2500 000a BD46     		mov	sp, r7
 2501              		.cfi_def_cfa_register 13
 2502              		@ sp needed
 2503 000c 80BC     		pop	{r7}
 2504              		.cfi_restore 7
 2505              		.cfi_def_cfa_offset 0
 2506 000e 7047     		bx	lr
 2507              	.L60:
 2508              		.align	2
 2509              	.L59:
 2510 0010 10000000 		.word	bgcolor
 2511              		.cfi_endproc
 2512              	.LFE128:
 2513              		.size	TFT_getBGcolor, .-TFT_getBGcolor
 2514              		.section	.text.TFT_setTextWrap,"ax",%progbits
 2515              		.align	2
 2516              		.global	TFT_setTextWrap
 2517              		.thumb
 2518              		.thumb_func
 2519              		.type	TFT_setTextWrap, %function
 2520              	TFT_setTextWrap:
 2521              	.LFB129:
 345:source\bsw\tft/tft.c **** 
 346:source\bsw\tft/tft.c **** 
 347:source\bsw\tft/tft.c **** void TFT_setTextWrap(boolean_t w) {
 2522              		.loc 1 347 0
 2523              		.cfi_startproc
 2524              		@ args = 0, pretend = 0, frame = 8
 2525              		@ frame_needed = 1, uses_anonymous_args = 0
 2526              		@ link register save eliminated.
 2527 0000 80B4     		push	{r7}
 2528              		.cfi_def_cfa_offset 4
 2529              		.cfi_offset 7, -4
 2530 0002 83B0     		sub	sp, sp, #12
 2531              		.cfi_def_cfa_offset 16
 2532 0004 00AF     		add	r7, sp, #0
 2533              		.cfi_def_cfa_register 7
 2534 0006 0346     		mov	r3, r0
 2535 0008 FB71     		strb	r3, [r7, #7]
 348:source\bsw\tft/tft.c ****     wrap = w;
 2536              		.loc 1 348 0
 2537 000a 044A     		ldr	r2, .L62
 2538 000c FB79     		ldrb	r3, [r7, #7]
 2539 000e 1370     		strb	r3, [r2]
 349:source\bsw\tft/tft.c **** }
 2540              		.loc 1 349 0
 2541 0010 00BF     		nop
 2542 0012 0C37     		adds	r7, r7, #12
 2543              		.cfi_def_cfa_offset 4
 2544 0014 BD46     		mov	sp, r7
ARM GAS  C:\Users\schmi\AppData\Local\Temp\ccA9az4I.s 			page 52


 2545              		.cfi_def_cfa_register 13
 2546              		@ sp needed
 2547 0016 80BC     		pop	{r7}
 2548              		.cfi_restore 7
 2549              		.cfi_def_cfa_offset 0
 2550 0018 7047     		bx	lr
 2551              	.L63:
 2552 001a 00BF     		.align	2
 2553              	.L62:
 2554 001c 12000000 		.word	wrap
 2555              		.cfi_endproc
 2556              	.LFE129:
 2557              		.size	TFT_setTextWrap, .-TFT_setTextWrap
 2558              		.section	.text.TFT_setTextSize,"ax",%progbits
 2559              		.align	2
 2560              		.global	TFT_setTextSize
 2561              		.thumb
 2562              		.thumb_func
 2563              		.type	TFT_setTextSize, %function
 2564              	TFT_setTextSize:
 2565              	.LFB130:
 350:source\bsw\tft/tft.c **** 
 351:source\bsw\tft/tft.c **** void TFT_setTextSize(uint8_t s) {
 2566              		.loc 1 351 0
 2567              		.cfi_startproc
 2568              		@ args = 0, pretend = 0, frame = 8
 2569              		@ frame_needed = 1, uses_anonymous_args = 0
 2570              		@ link register save eliminated.
 2571 0000 80B4     		push	{r7}
 2572              		.cfi_def_cfa_offset 4
 2573              		.cfi_offset 7, -4
 2574 0002 83B0     		sub	sp, sp, #12
 2575              		.cfi_def_cfa_offset 16
 2576 0004 00AF     		add	r7, sp, #0
 2577              		.cfi_def_cfa_register 7
 2578 0006 0346     		mov	r3, r0
 2579 0008 FB71     		strb	r3, [r7, #7]
 352:source\bsw\tft/tft.c ****     textsize = (s > 0) ? s : 1;
 2580              		.loc 1 352 0
 2581 000a FB79     		ldrb	r3, [r7, #7]	@ zero_extendqisi2
 2582 000c 002B     		cmp	r3, #0
 2583 000e 01D0     		beq	.L65
 2584              		.loc 1 352 0 is_stmt 0 discriminator 1
 2585 0010 FB79     		ldrb	r3, [r7, #7]	@ zero_extendqisi2
 2586 0012 00E0     		b	.L66
 2587              	.L65:
 2588              		.loc 1 352 0 discriminator 2
 2589 0014 0123     		movs	r3, #1
 2590              	.L66:
 2591              		.loc 1 352 0 discriminator 4
 2592 0016 034A     		ldr	r2, .L67
 2593 0018 1370     		strb	r3, [r2]
 353:source\bsw\tft/tft.c **** }
 2594              		.loc 1 353 0 is_stmt 1 discriminator 4
 2595 001a 00BF     		nop
 2596 001c 0C37     		adds	r7, r7, #12
 2597              		.cfi_def_cfa_offset 4
ARM GAS  C:\Users\schmi\AppData\Local\Temp\ccA9az4I.s 			page 53


 2598 001e BD46     		mov	sp, r7
 2599              		.cfi_def_cfa_register 13
 2600              		@ sp needed
 2601 0020 80BC     		pop	{r7}
 2602              		.cfi_restore 7
 2603              		.cfi_def_cfa_offset 0
 2604 0022 7047     		bx	lr
 2605              	.L68:
 2606              		.align	2
 2607              	.L67:
 2608 0024 04000000 		.word	textsize
 2609              		.cfi_endproc
 2610              	.LFE130:
 2611              		.size	TFT_setTextSize, .-TFT_setTextSize
 2612              		.section	.text.TFT_setFont,"ax",%progbits
 2613              		.align	2
 2614              		.global	TFT_setFont
 2615              		.thumb
 2616              		.thumb_func
 2617              		.type	TFT_setFont, %function
 2618              	TFT_setFont:
 2619              	.LFB131:
 354:source\bsw\tft/tft.c **** 
 355:source\bsw\tft/tft.c **** void TFT_setFont(const GFXfont *f) {
 2620              		.loc 1 355 0
 2621              		.cfi_startproc
 2622              		@ args = 0, pretend = 0, frame = 8
 2623              		@ frame_needed = 1, uses_anonymous_args = 0
 2624              		@ link register save eliminated.
 2625 0000 80B4     		push	{r7}
 2626              		.cfi_def_cfa_offset 4
 2627              		.cfi_offset 7, -4
 2628 0002 83B0     		sub	sp, sp, #12
 2629              		.cfi_def_cfa_offset 16
 2630 0004 00AF     		add	r7, sp, #0
 2631              		.cfi_def_cfa_register 7
 2632 0006 7860     		str	r0, [r7, #4]
 356:source\bsw\tft/tft.c ****     if(f) {            // Font struct pointer passed in?
 2633              		.loc 1 356 0
 2634 0008 7B68     		ldr	r3, [r7, #4]
 2635 000a 002B     		cmp	r3, #0
 2636 000c 0AD0     		beq	.L70
 357:source\bsw\tft/tft.c ****         if(!gfxFont) { // And no current font struct?
 2637              		.loc 1 357 0
 2638 000e 0E4B     		ldr	r3, .L73
 2639 0010 1B68     		ldr	r3, [r3]
 2640 0012 002B     		cmp	r3, #0
 2641 0014 10D1     		bne	.L72
 358:source\bsw\tft/tft.c ****             // Switching from classic to new font behavior.
 359:source\bsw\tft/tft.c ****             // Move cursor pos down 6 pixels so it's on baseline.
 360:source\bsw\tft/tft.c ****             cursor_y += 6;
 2642              		.loc 1 360 0
 2643 0016 0D4B     		ldr	r3, .L73+4
 2644 0018 1B88     		ldrh	r3, [r3]
 2645 001a 0633     		adds	r3, r3, #6
 2646 001c 9AB2     		uxth	r2, r3
 2647 001e 0B4B     		ldr	r3, .L73+4
ARM GAS  C:\Users\schmi\AppData\Local\Temp\ccA9az4I.s 			page 54


 2648 0020 1A80     		strh	r2, [r3]	@ movhi
 2649 0022 09E0     		b	.L72
 2650              	.L70:
 361:source\bsw\tft/tft.c ****         }
 362:source\bsw\tft/tft.c ****     } else if(gfxFont) { // NULL passed.  Current font struct defined?
 2651              		.loc 1 362 0
 2652 0024 084B     		ldr	r3, .L73
 2653 0026 1B68     		ldr	r3, [r3]
 2654 0028 002B     		cmp	r3, #0
 2655 002a 05D0     		beq	.L72
 363:source\bsw\tft/tft.c ****         // Switching from new to classic font behavior.
 364:source\bsw\tft/tft.c ****         // Move cursor pos up 6 pixels so it's at top-left of char.
 365:source\bsw\tft/tft.c ****         cursor_y -= 6;
 2656              		.loc 1 365 0
 2657 002c 074B     		ldr	r3, .L73+4
 2658 002e 1B88     		ldrh	r3, [r3]
 2659 0030 063B     		subs	r3, r3, #6
 2660 0032 9AB2     		uxth	r2, r3
 2661 0034 054B     		ldr	r3, .L73+4
 2662 0036 1A80     		strh	r2, [r3]	@ movhi
 2663              	.L72:
 366:source\bsw\tft/tft.c ****     }
 367:source\bsw\tft/tft.c ****     gfxFont = (GFXfont *)f;
 2664              		.loc 1 367 0
 2665 0038 034A     		ldr	r2, .L73
 2666 003a 7B68     		ldr	r3, [r7, #4]
 2667 003c 1360     		str	r3, [r2]
 368:source\bsw\tft/tft.c **** }
 2668              		.loc 1 368 0
 2669 003e 00BF     		nop
 2670 0040 0C37     		adds	r7, r7, #12
 2671              		.cfi_def_cfa_offset 4
 2672 0042 BD46     		mov	sp, r7
 2673              		.cfi_def_cfa_register 13
 2674              		@ sp needed
 2675 0044 80BC     		pop	{r7}
 2676              		.cfi_restore 7
 2677              		.cfi_def_cfa_offset 0
 2678 0046 7047     		bx	lr
 2679              	.L74:
 2680              		.align	2
 2681              	.L73:
 2682 0048 14000000 		.word	gfxFont
 2683 004c 0C000000 		.word	cursor_y
 2684              		.cfi_endproc
 2685              	.LFE131:
 2686              		.size	TFT_setFont, .-TFT_setFont
 2687              		.section	.text.TFT_getTextBounds,"ax",%progbits
 2688              		.align	2
 2689              		.global	TFT_getTextBounds
 2690              		.thumb
 2691              		.thumb_func
 2692              		.type	TFT_getTextBounds, %function
 2693              	TFT_getTextBounds:
 2694              	.LFB132:
 369:source\bsw\tft/tft.c **** 
 370:source\bsw\tft/tft.c **** // Pass string and a cursor position, returns UL corner and W,H.
ARM GAS  C:\Users\schmi\AppData\Local\Temp\ccA9az4I.s 			page 55


 371:source\bsw\tft/tft.c **** void TFT_getTextBounds(char *str, int16_t x, int16_t y, int16_t *x1, int16_t *y1, uint16_t *w, uint
 2695              		.loc 1 371 0
 2696              		.cfi_startproc
 2697              		@ args = 12, pretend = 0, frame = 32
 2698              		@ frame_needed = 1, uses_anonymous_args = 0
 2699 0000 90B5     		push	{r4, r7, lr}
 2700              		.cfi_def_cfa_offset 12
 2701              		.cfi_offset 4, -12
 2702              		.cfi_offset 7, -8
 2703              		.cfi_offset 14, -4
 2704 0002 8DB0     		sub	sp, sp, #52
 2705              		.cfi_def_cfa_offset 64
 2706 0004 04AF     		add	r7, sp, #16
 2707              		.cfi_def_cfa 7, 48
 2708 0006 F860     		str	r0, [r7, #12]
 2709 0008 7B60     		str	r3, [r7, #4]
 2710 000a 0B46     		mov	r3, r1	@ movhi
 2711 000c 7B81     		strh	r3, [r7, #10]	@ movhi
 2712 000e 1346     		mov	r3, r2	@ movhi
 2713 0010 3B81     		strh	r3, [r7, #8]	@ movhi
 372:source\bsw\tft/tft.c ****     uint8_t c; // Current character
 373:source\bsw\tft/tft.c **** 
 374:source\bsw\tft/tft.c ****     *x1 = x;
 2714              		.loc 1 374 0
 2715 0012 B7F90A20 		ldrsh	r2, [r7, #10]
 2716 0016 7B68     		ldr	r3, [r7, #4]
 2717 0018 1A80     		strh	r2, [r3]	@ movhi
 375:source\bsw\tft/tft.c ****     *y1 = y;
 2718              		.loc 1 375 0
 2719 001a B7F90820 		ldrsh	r2, [r7, #8]
 2720 001e 3B6B     		ldr	r3, [r7, #48]
 2721 0020 1A80     		strh	r2, [r3]	@ movhi
 376:source\bsw\tft/tft.c ****     *w  = *h = 0;
 2722              		.loc 1 376 0
 2723 0022 BB6B     		ldr	r3, [r7, #56]
 2724 0024 0022     		movs	r2, #0
 2725 0026 1A80     		strh	r2, [r3]	@ movhi
 2726 0028 BB6B     		ldr	r3, [r7, #56]
 2727 002a 1A88     		ldrh	r2, [r3]
 2728 002c 7B6B     		ldr	r3, [r7, #52]
 2729 002e 1A80     		strh	r2, [r3]	@ movhi
 377:source\bsw\tft/tft.c **** 
 378:source\bsw\tft/tft.c ****     int16_t minx = _width, miny = _height, maxx = -1, maxy = -1;
 2730              		.loc 1 378 0
 2731 0030 2C4B     		ldr	r3, .L81
 2732 0032 B3F90030 		ldrsh	r3, [r3]
 2733 0036 BB83     		strh	r3, [r7, #28]	@ movhi
 2734 0038 2B4B     		ldr	r3, .L81+4
 2735 003a 1B88     		ldrh	r3, [r3]
 2736 003c 1BB2     		sxth	r3, r3
 2737 003e 7B83     		strh	r3, [r7, #26]	@ movhi
 2738 0040 4FF6FF73 		movw	r3, #65535
 2739 0044 3B83     		strh	r3, [r7, #24]	@ movhi
 2740 0046 4FF6FF73 		movw	r3, #65535
 2741 004a FB82     		strh	r3, [r7, #22]	@ movhi
 379:source\bsw\tft/tft.c **** 
 380:source\bsw\tft/tft.c ****     while((c = *str++))
ARM GAS  C:\Users\schmi\AppData\Local\Temp\ccA9az4I.s 			page 56


 2742              		.loc 1 380 0
 2743 004c 12E0     		b	.L76
 2744              	.L77:
 381:source\bsw\tft/tft.c ****         charBounds(c, &x, &y, &minx, &miny, &maxx, &maxy);
 2745              		.loc 1 381 0
 2746 004e 07F11C04 		add	r4, r7, #28
 2747 0052 07F10802 		add	r2, r7, #8
 2748 0056 07F10A01 		add	r1, r7, #10
 2749 005a F87F     		ldrb	r0, [r7, #31]	@ zero_extendqisi2
 2750 005c 07F11603 		add	r3, r7, #22
 2751 0060 0293     		str	r3, [sp, #8]
 2752 0062 07F11803 		add	r3, r7, #24
 2753 0066 0193     		str	r3, [sp, #4]
 2754 0068 07F11A03 		add	r3, r7, #26
 2755 006c 0093     		str	r3, [sp]
 2756 006e 2346     		mov	r3, r4
 2757 0070 FFF7FEFF 		bl	charBounds
 2758              	.L76:
 380:source\bsw\tft/tft.c ****         charBounds(c, &x, &y, &minx, &miny, &maxx, &maxy);
 2759              		.loc 1 380 0
 2760 0074 FB68     		ldr	r3, [r7, #12]
 2761 0076 5A1C     		adds	r2, r3, #1
 2762 0078 FA60     		str	r2, [r7, #12]
 2763 007a 1B78     		ldrb	r3, [r3]
 2764 007c FB77     		strb	r3, [r7, #31]
 2765 007e FB7F     		ldrb	r3, [r7, #31]	@ zero_extendqisi2
 2766 0080 002B     		cmp	r3, #0
 2767 0082 E4D1     		bne	.L77
 382:source\bsw\tft/tft.c **** 
 383:source\bsw\tft/tft.c ****     if(maxx >= minx) {
 2768              		.loc 1 383 0
 2769 0084 B7F91820 		ldrsh	r2, [r7, #24]
 2770 0088 B7F91C30 		ldrsh	r3, [r7, #28]
 2771 008c 9A42     		cmp	r2, r3
 2772 008e 0FDB     		blt	.L78
 384:source\bsw\tft/tft.c ****         *x1 = minx;
 2773              		.loc 1 384 0
 2774 0090 B7F91C20 		ldrsh	r2, [r7, #28]
 2775 0094 7B68     		ldr	r3, [r7, #4]
 2776 0096 1A80     		strh	r2, [r3]	@ movhi
 385:source\bsw\tft/tft.c ****         *w  = maxx - minx + 1;
 2777              		.loc 1 385 0
 2778 0098 B7F91830 		ldrsh	r3, [r7, #24]
 2779 009c 9AB2     		uxth	r2, r3
 2780 009e B7F91C30 		ldrsh	r3, [r7, #28]
 2781 00a2 9BB2     		uxth	r3, r3
 2782 00a4 D31A     		subs	r3, r2, r3
 2783 00a6 9BB2     		uxth	r3, r3
 2784 00a8 0133     		adds	r3, r3, #1
 2785 00aa 9AB2     		uxth	r2, r3
 2786 00ac 7B6B     		ldr	r3, [r7, #52]
 2787 00ae 1A80     		strh	r2, [r3]	@ movhi
 2788              	.L78:
 386:source\bsw\tft/tft.c ****     }
 387:source\bsw\tft/tft.c ****     if(maxy >= miny) {
 2789              		.loc 1 387 0
 2790 00b0 B7F91620 		ldrsh	r2, [r7, #22]
ARM GAS  C:\Users\schmi\AppData\Local\Temp\ccA9az4I.s 			page 57


 2791 00b4 B7F91A30 		ldrsh	r3, [r7, #26]
 2792 00b8 9A42     		cmp	r2, r3
 2793 00ba 0FDB     		blt	.L80
 388:source\bsw\tft/tft.c ****         *y1 = miny;
 2794              		.loc 1 388 0
 2795 00bc B7F91A20 		ldrsh	r2, [r7, #26]
 2796 00c0 3B6B     		ldr	r3, [r7, #48]
 2797 00c2 1A80     		strh	r2, [r3]	@ movhi
 389:source\bsw\tft/tft.c ****         *h  = maxy - miny + 1;
 2798              		.loc 1 389 0
 2799 00c4 B7F91630 		ldrsh	r3, [r7, #22]
 2800 00c8 9AB2     		uxth	r2, r3
 2801 00ca B7F91A30 		ldrsh	r3, [r7, #26]
 2802 00ce 9BB2     		uxth	r3, r3
 2803 00d0 D31A     		subs	r3, r2, r3
 2804 00d2 9BB2     		uxth	r3, r3
 2805 00d4 0133     		adds	r3, r3, #1
 2806 00d6 9AB2     		uxth	r2, r3
 2807 00d8 BB6B     		ldr	r3, [r7, #56]
 2808 00da 1A80     		strh	r2, [r3]	@ movhi
 2809              	.L80:
 390:source\bsw\tft/tft.c ****     }
 391:source\bsw\tft/tft.c **** }
 2810              		.loc 1 391 0
 2811 00dc 00BF     		nop
 2812 00de 2437     		adds	r7, r7, #36
 2813              		.cfi_def_cfa_offset 12
 2814 00e0 BD46     		mov	sp, r7
 2815              		.cfi_def_cfa_register 13
 2816              		@ sp needed
 2817 00e2 90BD     		pop	{r4, r7, pc}
 2818              	.L82:
 2819              		.align	2
 2820              	.L81:
 2821 00e4 06000000 		.word	_width
 2822 00e8 08000000 		.word	_height
 2823              		.cfi_endproc
 2824              	.LFE132:
 2825              		.size	TFT_getTextBounds, .-TFT_getTextBounds
 2826              		.section	.text.charBounds,"ax",%progbits
 2827              		.align	2
 2828              		.thumb
 2829              		.thumb_func
 2830              		.type	charBounds, %function
 2831              	charBounds:
 2832              	.LFB133:
 392:source\bsw\tft/tft.c **** 
 393:source\bsw\tft/tft.c **** void charBounds(char c, int16_t *x, int16_t *y,  int16_t *minx, int16_t *miny, int16_t *maxx, int16
 2833              		.loc 1 393 0
 2834              		.cfi_startproc
 2835              		@ args = 12, pretend = 0, frame = 48
 2836              		@ frame_needed = 1, uses_anonymous_args = 0
 2837              		@ link register save eliminated.
 2838 0000 80B4     		push	{r7}
 2839              		.cfi_def_cfa_offset 4
 2840              		.cfi_offset 7, -4
 2841 0002 8DB0     		sub	sp, sp, #52
ARM GAS  C:\Users\schmi\AppData\Local\Temp\ccA9az4I.s 			page 58


 2842              		.cfi_def_cfa_offset 56
 2843 0004 00AF     		add	r7, sp, #0
 2844              		.cfi_def_cfa_register 7
 2845 0006 B960     		str	r1, [r7, #8]
 2846 0008 7A60     		str	r2, [r7, #4]
 2847 000a 3B60     		str	r3, [r7]
 2848 000c 0346     		mov	r3, r0
 2849 000e FB73     		strb	r3, [r7, #15]
 394:source\bsw\tft/tft.c **** 
 395:source\bsw\tft/tft.c ****     if(gfxFont) {
 2850              		.loc 1 395 0
 2851 0010 874B     		ldr	r3, .L100
 2852 0012 1B68     		ldr	r3, [r3]
 2853 0014 002B     		cmp	r3, #0
 2854 0016 00F0F680 		beq	.L84
 396:source\bsw\tft/tft.c **** 
 397:source\bsw\tft/tft.c ****         if(c == '\n') { // Newline?
 2855              		.loc 1 397 0
 2856 001a FB7B     		ldrb	r3, [r7, #15]	@ zero_extendqisi2
 2857 001c 0A2B     		cmp	r3, #10
 2858 001e 17D1     		bne	.L85
 398:source\bsw\tft/tft.c ****             *x  = 0;    // Reset x to zero, advance y by one line
 2859              		.loc 1 398 0
 2860 0020 BB68     		ldr	r3, [r7, #8]
 2861 0022 0022     		movs	r2, #0
 2862 0024 1A80     		strh	r2, [r3]	@ movhi
 399:source\bsw\tft/tft.c ****             *y += textsize * (uint8_t)pgm_read_byte(&gfxFont->yAdvance);
 2863              		.loc 1 399 0
 2864 0026 7B68     		ldr	r3, [r7, #4]
 2865 0028 B3F90030 		ldrsh	r3, [r3]
 2866 002c 9AB2     		uxth	r2, r3
 2867 002e 814B     		ldr	r3, .L100+4
 2868 0030 1B78     		ldrb	r3, [r3]	@ zero_extendqisi2
 2869 0032 9BB2     		uxth	r3, r3
 2870 0034 7E49     		ldr	r1, .L100
 2871 0036 0968     		ldr	r1, [r1]
 2872 0038 0A31     		adds	r1, r1, #10
 2873 003a 0978     		ldrb	r1, [r1]	@ zero_extendqisi2
 2874 003c 89B2     		uxth	r1, r1
 2875 003e 01FB03F3 		mul	r3, r1, r3
 2876 0042 9BB2     		uxth	r3, r3
 2877 0044 1344     		add	r3, r3, r2
 2878 0046 9BB2     		uxth	r3, r3
 2879 0048 1AB2     		sxth	r2, r3
 2880 004a 7B68     		ldr	r3, [r7, #4]
 2881 004c 1A80     		strh	r2, [r3]	@ movhi
 400:source\bsw\tft/tft.c ****         } else if(c != '\r') { // Not a carriage return; is normal char
 401:source\bsw\tft/tft.c ****             uint8_t first = pgm_read_byte(&gfxFont->first),
 402:source\bsw\tft/tft.c ****                     last  = pgm_read_byte(&gfxFont->last);
 403:source\bsw\tft/tft.c ****             if((c >= first) && (c <= last)) { // Char present in this font?
 404:source\bsw\tft/tft.c ****                 GFXglyph *glyph = &(((GFXglyph *)pgm_read_pointer(
 405:source\bsw\tft/tft.c ****                   &gfxFont->glyph))[c - first]);
 406:source\bsw\tft/tft.c ****                 uint8_t gw = pgm_read_byte(&glyph->width),
 407:source\bsw\tft/tft.c ****                         gh = pgm_read_byte(&glyph->height),
 408:source\bsw\tft/tft.c ****                         xa = pgm_read_byte(&glyph->xAdvance);
 409:source\bsw\tft/tft.c ****                 int8_t  xo = pgm_read_byte(&glyph->xOffset),
 410:source\bsw\tft/tft.c ****                         yo = pgm_read_byte(&glyph->yOffset);
ARM GAS  C:\Users\schmi\AppData\Local\Temp\ccA9az4I.s 			page 59


 411:source\bsw\tft/tft.c ****                 if(wrap && ((*x+(((int16_t)xo+gw)*textsize)) > _width)) {
 412:source\bsw\tft/tft.c ****                     *x  = 0; // Reset x to zero, advance y by one line
 413:source\bsw\tft/tft.c ****                     *y += textsize * (uint8_t)pgm_read_byte(&gfxFont->yAdvance);
 414:source\bsw\tft/tft.c ****                 }
 415:source\bsw\tft/tft.c ****                 int16_t ts = (int16_t)textsize,
 416:source\bsw\tft/tft.c ****                         x1 = *x + xo * ts,
 417:source\bsw\tft/tft.c ****                         y1 = *y + yo * ts,
 418:source\bsw\tft/tft.c ****                         x2 = x1 + gw * ts - 1,
 419:source\bsw\tft/tft.c ****                         y2 = y1 + gh * ts - 1;
 420:source\bsw\tft/tft.c ****                 if(x1 < *minx) *minx = x1;
 421:source\bsw\tft/tft.c ****                 if(y1 < *miny) *miny = y1;
 422:source\bsw\tft/tft.c ****                 if(x2 > *maxx) *maxx = x2;
 423:source\bsw\tft/tft.c ****                 if(y2 > *maxy) *maxy = y2;
 424:source\bsw\tft/tft.c ****                 *x += xa * ts;
 425:source\bsw\tft/tft.c ****             }
 426:source\bsw\tft/tft.c ****         }
 427:source\bsw\tft/tft.c **** 
 428:source\bsw\tft/tft.c ****     } else { // Default font
 429:source\bsw\tft/tft.c **** 
 430:source\bsw\tft/tft.c ****         if(c == '\n') {                     // Newline?
 431:source\bsw\tft/tft.c ****             *x  = 0;                        // Reset x to zero,
 432:source\bsw\tft/tft.c ****             *y += textsize * 8;             // advance y one line
 433:source\bsw\tft/tft.c ****             // min/max x/y unchaged -- that waits for next 'normal' character
 434:source\bsw\tft/tft.c ****         } else if(c != '\r') {  // Normal char; ignore carriage returns
 435:source\bsw\tft/tft.c ****             if(wrap && ((*x + textsize * 6) > _width)) { // Off right?
 436:source\bsw\tft/tft.c ****                 *x  = 0;                    // Reset x to zero,
 437:source\bsw\tft/tft.c ****                 *y += textsize * 8;         // advance y one line
 438:source\bsw\tft/tft.c ****             }
 439:source\bsw\tft/tft.c ****             int x2 = *x + textsize * 6 - 1, // Lower-right pixel of char
 440:source\bsw\tft/tft.c ****                 y2 = *y + textsize * 8 - 1;
 441:source\bsw\tft/tft.c ****             if(x2 > *maxx) *maxx = x2;      // Track max x, y
 442:source\bsw\tft/tft.c ****             if(y2 > *maxy) *maxy = y2;
 443:source\bsw\tft/tft.c ****             if(*x < *minx) *minx = *x;      // Track min x, y
 444:source\bsw\tft/tft.c ****             if(*y < *miny) *miny = *y;
 445:source\bsw\tft/tft.c ****             *x += textsize * 6;             // Advance x one char
 446:source\bsw\tft/tft.c ****         }
 447:source\bsw\tft/tft.c ****     }
 448:source\bsw\tft/tft.c **** }
 2882              		.loc 1 448 0
 2883 004e 79E1     		b	.L99
 2884              	.L85:
 400:source\bsw\tft/tft.c ****         } else if(c != '\r') { // Not a carriage return; is normal char
 2885              		.loc 1 400 0
 2886 0050 FB7B     		ldrb	r3, [r7, #15]	@ zero_extendqisi2
 2887 0052 0D2B     		cmp	r3, #13
 2888 0054 00F07681 		beq	.L99
 2889              	.LBB3:
 401:source\bsw\tft/tft.c ****                     last  = pgm_read_byte(&gfxFont->last);
 2890              		.loc 1 401 0
 2891 0058 754B     		ldr	r3, .L100
 2892 005a 1B68     		ldr	r3, [r3]
 2893 005c 1B7A     		ldrb	r3, [r3, #8]
 2894 005e 87F82F30 		strb	r3, [r7, #47]
 402:source\bsw\tft/tft.c ****             if((c >= first) && (c <= last)) { // Char present in this font?
 2895              		.loc 1 402 0
 2896 0062 734B     		ldr	r3, .L100
 2897 0064 1B68     		ldr	r3, [r3]
ARM GAS  C:\Users\schmi\AppData\Local\Temp\ccA9az4I.s 			page 60


 2898 0066 5B7A     		ldrb	r3, [r3, #9]
 2899 0068 87F82E30 		strb	r3, [r7, #46]
 403:source\bsw\tft/tft.c ****                 GFXglyph *glyph = &(((GFXglyph *)pgm_read_pointer(
 2900              		.loc 1 403 0
 2901 006c FA7B     		ldrb	r2, [r7, #15]	@ zero_extendqisi2
 2902 006e 97F82F30 		ldrb	r3, [r7, #47]	@ zero_extendqisi2
 2903 0072 9A42     		cmp	r2, r3
 2904 0074 C0F06681 		bcc	.L99
 403:source\bsw\tft/tft.c ****                 GFXglyph *glyph = &(((GFXglyph *)pgm_read_pointer(
 2905              		.loc 1 403 0 is_stmt 0 discriminator 1
 2906 0078 FA7B     		ldrb	r2, [r7, #15]	@ zero_extendqisi2
 2907 007a 97F82E30 		ldrb	r3, [r7, #46]	@ zero_extendqisi2
 2908 007e 9A42     		cmp	r2, r3
 2909 0080 00F26081 		bhi	.L99
 2910              	.LBB4:
 405:source\bsw\tft/tft.c ****                 uint8_t gw = pgm_read_byte(&glyph->width),
 2911              		.loc 1 405 0 is_stmt 1
 2912 0084 FA7B     		ldrb	r2, [r7, #15]	@ zero_extendqisi2
 2913 0086 97F82F30 		ldrb	r3, [r7, #47]	@ zero_extendqisi2
 2914 008a D31A     		subs	r3, r2, r3
 2915 008c DA00     		lsls	r2, r3, #3
 404:source\bsw\tft/tft.c ****                   &gfxFont->glyph))[c - first]);
 2916              		.loc 1 404 0
 2917 008e 684B     		ldr	r3, .L100
 2918 0090 1B68     		ldr	r3, [r3]
 2919 0092 0433     		adds	r3, r3, #4
 405:source\bsw\tft/tft.c ****                 uint8_t gw = pgm_read_byte(&glyph->width),
 2920              		.loc 1 405 0
 2921 0094 1B68     		ldr	r3, [r3]
 2922 0096 1344     		add	r3, r3, r2
 404:source\bsw\tft/tft.c ****                   &gfxFont->glyph))[c - first]);
 2923              		.loc 1 404 0
 2924 0098 BB62     		str	r3, [r7, #40]
 406:source\bsw\tft/tft.c ****                         gh = pgm_read_byte(&glyph->height),
 2925              		.loc 1 406 0
 2926 009a BB6A     		ldr	r3, [r7, #40]
 2927 009c 9B78     		ldrb	r3, [r3, #2]
 2928 009e 87F82730 		strb	r3, [r7, #39]
 407:source\bsw\tft/tft.c ****                         xa = pgm_read_byte(&glyph->xAdvance);
 2929              		.loc 1 407 0
 2930 00a2 BB6A     		ldr	r3, [r7, #40]
 2931 00a4 DB78     		ldrb	r3, [r3, #3]
 2932 00a6 87F82630 		strb	r3, [r7, #38]
 408:source\bsw\tft/tft.c ****                 int8_t  xo = pgm_read_byte(&glyph->xOffset),
 2933              		.loc 1 408 0
 2934 00aa BB6A     		ldr	r3, [r7, #40]
 2935 00ac 1B79     		ldrb	r3, [r3, #4]
 2936 00ae 87F82530 		strb	r3, [r7, #37]
 409:source\bsw\tft/tft.c ****                         yo = pgm_read_byte(&glyph->yOffset);
 2937              		.loc 1 409 0
 2938 00b2 BB6A     		ldr	r3, [r7, #40]
 2939 00b4 0533     		adds	r3, r3, #5
 2940 00b6 1B78     		ldrb	r3, [r3]	@ zero_extendqisi2
 2941 00b8 87F82430 		strb	r3, [r7, #36]
 410:source\bsw\tft/tft.c ****                 if(wrap && ((*x+(((int16_t)xo+gw)*textsize)) > _width)) {
 2942              		.loc 1 410 0
 2943 00bc BB6A     		ldr	r3, [r7, #40]
ARM GAS  C:\Users\schmi\AppData\Local\Temp\ccA9az4I.s 			page 61


 2944 00be 0633     		adds	r3, r3, #6
 2945 00c0 1B78     		ldrb	r3, [r3]	@ zero_extendqisi2
 2946 00c2 87F82330 		strb	r3, [r7, #35]
 411:source\bsw\tft/tft.c ****                     *x  = 0; // Reset x to zero, advance y by one line
 2947              		.loc 1 411 0
 2948 00c6 5C4B     		ldr	r3, .L100+8
 2949 00c8 1B78     		ldrb	r3, [r3]	@ zero_extendqisi2
 2950 00ca 002B     		cmp	r3, #0
 2951 00cc 29D0     		beq	.L87
 411:source\bsw\tft/tft.c ****                     *x  = 0; // Reset x to zero, advance y by one line
 2952              		.loc 1 411 0 is_stmt 0 discriminator 1
 2953 00ce BB68     		ldr	r3, [r7, #8]
 2954 00d0 B3F90030 		ldrsh	r3, [r3]
 2955 00d4 1946     		mov	r1, r3
 2956 00d6 97F92420 		ldrsb	r2, [r7, #36]
 2957 00da 97F82730 		ldrb	r3, [r7, #39]	@ zero_extendqisi2
 2958 00de 1344     		add	r3, r3, r2
 2959 00e0 544A     		ldr	r2, .L100+4
 2960 00e2 1278     		ldrb	r2, [r2]	@ zero_extendqisi2
 2961 00e4 02FB03F3 		mul	r3, r2, r3
 2962 00e8 0B44     		add	r3, r3, r1
 2963 00ea 544A     		ldr	r2, .L100+12
 2964 00ec B2F90020 		ldrsh	r2, [r2]
 2965 00f0 9342     		cmp	r3, r2
 2966 00f2 16DD     		ble	.L87
 412:source\bsw\tft/tft.c ****                     *y += textsize * (uint8_t)pgm_read_byte(&gfxFont->yAdvance);
 2967              		.loc 1 412 0 is_stmt 1
 2968 00f4 BB68     		ldr	r3, [r7, #8]
 2969 00f6 0022     		movs	r2, #0
 2970 00f8 1A80     		strh	r2, [r3]	@ movhi
 413:source\bsw\tft/tft.c ****                 }
 2971              		.loc 1 413 0
 2972 00fa 7B68     		ldr	r3, [r7, #4]
 2973 00fc B3F90030 		ldrsh	r3, [r3]
 2974 0100 9AB2     		uxth	r2, r3
 2975 0102 4C4B     		ldr	r3, .L100+4
 2976 0104 1B78     		ldrb	r3, [r3]	@ zero_extendqisi2
 2977 0106 9BB2     		uxth	r3, r3
 2978 0108 4949     		ldr	r1, .L100
 2979 010a 0968     		ldr	r1, [r1]
 2980 010c 0A31     		adds	r1, r1, #10
 2981 010e 0978     		ldrb	r1, [r1]	@ zero_extendqisi2
 2982 0110 89B2     		uxth	r1, r1
 2983 0112 01FB03F3 		mul	r3, r1, r3
 2984 0116 9BB2     		uxth	r3, r3
 2985 0118 1344     		add	r3, r3, r2
 2986 011a 9BB2     		uxth	r3, r3
 2987 011c 1AB2     		sxth	r2, r3
 2988 011e 7B68     		ldr	r3, [r7, #4]
 2989 0120 1A80     		strh	r2, [r3]	@ movhi
 2990              	.L87:
 415:source\bsw\tft/tft.c ****                         x1 = *x + xo * ts,
 2991              		.loc 1 415 0
 2992 0122 444B     		ldr	r3, .L100+4
 2993 0124 1B78     		ldrb	r3, [r3]	@ zero_extendqisi2
 2994 0126 3B84     		strh	r3, [r7, #32]	@ movhi
 416:source\bsw\tft/tft.c ****                         y1 = *y + yo * ts,
ARM GAS  C:\Users\schmi\AppData\Local\Temp\ccA9az4I.s 			page 62


 2995              		.loc 1 416 0
 2996 0128 BB68     		ldr	r3, [r7, #8]
 2997 012a B3F90030 		ldrsh	r3, [r3]
 2998 012e 9AB2     		uxth	r2, r3
 2999 0130 97F92430 		ldrsb	r3, [r7, #36]
 3000 0134 9BB2     		uxth	r3, r3
 3001 0136 398C     		ldrh	r1, [r7, #32]
 3002 0138 01FB03F3 		mul	r3, r1, r3
 3003 013c 9BB2     		uxth	r3, r3
 3004 013e 1344     		add	r3, r3, r2
 3005 0140 9BB2     		uxth	r3, r3
 3006 0142 FB83     		strh	r3, [r7, #30]	@ movhi
 417:source\bsw\tft/tft.c ****                         x2 = x1 + gw * ts - 1,
 3007              		.loc 1 417 0
 3008 0144 7B68     		ldr	r3, [r7, #4]
 3009 0146 B3F90030 		ldrsh	r3, [r3]
 3010 014a 9AB2     		uxth	r2, r3
 3011 014c 97F92330 		ldrsb	r3, [r7, #35]
 3012 0150 9BB2     		uxth	r3, r3
 3013 0152 398C     		ldrh	r1, [r7, #32]
 3014 0154 01FB03F3 		mul	r3, r1, r3
 3015 0158 9BB2     		uxth	r3, r3
 3016 015a 1344     		add	r3, r3, r2
 3017 015c 9BB2     		uxth	r3, r3
 3018 015e BB83     		strh	r3, [r7, #28]	@ movhi
 418:source\bsw\tft/tft.c ****                         y2 = y1 + gh * ts - 1;
 3019              		.loc 1 418 0
 3020 0160 97F82730 		ldrb	r3, [r7, #39]	@ zero_extendqisi2
 3021 0164 9BB2     		uxth	r3, r3
 3022 0166 3A8C     		ldrh	r2, [r7, #32]
 3023 0168 02FB03F3 		mul	r3, r2, r3
 3024 016c 9AB2     		uxth	r2, r3
 3025 016e FB8B     		ldrh	r3, [r7, #30]
 3026 0170 1344     		add	r3, r3, r2
 3027 0172 9BB2     		uxth	r3, r3
 3028 0174 013B     		subs	r3, r3, #1
 3029 0176 9BB2     		uxth	r3, r3
 3030 0178 7B83     		strh	r3, [r7, #26]	@ movhi
 419:source\bsw\tft/tft.c ****                 if(x1 < *minx) *minx = x1;
 3031              		.loc 1 419 0
 3032 017a 97F82630 		ldrb	r3, [r7, #38]	@ zero_extendqisi2
 3033 017e 9BB2     		uxth	r3, r3
 3034 0180 3A8C     		ldrh	r2, [r7, #32]
 3035 0182 02FB03F3 		mul	r3, r2, r3
 3036 0186 9AB2     		uxth	r2, r3
 3037 0188 BB8B     		ldrh	r3, [r7, #28]
 3038 018a 1344     		add	r3, r3, r2
 3039 018c 9BB2     		uxth	r3, r3
 3040 018e 013B     		subs	r3, r3, #1
 3041 0190 9BB2     		uxth	r3, r3
 3042 0192 3B83     		strh	r3, [r7, #24]	@ movhi
 420:source\bsw\tft/tft.c ****                 if(y1 < *miny) *miny = y1;
 3043              		.loc 1 420 0
 3044 0194 3B68     		ldr	r3, [r7]
 3045 0196 B3F90030 		ldrsh	r3, [r3]
 3046 019a B7F91E20 		ldrsh	r2, [r7, #30]
 3047 019e 9A42     		cmp	r2, r3
ARM GAS  C:\Users\schmi\AppData\Local\Temp\ccA9az4I.s 			page 63


 3048 01a0 02DA     		bge	.L88
 420:source\bsw\tft/tft.c ****                 if(y1 < *miny) *miny = y1;
 3049              		.loc 1 420 0 is_stmt 0 discriminator 1
 3050 01a2 3B68     		ldr	r3, [r7]
 3051 01a4 FA8B     		ldrh	r2, [r7, #30]	@ movhi
 3052 01a6 1A80     		strh	r2, [r3]	@ movhi
 3053              	.L88:
 421:source\bsw\tft/tft.c ****                 if(x2 > *maxx) *maxx = x2;
 3054              		.loc 1 421 0 is_stmt 1
 3055 01a8 BB6B     		ldr	r3, [r7, #56]
 3056 01aa B3F90030 		ldrsh	r3, [r3]
 3057 01ae B7F91C20 		ldrsh	r2, [r7, #28]
 3058 01b2 9A42     		cmp	r2, r3
 3059 01b4 02DA     		bge	.L89
 421:source\bsw\tft/tft.c ****                 if(x2 > *maxx) *maxx = x2;
 3060              		.loc 1 421 0 is_stmt 0 discriminator 1
 3061 01b6 BB6B     		ldr	r3, [r7, #56]
 3062 01b8 BA8B     		ldrh	r2, [r7, #28]	@ movhi
 3063 01ba 1A80     		strh	r2, [r3]	@ movhi
 3064              	.L89:
 422:source\bsw\tft/tft.c ****                 if(y2 > *maxy) *maxy = y2;
 3065              		.loc 1 422 0 is_stmt 1
 3066 01bc FB6B     		ldr	r3, [r7, #60]
 3067 01be B3F90030 		ldrsh	r3, [r3]
 3068 01c2 B7F91A20 		ldrsh	r2, [r7, #26]
 3069 01c6 9A42     		cmp	r2, r3
 3070 01c8 02DD     		ble	.L90
 422:source\bsw\tft/tft.c ****                 if(y2 > *maxy) *maxy = y2;
 3071              		.loc 1 422 0 is_stmt 0 discriminator 1
 3072 01ca FB6B     		ldr	r3, [r7, #60]
 3073 01cc 7A8B     		ldrh	r2, [r7, #26]	@ movhi
 3074 01ce 1A80     		strh	r2, [r3]	@ movhi
 3075              	.L90:
 423:source\bsw\tft/tft.c ****                 *x += xa * ts;
 3076              		.loc 1 423 0 is_stmt 1
 3077 01d0 3B6C     		ldr	r3, [r7, #64]
 3078 01d2 B3F90030 		ldrsh	r3, [r3]
 3079 01d6 B7F91820 		ldrsh	r2, [r7, #24]
 3080 01da 9A42     		cmp	r2, r3
 3081 01dc 02DD     		ble	.L91
 423:source\bsw\tft/tft.c ****                 *x += xa * ts;
 3082              		.loc 1 423 0 is_stmt 0 discriminator 1
 3083 01de 3B6C     		ldr	r3, [r7, #64]
 3084 01e0 3A8B     		ldrh	r2, [r7, #24]	@ movhi
 3085 01e2 1A80     		strh	r2, [r3]	@ movhi
 3086              	.L91:
 424:source\bsw\tft/tft.c ****             }
 3087              		.loc 1 424 0 is_stmt 1
 3088 01e4 BB68     		ldr	r3, [r7, #8]
 3089 01e6 B3F90030 		ldrsh	r3, [r3]
 3090 01ea 9AB2     		uxth	r2, r3
 3091 01ec 97F82530 		ldrb	r3, [r7, #37]	@ zero_extendqisi2
 3092 01f0 9BB2     		uxth	r3, r3
 3093 01f2 398C     		ldrh	r1, [r7, #32]
 3094 01f4 01FB03F3 		mul	r3, r1, r3
 3095 01f8 9BB2     		uxth	r3, r3
 3096 01fa 1344     		add	r3, r3, r2
ARM GAS  C:\Users\schmi\AppData\Local\Temp\ccA9az4I.s 			page 64


 3097 01fc 9BB2     		uxth	r3, r3
 3098 01fe 1AB2     		sxth	r2, r3
 3099 0200 BB68     		ldr	r3, [r7, #8]
 3100 0202 1A80     		strh	r2, [r3]	@ movhi
 3101              	.LBE4:
 3102              	.LBE3:
 3103              		.loc 1 448 0
 3104 0204 9EE0     		b	.L99
 3105              	.L84:
 430:source\bsw\tft/tft.c ****             *x  = 0;                        // Reset x to zero,
 3106              		.loc 1 430 0
 3107 0206 FB7B     		ldrb	r3, [r7, #15]	@ zero_extendqisi2
 3108 0208 0A2B     		cmp	r3, #10
 3109 020a 19D1     		bne	.L93
 431:source\bsw\tft/tft.c ****             *y += textsize * 8;             // advance y one line
 3110              		.loc 1 431 0
 3111 020c BB68     		ldr	r3, [r7, #8]
 3112 020e 0022     		movs	r2, #0
 3113 0210 1A80     		strh	r2, [r3]	@ movhi
 432:source\bsw\tft/tft.c ****             // min/max x/y unchaged -- that waits for next 'normal' character
 3114              		.loc 1 432 0
 3115 0212 7B68     		ldr	r3, [r7, #4]
 3116 0214 B3F90030 		ldrsh	r3, [r3]
 3117 0218 9AB2     		uxth	r2, r3
 3118 021a 064B     		ldr	r3, .L100+4
 3119 021c 1B78     		ldrb	r3, [r3]	@ zero_extendqisi2
 3120 021e 9BB2     		uxth	r3, r3
 3121 0220 DB00     		lsls	r3, r3, #3
 3122 0222 9BB2     		uxth	r3, r3
 3123 0224 1344     		add	r3, r3, r2
 3124 0226 9BB2     		uxth	r3, r3
 3125 0228 1AB2     		sxth	r2, r3
 3126 022a 7B68     		ldr	r3, [r7, #4]
 3127 022c 1A80     		strh	r2, [r3]	@ movhi
 3128              		.loc 1 448 0
 3129 022e 89E0     		b	.L99
 3130              	.L101:
 3131              		.align	2
 3132              	.L100:
 3133 0230 14000000 		.word	gfxFont
 3134 0234 04000000 		.word	textsize
 3135 0238 12000000 		.word	wrap
 3136 023c 06000000 		.word	_width
 3137              	.L93:
 434:source\bsw\tft/tft.c ****             if(wrap && ((*x + textsize * 6) > _width)) { // Off right?
 3138              		.loc 1 434 0
 3139 0240 FB7B     		ldrb	r3, [r7, #15]	@ zero_extendqisi2
 3140 0242 0D2B     		cmp	r3, #13
 3141 0244 7ED0     		beq	.L99
 3142              	.LBB5:
 435:source\bsw\tft/tft.c ****                 *x  = 0;                    // Reset x to zero,
 3143              		.loc 1 435 0
 3144 0246 424B     		ldr	r3, .L102
 3145 0248 1B78     		ldrb	r3, [r3]	@ zero_extendqisi2
 3146 024a 002B     		cmp	r3, #0
 3147 024c 21D0     		beq	.L94
 435:source\bsw\tft/tft.c ****                 *x  = 0;                    // Reset x to zero,
ARM GAS  C:\Users\schmi\AppData\Local\Temp\ccA9az4I.s 			page 65


 3148              		.loc 1 435 0 is_stmt 0 discriminator 1
 3149 024e BB68     		ldr	r3, [r7, #8]
 3150 0250 B3F90030 		ldrsh	r3, [r3]
 3151 0254 1946     		mov	r1, r3
 3152 0256 3F4B     		ldr	r3, .L102+4
 3153 0258 1B78     		ldrb	r3, [r3]	@ zero_extendqisi2
 3154 025a 1A46     		mov	r2, r3
 3155 025c 1346     		mov	r3, r2
 3156 025e 5B00     		lsls	r3, r3, #1
 3157 0260 1344     		add	r3, r3, r2
 3158 0262 5B00     		lsls	r3, r3, #1
 3159 0264 0B44     		add	r3, r3, r1
 3160 0266 3C4A     		ldr	r2, .L102+8
 3161 0268 B2F90020 		ldrsh	r2, [r2]
 3162 026c 9342     		cmp	r3, r2
 3163 026e 10DD     		ble	.L94
 436:source\bsw\tft/tft.c ****                 *y += textsize * 8;         // advance y one line
 3164              		.loc 1 436 0 is_stmt 1
 3165 0270 BB68     		ldr	r3, [r7, #8]
 3166 0272 0022     		movs	r2, #0
 3167 0274 1A80     		strh	r2, [r3]	@ movhi
 437:source\bsw\tft/tft.c ****             }
 3168              		.loc 1 437 0
 3169 0276 7B68     		ldr	r3, [r7, #4]
 3170 0278 B3F90030 		ldrsh	r3, [r3]
 3171 027c 9AB2     		uxth	r2, r3
 3172 027e 354B     		ldr	r3, .L102+4
 3173 0280 1B78     		ldrb	r3, [r3]	@ zero_extendqisi2
 3174 0282 9BB2     		uxth	r3, r3
 3175 0284 DB00     		lsls	r3, r3, #3
 3176 0286 9BB2     		uxth	r3, r3
 3177 0288 1344     		add	r3, r3, r2
 3178 028a 9BB2     		uxth	r3, r3
 3179 028c 1AB2     		sxth	r2, r3
 3180 028e 7B68     		ldr	r3, [r7, #4]
 3181 0290 1A80     		strh	r2, [r3]	@ movhi
 3182              	.L94:
 439:source\bsw\tft/tft.c ****                 y2 = *y + textsize * 8 - 1;
 3183              		.loc 1 439 0
 3184 0292 BB68     		ldr	r3, [r7, #8]
 3185 0294 B3F90030 		ldrsh	r3, [r3]
 3186 0298 1946     		mov	r1, r3
 3187 029a 2E4B     		ldr	r3, .L102+4
 3188 029c 1B78     		ldrb	r3, [r3]	@ zero_extendqisi2
 3189 029e 1A46     		mov	r2, r3
 3190 02a0 1346     		mov	r3, r2
 3191 02a2 5B00     		lsls	r3, r3, #1
 3192 02a4 1344     		add	r3, r3, r2
 3193 02a6 5B00     		lsls	r3, r3, #1
 3194 02a8 0B44     		add	r3, r3, r1
 3195 02aa 013B     		subs	r3, r3, #1
 3196 02ac 7B61     		str	r3, [r7, #20]
 440:source\bsw\tft/tft.c ****             if(x2 > *maxx) *maxx = x2;      // Track max x, y
 3197              		.loc 1 440 0
 3198 02ae 7B68     		ldr	r3, [r7, #4]
 3199 02b0 B3F90030 		ldrsh	r3, [r3]
 3200 02b4 1A46     		mov	r2, r3
ARM GAS  C:\Users\schmi\AppData\Local\Temp\ccA9az4I.s 			page 66


 3201 02b6 274B     		ldr	r3, .L102+4
 3202 02b8 1B78     		ldrb	r3, [r3]	@ zero_extendqisi2
 3203 02ba DB00     		lsls	r3, r3, #3
 3204 02bc 1344     		add	r3, r3, r2
 3205 02be 013B     		subs	r3, r3, #1
 3206 02c0 3B61     		str	r3, [r7, #16]
 441:source\bsw\tft/tft.c ****             if(y2 > *maxy) *maxy = y2;
 3207              		.loc 1 441 0
 3208 02c2 FB6B     		ldr	r3, [r7, #60]
 3209 02c4 B3F90030 		ldrsh	r3, [r3]
 3210 02c8 1A46     		mov	r2, r3
 3211 02ca 7B69     		ldr	r3, [r7, #20]
 3212 02cc 9A42     		cmp	r2, r3
 3213 02ce 03DA     		bge	.L95
 441:source\bsw\tft/tft.c ****             if(y2 > *maxy) *maxy = y2;
 3214              		.loc 1 441 0 is_stmt 0 discriminator 1
 3215 02d0 7B69     		ldr	r3, [r7, #20]
 3216 02d2 1AB2     		sxth	r2, r3
 3217 02d4 FB6B     		ldr	r3, [r7, #60]
 3218 02d6 1A80     		strh	r2, [r3]	@ movhi
 3219              	.L95:
 442:source\bsw\tft/tft.c ****             if(*x < *minx) *minx = *x;      // Track min x, y
 3220              		.loc 1 442 0 is_stmt 1
 3221 02d8 3B6C     		ldr	r3, [r7, #64]
 3222 02da B3F90030 		ldrsh	r3, [r3]
 3223 02de 1A46     		mov	r2, r3
 3224 02e0 3B69     		ldr	r3, [r7, #16]
 3225 02e2 9A42     		cmp	r2, r3
 3226 02e4 03DA     		bge	.L96
 442:source\bsw\tft/tft.c ****             if(*x < *minx) *minx = *x;      // Track min x, y
 3227              		.loc 1 442 0 is_stmt 0 discriminator 1
 3228 02e6 3B69     		ldr	r3, [r7, #16]
 3229 02e8 1AB2     		sxth	r2, r3
 3230 02ea 3B6C     		ldr	r3, [r7, #64]
 3231 02ec 1A80     		strh	r2, [r3]	@ movhi
 3232              	.L96:
 443:source\bsw\tft/tft.c ****             if(*y < *miny) *miny = *y;
 3233              		.loc 1 443 0 is_stmt 1
 3234 02ee BB68     		ldr	r3, [r7, #8]
 3235 02f0 B3F90020 		ldrsh	r2, [r3]
 3236 02f4 3B68     		ldr	r3, [r7]
 3237 02f6 B3F90030 		ldrsh	r3, [r3]
 3238 02fa 9A42     		cmp	r2, r3
 3239 02fc 04DA     		bge	.L97
 443:source\bsw\tft/tft.c ****             if(*y < *miny) *miny = *y;
 3240              		.loc 1 443 0 is_stmt 0 discriminator 1
 3241 02fe BB68     		ldr	r3, [r7, #8]
 3242 0300 B3F90020 		ldrsh	r2, [r3]
 3243 0304 3B68     		ldr	r3, [r7]
 3244 0306 1A80     		strh	r2, [r3]	@ movhi
 3245              	.L97:
 444:source\bsw\tft/tft.c ****             *x += textsize * 6;             // Advance x one char
 3246              		.loc 1 444 0 is_stmt 1
 3247 0308 7B68     		ldr	r3, [r7, #4]
 3248 030a B3F90020 		ldrsh	r2, [r3]
 3249 030e BB6B     		ldr	r3, [r7, #56]
 3250 0310 B3F90030 		ldrsh	r3, [r3]
ARM GAS  C:\Users\schmi\AppData\Local\Temp\ccA9az4I.s 			page 67


 3251 0314 9A42     		cmp	r2, r3
 3252 0316 04DA     		bge	.L98
 444:source\bsw\tft/tft.c ****             *x += textsize * 6;             // Advance x one char
 3253              		.loc 1 444 0 is_stmt 0 discriminator 1
 3254 0318 7B68     		ldr	r3, [r7, #4]
 3255 031a B3F90020 		ldrsh	r2, [r3]
 3256 031e BB6B     		ldr	r3, [r7, #56]
 3257 0320 1A80     		strh	r2, [r3]	@ movhi
 3258              	.L98:
 445:source\bsw\tft/tft.c ****         }
 3259              		.loc 1 445 0 is_stmt 1
 3260 0322 BB68     		ldr	r3, [r7, #8]
 3261 0324 B3F90030 		ldrsh	r3, [r3]
 3262 0328 9AB2     		uxth	r2, r3
 3263 032a 0A4B     		ldr	r3, .L102+4
 3264 032c 1B78     		ldrb	r3, [r3]	@ zero_extendqisi2
 3265 032e 9BB2     		uxth	r3, r3
 3266 0330 1946     		mov	r1, r3	@ movhi
 3267 0332 4900     		lsls	r1, r1, #1
 3268 0334 0B44     		add	r3, r3, r1
 3269 0336 5B00     		lsls	r3, r3, #1
 3270 0338 9BB2     		uxth	r3, r3
 3271 033a 1344     		add	r3, r3, r2
 3272 033c 9BB2     		uxth	r3, r3
 3273 033e 1AB2     		sxth	r2, r3
 3274 0340 BB68     		ldr	r3, [r7, #8]
 3275 0342 1A80     		strh	r2, [r3]	@ movhi
 3276              	.L99:
 3277              	.LBE5:
 3278              		.loc 1 448 0
 3279 0344 00BF     		nop
 3280 0346 3437     		adds	r7, r7, #52
 3281              		.cfi_def_cfa_offset 4
 3282 0348 BD46     		mov	sp, r7
 3283              		.cfi_def_cfa_register 13
 3284              		@ sp needed
 3285 034a 80BC     		pop	{r7}
 3286              		.cfi_restore 7
 3287              		.cfi_def_cfa_offset 0
 3288 034c 7047     		bx	lr
 3289              	.L103:
 3290 034e 00BF     		.align	2
 3291              	.L102:
 3292 0350 12000000 		.word	wrap
 3293 0354 04000000 		.word	textsize
 3294 0358 06000000 		.word	_width
 3295              		.cfi_endproc
 3296              	.LFE133:
 3297              		.size	charBounds, .-charBounds
 3298              		.section	.text.TFT_print,"ax",%progbits
 3299              		.align	2
 3300              		.global	TFT_print
 3301              		.thumb
 3302              		.thumb_func
 3303              		.type	TFT_print, %function
 3304              	TFT_print:
 3305              	.LFB134:
ARM GAS  C:\Users\schmi\AppData\Local\Temp\ccA9az4I.s 			page 68


 449:source\bsw\tft/tft.c ****         
 450:source\bsw\tft/tft.c **** //----------------- USER FCT
 451:source\bsw\tft/tft.c **** 
 452:source\bsw\tft/tft.c **** void TFT_print(char* txt){
 3306              		.loc 1 452 0
 3307              		.cfi_startproc
 3308              		@ args = 0, pretend = 0, frame = 8
 3309              		@ frame_needed = 1, uses_anonymous_args = 0
 3310 0000 80B5     		push	{r7, lr}
 3311              		.cfi_def_cfa_offset 8
 3312              		.cfi_offset 7, -8
 3313              		.cfi_offset 14, -4
 3314 0002 82B0     		sub	sp, sp, #8
 3315              		.cfi_def_cfa_offset 16
 3316 0004 00AF     		add	r7, sp, #0
 3317              		.cfi_def_cfa_register 7
 3318 0006 7860     		str	r0, [r7, #4]
 453:source\bsw\tft/tft.c ****     while(*(txt)!=0){
 3319              		.loc 1 453 0
 3320 0008 06E0     		b	.L105
 3321              	.L106:
 454:source\bsw\tft/tft.c ****         TFT_write(*(txt++));
 3322              		.loc 1 454 0
 3323 000a 7B68     		ldr	r3, [r7, #4]
 3324 000c 5A1C     		adds	r2, r3, #1
 3325 000e 7A60     		str	r2, [r7, #4]
 3326 0010 1B78     		ldrb	r3, [r3]	@ zero_extendqisi2
 3327 0012 1846     		mov	r0, r3
 3328 0014 FFF7FEFF 		bl	TFT_write
 3329              	.L105:
 453:source\bsw\tft/tft.c ****     while(*(txt)!=0){
 3330              		.loc 1 453 0
 3331 0018 7B68     		ldr	r3, [r7, #4]
 3332 001a 1B78     		ldrb	r3, [r3]	@ zero_extendqisi2
 3333 001c 002B     		cmp	r3, #0
 3334 001e F4D1     		bne	.L106
 455:source\bsw\tft/tft.c ****     }
 456:source\bsw\tft/tft.c **** }
 3335              		.loc 1 456 0
 3336 0020 00BF     		nop
 3337 0022 0837     		adds	r7, r7, #8
 3338              		.cfi_def_cfa_offset 8
 3339 0024 BD46     		mov	sp, r7
 3340              		.cfi_def_cfa_register 13
 3341              		@ sp needed
 3342 0026 80BD     		pop	{r7, pc}
 3343              		.cfi_endproc
 3344              	.LFE134:
 3345              		.size	TFT_print, .-TFT_print
 3346              		.section	.text.TFT_println,"ax",%progbits
 3347              		.align	2
 3348              		.global	TFT_println
 3349              		.thumb
 3350              		.thumb_func
 3351              		.type	TFT_println, %function
 3352              	TFT_println:
 3353              	.LFB135:
ARM GAS  C:\Users\schmi\AppData\Local\Temp\ccA9az4I.s 			page 69


 457:source\bsw\tft/tft.c **** 
 458:source\bsw\tft/tft.c **** void TFT_println(char* txt){
 3354              		.loc 1 458 0
 3355              		.cfi_startproc
 3356              		@ args = 0, pretend = 0, frame = 8
 3357              		@ frame_needed = 1, uses_anonymous_args = 0
 3358 0000 80B5     		push	{r7, lr}
 3359              		.cfi_def_cfa_offset 8
 3360              		.cfi_offset 7, -8
 3361              		.cfi_offset 14, -4
 3362 0002 82B0     		sub	sp, sp, #8
 3363              		.cfi_def_cfa_offset 16
 3364 0004 00AF     		add	r7, sp, #0
 3365              		.cfi_def_cfa_register 7
 3366 0006 7860     		str	r0, [r7, #4]
 459:source\bsw\tft/tft.c ****     while(*(txt)!=0){
 3367              		.loc 1 459 0
 3368 0008 06E0     		b	.L108
 3369              	.L109:
 460:source\bsw\tft/tft.c ****         TFT_write(*(txt++));
 3370              		.loc 1 460 0
 3371 000a 7B68     		ldr	r3, [r7, #4]
 3372 000c 5A1C     		adds	r2, r3, #1
 3373 000e 7A60     		str	r2, [r7, #4]
 3374 0010 1B78     		ldrb	r3, [r3]	@ zero_extendqisi2
 3375 0012 1846     		mov	r0, r3
 3376 0014 FFF7FEFF 		bl	TFT_write
 3377              	.L108:
 459:source\bsw\tft/tft.c ****     while(*(txt)!=0){
 3378              		.loc 1 459 0
 3379 0018 7B68     		ldr	r3, [r7, #4]
 3380 001a 1B78     		ldrb	r3, [r3]	@ zero_extendqisi2
 3381 001c 002B     		cmp	r3, #0
 3382 001e F4D1     		bne	.L109
 461:source\bsw\tft/tft.c ****     }
 462:source\bsw\tft/tft.c ****     TFT_write('\n');
 3383              		.loc 1 462 0
 3384 0020 0A20     		movs	r0, #10
 3385 0022 FFF7FEFF 		bl	TFT_write
 463:source\bsw\tft/tft.c **** }
 3386              		.loc 1 463 0
 3387 0026 00BF     		nop
 3388 0028 0837     		adds	r7, r7, #8
 3389              		.cfi_def_cfa_offset 8
 3390 002a BD46     		mov	sp, r7
 3391              		.cfi_def_cfa_register 13
 3392              		@ sp needed
 3393 002c 80BD     		pop	{r7, pc}
 3394              		.cfi_endproc
 3395              	.LFE135:
 3396              		.size	TFT_println, .-TFT_println
 3397 002e 00BF     		.section	.text.TFT_write,"ax",%progbits
 3398              		.align	2
 3399              		.global	TFT_write
 3400              		.thumb
 3401              		.thumb_func
 3402              		.type	TFT_write, %function
ARM GAS  C:\Users\schmi\AppData\Local\Temp\ccA9az4I.s 			page 70


 3403              	TFT_write:
 3404              	.LFB136:
 464:source\bsw\tft/tft.c **** 
 465:source\bsw\tft/tft.c **** void TFT_write(uint8_t c) {
 3405              		.loc 1 465 0
 3406              		.cfi_startproc
 3407              		@ args = 0, pretend = 0, frame = 24
 3408              		@ frame_needed = 1, uses_anonymous_args = 0
 3409 0000 B0B5     		push	{r4, r5, r7, lr}
 3410              		.cfi_def_cfa_offset 16
 3411              		.cfi_offset 4, -16
 3412              		.cfi_offset 5, -12
 3413              		.cfi_offset 7, -8
 3414              		.cfi_offset 14, -4
 3415 0002 88B0     		sub	sp, sp, #32
 3416              		.cfi_def_cfa_offset 48
 3417 0004 02AF     		add	r7, sp, #8
 3418              		.cfi_def_cfa 7, 40
 3419 0006 0346     		mov	r3, r0
 3420 0008 FB71     		strb	r3, [r7, #7]
 466:source\bsw\tft/tft.c **** 
 467:source\bsw\tft/tft.c ****     if(!gfxFont) {                              // 'Classic' built-in font
 3421              		.loc 1 467 0
 3422 000a 7A4B     		ldr	r3, .L120
 3423 000c 1B68     		ldr	r3, [r3]
 3424 000e 002B     		cmp	r3, #0
 3425 0010 59D1     		bne	.L111
 468:source\bsw\tft/tft.c **** 
 469:source\bsw\tft/tft.c ****         if(c == '\n') {                         // Newline?
 3426              		.loc 1 469 0
 3427 0012 FB79     		ldrb	r3, [r7, #7]	@ zero_extendqisi2
 3428 0014 0A2B     		cmp	r3, #10
 3429 0016 0ED1     		bne	.L112
 470:source\bsw\tft/tft.c ****             cursor_x  = 0;                      // Reset x to zero,
 3430              		.loc 1 470 0
 3431 0018 774B     		ldr	r3, .L120+4
 3432 001a 0022     		movs	r2, #0
 3433 001c 1A80     		strh	r2, [r3]	@ movhi
 471:source\bsw\tft/tft.c ****             cursor_y += textsize * 8;           // advance y one line
 3434              		.loc 1 471 0
 3435 001e 774B     		ldr	r3, .L120+8
 3436 0020 1B78     		ldrb	r3, [r3]	@ zero_extendqisi2
 3437 0022 9BB2     		uxth	r3, r3
 3438 0024 DB00     		lsls	r3, r3, #3
 3439 0026 9AB2     		uxth	r2, r3
 3440 0028 754B     		ldr	r3, .L120+12
 3441 002a 1B88     		ldrh	r3, [r3]
 3442 002c 1344     		add	r3, r3, r2
 3443 002e 9AB2     		uxth	r2, r3
 3444 0030 734B     		ldr	r3, .L120+12
 3445 0032 1A80     		strh	r2, [r3]	@ movhi
 472:source\bsw\tft/tft.c ****         } else if(c != '\r') {                  // Ignore carriage returns
 473:source\bsw\tft/tft.c ****             if(wrap && ((cursor_x + textsize * 6) > _width)) { // Off right?
 474:source\bsw\tft/tft.c ****                 cursor_x  = 0;                  // Reset x to zero,
 475:source\bsw\tft/tft.c ****                 cursor_y += textsize * 8;       // advance y one line
 476:source\bsw\tft/tft.c ****             }
 477:source\bsw\tft/tft.c ****             TFT_drawChar(cursor_x, cursor_y, c, color, bgcolor, textsize);
ARM GAS  C:\Users\schmi\AppData\Local\Temp\ccA9az4I.s 			page 71


 478:source\bsw\tft/tft.c ****             cursor_x += textsize * 6;          // Advance x one char
 479:source\bsw\tft/tft.c ****         }
 480:source\bsw\tft/tft.c **** 
 481:source\bsw\tft/tft.c ****     } else { // Custom font
 482:source\bsw\tft/tft.c **** 
 483:source\bsw\tft/tft.c ****         if(c == '\n') {
 484:source\bsw\tft/tft.c ****             cursor_x  = 0;
 485:source\bsw\tft/tft.c ****             cursor_y += (int16_t)textsize *
 486:source\bsw\tft/tft.c ****                         (uint8_t)pgm_read_byte(&gfxFont->yAdvance);
 487:source\bsw\tft/tft.c ****         } else if(c != '\r') {
 488:source\bsw\tft/tft.c ****             uint8_t first = pgm_read_byte(&gfxFont->first);
 489:source\bsw\tft/tft.c ****             if((c >= first) && (c <= (uint8_t)pgm_read_byte(&gfxFont->last))) {
 490:source\bsw\tft/tft.c ****                 GFXglyph *glyph = &(((GFXglyph *)pgm_read_pointer(
 491:source\bsw\tft/tft.c ****                   &gfxFont->glyph))[c - first]);
 492:source\bsw\tft/tft.c ****                 uint8_t   w     = pgm_read_byte(&glyph->width),
 493:source\bsw\tft/tft.c ****                           h     = pgm_read_byte(&glyph->height);
 494:source\bsw\tft/tft.c ****                 if((w > 0) && (h > 0)) { // Is there an associated bitmap?
 495:source\bsw\tft/tft.c ****                     int16_t xo = (int8_t)pgm_read_byte(&glyph->xOffset); // sic
 496:source\bsw\tft/tft.c ****                     if(wrap && ((cursor_x + textsize * (xo + w)) > _width)) {
 497:source\bsw\tft/tft.c ****                         cursor_x  = 0;
 498:source\bsw\tft/tft.c ****                         cursor_y += (int16_t)textsize *
 499:source\bsw\tft/tft.c ****                           (uint8_t)pgm_read_byte(&gfxFont->yAdvance);
 500:source\bsw\tft/tft.c ****                     }
 501:source\bsw\tft/tft.c ****                     TFT_drawChar(cursor_x, cursor_y, c, color, bgcolor, textsize);
 502:source\bsw\tft/tft.c ****                 }
 503:source\bsw\tft/tft.c ****                 cursor_x += (uint8_t)pgm_read_byte(&glyph->xAdvance) * (int16_t)textsize;
 504:source\bsw\tft/tft.c ****             }
 505:source\bsw\tft/tft.c ****         }
 506:source\bsw\tft/tft.c **** 
 507:source\bsw\tft/tft.c ****     }
 508:source\bsw\tft/tft.c **** }
 3446              		.loc 1 508 0
 3447 0034 D9E0     		b	.L119
 3448              	.L112:
 472:source\bsw\tft/tft.c ****         } else if(c != '\r') {                  // Ignore carriage returns
 3449              		.loc 1 472 0
 3450 0036 FB79     		ldrb	r3, [r7, #7]	@ zero_extendqisi2
 3451 0038 0D2B     		cmp	r3, #13
 3452 003a 00F0D680 		beq	.L119
 473:source\bsw\tft/tft.c ****                 cursor_x  = 0;                  // Reset x to zero,
 3453              		.loc 1 473 0
 3454 003e 714B     		ldr	r3, .L120+16
 3455 0040 1B78     		ldrb	r3, [r3]	@ zero_extendqisi2
 3456 0042 002B     		cmp	r3, #0
 3457 0044 1DD0     		beq	.L114
 473:source\bsw\tft/tft.c ****                 cursor_x  = 0;                  // Reset x to zero,
 3458              		.loc 1 473 0 is_stmt 0 discriminator 1
 3459 0046 6C4B     		ldr	r3, .L120+4
 3460 0048 1B88     		ldrh	r3, [r3]
 3461 004a 1946     		mov	r1, r3
 3462 004c 6B4B     		ldr	r3, .L120+8
 3463 004e 1B78     		ldrb	r3, [r3]	@ zero_extendqisi2
 3464 0050 1A46     		mov	r2, r3
 3465 0052 1346     		mov	r3, r2
 3466 0054 5B00     		lsls	r3, r3, #1
 3467 0056 1344     		add	r3, r3, r2
 3468 0058 5B00     		lsls	r3, r3, #1
ARM GAS  C:\Users\schmi\AppData\Local\Temp\ccA9az4I.s 			page 72


 3469 005a 0B44     		add	r3, r3, r1
 3470 005c 6A4A     		ldr	r2, .L120+20
 3471 005e B2F90020 		ldrsh	r2, [r2]
 3472 0062 9342     		cmp	r3, r2
 3473 0064 0DDD     		ble	.L114
 474:source\bsw\tft/tft.c ****                 cursor_y += textsize * 8;       // advance y one line
 3474              		.loc 1 474 0 is_stmt 1
 3475 0066 644B     		ldr	r3, .L120+4
 3476 0068 0022     		movs	r2, #0
 3477 006a 1A80     		strh	r2, [r3]	@ movhi
 475:source\bsw\tft/tft.c ****             }
 3478              		.loc 1 475 0
 3479 006c 634B     		ldr	r3, .L120+8
 3480 006e 1B78     		ldrb	r3, [r3]	@ zero_extendqisi2
 3481 0070 9BB2     		uxth	r3, r3
 3482 0072 DB00     		lsls	r3, r3, #3
 3483 0074 9AB2     		uxth	r2, r3
 3484 0076 624B     		ldr	r3, .L120+12
 3485 0078 1B88     		ldrh	r3, [r3]
 3486 007a 1344     		add	r3, r3, r2
 3487 007c 9AB2     		uxth	r2, r3
 3488 007e 604B     		ldr	r3, .L120+12
 3489 0080 1A80     		strh	r2, [r3]	@ movhi
 3490              	.L114:
 477:source\bsw\tft/tft.c ****             cursor_x += textsize * 6;          // Advance x one char
 3491              		.loc 1 477 0
 3492 0082 5D4B     		ldr	r3, .L120+4
 3493 0084 1B88     		ldrh	r3, [r3]
 3494 0086 18B2     		sxth	r0, r3
 3495 0088 5D4B     		ldr	r3, .L120+12
 3496 008a 1B88     		ldrh	r3, [r3]
 3497 008c 19B2     		sxth	r1, r3
 3498 008e 5F4B     		ldr	r3, .L120+24
 3499 0090 1D88     		ldrh	r5, [r3]
 3500 0092 5F4B     		ldr	r3, .L120+28
 3501 0094 1B88     		ldrh	r3, [r3]
 3502 0096 594A     		ldr	r2, .L120+8
 3503 0098 1278     		ldrb	r2, [r2]	@ zero_extendqisi2
 3504 009a FC79     		ldrb	r4, [r7, #7]	@ zero_extendqisi2
 3505 009c 0192     		str	r2, [sp, #4]
 3506 009e 0093     		str	r3, [sp]
 3507 00a0 2B46     		mov	r3, r5
 3508 00a2 2246     		mov	r2, r4
 3509 00a4 FFF7FEFF 		bl	TFT_drawChar
 478:source\bsw\tft/tft.c ****         }
 3510              		.loc 1 478 0
 3511 00a8 544B     		ldr	r3, .L120+8
 3512 00aa 1B78     		ldrb	r3, [r3]	@ zero_extendqisi2
 3513 00ac 9BB2     		uxth	r3, r3
 3514 00ae 1A46     		mov	r2, r3	@ movhi
 3515 00b0 5200     		lsls	r2, r2, #1
 3516 00b2 1344     		add	r3, r3, r2
 3517 00b4 5B00     		lsls	r3, r3, #1
 3518 00b6 9AB2     		uxth	r2, r3
 3519 00b8 4F4B     		ldr	r3, .L120+4
 3520 00ba 1B88     		ldrh	r3, [r3]
 3521 00bc 1344     		add	r3, r3, r2
ARM GAS  C:\Users\schmi\AppData\Local\Temp\ccA9az4I.s 			page 73


 3522 00be 9AB2     		uxth	r2, r3
 3523 00c0 4D4B     		ldr	r3, .L120+4
 3524 00c2 1A80     		strh	r2, [r3]	@ movhi
 3525              		.loc 1 508 0
 3526 00c4 91E0     		b	.L119
 3527              	.L111:
 483:source\bsw\tft/tft.c ****             cursor_x  = 0;
 3528              		.loc 1 483 0
 3529 00c6 FB79     		ldrb	r3, [r7, #7]	@ zero_extendqisi2
 3530 00c8 0A2B     		cmp	r3, #10
 3531 00ca 14D1     		bne	.L116
 484:source\bsw\tft/tft.c ****             cursor_y += (int16_t)textsize *
 3532              		.loc 1 484 0
 3533 00cc 4A4B     		ldr	r3, .L120+4
 3534 00ce 0022     		movs	r2, #0
 3535 00d0 1A80     		strh	r2, [r3]	@ movhi
 485:source\bsw\tft/tft.c ****                         (uint8_t)pgm_read_byte(&gfxFont->yAdvance);
 3536              		.loc 1 485 0
 3537 00d2 4A4B     		ldr	r3, .L120+8
 3538 00d4 1B78     		ldrb	r3, [r3]	@ zero_extendqisi2
 3539 00d6 9BB2     		uxth	r3, r3
 486:source\bsw\tft/tft.c ****         } else if(c != '\r') {
 3540              		.loc 1 486 0
 3541 00d8 464A     		ldr	r2, .L120
 3542 00da 1268     		ldr	r2, [r2]
 3543 00dc 0A32     		adds	r2, r2, #10
 3544 00de 1278     		ldrb	r2, [r2]	@ zero_extendqisi2
 485:source\bsw\tft/tft.c ****                         (uint8_t)pgm_read_byte(&gfxFont->yAdvance);
 3545              		.loc 1 485 0
 3546 00e0 92B2     		uxth	r2, r2
 3547 00e2 02FB03F3 		mul	r3, r2, r3
 3548 00e6 9AB2     		uxth	r2, r3
 3549 00e8 454B     		ldr	r3, .L120+12
 3550 00ea 1B88     		ldrh	r3, [r3]
 3551 00ec 1344     		add	r3, r3, r2
 3552 00ee 9AB2     		uxth	r2, r3
 3553 00f0 434B     		ldr	r3, .L120+12
 3554 00f2 1A80     		strh	r2, [r3]	@ movhi
 3555              		.loc 1 508 0
 3556 00f4 79E0     		b	.L119
 3557              	.L116:
 487:source\bsw\tft/tft.c ****             uint8_t first = pgm_read_byte(&gfxFont->first);
 3558              		.loc 1 487 0
 3559 00f6 FB79     		ldrb	r3, [r7, #7]	@ zero_extendqisi2
 3560 00f8 0D2B     		cmp	r3, #13
 3561 00fa 76D0     		beq	.L119
 3562              	.LBB6:
 488:source\bsw\tft/tft.c ****             if((c >= first) && (c <= (uint8_t)pgm_read_byte(&gfxFont->last))) {
 3563              		.loc 1 488 0
 3564 00fc 3D4B     		ldr	r3, .L120
 3565 00fe 1B68     		ldr	r3, [r3]
 3566 0100 1B7A     		ldrb	r3, [r3, #8]
 3567 0102 FB75     		strb	r3, [r7, #23]
 489:source\bsw\tft/tft.c ****                 GFXglyph *glyph = &(((GFXglyph *)pgm_read_pointer(
 3568              		.loc 1 489 0
 3569 0104 FA79     		ldrb	r2, [r7, #7]	@ zero_extendqisi2
 3570 0106 FB7D     		ldrb	r3, [r7, #23]	@ zero_extendqisi2
ARM GAS  C:\Users\schmi\AppData\Local\Temp\ccA9az4I.s 			page 74


 3571 0108 9A42     		cmp	r2, r3
 3572 010a 6ED3     		bcc	.L119
 489:source\bsw\tft/tft.c ****                 GFXglyph *glyph = &(((GFXglyph *)pgm_read_pointer(
 3573              		.loc 1 489 0 is_stmt 0 discriminator 1
 3574 010c 394B     		ldr	r3, .L120
 3575 010e 1B68     		ldr	r3, [r3]
 3576 0110 0933     		adds	r3, r3, #9
 3577 0112 1B78     		ldrb	r3, [r3]	@ zero_extendqisi2
 3578 0114 FA79     		ldrb	r2, [r7, #7]	@ zero_extendqisi2
 3579 0116 9A42     		cmp	r2, r3
 3580 0118 67D8     		bhi	.L119
 3581              	.LBB7:
 491:source\bsw\tft/tft.c ****                 uint8_t   w     = pgm_read_byte(&glyph->width),
 3582              		.loc 1 491 0 is_stmt 1
 3583 011a FA79     		ldrb	r2, [r7, #7]	@ zero_extendqisi2
 3584 011c FB7D     		ldrb	r3, [r7, #23]	@ zero_extendqisi2
 3585 011e D31A     		subs	r3, r2, r3
 3586 0120 DA00     		lsls	r2, r3, #3
 490:source\bsw\tft/tft.c ****                   &gfxFont->glyph))[c - first]);
 3587              		.loc 1 490 0
 3588 0122 344B     		ldr	r3, .L120
 3589 0124 1B68     		ldr	r3, [r3]
 3590 0126 0433     		adds	r3, r3, #4
 491:source\bsw\tft/tft.c ****                 uint8_t   w     = pgm_read_byte(&glyph->width),
 3591              		.loc 1 491 0
 3592 0128 1B68     		ldr	r3, [r3]
 3593 012a 1344     		add	r3, r3, r2
 490:source\bsw\tft/tft.c ****                   &gfxFont->glyph))[c - first]);
 3594              		.loc 1 490 0
 3595 012c 3B61     		str	r3, [r7, #16]
 492:source\bsw\tft/tft.c ****                           h     = pgm_read_byte(&glyph->height);
 3596              		.loc 1 492 0
 3597 012e 3B69     		ldr	r3, [r7, #16]
 3598 0130 9B78     		ldrb	r3, [r3, #2]
 3599 0132 FB73     		strb	r3, [r7, #15]
 493:source\bsw\tft/tft.c ****                 if((w > 0) && (h > 0)) { // Is there an associated bitmap?
 3600              		.loc 1 493 0
 3601 0134 3B69     		ldr	r3, [r7, #16]
 3602 0136 DB78     		ldrb	r3, [r3, #3]
 3603 0138 BB73     		strb	r3, [r7, #14]
 494:source\bsw\tft/tft.c ****                     int16_t xo = (int8_t)pgm_read_byte(&glyph->xOffset); // sic
 3604              		.loc 1 494 0
 3605 013a FB7B     		ldrb	r3, [r7, #15]	@ zero_extendqisi2
 3606 013c 002B     		cmp	r3, #0
 3607 013e 44D0     		beq	.L117
 494:source\bsw\tft/tft.c ****                     int16_t xo = (int8_t)pgm_read_byte(&glyph->xOffset); // sic
 3608              		.loc 1 494 0 is_stmt 0 discriminator 1
 3609 0140 BB7B     		ldrb	r3, [r7, #14]	@ zero_extendqisi2
 3610 0142 002B     		cmp	r3, #0
 3611 0144 41D0     		beq	.L117
 3612              	.LBB8:
 495:source\bsw\tft/tft.c ****                     if(wrap && ((cursor_x + textsize * (xo + w)) > _width)) {
 3613              		.loc 1 495 0 is_stmt 1
 3614 0146 3B69     		ldr	r3, [r7, #16]
 3615 0148 0533     		adds	r3, r3, #5
 3616 014a 1B78     		ldrb	r3, [r3]	@ zero_extendqisi2
 3617 014c 5BB2     		sxtb	r3, r3
ARM GAS  C:\Users\schmi\AppData\Local\Temp\ccA9az4I.s 			page 75


 3618 014e BB81     		strh	r3, [r7, #12]	@ movhi
 496:source\bsw\tft/tft.c ****                         cursor_x  = 0;
 3619              		.loc 1 496 0
 3620 0150 2C4B     		ldr	r3, .L120+16
 3621 0152 1B78     		ldrb	r3, [r3]	@ zero_extendqisi2
 3622 0154 002B     		cmp	r3, #0
 3623 0156 25D0     		beq	.L118
 496:source\bsw\tft/tft.c ****                         cursor_x  = 0;
 3624              		.loc 1 496 0 is_stmt 0 discriminator 1
 3625 0158 274B     		ldr	r3, .L120+4
 3626 015a 1B88     		ldrh	r3, [r3]
 3627 015c 1946     		mov	r1, r3
 3628 015e 274B     		ldr	r3, .L120+8
 3629 0160 1B78     		ldrb	r3, [r3]	@ zero_extendqisi2
 3630 0162 1846     		mov	r0, r3
 3631 0164 B7F90C20 		ldrsh	r2, [r7, #12]
 3632 0168 FB7B     		ldrb	r3, [r7, #15]	@ zero_extendqisi2
 3633 016a 1344     		add	r3, r3, r2
 3634 016c 03FB00F3 		mul	r3, r3, r0
 3635 0170 0B44     		add	r3, r3, r1
 3636 0172 254A     		ldr	r2, .L120+20
 3637 0174 B2F90020 		ldrsh	r2, [r2]
 3638 0178 9342     		cmp	r3, r2
 3639 017a 13DD     		ble	.L118
 497:source\bsw\tft/tft.c ****                         cursor_y += (int16_t)textsize *
 3640              		.loc 1 497 0 is_stmt 1
 3641 017c 1E4B     		ldr	r3, .L120+4
 3642 017e 0022     		movs	r2, #0
 3643 0180 1A80     		strh	r2, [r3]	@ movhi
 498:source\bsw\tft/tft.c ****                           (uint8_t)pgm_read_byte(&gfxFont->yAdvance);
 3644              		.loc 1 498 0
 3645 0182 1E4B     		ldr	r3, .L120+8
 3646 0184 1B78     		ldrb	r3, [r3]	@ zero_extendqisi2
 3647 0186 9BB2     		uxth	r3, r3
 499:source\bsw\tft/tft.c ****                     }
 3648              		.loc 1 499 0
 3649 0188 1A4A     		ldr	r2, .L120
 3650 018a 1268     		ldr	r2, [r2]
 3651 018c 0A32     		adds	r2, r2, #10
 3652 018e 1278     		ldrb	r2, [r2]	@ zero_extendqisi2
 498:source\bsw\tft/tft.c ****                           (uint8_t)pgm_read_byte(&gfxFont->yAdvance);
 3653              		.loc 1 498 0
 3654 0190 92B2     		uxth	r2, r2
 3655 0192 02FB03F3 		mul	r3, r2, r3
 3656 0196 9AB2     		uxth	r2, r3
 3657 0198 194B     		ldr	r3, .L120+12
 3658 019a 1B88     		ldrh	r3, [r3]
 3659 019c 1344     		add	r3, r3, r2
 3660 019e 9AB2     		uxth	r2, r3
 3661 01a0 174B     		ldr	r3, .L120+12
 3662 01a2 1A80     		strh	r2, [r3]	@ movhi
 3663              	.L118:
 501:source\bsw\tft/tft.c ****                 }
 3664              		.loc 1 501 0
 3665 01a4 144B     		ldr	r3, .L120+4
 3666 01a6 1B88     		ldrh	r3, [r3]
 3667 01a8 18B2     		sxth	r0, r3
ARM GAS  C:\Users\schmi\AppData\Local\Temp\ccA9az4I.s 			page 76


 3668 01aa 154B     		ldr	r3, .L120+12
 3669 01ac 1B88     		ldrh	r3, [r3]
 3670 01ae 19B2     		sxth	r1, r3
 3671 01b0 164B     		ldr	r3, .L120+24
 3672 01b2 1D88     		ldrh	r5, [r3]
 3673 01b4 164B     		ldr	r3, .L120+28
 3674 01b6 1B88     		ldrh	r3, [r3]
 3675 01b8 104A     		ldr	r2, .L120+8
 3676 01ba 1278     		ldrb	r2, [r2]	@ zero_extendqisi2
 3677 01bc FC79     		ldrb	r4, [r7, #7]	@ zero_extendqisi2
 3678 01be 0192     		str	r2, [sp, #4]
 3679 01c0 0093     		str	r3, [sp]
 3680 01c2 2B46     		mov	r3, r5
 3681 01c4 2246     		mov	r2, r4
 3682 01c6 FFF7FEFF 		bl	TFT_drawChar
 3683              	.L117:
 3684              	.LBE8:
 503:source\bsw\tft/tft.c ****             }
 3685              		.loc 1 503 0
 3686 01ca 3B69     		ldr	r3, [r7, #16]
 3687 01cc 0433     		adds	r3, r3, #4
 3688 01ce 1B78     		ldrb	r3, [r3]	@ zero_extendqisi2
 3689 01d0 9BB2     		uxth	r3, r3
 3690 01d2 0A4A     		ldr	r2, .L120+8
 3691 01d4 1278     		ldrb	r2, [r2]	@ zero_extendqisi2
 3692 01d6 92B2     		uxth	r2, r2
 3693 01d8 02FB03F3 		mul	r3, r2, r3
 3694 01dc 9AB2     		uxth	r2, r3
 3695 01de 064B     		ldr	r3, .L120+4
 3696 01e0 1B88     		ldrh	r3, [r3]
 3697 01e2 1344     		add	r3, r3, r2
 3698 01e4 9AB2     		uxth	r2, r3
 3699 01e6 044B     		ldr	r3, .L120+4
 3700 01e8 1A80     		strh	r2, [r3]	@ movhi
 3701              	.L119:
 3702              	.LBE7:
 3703              	.LBE6:
 3704              		.loc 1 508 0
 3705 01ea 00BF     		nop
 3706 01ec 1837     		adds	r7, r7, #24
 3707              		.cfi_def_cfa_offset 16
 3708 01ee BD46     		mov	sp, r7
 3709              		.cfi_def_cfa_register 13
 3710              		@ sp needed
 3711 01f0 B0BD     		pop	{r4, r5, r7, pc}
 3712              	.L121:
 3713 01f2 00BF     		.align	2
 3714              	.L120:
 3715 01f4 14000000 		.word	gfxFont
 3716 01f8 0A000000 		.word	cursor_x
 3717 01fc 04000000 		.word	textsize
 3718 0200 0C000000 		.word	cursor_y
 3719 0204 12000000 		.word	wrap
 3720 0208 06000000 		.word	_width
 3721 020c 0E000000 		.word	color
 3722 0210 10000000 		.word	bgcolor
 3723              		.cfi_endproc
ARM GAS  C:\Users\schmi\AppData\Local\Temp\ccA9az4I.s 			page 77


 3724              	.LFE136:
 3725              		.size	TFT_write, .-TFT_write
 3726              		.section	.text.TFT_fillScreen,"ax",%progbits
 3727              		.align	2
 3728              		.global	TFT_fillScreen
 3729              		.thumb
 3730              		.thumb_func
 3731              		.type	TFT_fillScreen, %function
 3732              	TFT_fillScreen:
 3733              	.LFB137:
 509:source\bsw\tft/tft.c **** 
 510:source\bsw\tft/tft.c **** void TFT_fillScreen(TFT_color_t color) {
 3734              		.loc 1 510 0
 3735              		.cfi_startproc
 3736              		@ args = 0, pretend = 0, frame = 8
 3737              		@ frame_needed = 1, uses_anonymous_args = 0
 3738 0000 80B5     		push	{r7, lr}
 3739              		.cfi_def_cfa_offset 8
 3740              		.cfi_offset 7, -8
 3741              		.cfi_offset 14, -4
 3742 0002 84B0     		sub	sp, sp, #16
 3743              		.cfi_def_cfa_offset 24
 3744 0004 02AF     		add	r7, sp, #8
 3745              		.cfi_def_cfa 7, 16
 3746 0006 0346     		mov	r3, r0
 3747 0008 FB80     		strh	r3, [r7, #6]	@ movhi
 511:source\bsw\tft/tft.c ****   TFT_fillRect(0, 0,  _width, _height, color);
 3748              		.loc 1 511 0
 3749 000a 084B     		ldr	r3, .L123
 3750 000c B3F90020 		ldrsh	r2, [r3]
 3751 0010 074B     		ldr	r3, .L123+4
 3752 0012 1B88     		ldrh	r3, [r3]
 3753 0014 19B2     		sxth	r1, r3
 3754 0016 FB88     		ldrh	r3, [r7, #6]
 3755 0018 0093     		str	r3, [sp]
 3756 001a 0B46     		mov	r3, r1
 3757 001c 0021     		movs	r1, #0
 3758 001e 0020     		movs	r0, #0
 3759 0020 FFF7FEFF 		bl	TFT_fillRect
 512:source\bsw\tft/tft.c **** }
 3760              		.loc 1 512 0
 3761 0024 00BF     		nop
 3762 0026 0837     		adds	r7, r7, #8
 3763              		.cfi_def_cfa_offset 8
 3764 0028 BD46     		mov	sp, r7
 3765              		.cfi_def_cfa_register 13
 3766              		@ sp needed
 3767 002a 80BD     		pop	{r7, pc}
 3768              	.L124:
 3769              		.align	2
 3770              	.L123:
 3771 002c 06000000 		.word	_width
 3772 0030 08000000 		.word	_height
 3773              		.cfi_endproc
 3774              	.LFE137:
 3775              		.size	TFT_fillScreen, .-TFT_fillScreen
 3776              		.section	.text.TFT_clearScreen,"ax",%progbits
ARM GAS  C:\Users\schmi\AppData\Local\Temp\ccA9az4I.s 			page 78


 3777              		.align	2
 3778              		.global	TFT_clearScreen
 3779              		.thumb
 3780              		.thumb_func
 3781              		.type	TFT_clearScreen, %function
 3782              	TFT_clearScreen:
 3783              	.LFB138:
 513:source\bsw\tft/tft.c **** 
 514:source\bsw\tft/tft.c **** void TFT_clearScreen(void){TFT_fillScreen(TFT_getBGcolor());};
 3784              		.loc 1 514 0
 3785              		.cfi_startproc
 3786              		@ args = 0, pretend = 0, frame = 0
 3787              		@ frame_needed = 1, uses_anonymous_args = 0
 3788 0000 80B5     		push	{r7, lr}
 3789              		.cfi_def_cfa_offset 8
 3790              		.cfi_offset 7, -8
 3791              		.cfi_offset 14, -4
 3792 0002 00AF     		add	r7, sp, #0
 3793              		.cfi_def_cfa_register 7
 3794              		.loc 1 514 0
 3795 0004 FFF7FEFF 		bl	TFT_getBGcolor
 3796 0008 0346     		mov	r3, r0
 3797 000a 1846     		mov	r0, r3
 3798 000c FFF7FEFF 		bl	TFT_fillScreen
 3799 0010 00BF     		nop
 3800 0012 80BD     		pop	{r7, pc}
 3801              		.cfi_endproc
 3802              	.LFE138:
 3803              		.size	TFT_clearScreen, .-TFT_clearScreen
 3804              		.section	.text.TFT_fillRect,"ax",%progbits
 3805              		.align	2
 3806              		.global	TFT_fillRect
 3807              		.thumb
 3808              		.thumb_func
 3809              		.type	TFT_fillRect, %function
 3810              	TFT_fillRect:
 3811              	.LFB139:
 515:source\bsw\tft/tft.c **** 
 516:source\bsw\tft/tft.c **** void TFT_fillRect(int16_t x, int16_t y, int16_t w, int16_t h, TFT_color_t color) {
 3812              		.loc 1 516 0
 3813              		.cfi_startproc
 3814              		@ args = 4, pretend = 0, frame = 16
 3815              		@ frame_needed = 1, uses_anonymous_args = 0
 3816 0000 90B5     		push	{r4, r7, lr}
 3817              		.cfi_def_cfa_offset 12
 3818              		.cfi_offset 4, -12
 3819              		.cfi_offset 7, -8
 3820              		.cfi_offset 14, -4
 3821 0002 85B0     		sub	sp, sp, #20
 3822              		.cfi_def_cfa_offset 32
 3823 0004 00AF     		add	r7, sp, #0
 3824              		.cfi_def_cfa_register 7
 3825 0006 0446     		mov	r4, r0
 3826 0008 0846     		mov	r0, r1
 3827 000a 1146     		mov	r1, r2
 3828 000c 1A46     		mov	r2, r3
 3829 000e 2346     		mov	r3, r4	@ movhi
ARM GAS  C:\Users\schmi\AppData\Local\Temp\ccA9az4I.s 			page 79


 3830 0010 FB80     		strh	r3, [r7, #6]	@ movhi
 3831 0012 0346     		mov	r3, r0	@ movhi
 3832 0014 BB80     		strh	r3, [r7, #4]	@ movhi
 3833 0016 0B46     		mov	r3, r1	@ movhi
 3834 0018 7B80     		strh	r3, [r7, #2]	@ movhi
 3835 001a 1346     		mov	r3, r2	@ movhi
 3836 001c 3B80     		strh	r3, [r7]	@ movhi
 517:source\bsw\tft/tft.c ****     
 518:source\bsw\tft/tft.c ****     // rudimentary clipping (drawChar w/big text requires this)
 519:source\bsw\tft/tft.c ****     if((x >= _width) || (y >= _height)) return;
 3837              		.loc 1 519 0
 3838 001e 3C4B     		ldr	r3, .L137
 3839 0020 B3F90030 		ldrsh	r3, [r3]
 3840 0024 B7F90620 		ldrsh	r2, [r7, #6]
 3841 0028 9A42     		cmp	r2, r3
 3842 002a 6DDA     		bge	.L136
 3843              		.loc 1 519 0 is_stmt 0 discriminator 1
 3844 002c B7F90430 		ldrsh	r3, [r7, #4]
 3845 0030 384A     		ldr	r2, .L137+4
 3846 0032 1288     		ldrh	r2, [r2]
 3847 0034 9342     		cmp	r3, r2
 3848 0036 67DA     		bge	.L136
 520:source\bsw\tft/tft.c ****     
 521:source\bsw\tft/tft.c ****     if((x + w - 1) >= _width)  w = _width  - x;
 3849              		.loc 1 521 0 is_stmt 1
 3850 0038 B7F90620 		ldrsh	r2, [r7, #6]
 3851 003c B7F90230 		ldrsh	r3, [r7, #2]
 3852 0040 1344     		add	r3, r3, r2
 3853 0042 013B     		subs	r3, r3, #1
 3854 0044 324A     		ldr	r2, .L137
 3855 0046 B2F90020 		ldrsh	r2, [r2]
 3856 004a 9342     		cmp	r3, r2
 3857 004c 07DB     		blt	.L130
 3858              		.loc 1 521 0 is_stmt 0 discriminator 1
 3859 004e 304B     		ldr	r3, .L137
 3860 0050 B3F90030 		ldrsh	r3, [r3]
 3861 0054 9AB2     		uxth	r2, r3
 3862 0056 FB88     		ldrh	r3, [r7, #6]
 3863 0058 D31A     		subs	r3, r2, r3
 3864 005a 9BB2     		uxth	r3, r3
 3865 005c 7B80     		strh	r3, [r7, #2]	@ movhi
 3866              	.L130:
 522:source\bsw\tft/tft.c ****     if((y + h - 1) >= _height) h = _height - y;
 3867              		.loc 1 522 0 is_stmt 1
 3868 005e B7F90420 		ldrsh	r2, [r7, #4]
 3869 0062 B7F90030 		ldrsh	r3, [r7]
 3870 0066 1344     		add	r3, r3, r2
 3871 0068 013B     		subs	r3, r3, #1
 3872 006a 2A4A     		ldr	r2, .L137+4
 3873 006c 1288     		ldrh	r2, [r2]
 3874 006e 9342     		cmp	r3, r2
 3875 0070 05DB     		blt	.L131
 3876              		.loc 1 522 0 is_stmt 0 discriminator 1
 3877 0072 284B     		ldr	r3, .L137+4
 3878 0074 1A88     		ldrh	r2, [r3]
 3879 0076 BB88     		ldrh	r3, [r7, #4]
 3880 0078 D31A     		subs	r3, r2, r3
ARM GAS  C:\Users\schmi\AppData\Local\Temp\ccA9az4I.s 			page 80


 3881 007a 9BB2     		uxth	r3, r3
 3882 007c 3B80     		strh	r3, [r7]	@ movhi
 3883              	.L131:
 523:source\bsw\tft/tft.c ****     
 524:source\bsw\tft/tft.c ****     setAddrWindow(x, y, x+w-1, y+h-1);
 3884              		.loc 1 524 0 is_stmt 1
 3885 007e FB88     		ldrh	r3, [r7, #6]	@ movhi
 3886 0080 D8B2     		uxtb	r0, r3
 3887 0082 BB88     		ldrh	r3, [r7, #4]	@ movhi
 3888 0084 D9B2     		uxtb	r1, r3
 3889 0086 FB88     		ldrh	r3, [r7, #6]	@ movhi
 3890 0088 DAB2     		uxtb	r2, r3
 3891 008a 7B88     		ldrh	r3, [r7, #2]	@ movhi
 3892 008c DBB2     		uxtb	r3, r3
 3893 008e 1344     		add	r3, r3, r2
 3894 0090 DBB2     		uxtb	r3, r3
 3895 0092 013B     		subs	r3, r3, #1
 3896 0094 DCB2     		uxtb	r4, r3
 3897 0096 BB88     		ldrh	r3, [r7, #4]	@ movhi
 3898 0098 DAB2     		uxtb	r2, r3
 3899 009a 3B88     		ldrh	r3, [r7]	@ movhi
 3900 009c DBB2     		uxtb	r3, r3
 3901 009e 1344     		add	r3, r3, r2
 3902 00a0 DBB2     		uxtb	r3, r3
 3903 00a2 013B     		subs	r3, r3, #1
 3904 00a4 DBB2     		uxtb	r3, r3
 3905 00a6 2246     		mov	r2, r4
 3906 00a8 FFF7FEFF 		bl	setAddrWindow
 525:source\bsw\tft/tft.c **** 
 526:source\bsw\tft/tft.c ****     uint8_t hi = color >> 8, lo = color;
 3907              		.loc 1 526 0
 3908 00ac 3B8C     		ldrh	r3, [r7, #32]
 3909 00ae 1B0A     		lsrs	r3, r3, #8
 3910 00b0 9BB2     		uxth	r3, r3
 3911 00b2 FB73     		strb	r3, [r7, #15]
 3912 00b4 3B8C     		ldrh	r3, [r7, #32]	@ movhi
 3913 00b6 BB73     		strb	r3, [r7, #14]
 527:source\bsw\tft/tft.c ****     
 528:source\bsw\tft/tft.c ****     TFT_DC_HIGH;
 3914              		.loc 1 528 0
 3915 00b8 0120     		movs	r0, #1
 3916 00ba FFF7FEFF 		bl	TFT_DC_Write
 529:source\bsw\tft/tft.c ****     for(y=h; y>0; y--) {
 3917              		.loc 1 529 0
 3918 00be 3B88     		ldrh	r3, [r7]	@ movhi
 3919 00c0 BB80     		strh	r3, [r7, #4]	@ movhi
 3920 00c2 1CE0     		b	.L132
 3921              	.L135:
 530:source\bsw\tft/tft.c ****         for(x=w; x>0; x--) {
 3922              		.loc 1 530 0
 3923 00c4 7B88     		ldrh	r3, [r7, #2]	@ movhi
 3924 00c6 FB80     		strh	r3, [r7, #6]	@ movhi
 3925 00c8 0FE0     		b	.L133
 3926              	.L134:
 531:source\bsw\tft/tft.c ****           TFT_write_stream(hi);
 3927              		.loc 1 531 0 discriminator 3
 3928 00ca FB7B     		ldrb	r3, [r7, #15]	@ zero_extendqisi2
ARM GAS  C:\Users\schmi\AppData\Local\Temp\ccA9az4I.s 			page 81


 3929 00cc 1946     		mov	r1, r3
 3930 00ce 0220     		movs	r0, #2
 3931 00d0 FFF7FEFF 		bl	TFT_send
 532:source\bsw\tft/tft.c ****           TFT_write_stream(lo);
 3932              		.loc 1 532 0 discriminator 3
 3933 00d4 BB7B     		ldrb	r3, [r7, #14]	@ zero_extendqisi2
 3934 00d6 1946     		mov	r1, r3
 3935 00d8 0220     		movs	r0, #2
 3936 00da FFF7FEFF 		bl	TFT_send
 530:source\bsw\tft/tft.c ****         for(x=w; x>0; x--) {
 3937              		.loc 1 530 0 discriminator 3
 3938 00de B7F90630 		ldrsh	r3, [r7, #6]
 3939 00e2 9BB2     		uxth	r3, r3
 3940 00e4 013B     		subs	r3, r3, #1
 3941 00e6 9BB2     		uxth	r3, r3
 3942 00e8 FB80     		strh	r3, [r7, #6]	@ movhi
 3943              	.L133:
 530:source\bsw\tft/tft.c ****         for(x=w; x>0; x--) {
 3944              		.loc 1 530 0 is_stmt 0 discriminator 1
 3945 00ea B7F90630 		ldrsh	r3, [r7, #6]
 3946 00ee 002B     		cmp	r3, #0
 3947 00f0 EBDC     		bgt	.L134
 529:source\bsw\tft/tft.c ****         for(x=w; x>0; x--) {
 3948              		.loc 1 529 0 is_stmt 1 discriminator 2
 3949 00f2 B7F90430 		ldrsh	r3, [r7, #4]
 3950 00f6 9BB2     		uxth	r3, r3
 3951 00f8 013B     		subs	r3, r3, #1
 3952 00fa 9BB2     		uxth	r3, r3
 3953 00fc BB80     		strh	r3, [r7, #4]	@ movhi
 3954              	.L132:
 529:source\bsw\tft/tft.c ****         for(x=w; x>0; x--) {
 3955              		.loc 1 529 0 is_stmt 0 discriminator 1
 3956 00fe B7F90430 		ldrsh	r3, [r7, #4]
 3957 0102 002B     		cmp	r3, #0
 3958 0104 DEDC     		bgt	.L135
 3959 0106 00E0     		b	.L126
 3960              	.L136:
 519:source\bsw\tft/tft.c ****     
 3961              		.loc 1 519 0 is_stmt 1
 3962 0108 00BF     		nop
 3963              	.L126:
 533:source\bsw\tft/tft.c ****         }
 534:source\bsw\tft/tft.c ****     }
 535:source\bsw\tft/tft.c **** }
 3964              		.loc 1 535 0
 3965 010a 1437     		adds	r7, r7, #20
 3966              		.cfi_def_cfa_offset 12
 3967 010c BD46     		mov	sp, r7
 3968              		.cfi_def_cfa_register 13
 3969              		@ sp needed
 3970 010e 90BD     		pop	{r4, r7, pc}
 3971              	.L138:
 3972              		.align	2
 3973              	.L137:
 3974 0110 06000000 		.word	_width
 3975 0114 08000000 		.word	_height
 3976              		.cfi_endproc
ARM GAS  C:\Users\schmi\AppData\Local\Temp\ccA9az4I.s 			page 82


 3977              	.LFE139:
 3978              		.size	TFT_fillRect, .-TFT_fillRect
 3979              		.section	.text.TFT_drawPixel,"ax",%progbits
 3980              		.align	2
 3981              		.global	TFT_drawPixel
 3982              		.thumb
 3983              		.thumb_func
 3984              		.type	TFT_drawPixel, %function
 3985              	TFT_drawPixel:
 3986              	.LFB140:
 536:source\bsw\tft/tft.c **** 
 537:source\bsw\tft/tft.c **** void TFT_drawPixel(int16_t x, int16_t y, TFT_color_t color) {
 3987              		.loc 1 537 0
 3988              		.cfi_startproc
 3989              		@ args = 0, pretend = 0, frame = 8
 3990              		@ frame_needed = 1, uses_anonymous_args = 0
 3991 0000 80B5     		push	{r7, lr}
 3992              		.cfi_def_cfa_offset 8
 3993              		.cfi_offset 7, -8
 3994              		.cfi_offset 14, -4
 3995 0002 82B0     		sub	sp, sp, #8
 3996              		.cfi_def_cfa_offset 16
 3997 0004 00AF     		add	r7, sp, #0
 3998              		.cfi_def_cfa_register 7
 3999 0006 0346     		mov	r3, r0
 4000 0008 FB80     		strh	r3, [r7, #6]	@ movhi
 4001 000a 0B46     		mov	r3, r1	@ movhi
 4002 000c BB80     		strh	r3, [r7, #4]	@ movhi
 4003 000e 1346     		mov	r3, r2	@ movhi
 4004 0010 7B80     		strh	r3, [r7, #2]	@ movhi
 538:source\bsw\tft/tft.c **** 
 539:source\bsw\tft/tft.c ****     if((x < 0) ||(x >= _width) || (y < 0) || (y >= _height)) return;
 4005              		.loc 1 539 0
 4006 0012 B7F90630 		ldrsh	r3, [r7, #6]
 4007 0016 002B     		cmp	r3, #0
 4008 0018 30DB     		blt	.L143
 4009              		.loc 1 539 0 is_stmt 0 discriminator 1
 4010 001a 1A4B     		ldr	r3, .L144
 4011 001c B3F90030 		ldrsh	r3, [r3]
 4012 0020 B7F90620 		ldrsh	r2, [r7, #6]
 4013 0024 9A42     		cmp	r2, r3
 4014 0026 29DA     		bge	.L143
 4015              		.loc 1 539 0 discriminator 2
 4016 0028 B7F90430 		ldrsh	r3, [r7, #4]
 4017 002c 002B     		cmp	r3, #0
 4018 002e 25DB     		blt	.L143
 4019              		.loc 1 539 0 discriminator 3
 4020 0030 B7F90430 		ldrsh	r3, [r7, #4]
 4021 0034 144A     		ldr	r2, .L144+4
 4022 0036 1288     		ldrh	r2, [r2]
 4023 0038 9342     		cmp	r3, r2
 4024 003a 1FDA     		bge	.L143
 540:source\bsw\tft/tft.c ****     setAddrWindow(x,y,x+1,y+1);
 4025              		.loc 1 540 0 is_stmt 1
 4026 003c FB88     		ldrh	r3, [r7, #6]	@ movhi
 4027 003e D8B2     		uxtb	r0, r3
 4028 0040 BB88     		ldrh	r3, [r7, #4]	@ movhi
ARM GAS  C:\Users\schmi\AppData\Local\Temp\ccA9az4I.s 			page 83


 4029 0042 D9B2     		uxtb	r1, r3
 4030 0044 FB88     		ldrh	r3, [r7, #6]	@ movhi
 4031 0046 DBB2     		uxtb	r3, r3
 4032 0048 0133     		adds	r3, r3, #1
 4033 004a DAB2     		uxtb	r2, r3
 4034 004c BB88     		ldrh	r3, [r7, #4]	@ movhi
 4035 004e DBB2     		uxtb	r3, r3
 4036 0050 0133     		adds	r3, r3, #1
 4037 0052 DBB2     		uxtb	r3, r3
 4038 0054 FFF7FEFF 		bl	setAddrWindow
 541:source\bsw\tft/tft.c **** 
 542:source\bsw\tft/tft.c ****     TFT_DC_HIGH;
 4039              		.loc 1 542 0
 4040 0058 0120     		movs	r0, #1
 4041 005a FFF7FEFF 		bl	TFT_DC_Write
 543:source\bsw\tft/tft.c ****     TFT_write_stream(color >> 8);
 4042              		.loc 1 543 0
 4043 005e 7B88     		ldrh	r3, [r7, #2]
 4044 0060 1B0A     		lsrs	r3, r3, #8
 4045 0062 9BB2     		uxth	r3, r3
 4046 0064 DBB2     		uxtb	r3, r3
 4047 0066 1946     		mov	r1, r3
 4048 0068 0220     		movs	r0, #2
 4049 006a FFF7FEFF 		bl	TFT_send
 544:source\bsw\tft/tft.c ****     TFT_write_stream(color);
 4050              		.loc 1 544 0
 4051 006e 7B88     		ldrh	r3, [r7, #2]	@ movhi
 4052 0070 DBB2     		uxtb	r3, r3
 4053 0072 1946     		mov	r1, r3
 4054 0074 0220     		movs	r0, #2
 4055 0076 FFF7FEFF 		bl	TFT_send
 4056 007a 00E0     		b	.L139
 4057              	.L143:
 539:source\bsw\tft/tft.c ****     setAddrWindow(x,y,x+1,y+1);
 4058              		.loc 1 539 0
 4059 007c 00BF     		nop
 4060              	.L139:
 545:source\bsw\tft/tft.c **** 
 546:source\bsw\tft/tft.c **** }
 4061              		.loc 1 546 0
 4062 007e 0837     		adds	r7, r7, #8
 4063              		.cfi_def_cfa_offset 8
 4064 0080 BD46     		mov	sp, r7
 4065              		.cfi_def_cfa_register 13
 4066              		@ sp needed
 4067 0082 80BD     		pop	{r7, pc}
 4068              	.L145:
 4069              		.align	2
 4070              	.L144:
 4071 0084 06000000 		.word	_width
 4072 0088 08000000 		.word	_height
 4073              		.cfi_endproc
 4074              	.LFE140:
 4075              		.size	TFT_drawPixel, .-TFT_drawPixel
 4076              		.section	.text.TFT_fastVLine,"ax",%progbits
 4077              		.align	2
 4078              		.global	TFT_fastVLine
ARM GAS  C:\Users\schmi\AppData\Local\Temp\ccA9az4I.s 			page 84


 4079              		.thumb
 4080              		.thumb_func
 4081              		.type	TFT_fastVLine, %function
 4082              	TFT_fastVLine:
 4083              	.LFB141:
 547:source\bsw\tft/tft.c **** 
 548:source\bsw\tft/tft.c **** void TFT_fastVLine(int16_t x, int16_t y, int16_t h, TFT_color_t color) {
 4084              		.loc 1 548 0
 4085              		.cfi_startproc
 4086              		@ args = 0, pretend = 0, frame = 16
 4087              		@ frame_needed = 1, uses_anonymous_args = 0
 4088 0000 90B5     		push	{r4, r7, lr}
 4089              		.cfi_def_cfa_offset 12
 4090              		.cfi_offset 4, -12
 4091              		.cfi_offset 7, -8
 4092              		.cfi_offset 14, -4
 4093 0002 85B0     		sub	sp, sp, #20
 4094              		.cfi_def_cfa_offset 32
 4095 0004 00AF     		add	r7, sp, #0
 4096              		.cfi_def_cfa_register 7
 4097 0006 0446     		mov	r4, r0
 4098 0008 0846     		mov	r0, r1
 4099 000a 1146     		mov	r1, r2
 4100 000c 1A46     		mov	r2, r3
 4101 000e 2346     		mov	r3, r4	@ movhi
 4102 0010 FB80     		strh	r3, [r7, #6]	@ movhi
 4103 0012 0346     		mov	r3, r0	@ movhi
 4104 0014 BB80     		strh	r3, [r7, #4]	@ movhi
 4105 0016 0B46     		mov	r3, r1	@ movhi
 4106 0018 7B80     		strh	r3, [r7, #2]	@ movhi
 4107 001a 1346     		mov	r3, r2	@ movhi
 4108 001c 3B80     		strh	r3, [r7]	@ movhi
 549:source\bsw\tft/tft.c **** 
 550:source\bsw\tft/tft.c ****   // Rudimentary clipping
 551:source\bsw\tft/tft.c ****   if((x >= _width) || (y >= _height)) return;
 4109              		.loc 1 551 0
 4110 001e 274B     		ldr	r3, .L154
 4111 0020 B3F90030 		ldrsh	r3, [r3]
 4112 0024 B7F90620 		ldrsh	r2, [r7, #6]
 4113 0028 9A42     		cmp	r2, r3
 4114 002a 43DA     		bge	.L153
 4115              		.loc 1 551 0 is_stmt 0 discriminator 1
 4116 002c B7F90430 		ldrsh	r3, [r7, #4]
 4117 0030 234A     		ldr	r2, .L154+4
 4118 0032 1288     		ldrh	r2, [r2]
 4119 0034 9342     		cmp	r3, r2
 4120 0036 3DDA     		bge	.L153
 552:source\bsw\tft/tft.c ****   if((y+h-1) >= _height) h = _height-y;
 4121              		.loc 1 552 0 is_stmt 1
 4122 0038 B7F90420 		ldrsh	r2, [r7, #4]
 4123 003c B7F90230 		ldrsh	r3, [r7, #2]
 4124 0040 1344     		add	r3, r3, r2
 4125 0042 013B     		subs	r3, r3, #1
 4126 0044 1E4A     		ldr	r2, .L154+4
 4127 0046 1288     		ldrh	r2, [r2]
 4128 0048 9342     		cmp	r3, r2
 4129 004a 05DB     		blt	.L150
ARM GAS  C:\Users\schmi\AppData\Local\Temp\ccA9az4I.s 			page 85


 4130              		.loc 1 552 0 is_stmt 0 discriminator 1
 4131 004c 1C4B     		ldr	r3, .L154+4
 4132 004e 1A88     		ldrh	r2, [r3]
 4133 0050 BB88     		ldrh	r3, [r7, #4]
 4134 0052 D31A     		subs	r3, r2, r3
 4135 0054 9BB2     		uxth	r3, r3
 4136 0056 7B80     		strh	r3, [r7, #2]	@ movhi
 4137              	.L150:
 553:source\bsw\tft/tft.c ****   setAddrWindow(x, y, x, y+h-1);
 4138              		.loc 1 553 0 is_stmt 1
 4139 0058 FB88     		ldrh	r3, [r7, #6]	@ movhi
 4140 005a D8B2     		uxtb	r0, r3
 4141 005c BB88     		ldrh	r3, [r7, #4]	@ movhi
 4142 005e D9B2     		uxtb	r1, r3
 4143 0060 FB88     		ldrh	r3, [r7, #6]	@ movhi
 4144 0062 DCB2     		uxtb	r4, r3
 4145 0064 BB88     		ldrh	r3, [r7, #4]	@ movhi
 4146 0066 DAB2     		uxtb	r2, r3
 4147 0068 7B88     		ldrh	r3, [r7, #2]	@ movhi
 4148 006a DBB2     		uxtb	r3, r3
 4149 006c 1344     		add	r3, r3, r2
 4150 006e DBB2     		uxtb	r3, r3
 4151 0070 013B     		subs	r3, r3, #1
 4152 0072 DBB2     		uxtb	r3, r3
 4153 0074 2246     		mov	r2, r4
 4154 0076 FFF7FEFF 		bl	setAddrWindow
 554:source\bsw\tft/tft.c **** 
 555:source\bsw\tft/tft.c ****   uint8_t hi = color >> 8, lo = color;
 4155              		.loc 1 555 0
 4156 007a 3B88     		ldrh	r3, [r7]
 4157 007c 1B0A     		lsrs	r3, r3, #8
 4158 007e 9BB2     		uxth	r3, r3
 4159 0080 FB73     		strb	r3, [r7, #15]
 4160 0082 3B88     		ldrh	r3, [r7]	@ movhi
 4161 0084 BB73     		strb	r3, [r7, #14]
 556:source\bsw\tft/tft.c ****     
 557:source\bsw\tft/tft.c ****   TFT_DC_HIGH;
 4162              		.loc 1 557 0
 4163 0086 0120     		movs	r0, #1
 4164 0088 FFF7FEFF 		bl	TFT_DC_Write
 558:source\bsw\tft/tft.c ****   while (h--) {
 4165              		.loc 1 558 0
 4166 008c 09E0     		b	.L151
 4167              	.L152:
 559:source\bsw\tft/tft.c ****     TFT_write_stream(hi);
 4168              		.loc 1 559 0
 4169 008e FB7B     		ldrb	r3, [r7, #15]	@ zero_extendqisi2
 4170 0090 1946     		mov	r1, r3
 4171 0092 0220     		movs	r0, #2
 4172 0094 FFF7FEFF 		bl	TFT_send
 560:source\bsw\tft/tft.c ****     TFT_write_stream(lo);
 4173              		.loc 1 560 0
 4174 0098 BB7B     		ldrb	r3, [r7, #14]	@ zero_extendqisi2
 4175 009a 1946     		mov	r1, r3
 4176 009c 0220     		movs	r0, #2
 4177 009e FFF7FEFF 		bl	TFT_send
 4178              	.L151:
ARM GAS  C:\Users\schmi\AppData\Local\Temp\ccA9az4I.s 			page 86


 558:source\bsw\tft/tft.c ****   while (h--) {
 4179              		.loc 1 558 0
 4180 00a2 B7F90230 		ldrsh	r3, [r7, #2]
 4181 00a6 9AB2     		uxth	r2, r3
 4182 00a8 013A     		subs	r2, r2, #1
 4183 00aa 92B2     		uxth	r2, r2
 4184 00ac 7A80     		strh	r2, [r7, #2]	@ movhi
 4185 00ae 002B     		cmp	r3, #0
 4186 00b0 EDD1     		bne	.L152
 4187 00b2 00E0     		b	.L146
 4188              	.L153:
 551:source\bsw\tft/tft.c ****   if((y+h-1) >= _height) h = _height-y;
 4189              		.loc 1 551 0
 4190 00b4 00BF     		nop
 4191              	.L146:
 561:source\bsw\tft/tft.c ****   }
 562:source\bsw\tft/tft.c **** }
 4192              		.loc 1 562 0
 4193 00b6 1437     		adds	r7, r7, #20
 4194              		.cfi_def_cfa_offset 12
 4195 00b8 BD46     		mov	sp, r7
 4196              		.cfi_def_cfa_register 13
 4197              		@ sp needed
 4198 00ba 90BD     		pop	{r4, r7, pc}
 4199              	.L155:
 4200              		.align	2
 4201              	.L154:
 4202 00bc 06000000 		.word	_width
 4203 00c0 08000000 		.word	_height
 4204              		.cfi_endproc
 4205              	.LFE141:
 4206              		.size	TFT_fastVLine, .-TFT_fastVLine
 4207              		.section	.text.TFT_fastHLine,"ax",%progbits
 4208              		.align	2
 4209              		.global	TFT_fastHLine
 4210              		.thumb
 4211              		.thumb_func
 4212              		.type	TFT_fastHLine, %function
 4213              	TFT_fastHLine:
 4214              	.LFB142:
 563:source\bsw\tft/tft.c **** 
 564:source\bsw\tft/tft.c **** void TFT_fastHLine(int16_t x, int16_t y, int16_t w,  TFT_color_t color) {
 4215              		.loc 1 564 0
 4216              		.cfi_startproc
 4217              		@ args = 0, pretend = 0, frame = 16
 4218              		@ frame_needed = 1, uses_anonymous_args = 0
 4219 0000 90B5     		push	{r4, r7, lr}
 4220              		.cfi_def_cfa_offset 12
 4221              		.cfi_offset 4, -12
 4222              		.cfi_offset 7, -8
 4223              		.cfi_offset 14, -4
 4224 0002 85B0     		sub	sp, sp, #20
 4225              		.cfi_def_cfa_offset 32
 4226 0004 00AF     		add	r7, sp, #0
 4227              		.cfi_def_cfa_register 7
 4228 0006 0446     		mov	r4, r0
 4229 0008 0846     		mov	r0, r1
ARM GAS  C:\Users\schmi\AppData\Local\Temp\ccA9az4I.s 			page 87


 4230 000a 1146     		mov	r1, r2
 4231 000c 1A46     		mov	r2, r3
 4232 000e 2346     		mov	r3, r4	@ movhi
 4233 0010 FB80     		strh	r3, [r7, #6]	@ movhi
 4234 0012 0346     		mov	r3, r0	@ movhi
 4235 0014 BB80     		strh	r3, [r7, #4]	@ movhi
 4236 0016 0B46     		mov	r3, r1	@ movhi
 4237 0018 7B80     		strh	r3, [r7, #2]	@ movhi
 4238 001a 1346     		mov	r3, r2	@ movhi
 4239 001c 3B80     		strh	r3, [r7]	@ movhi
 565:source\bsw\tft/tft.c **** 
 566:source\bsw\tft/tft.c ****     // Rudimentary clipping
 567:source\bsw\tft/tft.c ****     if((x >= _width) || (y >= _height)) return;
 4240              		.loc 1 567 0
 4241 001e 284B     		ldr	r3, .L164
 4242 0020 B3F90030 		ldrsh	r3, [r3]
 4243 0024 B7F90620 		ldrsh	r2, [r7, #6]
 4244 0028 9A42     		cmp	r2, r3
 4245 002a 45DA     		bge	.L163
 4246              		.loc 1 567 0 is_stmt 0 discriminator 1
 4247 002c B7F90430 		ldrsh	r3, [r7, #4]
 4248 0030 244A     		ldr	r2, .L164+4
 4249 0032 1288     		ldrh	r2, [r2]
 4250 0034 9342     		cmp	r3, r2
 4251 0036 3FDA     		bge	.L163
 568:source\bsw\tft/tft.c ****     if((x+w-1) >= _width)  w = _width-x;
 4252              		.loc 1 568 0 is_stmt 1
 4253 0038 B7F90620 		ldrsh	r2, [r7, #6]
 4254 003c B7F90230 		ldrsh	r3, [r7, #2]
 4255 0040 1344     		add	r3, r3, r2
 4256 0042 013B     		subs	r3, r3, #1
 4257 0044 1E4A     		ldr	r2, .L164
 4258 0046 B2F90020 		ldrsh	r2, [r2]
 4259 004a 9342     		cmp	r3, r2
 4260 004c 07DB     		blt	.L160
 4261              		.loc 1 568 0 is_stmt 0 discriminator 1
 4262 004e 1C4B     		ldr	r3, .L164
 4263 0050 B3F90030 		ldrsh	r3, [r3]
 4264 0054 9AB2     		uxth	r2, r3
 4265 0056 FB88     		ldrh	r3, [r7, #6]
 4266 0058 D31A     		subs	r3, r2, r3
 4267 005a 9BB2     		uxth	r3, r3
 4268 005c 7B80     		strh	r3, [r7, #2]	@ movhi
 4269              	.L160:
 569:source\bsw\tft/tft.c ****     setAddrWindow(x, y, x+w-1, y);
 4270              		.loc 1 569 0 is_stmt 1
 4271 005e FB88     		ldrh	r3, [r7, #6]	@ movhi
 4272 0060 D8B2     		uxtb	r0, r3
 4273 0062 BB88     		ldrh	r3, [r7, #4]	@ movhi
 4274 0064 D9B2     		uxtb	r1, r3
 4275 0066 FB88     		ldrh	r3, [r7, #6]	@ movhi
 4276 0068 DAB2     		uxtb	r2, r3
 4277 006a 7B88     		ldrh	r3, [r7, #2]	@ movhi
 4278 006c DBB2     		uxtb	r3, r3
 4279 006e 1344     		add	r3, r3, r2
 4280 0070 DBB2     		uxtb	r3, r3
 4281 0072 013B     		subs	r3, r3, #1
ARM GAS  C:\Users\schmi\AppData\Local\Temp\ccA9az4I.s 			page 88


 4282 0074 DAB2     		uxtb	r2, r3
 4283 0076 BB88     		ldrh	r3, [r7, #4]	@ movhi
 4284 0078 DBB2     		uxtb	r3, r3
 4285 007a FFF7FEFF 		bl	setAddrWindow
 570:source\bsw\tft/tft.c **** 
 571:source\bsw\tft/tft.c ****     uint8_t hi = color >> 8, lo = color;
 4286              		.loc 1 571 0
 4287 007e 3B88     		ldrh	r3, [r7]
 4288 0080 1B0A     		lsrs	r3, r3, #8
 4289 0082 9BB2     		uxth	r3, r3
 4290 0084 FB73     		strb	r3, [r7, #15]
 4291 0086 3B88     		ldrh	r3, [r7]	@ movhi
 4292 0088 BB73     		strb	r3, [r7, #14]
 572:source\bsw\tft/tft.c **** 
 573:source\bsw\tft/tft.c ****     TFT_DC_HIGH;
 4293              		.loc 1 573 0
 4294 008a 0120     		movs	r0, #1
 4295 008c FFF7FEFF 		bl	TFT_DC_Write
 574:source\bsw\tft/tft.c **** 
 575:source\bsw\tft/tft.c ****     while (w--) {
 4296              		.loc 1 575 0
 4297 0090 09E0     		b	.L161
 4298              	.L162:
 576:source\bsw\tft/tft.c ****         TFT_write_stream(hi);
 4299              		.loc 1 576 0
 4300 0092 FB7B     		ldrb	r3, [r7, #15]	@ zero_extendqisi2
 4301 0094 1946     		mov	r1, r3
 4302 0096 0220     		movs	r0, #2
 4303 0098 FFF7FEFF 		bl	TFT_send
 577:source\bsw\tft/tft.c ****         TFT_write_stream(lo);
 4304              		.loc 1 577 0
 4305 009c BB7B     		ldrb	r3, [r7, #14]	@ zero_extendqisi2
 4306 009e 1946     		mov	r1, r3
 4307 00a0 0220     		movs	r0, #2
 4308 00a2 FFF7FEFF 		bl	TFT_send
 4309              	.L161:
 575:source\bsw\tft/tft.c ****         TFT_write_stream(hi);
 4310              		.loc 1 575 0
 4311 00a6 B7F90230 		ldrsh	r3, [r7, #2]
 4312 00aa 9AB2     		uxth	r2, r3
 4313 00ac 013A     		subs	r2, r2, #1
 4314 00ae 92B2     		uxth	r2, r2
 4315 00b0 7A80     		strh	r2, [r7, #2]	@ movhi
 4316 00b2 002B     		cmp	r3, #0
 4317 00b4 EDD1     		bne	.L162
 4318 00b6 00E0     		b	.L156
 4319              	.L163:
 567:source\bsw\tft/tft.c ****     if((x+w-1) >= _width)  w = _width-x;
 4320              		.loc 1 567 0
 4321 00b8 00BF     		nop
 4322              	.L156:
 578:source\bsw\tft/tft.c ****     }
 579:source\bsw\tft/tft.c **** }
 4323              		.loc 1 579 0
 4324 00ba 1437     		adds	r7, r7, #20
 4325              		.cfi_def_cfa_offset 12
 4326 00bc BD46     		mov	sp, r7
ARM GAS  C:\Users\schmi\AppData\Local\Temp\ccA9az4I.s 			page 89


 4327              		.cfi_def_cfa_register 13
 4328              		@ sp needed
 4329 00be 90BD     		pop	{r4, r7, pc}
 4330              	.L165:
 4331              		.align	2
 4332              	.L164:
 4333 00c0 06000000 		.word	_width
 4334 00c4 08000000 		.word	_height
 4335              		.cfi_endproc
 4336              	.LFE142:
 4337              		.size	TFT_fastHLine, .-TFT_fastHLine
 4338              		.section	.text.TFT_writeLine,"ax",%progbits
 4339              		.align	2
 4340              		.global	TFT_writeLine
 4341              		.thumb
 4342              		.thumb_func
 4343              		.type	TFT_writeLine, %function
 4344              	TFT_writeLine:
 4345              	.LFB143:
 580:source\bsw\tft/tft.c **** 
 581:source\bsw\tft/tft.c **** // Bresenham's algorithm - thx wikpedia
 582:source\bsw\tft/tft.c **** void TFT_writeLine(int16_t x0, int16_t y0, int16_t x1, int16_t y1,  TFT_color_t color) {
 4346              		.loc 1 582 0
 4347              		.cfi_startproc
 4348              		@ args = 4, pretend = 0, frame = 32
 4349              		@ frame_needed = 1, uses_anonymous_args = 0
 4350 0000 90B5     		push	{r4, r7, lr}
 4351              		.cfi_def_cfa_offset 12
 4352              		.cfi_offset 4, -12
 4353              		.cfi_offset 7, -8
 4354              		.cfi_offset 14, -4
 4355 0002 89B0     		sub	sp, sp, #36
 4356              		.cfi_def_cfa_offset 48
 4357 0004 00AF     		add	r7, sp, #0
 4358              		.cfi_def_cfa_register 7
 4359 0006 0446     		mov	r4, r0
 4360 0008 0846     		mov	r0, r1
 4361 000a 1146     		mov	r1, r2
 4362 000c 1A46     		mov	r2, r3
 4363 000e 2346     		mov	r3, r4	@ movhi
 4364 0010 FB80     		strh	r3, [r7, #6]	@ movhi
 4365 0012 0346     		mov	r3, r0	@ movhi
 4366 0014 BB80     		strh	r3, [r7, #4]	@ movhi
 4367 0016 0B46     		mov	r3, r1	@ movhi
 4368 0018 7B80     		strh	r3, [r7, #2]	@ movhi
 4369 001a 1346     		mov	r3, r2	@ movhi
 4370 001c 3B80     		strh	r3, [r7]	@ movhi
 583:source\bsw\tft/tft.c ****     int16_t steep = _abs(y1 - y0) > _abs(x1 - x0);
 4371              		.loc 1 583 0
 4372 001e B7F90020 		ldrsh	r2, [r7]
 4373 0022 B7F90430 		ldrsh	r3, [r7, #4]
 4374 0026 D31A     		subs	r3, r2, r3
 4375 0028 83EAE372 		eor	r2, r3, r3, asr #31
 4376 002c A2EBE372 		sub	r2, r2, r3, asr #31
 4377 0030 B7F90210 		ldrsh	r1, [r7, #2]
 4378 0034 B7F90630 		ldrsh	r3, [r7, #6]
 4379 0038 CB1A     		subs	r3, r1, r3
ARM GAS  C:\Users\schmi\AppData\Local\Temp\ccA9az4I.s 			page 90


 4380 003a 002B     		cmp	r3, #0
 4381 003c B8BF     		it	lt
 4382 003e 5B42     		rsblt	r3, r3, #0
 4383 0040 9A42     		cmp	r2, r3
 4384 0042 CCBF     		ite	gt
 4385 0044 0123     		movgt	r3, #1
 4386 0046 0023     		movle	r3, #0
 4387 0048 DBB2     		uxtb	r3, r3
 4388 004a 7B83     		strh	r3, [r7, #26]	@ movhi
 584:source\bsw\tft/tft.c ****     if (steep) {
 4389              		.loc 1 584 0
 4390 004c B7F91A30 		ldrsh	r3, [r7, #26]
 4391 0050 002B     		cmp	r3, #0
 4392 0052 0BD0     		beq	.L167
 4393              	.LBB9:
 585:source\bsw\tft/tft.c ****         _swap_int16_t(x0, y0);
 4394              		.loc 1 585 0
 4395 0054 FB88     		ldrh	r3, [r7, #6]	@ movhi
 4396 0056 3B83     		strh	r3, [r7, #24]	@ movhi
 4397 0058 BB88     		ldrh	r3, [r7, #4]	@ movhi
 4398 005a FB80     		strh	r3, [r7, #6]	@ movhi
 4399 005c 3B8B     		ldrh	r3, [r7, #24]	@ movhi
 4400 005e BB80     		strh	r3, [r7, #4]	@ movhi
 4401              	.LBE9:
 4402              	.LBB10:
 586:source\bsw\tft/tft.c ****         _swap_int16_t(x1, y1);
 4403              		.loc 1 586 0
 4404 0060 7B88     		ldrh	r3, [r7, #2]	@ movhi
 4405 0062 FB82     		strh	r3, [r7, #22]	@ movhi
 4406 0064 3B88     		ldrh	r3, [r7]	@ movhi
 4407 0066 7B80     		strh	r3, [r7, #2]	@ movhi
 4408 0068 FB8A     		ldrh	r3, [r7, #22]	@ movhi
 4409 006a 3B80     		strh	r3, [r7]	@ movhi
 4410              	.L167:
 4411              	.LBE10:
 587:source\bsw\tft/tft.c ****     }
 588:source\bsw\tft/tft.c **** 
 589:source\bsw\tft/tft.c ****     if (x0 > x1) {
 4412              		.loc 1 589 0
 4413 006c B7F90620 		ldrsh	r2, [r7, #6]
 4414 0070 B7F90230 		ldrsh	r3, [r7, #2]
 4415 0074 9A42     		cmp	r2, r3
 4416 0076 0BDD     		ble	.L168
 4417              	.LBB11:
 590:source\bsw\tft/tft.c ****         _swap_int16_t(x0, x1);
 4418              		.loc 1 590 0
 4419 0078 FB88     		ldrh	r3, [r7, #6]	@ movhi
 4420 007a BB82     		strh	r3, [r7, #20]	@ movhi
 4421 007c 7B88     		ldrh	r3, [r7, #2]	@ movhi
 4422 007e FB80     		strh	r3, [r7, #6]	@ movhi
 4423 0080 BB8A     		ldrh	r3, [r7, #20]	@ movhi
 4424 0082 7B80     		strh	r3, [r7, #2]	@ movhi
 4425              	.LBE11:
 4426              	.LBB12:
 591:source\bsw\tft/tft.c ****         _swap_int16_t(y0, y1);
 4427              		.loc 1 591 0
 4428 0084 BB88     		ldrh	r3, [r7, #4]	@ movhi
ARM GAS  C:\Users\schmi\AppData\Local\Temp\ccA9az4I.s 			page 91


 4429 0086 7B82     		strh	r3, [r7, #18]	@ movhi
 4430 0088 3B88     		ldrh	r3, [r7]	@ movhi
 4431 008a BB80     		strh	r3, [r7, #4]	@ movhi
 4432 008c 7B8A     		ldrh	r3, [r7, #18]	@ movhi
 4433 008e 3B80     		strh	r3, [r7]	@ movhi
 4434              	.L168:
 4435              	.LBE12:
 592:source\bsw\tft/tft.c ****     }
 593:source\bsw\tft/tft.c **** 
 594:source\bsw\tft/tft.c ****     int16_t dx, dy;
 595:source\bsw\tft/tft.c ****     dx = x1 - x0;
 4436              		.loc 1 595 0
 4437 0090 7A88     		ldrh	r2, [r7, #2]
 4438 0092 FB88     		ldrh	r3, [r7, #6]
 4439 0094 D31A     		subs	r3, r2, r3
 4440 0096 9BB2     		uxth	r3, r3
 4441 0098 3B82     		strh	r3, [r7, #16]	@ movhi
 596:source\bsw\tft/tft.c ****     dy = _abs(y1 - y0);
 4442              		.loc 1 596 0
 4443 009a B7F90020 		ldrsh	r2, [r7]
 4444 009e B7F90430 		ldrsh	r3, [r7, #4]
 4445 00a2 D31A     		subs	r3, r2, r3
 4446 00a4 002B     		cmp	r3, #0
 4447 00a6 B8BF     		it	lt
 4448 00a8 5B42     		rsblt	r3, r3, #0
 4449 00aa FB81     		strh	r3, [r7, #14]	@ movhi
 597:source\bsw\tft/tft.c **** 
 598:source\bsw\tft/tft.c ****     int16_t err = dx / 2;
 4450              		.loc 1 598 0
 4451 00ac B7F91030 		ldrsh	r3, [r7, #16]
 4452 00b0 DA0F     		lsrs	r2, r3, #31
 4453 00b2 1344     		add	r3, r3, r2
 4454 00b4 5B10     		asrs	r3, r3, #1
 4455 00b6 FB83     		strh	r3, [r7, #30]	@ movhi
 599:source\bsw\tft/tft.c ****     int16_t ystep;
 600:source\bsw\tft/tft.c **** 
 601:source\bsw\tft/tft.c ****     if (y0 < y1) {
 4456              		.loc 1 601 0
 4457 00b8 B7F90420 		ldrsh	r2, [r7, #4]
 4458 00bc B7F90030 		ldrsh	r3, [r7]
 4459 00c0 9A42     		cmp	r2, r3
 4460 00c2 02DA     		bge	.L169
 602:source\bsw\tft/tft.c ****         ystep = 1;
 4461              		.loc 1 602 0
 4462 00c4 0123     		movs	r3, #1
 4463 00c6 BB83     		strh	r3, [r7, #28]	@ movhi
 4464 00c8 31E0     		b	.L171
 4465              	.L169:
 603:source\bsw\tft/tft.c ****     } else {
 604:source\bsw\tft/tft.c ****         ystep = -1;
 4466              		.loc 1 604 0
 4467 00ca 4FF6FF73 		movw	r3, #65535
 4468 00ce BB83     		strh	r3, [r7, #28]	@ movhi
 605:source\bsw\tft/tft.c ****     }
 606:source\bsw\tft/tft.c **** 
 607:source\bsw\tft/tft.c ****     for (; x0<=x1; x0++) {
 4469              		.loc 1 607 0
ARM GAS  C:\Users\schmi\AppData\Local\Temp\ccA9az4I.s 			page 92


 4470 00d0 2DE0     		b	.L171
 4471              	.L175:
 608:source\bsw\tft/tft.c ****         if (steep) {
 4472              		.loc 1 608 0
 4473 00d2 B7F91A30 		ldrsh	r3, [r7, #26]
 4474 00d6 002B     		cmp	r3, #0
 4475 00d8 08D0     		beq	.L172
 609:source\bsw\tft/tft.c ****             TFT_drawPixel(y0, x0, color);
 4476              		.loc 1 609 0
 4477 00da 3A8E     		ldrh	r2, [r7, #48]
 4478 00dc B7F90610 		ldrsh	r1, [r7, #6]
 4479 00e0 B7F90430 		ldrsh	r3, [r7, #4]
 4480 00e4 1846     		mov	r0, r3
 4481 00e6 FFF7FEFF 		bl	TFT_drawPixel
 4482 00ea 07E0     		b	.L173
 4483              	.L172:
 610:source\bsw\tft/tft.c ****         } else {
 611:source\bsw\tft/tft.c ****             TFT_drawPixel(x0, y0, color);
 4484              		.loc 1 611 0
 4485 00ec 3A8E     		ldrh	r2, [r7, #48]
 4486 00ee B7F90410 		ldrsh	r1, [r7, #4]
 4487 00f2 B7F90630 		ldrsh	r3, [r7, #6]
 4488 00f6 1846     		mov	r0, r3
 4489 00f8 FFF7FEFF 		bl	TFT_drawPixel
 4490              	.L173:
 612:source\bsw\tft/tft.c ****         }
 613:source\bsw\tft/tft.c ****         err -= dy;
 4491              		.loc 1 613 0
 4492 00fc FA8B     		ldrh	r2, [r7, #30]
 4493 00fe FB89     		ldrh	r3, [r7, #14]
 4494 0100 D31A     		subs	r3, r2, r3
 4495 0102 9BB2     		uxth	r3, r3
 4496 0104 FB83     		strh	r3, [r7, #30]	@ movhi
 614:source\bsw\tft/tft.c ****         if (err < 0) {
 4497              		.loc 1 614 0
 4498 0106 B7F91E30 		ldrsh	r3, [r7, #30]
 4499 010a 002B     		cmp	r3, #0
 4500 010c 09DA     		bge	.L174
 615:source\bsw\tft/tft.c ****             y0 += ystep;
 4501              		.loc 1 615 0
 4502 010e BA88     		ldrh	r2, [r7, #4]
 4503 0110 BB8B     		ldrh	r3, [r7, #28]
 4504 0112 1344     		add	r3, r3, r2
 4505 0114 9BB2     		uxth	r3, r3
 4506 0116 BB80     		strh	r3, [r7, #4]	@ movhi
 616:source\bsw\tft/tft.c ****             err += dx;
 4507              		.loc 1 616 0
 4508 0118 FA8B     		ldrh	r2, [r7, #30]
 4509 011a 3B8A     		ldrh	r3, [r7, #16]
 4510 011c 1344     		add	r3, r3, r2
 4511 011e 9BB2     		uxth	r3, r3
 4512 0120 FB83     		strh	r3, [r7, #30]	@ movhi
 4513              	.L174:
 607:source\bsw\tft/tft.c ****         if (steep) {
 4514              		.loc 1 607 0
 4515 0122 B7F90630 		ldrsh	r3, [r7, #6]
 4516 0126 9BB2     		uxth	r3, r3
ARM GAS  C:\Users\schmi\AppData\Local\Temp\ccA9az4I.s 			page 93


 4517 0128 0133     		adds	r3, r3, #1
 4518 012a 9BB2     		uxth	r3, r3
 4519 012c FB80     		strh	r3, [r7, #6]	@ movhi
 4520              	.L171:
 607:source\bsw\tft/tft.c ****         if (steep) {
 4521              		.loc 1 607 0 is_stmt 0 discriminator 1
 4522 012e B7F90620 		ldrsh	r2, [r7, #6]
 4523 0132 B7F90230 		ldrsh	r3, [r7, #2]
 4524 0136 9A42     		cmp	r2, r3
 4525 0138 CBDD     		ble	.L175
 617:source\bsw\tft/tft.c ****         }
 618:source\bsw\tft/tft.c ****     }
 619:source\bsw\tft/tft.c **** }
 4526              		.loc 1 619 0 is_stmt 1
 4527 013a 00BF     		nop
 4528 013c 2437     		adds	r7, r7, #36
 4529              		.cfi_def_cfa_offset 12
 4530 013e BD46     		mov	sp, r7
 4531              		.cfi_def_cfa_register 13
 4532              		@ sp needed
 4533 0140 90BD     		pop	{r4, r7, pc}
 4534              		.cfi_endproc
 4535              	.LFE143:
 4536              		.size	TFT_writeLine, .-TFT_writeLine
 4537 0142 00BF     		.section	.text.TFT_invertDisplay,"ax",%progbits
 4538              		.align	2
 4539              		.global	TFT_invertDisplay
 4540              		.thumb
 4541              		.thumb_func
 4542              		.type	TFT_invertDisplay, %function
 4543              	TFT_invertDisplay:
 4544              	.LFB144:
 620:source\bsw\tft/tft.c **** 
 621:source\bsw\tft/tft.c **** void TFT_invertDisplay(boolean_t i) {
 4545              		.loc 1 621 0
 4546              		.cfi_startproc
 4547              		@ args = 0, pretend = 0, frame = 8
 4548              		@ frame_needed = 1, uses_anonymous_args = 0
 4549 0000 80B5     		push	{r7, lr}
 4550              		.cfi_def_cfa_offset 8
 4551              		.cfi_offset 7, -8
 4552              		.cfi_offset 14, -4
 4553 0002 82B0     		sub	sp, sp, #8
 4554              		.cfi_def_cfa_offset 16
 4555 0004 00AF     		add	r7, sp, #0
 4556              		.cfi_def_cfa_register 7
 4557 0006 0346     		mov	r3, r0
 4558 0008 FB71     		strb	r3, [r7, #7]
 622:source\bsw\tft/tft.c ****   TFT_write_cmd(i ? ST7735_INVON : ST7735_INVOFF);
 4559              		.loc 1 622 0
 4560 000a FB79     		ldrb	r3, [r7, #7]	@ zero_extendqisi2
 4561 000c 002B     		cmp	r3, #0
 4562 000e 01D0     		beq	.L177
 4563              		.loc 1 622 0 is_stmt 0 discriminator 1
 4564 0010 2123     		movs	r3, #33
 4565 0012 00E0     		b	.L178
 4566              	.L177:
ARM GAS  C:\Users\schmi\AppData\Local\Temp\ccA9az4I.s 			page 94


 4567              		.loc 1 622 0 discriminator 2
 4568 0014 2023     		movs	r3, #32
 4569              	.L178:
 4570              		.loc 1 622 0 discriminator 4
 4571 0016 1946     		mov	r1, r3
 4572 0018 0020     		movs	r0, #0
 4573 001a FFF7FEFF 		bl	TFT_send
 623:source\bsw\tft/tft.c **** }
 4574              		.loc 1 623 0 is_stmt 1 discriminator 4
 4575 001e 00BF     		nop
 4576 0020 0837     		adds	r7, r7, #8
 4577              		.cfi_def_cfa_offset 8
 4578 0022 BD46     		mov	sp, r7
 4579              		.cfi_def_cfa_register 13
 4580              		@ sp needed
 4581 0024 80BD     		pop	{r7, pc}
 4582              		.cfi_endproc
 4583              	.LFE144:
 4584              		.size	TFT_invertDisplay, .-TFT_invertDisplay
 4585 0026 00BF     		.section	.text.TFT_drawCircle,"ax",%progbits
 4586              		.align	2
 4587              		.global	TFT_drawCircle
 4588              		.thumb
 4589              		.thumb_func
 4590              		.type	TFT_drawCircle, %function
 4591              	TFT_drawCircle:
 4592              	.LFB145:
 624:source\bsw\tft/tft.c **** 
 625:source\bsw\tft/tft.c **** // Draw a circle outline
 626:source\bsw\tft/tft.c **** void TFT_drawCircle(int16_t x0, int16_t y0, int16_t r, TFT_color_t color) {
 4593              		.loc 1 626 0
 4594              		.cfi_startproc
 4595              		@ args = 0, pretend = 0, frame = 24
 4596              		@ frame_needed = 1, uses_anonymous_args = 0
 4597 0000 90B5     		push	{r4, r7, lr}
 4598              		.cfi_def_cfa_offset 12
 4599              		.cfi_offset 4, -12
 4600              		.cfi_offset 7, -8
 4601              		.cfi_offset 14, -4
 4602 0002 87B0     		sub	sp, sp, #28
 4603              		.cfi_def_cfa_offset 40
 4604 0004 00AF     		add	r7, sp, #0
 4605              		.cfi_def_cfa_register 7
 4606 0006 0446     		mov	r4, r0
 4607 0008 0846     		mov	r0, r1
 4608 000a 1146     		mov	r1, r2
 4609 000c 1A46     		mov	r2, r3
 4610 000e 2346     		mov	r3, r4	@ movhi
 4611 0010 FB80     		strh	r3, [r7, #6]	@ movhi
 4612 0012 0346     		mov	r3, r0	@ movhi
 4613 0014 BB80     		strh	r3, [r7, #4]	@ movhi
 4614 0016 0B46     		mov	r3, r1	@ movhi
 4615 0018 7B80     		strh	r3, [r7, #2]	@ movhi
 4616 001a 1346     		mov	r3, r2	@ movhi
 4617 001c 3B80     		strh	r3, [r7]	@ movhi
 627:source\bsw\tft/tft.c ****     int16_t f = 1 - r;
 4618              		.loc 1 627 0
ARM GAS  C:\Users\schmi\AppData\Local\Temp\ccA9az4I.s 			page 95


 4619 001e 7B88     		ldrh	r3, [r7, #2]
 4620 0020 C3F10103 		rsb	r3, r3, #1
 4621 0024 9BB2     		uxth	r3, r3
 4622 0026 FB82     		strh	r3, [r7, #22]	@ movhi
 628:source\bsw\tft/tft.c ****     int16_t ddF_x = 1;
 4623              		.loc 1 628 0
 4624 0028 0123     		movs	r3, #1
 4625 002a BB82     		strh	r3, [r7, #20]	@ movhi
 629:source\bsw\tft/tft.c ****     int16_t ddF_y = -2 * r;
 4626              		.loc 1 629 0
 4627 002c 7B88     		ldrh	r3, [r7, #2]
 4628 002e 1A46     		mov	r2, r3	@ movhi
 4629 0030 D203     		lsls	r2, r2, #15
 4630 0032 D31A     		subs	r3, r2, r3
 4631 0034 5B00     		lsls	r3, r3, #1
 4632 0036 9BB2     		uxth	r3, r3
 4633 0038 7B82     		strh	r3, [r7, #18]	@ movhi
 630:source\bsw\tft/tft.c ****     int16_t x = 0;
 4634              		.loc 1 630 0
 4635 003a 0023     		movs	r3, #0
 4636 003c 3B82     		strh	r3, [r7, #16]	@ movhi
 631:source\bsw\tft/tft.c ****     int16_t y = r;
 4637              		.loc 1 631 0
 4638 003e 7B88     		ldrh	r3, [r7, #2]	@ movhi
 4639 0040 FB81     		strh	r3, [r7, #14]	@ movhi
 632:source\bsw\tft/tft.c **** 
 633:source\bsw\tft/tft.c ****     TFT_drawPixel(x0  , y0+r, color);
 4640              		.loc 1 633 0
 4641 0042 BA88     		ldrh	r2, [r7, #4]
 4642 0044 7B88     		ldrh	r3, [r7, #2]
 4643 0046 1344     		add	r3, r3, r2
 4644 0048 9BB2     		uxth	r3, r3
 4645 004a 19B2     		sxth	r1, r3
 4646 004c 3A88     		ldrh	r2, [r7]
 4647 004e B7F90630 		ldrsh	r3, [r7, #6]
 4648 0052 1846     		mov	r0, r3
 4649 0054 FFF7FEFF 		bl	TFT_drawPixel
 634:source\bsw\tft/tft.c ****     TFT_drawPixel(x0  , y0-r, color);
 4650              		.loc 1 634 0
 4651 0058 BA88     		ldrh	r2, [r7, #4]
 4652 005a 7B88     		ldrh	r3, [r7, #2]
 4653 005c D31A     		subs	r3, r2, r3
 4654 005e 9BB2     		uxth	r3, r3
 4655 0060 19B2     		sxth	r1, r3
 4656 0062 3A88     		ldrh	r2, [r7]
 4657 0064 B7F90630 		ldrsh	r3, [r7, #6]
 4658 0068 1846     		mov	r0, r3
 4659 006a FFF7FEFF 		bl	TFT_drawPixel
 635:source\bsw\tft/tft.c ****     TFT_drawPixel(x0+r, y0  , color);
 4660              		.loc 1 635 0
 4661 006e FA88     		ldrh	r2, [r7, #6]
 4662 0070 7B88     		ldrh	r3, [r7, #2]
 4663 0072 1344     		add	r3, r3, r2
 4664 0074 9BB2     		uxth	r3, r3
 4665 0076 1BB2     		sxth	r3, r3
 4666 0078 3A88     		ldrh	r2, [r7]
 4667 007a B7F90410 		ldrsh	r1, [r7, #4]
ARM GAS  C:\Users\schmi\AppData\Local\Temp\ccA9az4I.s 			page 96


 4668 007e 1846     		mov	r0, r3
 4669 0080 FFF7FEFF 		bl	TFT_drawPixel
 636:source\bsw\tft/tft.c ****     TFT_drawPixel(x0-r, y0  , color);
 4670              		.loc 1 636 0
 4671 0084 FA88     		ldrh	r2, [r7, #6]
 4672 0086 7B88     		ldrh	r3, [r7, #2]
 4673 0088 D31A     		subs	r3, r2, r3
 4674 008a 9BB2     		uxth	r3, r3
 4675 008c 1BB2     		sxth	r3, r3
 4676 008e 3A88     		ldrh	r2, [r7]
 4677 0090 B7F90410 		ldrsh	r1, [r7, #4]
 4678 0094 1846     		mov	r0, r3
 4679 0096 FFF7FEFF 		bl	TFT_drawPixel
 637:source\bsw\tft/tft.c **** 
 638:source\bsw\tft/tft.c ****     while (x<y) {
 4680              		.loc 1 638 0
 4681 009a 91E0     		b	.L180
 4682              	.L182:
 639:source\bsw\tft/tft.c ****         if (f >= 0) {
 4683              		.loc 1 639 0
 4684 009c B7F91630 		ldrsh	r3, [r7, #22]
 4685 00a0 002B     		cmp	r3, #0
 4686 00a2 0EDB     		blt	.L181
 640:source\bsw\tft/tft.c ****             y--;
 4687              		.loc 1 640 0
 4688 00a4 B7F90E30 		ldrsh	r3, [r7, #14]
 4689 00a8 9BB2     		uxth	r3, r3
 4690 00aa 013B     		subs	r3, r3, #1
 4691 00ac 9BB2     		uxth	r3, r3
 4692 00ae FB81     		strh	r3, [r7, #14]	@ movhi
 641:source\bsw\tft/tft.c ****             ddF_y += 2;
 4693              		.loc 1 641 0
 4694 00b0 7B8A     		ldrh	r3, [r7, #18]
 4695 00b2 0233     		adds	r3, r3, #2
 4696 00b4 9BB2     		uxth	r3, r3
 4697 00b6 7B82     		strh	r3, [r7, #18]	@ movhi
 642:source\bsw\tft/tft.c ****             f += ddF_y;
 4698              		.loc 1 642 0
 4699 00b8 FA8A     		ldrh	r2, [r7, #22]
 4700 00ba 7B8A     		ldrh	r3, [r7, #18]
 4701 00bc 1344     		add	r3, r3, r2
 4702 00be 9BB2     		uxth	r3, r3
 4703 00c0 FB82     		strh	r3, [r7, #22]	@ movhi
 4704              	.L181:
 643:source\bsw\tft/tft.c ****         }
 644:source\bsw\tft/tft.c ****         x++;
 4705              		.loc 1 644 0
 4706 00c2 B7F91030 		ldrsh	r3, [r7, #16]
 4707 00c6 9BB2     		uxth	r3, r3
 4708 00c8 0133     		adds	r3, r3, #1
 4709 00ca 9BB2     		uxth	r3, r3
 4710 00cc 3B82     		strh	r3, [r7, #16]	@ movhi
 645:source\bsw\tft/tft.c ****         ddF_x += 2;
 4711              		.loc 1 645 0
 4712 00ce BB8A     		ldrh	r3, [r7, #20]
 4713 00d0 0233     		adds	r3, r3, #2
 4714 00d2 9BB2     		uxth	r3, r3
ARM GAS  C:\Users\schmi\AppData\Local\Temp\ccA9az4I.s 			page 97


 4715 00d4 BB82     		strh	r3, [r7, #20]	@ movhi
 646:source\bsw\tft/tft.c ****         f += ddF_x;
 4716              		.loc 1 646 0
 4717 00d6 FA8A     		ldrh	r2, [r7, #22]
 4718 00d8 BB8A     		ldrh	r3, [r7, #20]
 4719 00da 1344     		add	r3, r3, r2
 4720 00dc 9BB2     		uxth	r3, r3
 4721 00de FB82     		strh	r3, [r7, #22]	@ movhi
 647:source\bsw\tft/tft.c **** 
 648:source\bsw\tft/tft.c ****         TFT_drawPixel(x0 + x, y0 + y, color);
 4722              		.loc 1 648 0
 4723 00e0 FA88     		ldrh	r2, [r7, #6]
 4724 00e2 3B8A     		ldrh	r3, [r7, #16]
 4725 00e4 1344     		add	r3, r3, r2
 4726 00e6 9BB2     		uxth	r3, r3
 4727 00e8 18B2     		sxth	r0, r3
 4728 00ea BA88     		ldrh	r2, [r7, #4]
 4729 00ec FB89     		ldrh	r3, [r7, #14]
 4730 00ee 1344     		add	r3, r3, r2
 4731 00f0 9BB2     		uxth	r3, r3
 4732 00f2 1BB2     		sxth	r3, r3
 4733 00f4 3A88     		ldrh	r2, [r7]
 4734 00f6 1946     		mov	r1, r3
 4735 00f8 FFF7FEFF 		bl	TFT_drawPixel
 649:source\bsw\tft/tft.c ****         TFT_drawPixel(x0 - x, y0 + y, color);
 4736              		.loc 1 649 0
 4737 00fc FA88     		ldrh	r2, [r7, #6]
 4738 00fe 3B8A     		ldrh	r3, [r7, #16]
 4739 0100 D31A     		subs	r3, r2, r3
 4740 0102 9BB2     		uxth	r3, r3
 4741 0104 18B2     		sxth	r0, r3
 4742 0106 BA88     		ldrh	r2, [r7, #4]
 4743 0108 FB89     		ldrh	r3, [r7, #14]
 4744 010a 1344     		add	r3, r3, r2
 4745 010c 9BB2     		uxth	r3, r3
 4746 010e 1BB2     		sxth	r3, r3
 4747 0110 3A88     		ldrh	r2, [r7]
 4748 0112 1946     		mov	r1, r3
 4749 0114 FFF7FEFF 		bl	TFT_drawPixel
 650:source\bsw\tft/tft.c ****         TFT_drawPixel(x0 + x, y0 - y, color);
 4750              		.loc 1 650 0
 4751 0118 FA88     		ldrh	r2, [r7, #6]
 4752 011a 3B8A     		ldrh	r3, [r7, #16]
 4753 011c 1344     		add	r3, r3, r2
 4754 011e 9BB2     		uxth	r3, r3
 4755 0120 18B2     		sxth	r0, r3
 4756 0122 BA88     		ldrh	r2, [r7, #4]
 4757 0124 FB89     		ldrh	r3, [r7, #14]
 4758 0126 D31A     		subs	r3, r2, r3
 4759 0128 9BB2     		uxth	r3, r3
 4760 012a 1BB2     		sxth	r3, r3
 4761 012c 3A88     		ldrh	r2, [r7]
 4762 012e 1946     		mov	r1, r3
 4763 0130 FFF7FEFF 		bl	TFT_drawPixel
 651:source\bsw\tft/tft.c ****         TFT_drawPixel(x0 - x, y0 - y, color);
 4764              		.loc 1 651 0
 4765 0134 FA88     		ldrh	r2, [r7, #6]
ARM GAS  C:\Users\schmi\AppData\Local\Temp\ccA9az4I.s 			page 98


 4766 0136 3B8A     		ldrh	r3, [r7, #16]
 4767 0138 D31A     		subs	r3, r2, r3
 4768 013a 9BB2     		uxth	r3, r3
 4769 013c 18B2     		sxth	r0, r3
 4770 013e BA88     		ldrh	r2, [r7, #4]
 4771 0140 FB89     		ldrh	r3, [r7, #14]
 4772 0142 D31A     		subs	r3, r2, r3
 4773 0144 9BB2     		uxth	r3, r3
 4774 0146 1BB2     		sxth	r3, r3
 4775 0148 3A88     		ldrh	r2, [r7]
 4776 014a 1946     		mov	r1, r3
 4777 014c FFF7FEFF 		bl	TFT_drawPixel
 652:source\bsw\tft/tft.c ****         TFT_drawPixel(x0 + y, y0 + x, color);
 4778              		.loc 1 652 0
 4779 0150 FA88     		ldrh	r2, [r7, #6]
 4780 0152 FB89     		ldrh	r3, [r7, #14]
 4781 0154 1344     		add	r3, r3, r2
 4782 0156 9BB2     		uxth	r3, r3
 4783 0158 18B2     		sxth	r0, r3
 4784 015a BA88     		ldrh	r2, [r7, #4]
 4785 015c 3B8A     		ldrh	r3, [r7, #16]
 4786 015e 1344     		add	r3, r3, r2
 4787 0160 9BB2     		uxth	r3, r3
 4788 0162 1BB2     		sxth	r3, r3
 4789 0164 3A88     		ldrh	r2, [r7]
 4790 0166 1946     		mov	r1, r3
 4791 0168 FFF7FEFF 		bl	TFT_drawPixel
 653:source\bsw\tft/tft.c ****         TFT_drawPixel(x0 - y, y0 + x, color);
 4792              		.loc 1 653 0
 4793 016c FA88     		ldrh	r2, [r7, #6]
 4794 016e FB89     		ldrh	r3, [r7, #14]
 4795 0170 D31A     		subs	r3, r2, r3
 4796 0172 9BB2     		uxth	r3, r3
 4797 0174 18B2     		sxth	r0, r3
 4798 0176 BA88     		ldrh	r2, [r7, #4]
 4799 0178 3B8A     		ldrh	r3, [r7, #16]
 4800 017a 1344     		add	r3, r3, r2
 4801 017c 9BB2     		uxth	r3, r3
 4802 017e 1BB2     		sxth	r3, r3
 4803 0180 3A88     		ldrh	r2, [r7]
 4804 0182 1946     		mov	r1, r3
 4805 0184 FFF7FEFF 		bl	TFT_drawPixel
 654:source\bsw\tft/tft.c ****         TFT_drawPixel(x0 + y, y0 - x, color);
 4806              		.loc 1 654 0
 4807 0188 FA88     		ldrh	r2, [r7, #6]
 4808 018a FB89     		ldrh	r3, [r7, #14]
 4809 018c 1344     		add	r3, r3, r2
 4810 018e 9BB2     		uxth	r3, r3
 4811 0190 18B2     		sxth	r0, r3
 4812 0192 BA88     		ldrh	r2, [r7, #4]
 4813 0194 3B8A     		ldrh	r3, [r7, #16]
 4814 0196 D31A     		subs	r3, r2, r3
 4815 0198 9BB2     		uxth	r3, r3
 4816 019a 1BB2     		sxth	r3, r3
 4817 019c 3A88     		ldrh	r2, [r7]
 4818 019e 1946     		mov	r1, r3
 4819 01a0 FFF7FEFF 		bl	TFT_drawPixel
ARM GAS  C:\Users\schmi\AppData\Local\Temp\ccA9az4I.s 			page 99


 655:source\bsw\tft/tft.c ****         TFT_drawPixel(x0 - y, y0 - x, color);
 4820              		.loc 1 655 0
 4821 01a4 FA88     		ldrh	r2, [r7, #6]
 4822 01a6 FB89     		ldrh	r3, [r7, #14]
 4823 01a8 D31A     		subs	r3, r2, r3
 4824 01aa 9BB2     		uxth	r3, r3
 4825 01ac 18B2     		sxth	r0, r3
 4826 01ae BA88     		ldrh	r2, [r7, #4]
 4827 01b0 3B8A     		ldrh	r3, [r7, #16]
 4828 01b2 D31A     		subs	r3, r2, r3
 4829 01b4 9BB2     		uxth	r3, r3
 4830 01b6 1BB2     		sxth	r3, r3
 4831 01b8 3A88     		ldrh	r2, [r7]
 4832 01ba 1946     		mov	r1, r3
 4833 01bc FFF7FEFF 		bl	TFT_drawPixel
 4834              	.L180:
 638:source\bsw\tft/tft.c ****         if (f >= 0) {
 4835              		.loc 1 638 0
 4836 01c0 B7F91020 		ldrsh	r2, [r7, #16]
 4837 01c4 B7F90E30 		ldrsh	r3, [r7, #14]
 4838 01c8 9A42     		cmp	r2, r3
 4839 01ca FFF667AF 		blt	.L182
 656:source\bsw\tft/tft.c ****     }
 657:source\bsw\tft/tft.c **** 
 658:source\bsw\tft/tft.c **** }
 4840              		.loc 1 658 0
 4841 01ce 00BF     		nop
 4842 01d0 1C37     		adds	r7, r7, #28
 4843              		.cfi_def_cfa_offset 12
 4844 01d2 BD46     		mov	sp, r7
 4845              		.cfi_def_cfa_register 13
 4846              		@ sp needed
 4847 01d4 90BD     		pop	{r4, r7, pc}
 4848              		.cfi_endproc
 4849              	.LFE145:
 4850              		.size	TFT_drawCircle, .-TFT_drawCircle
 4851 01d6 00BF     		.section	.text.TFT_drawCircleHelper,"ax",%progbits
 4852              		.align	2
 4853              		.thumb
 4854              		.thumb_func
 4855              		.type	TFT_drawCircleHelper, %function
 4856              	TFT_drawCircleHelper:
 4857              	.LFB146:
 659:source\bsw\tft/tft.c **** 
 660:source\bsw\tft/tft.c **** void TFT_drawCircleHelper( int16_t x0, int16_t y0, int16_t r, uint8_t cornername, TFT_color_t color
 4858              		.loc 1 660 0
 4859              		.cfi_startproc
 4860              		@ args = 4, pretend = 0, frame = 24
 4861              		@ frame_needed = 1, uses_anonymous_args = 0
 4862 0000 90B5     		push	{r4, r7, lr}
 4863              		.cfi_def_cfa_offset 12
 4864              		.cfi_offset 4, -12
 4865              		.cfi_offset 7, -8
 4866              		.cfi_offset 14, -4
 4867 0002 87B0     		sub	sp, sp, #28
 4868              		.cfi_def_cfa_offset 40
 4869 0004 00AF     		add	r7, sp, #0
ARM GAS  C:\Users\schmi\AppData\Local\Temp\ccA9az4I.s 			page 100


 4870              		.cfi_def_cfa_register 7
 4871 0006 0446     		mov	r4, r0
 4872 0008 0846     		mov	r0, r1
 4873 000a 1146     		mov	r1, r2
 4874 000c 1A46     		mov	r2, r3
 4875 000e 2346     		mov	r3, r4	@ movhi
 4876 0010 FB80     		strh	r3, [r7, #6]	@ movhi
 4877 0012 0346     		mov	r3, r0	@ movhi
 4878 0014 BB80     		strh	r3, [r7, #4]	@ movhi
 4879 0016 0B46     		mov	r3, r1	@ movhi
 4880 0018 7B80     		strh	r3, [r7, #2]	@ movhi
 4881 001a 1346     		mov	r3, r2
 4882 001c 7B70     		strb	r3, [r7, #1]
 661:source\bsw\tft/tft.c ****     int16_t f     = 1 - r;
 4883              		.loc 1 661 0
 4884 001e 7B88     		ldrh	r3, [r7, #2]
 4885 0020 C3F10103 		rsb	r3, r3, #1
 4886 0024 9BB2     		uxth	r3, r3
 4887 0026 FB82     		strh	r3, [r7, #22]	@ movhi
 662:source\bsw\tft/tft.c ****     int16_t ddF_x = 1;
 4888              		.loc 1 662 0
 4889 0028 0123     		movs	r3, #1
 4890 002a BB82     		strh	r3, [r7, #20]	@ movhi
 663:source\bsw\tft/tft.c ****     int16_t ddF_y = -2 * r;
 4891              		.loc 1 663 0
 4892 002c 7B88     		ldrh	r3, [r7, #2]
 4893 002e 1A46     		mov	r2, r3	@ movhi
 4894 0030 D203     		lsls	r2, r2, #15
 4895 0032 D31A     		subs	r3, r2, r3
 4896 0034 5B00     		lsls	r3, r3, #1
 4897 0036 9BB2     		uxth	r3, r3
 4898 0038 7B82     		strh	r3, [r7, #18]	@ movhi
 664:source\bsw\tft/tft.c ****     int16_t x     = 0;
 4899              		.loc 1 664 0
 4900 003a 0023     		movs	r3, #0
 4901 003c 3B82     		strh	r3, [r7, #16]	@ movhi
 665:source\bsw\tft/tft.c ****     int16_t y     = r;
 4902              		.loc 1 665 0
 4903 003e 7B88     		ldrh	r3, [r7, #2]	@ movhi
 4904 0040 FB81     		strh	r3, [r7, #14]	@ movhi
 666:source\bsw\tft/tft.c **** 
 667:source\bsw\tft/tft.c ****     while (x<y) {
 4905              		.loc 1 667 0
 4906 0042 A5E0     		b	.L184
 4907              	.L189:
 668:source\bsw\tft/tft.c ****         if (f >= 0) {
 4908              		.loc 1 668 0
 4909 0044 B7F91630 		ldrsh	r3, [r7, #22]
 4910 0048 002B     		cmp	r3, #0
 4911 004a 0EDB     		blt	.L185
 669:source\bsw\tft/tft.c ****             y--;
 4912              		.loc 1 669 0
 4913 004c B7F90E30 		ldrsh	r3, [r7, #14]
 4914 0050 9BB2     		uxth	r3, r3
 4915 0052 013B     		subs	r3, r3, #1
 4916 0054 9BB2     		uxth	r3, r3
 4917 0056 FB81     		strh	r3, [r7, #14]	@ movhi
ARM GAS  C:\Users\schmi\AppData\Local\Temp\ccA9az4I.s 			page 101


 670:source\bsw\tft/tft.c ****             ddF_y += 2;
 4918              		.loc 1 670 0
 4919 0058 7B8A     		ldrh	r3, [r7, #18]
 4920 005a 0233     		adds	r3, r3, #2
 4921 005c 9BB2     		uxth	r3, r3
 4922 005e 7B82     		strh	r3, [r7, #18]	@ movhi
 671:source\bsw\tft/tft.c ****             f     += ddF_y;
 4923              		.loc 1 671 0
 4924 0060 FA8A     		ldrh	r2, [r7, #22]
 4925 0062 7B8A     		ldrh	r3, [r7, #18]
 4926 0064 1344     		add	r3, r3, r2
 4927 0066 9BB2     		uxth	r3, r3
 4928 0068 FB82     		strh	r3, [r7, #22]	@ movhi
 4929              	.L185:
 672:source\bsw\tft/tft.c ****         }
 673:source\bsw\tft/tft.c ****         x++;
 4930              		.loc 1 673 0
 4931 006a B7F91030 		ldrsh	r3, [r7, #16]
 4932 006e 9BB2     		uxth	r3, r3
 4933 0070 0133     		adds	r3, r3, #1
 4934 0072 9BB2     		uxth	r3, r3
 4935 0074 3B82     		strh	r3, [r7, #16]	@ movhi
 674:source\bsw\tft/tft.c ****         ddF_x += 2;
 4936              		.loc 1 674 0
 4937 0076 BB8A     		ldrh	r3, [r7, #20]
 4938 0078 0233     		adds	r3, r3, #2
 4939 007a 9BB2     		uxth	r3, r3
 4940 007c BB82     		strh	r3, [r7, #20]	@ movhi
 675:source\bsw\tft/tft.c ****         f     += ddF_x;
 4941              		.loc 1 675 0
 4942 007e FA8A     		ldrh	r2, [r7, #22]
 4943 0080 BB8A     		ldrh	r3, [r7, #20]
 4944 0082 1344     		add	r3, r3, r2
 4945 0084 9BB2     		uxth	r3, r3
 4946 0086 FB82     		strh	r3, [r7, #22]	@ movhi
 676:source\bsw\tft/tft.c ****         if (cornername & 0x4) {
 4947              		.loc 1 676 0
 4948 0088 7B78     		ldrb	r3, [r7, #1]	@ zero_extendqisi2
 4949 008a 03F00403 		and	r3, r3, #4
 4950 008e 002B     		cmp	r3, #0
 4951 0090 1BD0     		beq	.L186
 677:source\bsw\tft/tft.c ****             TFT_drawPixel(x0 + x, y0 + y, color);
 4952              		.loc 1 677 0
 4953 0092 FA88     		ldrh	r2, [r7, #6]
 4954 0094 3B8A     		ldrh	r3, [r7, #16]
 4955 0096 1344     		add	r3, r3, r2
 4956 0098 9BB2     		uxth	r3, r3
 4957 009a 18B2     		sxth	r0, r3
 4958 009c BA88     		ldrh	r2, [r7, #4]
 4959 009e FB89     		ldrh	r3, [r7, #14]
 4960 00a0 1344     		add	r3, r3, r2
 4961 00a2 9BB2     		uxth	r3, r3
 4962 00a4 1BB2     		sxth	r3, r3
 4963 00a6 3A8D     		ldrh	r2, [r7, #40]
 4964 00a8 1946     		mov	r1, r3
 4965 00aa FFF7FEFF 		bl	TFT_drawPixel
 678:source\bsw\tft/tft.c ****             TFT_drawPixel(x0 + y, y0 + x, color);
ARM GAS  C:\Users\schmi\AppData\Local\Temp\ccA9az4I.s 			page 102


 4966              		.loc 1 678 0
 4967 00ae FA88     		ldrh	r2, [r7, #6]
 4968 00b0 FB89     		ldrh	r3, [r7, #14]
 4969 00b2 1344     		add	r3, r3, r2
 4970 00b4 9BB2     		uxth	r3, r3
 4971 00b6 18B2     		sxth	r0, r3
 4972 00b8 BA88     		ldrh	r2, [r7, #4]
 4973 00ba 3B8A     		ldrh	r3, [r7, #16]
 4974 00bc 1344     		add	r3, r3, r2
 4975 00be 9BB2     		uxth	r3, r3
 4976 00c0 1BB2     		sxth	r3, r3
 4977 00c2 3A8D     		ldrh	r2, [r7, #40]
 4978 00c4 1946     		mov	r1, r3
 4979 00c6 FFF7FEFF 		bl	TFT_drawPixel
 4980              	.L186:
 679:source\bsw\tft/tft.c ****         }
 680:source\bsw\tft/tft.c ****         if (cornername & 0x2) {
 4981              		.loc 1 680 0
 4982 00ca 7B78     		ldrb	r3, [r7, #1]	@ zero_extendqisi2
 4983 00cc 03F00203 		and	r3, r3, #2
 4984 00d0 002B     		cmp	r3, #0
 4985 00d2 1BD0     		beq	.L187
 681:source\bsw\tft/tft.c ****             TFT_drawPixel(x0 + x, y0 - y, color);
 4986              		.loc 1 681 0
 4987 00d4 FA88     		ldrh	r2, [r7, #6]
 4988 00d6 3B8A     		ldrh	r3, [r7, #16]
 4989 00d8 1344     		add	r3, r3, r2
 4990 00da 9BB2     		uxth	r3, r3
 4991 00dc 18B2     		sxth	r0, r3
 4992 00de BA88     		ldrh	r2, [r7, #4]
 4993 00e0 FB89     		ldrh	r3, [r7, #14]
 4994 00e2 D31A     		subs	r3, r2, r3
 4995 00e4 9BB2     		uxth	r3, r3
 4996 00e6 1BB2     		sxth	r3, r3
 4997 00e8 3A8D     		ldrh	r2, [r7, #40]
 4998 00ea 1946     		mov	r1, r3
 4999 00ec FFF7FEFF 		bl	TFT_drawPixel
 682:source\bsw\tft/tft.c ****             TFT_drawPixel(x0 + y, y0 - x, color);
 5000              		.loc 1 682 0
 5001 00f0 FA88     		ldrh	r2, [r7, #6]
 5002 00f2 FB89     		ldrh	r3, [r7, #14]
 5003 00f4 1344     		add	r3, r3, r2
 5004 00f6 9BB2     		uxth	r3, r3
 5005 00f8 18B2     		sxth	r0, r3
 5006 00fa BA88     		ldrh	r2, [r7, #4]
 5007 00fc 3B8A     		ldrh	r3, [r7, #16]
 5008 00fe D31A     		subs	r3, r2, r3
 5009 0100 9BB2     		uxth	r3, r3
 5010 0102 1BB2     		sxth	r3, r3
 5011 0104 3A8D     		ldrh	r2, [r7, #40]
 5012 0106 1946     		mov	r1, r3
 5013 0108 FFF7FEFF 		bl	TFT_drawPixel
 5014              	.L187:
 683:source\bsw\tft/tft.c ****         }
 684:source\bsw\tft/tft.c ****         if (cornername & 0x8) {
 5015              		.loc 1 684 0
 5016 010c 7B78     		ldrb	r3, [r7, #1]	@ zero_extendqisi2
ARM GAS  C:\Users\schmi\AppData\Local\Temp\ccA9az4I.s 			page 103


 5017 010e 03F00803 		and	r3, r3, #8
 5018 0112 002B     		cmp	r3, #0
 5019 0114 1BD0     		beq	.L188
 685:source\bsw\tft/tft.c ****             TFT_drawPixel(x0 - y, y0 + x, color);
 5020              		.loc 1 685 0
 5021 0116 FA88     		ldrh	r2, [r7, #6]
 5022 0118 FB89     		ldrh	r3, [r7, #14]
 5023 011a D31A     		subs	r3, r2, r3
 5024 011c 9BB2     		uxth	r3, r3
 5025 011e 18B2     		sxth	r0, r3
 5026 0120 BA88     		ldrh	r2, [r7, #4]
 5027 0122 3B8A     		ldrh	r3, [r7, #16]
 5028 0124 1344     		add	r3, r3, r2
 5029 0126 9BB2     		uxth	r3, r3
 5030 0128 1BB2     		sxth	r3, r3
 5031 012a 3A8D     		ldrh	r2, [r7, #40]
 5032 012c 1946     		mov	r1, r3
 5033 012e FFF7FEFF 		bl	TFT_drawPixel
 686:source\bsw\tft/tft.c ****             TFT_drawPixel(x0 - x, y0 + y, color);
 5034              		.loc 1 686 0
 5035 0132 FA88     		ldrh	r2, [r7, #6]
 5036 0134 3B8A     		ldrh	r3, [r7, #16]
 5037 0136 D31A     		subs	r3, r2, r3
 5038 0138 9BB2     		uxth	r3, r3
 5039 013a 18B2     		sxth	r0, r3
 5040 013c BA88     		ldrh	r2, [r7, #4]
 5041 013e FB89     		ldrh	r3, [r7, #14]
 5042 0140 1344     		add	r3, r3, r2
 5043 0142 9BB2     		uxth	r3, r3
 5044 0144 1BB2     		sxth	r3, r3
 5045 0146 3A8D     		ldrh	r2, [r7, #40]
 5046 0148 1946     		mov	r1, r3
 5047 014a FFF7FEFF 		bl	TFT_drawPixel
 5048              	.L188:
 687:source\bsw\tft/tft.c ****         }
 688:source\bsw\tft/tft.c ****         if (cornername & 0x1) {
 5049              		.loc 1 688 0
 5050 014e 7B78     		ldrb	r3, [r7, #1]	@ zero_extendqisi2
 5051 0150 03F00103 		and	r3, r3, #1
 5052 0154 002B     		cmp	r3, #0
 5053 0156 1BD0     		beq	.L184
 689:source\bsw\tft/tft.c ****             TFT_drawPixel(x0 - y, y0 - x, color);
 5054              		.loc 1 689 0
 5055 0158 FA88     		ldrh	r2, [r7, #6]
 5056 015a FB89     		ldrh	r3, [r7, #14]
 5057 015c D31A     		subs	r3, r2, r3
 5058 015e 9BB2     		uxth	r3, r3
 5059 0160 18B2     		sxth	r0, r3
 5060 0162 BA88     		ldrh	r2, [r7, #4]
 5061 0164 3B8A     		ldrh	r3, [r7, #16]
 5062 0166 D31A     		subs	r3, r2, r3
 5063 0168 9BB2     		uxth	r3, r3
 5064 016a 1BB2     		sxth	r3, r3
 5065 016c 3A8D     		ldrh	r2, [r7, #40]
 5066 016e 1946     		mov	r1, r3
 5067 0170 FFF7FEFF 		bl	TFT_drawPixel
 690:source\bsw\tft/tft.c ****             TFT_drawPixel(x0 - x, y0 - y, color);
ARM GAS  C:\Users\schmi\AppData\Local\Temp\ccA9az4I.s 			page 104


 5068              		.loc 1 690 0
 5069 0174 FA88     		ldrh	r2, [r7, #6]
 5070 0176 3B8A     		ldrh	r3, [r7, #16]
 5071 0178 D31A     		subs	r3, r2, r3
 5072 017a 9BB2     		uxth	r3, r3
 5073 017c 18B2     		sxth	r0, r3
 5074 017e BA88     		ldrh	r2, [r7, #4]
 5075 0180 FB89     		ldrh	r3, [r7, #14]
 5076 0182 D31A     		subs	r3, r2, r3
 5077 0184 9BB2     		uxth	r3, r3
 5078 0186 1BB2     		sxth	r3, r3
 5079 0188 3A8D     		ldrh	r2, [r7, #40]
 5080 018a 1946     		mov	r1, r3
 5081 018c FFF7FEFF 		bl	TFT_drawPixel
 5082              	.L184:
 667:source\bsw\tft/tft.c ****         if (f >= 0) {
 5083              		.loc 1 667 0
 5084 0190 B7F91020 		ldrsh	r2, [r7, #16]
 5085 0194 B7F90E30 		ldrsh	r3, [r7, #14]
 5086 0198 9A42     		cmp	r2, r3
 5087 019a FFF653AF 		blt	.L189
 691:source\bsw\tft/tft.c ****         }
 692:source\bsw\tft/tft.c ****     }
 693:source\bsw\tft/tft.c **** }
 5088              		.loc 1 693 0
 5089 019e 00BF     		nop
 5090 01a0 1C37     		adds	r7, r7, #28
 5091              		.cfi_def_cfa_offset 12
 5092 01a2 BD46     		mov	sp, r7
 5093              		.cfi_def_cfa_register 13
 5094              		@ sp needed
 5095 01a4 90BD     		pop	{r4, r7, pc}
 5096              		.cfi_endproc
 5097              	.LFE146:
 5098              		.size	TFT_drawCircleHelper, .-TFT_drawCircleHelper
 5099 01a6 00BF     		.section	.text.TFT_fillCircle,"ax",%progbits
 5100              		.align	2
 5101              		.global	TFT_fillCircle
 5102              		.thumb
 5103              		.thumb_func
 5104              		.type	TFT_fillCircle, %function
 5105              	TFT_fillCircle:
 5106              	.LFB147:
 694:source\bsw\tft/tft.c **** 
 695:source\bsw\tft/tft.c **** void TFT_fillCircle(int16_t x0, int16_t y0, int16_t r, TFT_color_t color) {
 5107              		.loc 1 695 0
 5108              		.cfi_startproc
 5109              		@ args = 0, pretend = 0, frame = 8
 5110              		@ frame_needed = 1, uses_anonymous_args = 0
 5111 0000 90B5     		push	{r4, r7, lr}
 5112              		.cfi_def_cfa_offset 12
 5113              		.cfi_offset 4, -12
 5114              		.cfi_offset 7, -8
 5115              		.cfi_offset 14, -4
 5116 0002 85B0     		sub	sp, sp, #20
 5117              		.cfi_def_cfa_offset 32
 5118 0004 02AF     		add	r7, sp, #8
ARM GAS  C:\Users\schmi\AppData\Local\Temp\ccA9az4I.s 			page 105


 5119              		.cfi_def_cfa 7, 24
 5120 0006 0446     		mov	r4, r0
 5121 0008 0846     		mov	r0, r1
 5122 000a 1146     		mov	r1, r2
 5123 000c 1A46     		mov	r2, r3
 5124 000e 2346     		mov	r3, r4	@ movhi
 5125 0010 FB80     		strh	r3, [r7, #6]	@ movhi
 5126 0012 0346     		mov	r3, r0	@ movhi
 5127 0014 BB80     		strh	r3, [r7, #4]	@ movhi
 5128 0016 0B46     		mov	r3, r1	@ movhi
 5129 0018 7B80     		strh	r3, [r7, #2]	@ movhi
 5130 001a 1346     		mov	r3, r2	@ movhi
 5131 001c 3B80     		strh	r3, [r7]	@ movhi
 696:source\bsw\tft/tft.c **** 
 697:source\bsw\tft/tft.c ****     TFT_fastVLine(x0, y0-r, 2*r+1, color);
 5132              		.loc 1 697 0
 5133 001e BA88     		ldrh	r2, [r7, #4]
 5134 0020 7B88     		ldrh	r3, [r7, #2]
 5135 0022 D31A     		subs	r3, r2, r3
 5136 0024 9BB2     		uxth	r3, r3
 5137 0026 19B2     		sxth	r1, r3
 5138 0028 7B88     		ldrh	r3, [r7, #2]
 5139 002a 5B00     		lsls	r3, r3, #1
 5140 002c 9BB2     		uxth	r3, r3
 5141 002e 0133     		adds	r3, r3, #1
 5142 0030 9BB2     		uxth	r3, r3
 5143 0032 1AB2     		sxth	r2, r3
 5144 0034 3B88     		ldrh	r3, [r7]
 5145 0036 B7F90600 		ldrsh	r0, [r7, #6]
 5146 003a FFF7FEFF 		bl	TFT_fastVLine
 698:source\bsw\tft/tft.c ****     TFT_fillCircleHelper(x0, y0, r, 3, 0, color);
 5147              		.loc 1 698 0
 5148 003e B7F90220 		ldrsh	r2, [r7, #2]
 5149 0042 B7F90410 		ldrsh	r1, [r7, #4]
 5150 0046 B7F90600 		ldrsh	r0, [r7, #6]
 5151 004a 3B88     		ldrh	r3, [r7]
 5152 004c 0193     		str	r3, [sp, #4]
 5153 004e 0023     		movs	r3, #0
 5154 0050 0093     		str	r3, [sp]
 5155 0052 0323     		movs	r3, #3
 5156 0054 FFF7FEFF 		bl	TFT_fillCircleHelper
 699:source\bsw\tft/tft.c **** }
 5157              		.loc 1 699 0
 5158 0058 00BF     		nop
 5159 005a 0C37     		adds	r7, r7, #12
 5160              		.cfi_def_cfa_offset 12
 5161 005c BD46     		mov	sp, r7
 5162              		.cfi_def_cfa_register 13
 5163              		@ sp needed
 5164 005e 90BD     		pop	{r4, r7, pc}
 5165              		.cfi_endproc
 5166              	.LFE147:
 5167              		.size	TFT_fillCircle, .-TFT_fillCircle
 5168              		.section	.text.TFT_fillCircleHelper,"ax",%progbits
 5169              		.align	2
 5170              		.thumb
 5171              		.thumb_func
ARM GAS  C:\Users\schmi\AppData\Local\Temp\ccA9az4I.s 			page 106


 5172              		.type	TFT_fillCircleHelper, %function
 5173              	TFT_fillCircleHelper:
 5174              	.LFB148:
 700:source\bsw\tft/tft.c **** 
 701:source\bsw\tft/tft.c **** // Used to do circles and roundrects
 702:source\bsw\tft/tft.c **** void TFT_fillCircleHelper(int16_t x0, int16_t y0, int16_t r, uint8_t cornername, int16_t delta, TFT
 5175              		.loc 1 702 0
 5176              		.cfi_startproc
 5177              		@ args = 8, pretend = 0, frame = 24
 5178              		@ frame_needed = 1, uses_anonymous_args = 0
 5179 0000 90B5     		push	{r4, r7, lr}
 5180              		.cfi_def_cfa_offset 12
 5181              		.cfi_offset 4, -12
 5182              		.cfi_offset 7, -8
 5183              		.cfi_offset 14, -4
 5184 0002 87B0     		sub	sp, sp, #28
 5185              		.cfi_def_cfa_offset 40
 5186 0004 00AF     		add	r7, sp, #0
 5187              		.cfi_def_cfa_register 7
 5188 0006 0446     		mov	r4, r0
 5189 0008 0846     		mov	r0, r1
 5190 000a 1146     		mov	r1, r2
 5191 000c 1A46     		mov	r2, r3
 5192 000e 2346     		mov	r3, r4	@ movhi
 5193 0010 FB80     		strh	r3, [r7, #6]	@ movhi
 5194 0012 0346     		mov	r3, r0	@ movhi
 5195 0014 BB80     		strh	r3, [r7, #4]	@ movhi
 5196 0016 0B46     		mov	r3, r1	@ movhi
 5197 0018 7B80     		strh	r3, [r7, #2]	@ movhi
 5198 001a 1346     		mov	r3, r2
 5199 001c 7B70     		strb	r3, [r7, #1]
 703:source\bsw\tft/tft.c **** 
 704:source\bsw\tft/tft.c ****     int16_t f     = 1 - r;
 5200              		.loc 1 704 0
 5201 001e 7B88     		ldrh	r3, [r7, #2]
 5202 0020 C3F10103 		rsb	r3, r3, #1
 5203 0024 9BB2     		uxth	r3, r3
 5204 0026 FB82     		strh	r3, [r7, #22]	@ movhi
 705:source\bsw\tft/tft.c ****     int16_t ddF_x = 1;
 5205              		.loc 1 705 0
 5206 0028 0123     		movs	r3, #1
 5207 002a BB82     		strh	r3, [r7, #20]	@ movhi
 706:source\bsw\tft/tft.c ****     int16_t ddF_y = -2 * r;
 5208              		.loc 1 706 0
 5209 002c 7B88     		ldrh	r3, [r7, #2]
 5210 002e 1A46     		mov	r2, r3	@ movhi
 5211 0030 D203     		lsls	r2, r2, #15
 5212 0032 D31A     		subs	r3, r2, r3
 5213 0034 5B00     		lsls	r3, r3, #1
 5214 0036 9BB2     		uxth	r3, r3
 5215 0038 7B82     		strh	r3, [r7, #18]	@ movhi
 707:source\bsw\tft/tft.c ****     int16_t x     = 0;
 5216              		.loc 1 707 0
 5217 003a 0023     		movs	r3, #0
 5218 003c 3B82     		strh	r3, [r7, #16]	@ movhi
 708:source\bsw\tft/tft.c ****     int16_t y     = r;
 5219              		.loc 1 708 0
ARM GAS  C:\Users\schmi\AppData\Local\Temp\ccA9az4I.s 			page 107


 5220 003e 7B88     		ldrh	r3, [r7, #2]	@ movhi
 5221 0040 FB81     		strh	r3, [r7, #14]	@ movhi
 709:source\bsw\tft/tft.c **** 
 710:source\bsw\tft/tft.c ****     while (x<y) {
 5222              		.loc 1 710 0
 5223 0042 83E0     		b	.L192
 5224              	.L195:
 711:source\bsw\tft/tft.c ****         if (f >= 0) {
 5225              		.loc 1 711 0
 5226 0044 B7F91630 		ldrsh	r3, [r7, #22]
 5227 0048 002B     		cmp	r3, #0
 5228 004a 0EDB     		blt	.L193
 712:source\bsw\tft/tft.c ****             y--;
 5229              		.loc 1 712 0
 5230 004c B7F90E30 		ldrsh	r3, [r7, #14]
 5231 0050 9BB2     		uxth	r3, r3
 5232 0052 013B     		subs	r3, r3, #1
 5233 0054 9BB2     		uxth	r3, r3
 5234 0056 FB81     		strh	r3, [r7, #14]	@ movhi
 713:source\bsw\tft/tft.c ****             ddF_y += 2;
 5235              		.loc 1 713 0
 5236 0058 7B8A     		ldrh	r3, [r7, #18]
 5237 005a 0233     		adds	r3, r3, #2
 5238 005c 9BB2     		uxth	r3, r3
 5239 005e 7B82     		strh	r3, [r7, #18]	@ movhi
 714:source\bsw\tft/tft.c ****             f     += ddF_y;
 5240              		.loc 1 714 0
 5241 0060 FA8A     		ldrh	r2, [r7, #22]
 5242 0062 7B8A     		ldrh	r3, [r7, #18]
 5243 0064 1344     		add	r3, r3, r2
 5244 0066 9BB2     		uxth	r3, r3
 5245 0068 FB82     		strh	r3, [r7, #22]	@ movhi
 5246              	.L193:
 715:source\bsw\tft/tft.c ****         }
 716:source\bsw\tft/tft.c ****         x++;
 5247              		.loc 1 716 0
 5248 006a B7F91030 		ldrsh	r3, [r7, #16]
 5249 006e 9BB2     		uxth	r3, r3
 5250 0070 0133     		adds	r3, r3, #1
 5251 0072 9BB2     		uxth	r3, r3
 5252 0074 3B82     		strh	r3, [r7, #16]	@ movhi
 717:source\bsw\tft/tft.c ****         ddF_x += 2;
 5253              		.loc 1 717 0
 5254 0076 BB8A     		ldrh	r3, [r7, #20]
 5255 0078 0233     		adds	r3, r3, #2
 5256 007a 9BB2     		uxth	r3, r3
 5257 007c BB82     		strh	r3, [r7, #20]	@ movhi
 718:source\bsw\tft/tft.c ****         f     += ddF_x;
 5258              		.loc 1 718 0
 5259 007e FA8A     		ldrh	r2, [r7, #22]
 5260 0080 BB8A     		ldrh	r3, [r7, #20]
 5261 0082 1344     		add	r3, r3, r2
 5262 0084 9BB2     		uxth	r3, r3
 5263 0086 FB82     		strh	r3, [r7, #22]	@ movhi
 719:source\bsw\tft/tft.c **** 
 720:source\bsw\tft/tft.c ****         if (cornername & 0x1) {
 5264              		.loc 1 720 0
ARM GAS  C:\Users\schmi\AppData\Local\Temp\ccA9az4I.s 			page 108


 5265 0088 7B78     		ldrb	r3, [r7, #1]	@ zero_extendqisi2
 5266 008a 03F00103 		and	r3, r3, #1
 5267 008e 002B     		cmp	r3, #0
 5268 0090 2BD0     		beq	.L194
 721:source\bsw\tft/tft.c ****             TFT_fastVLine(x0+x, y0-y, 2*y+1+delta, color);
 5269              		.loc 1 721 0
 5270 0092 FA88     		ldrh	r2, [r7, #6]
 5271 0094 3B8A     		ldrh	r3, [r7, #16]
 5272 0096 1344     		add	r3, r3, r2
 5273 0098 9BB2     		uxth	r3, r3
 5274 009a 18B2     		sxth	r0, r3
 5275 009c BA88     		ldrh	r2, [r7, #4]
 5276 009e FB89     		ldrh	r3, [r7, #14]
 5277 00a0 D31A     		subs	r3, r2, r3
 5278 00a2 9BB2     		uxth	r3, r3
 5279 00a4 19B2     		sxth	r1, r3
 5280 00a6 FB89     		ldrh	r3, [r7, #14]
 5281 00a8 5B00     		lsls	r3, r3, #1
 5282 00aa 9AB2     		uxth	r2, r3
 5283 00ac 3B8D     		ldrh	r3, [r7, #40]
 5284 00ae 1344     		add	r3, r3, r2
 5285 00b0 9BB2     		uxth	r3, r3
 5286 00b2 0133     		adds	r3, r3, #1
 5287 00b4 9BB2     		uxth	r3, r3
 5288 00b6 1AB2     		sxth	r2, r3
 5289 00b8 BB8D     		ldrh	r3, [r7, #44]
 5290 00ba FFF7FEFF 		bl	TFT_fastVLine
 722:source\bsw\tft/tft.c ****             TFT_fastVLine(x0+y, y0-x, 2*x+1+delta, color);
 5291              		.loc 1 722 0
 5292 00be FA88     		ldrh	r2, [r7, #6]
 5293 00c0 FB89     		ldrh	r3, [r7, #14]
 5294 00c2 1344     		add	r3, r3, r2
 5295 00c4 9BB2     		uxth	r3, r3
 5296 00c6 18B2     		sxth	r0, r3
 5297 00c8 BA88     		ldrh	r2, [r7, #4]
 5298 00ca 3B8A     		ldrh	r3, [r7, #16]
 5299 00cc D31A     		subs	r3, r2, r3
 5300 00ce 9BB2     		uxth	r3, r3
 5301 00d0 19B2     		sxth	r1, r3
 5302 00d2 3B8A     		ldrh	r3, [r7, #16]
 5303 00d4 5B00     		lsls	r3, r3, #1
 5304 00d6 9AB2     		uxth	r2, r3
 5305 00d8 3B8D     		ldrh	r3, [r7, #40]
 5306 00da 1344     		add	r3, r3, r2
 5307 00dc 9BB2     		uxth	r3, r3
 5308 00de 0133     		adds	r3, r3, #1
 5309 00e0 9BB2     		uxth	r3, r3
 5310 00e2 1AB2     		sxth	r2, r3
 5311 00e4 BB8D     		ldrh	r3, [r7, #44]
 5312 00e6 FFF7FEFF 		bl	TFT_fastVLine
 5313              	.L194:
 723:source\bsw\tft/tft.c ****         }
 724:source\bsw\tft/tft.c ****         if (cornername & 0x2) {
 5314              		.loc 1 724 0
 5315 00ea 7B78     		ldrb	r3, [r7, #1]	@ zero_extendqisi2
 5316 00ec 03F00203 		and	r3, r3, #2
 5317 00f0 002B     		cmp	r3, #0
ARM GAS  C:\Users\schmi\AppData\Local\Temp\ccA9az4I.s 			page 109


 5318 00f2 2BD0     		beq	.L192
 725:source\bsw\tft/tft.c ****             TFT_fastVLine(x0-x, y0-y, 2*y+1+delta, color);
 5319              		.loc 1 725 0
 5320 00f4 FA88     		ldrh	r2, [r7, #6]
 5321 00f6 3B8A     		ldrh	r3, [r7, #16]
 5322 00f8 D31A     		subs	r3, r2, r3
 5323 00fa 9BB2     		uxth	r3, r3
 5324 00fc 18B2     		sxth	r0, r3
 5325 00fe BA88     		ldrh	r2, [r7, #4]
 5326 0100 FB89     		ldrh	r3, [r7, #14]
 5327 0102 D31A     		subs	r3, r2, r3
 5328 0104 9BB2     		uxth	r3, r3
 5329 0106 19B2     		sxth	r1, r3
 5330 0108 FB89     		ldrh	r3, [r7, #14]
 5331 010a 5B00     		lsls	r3, r3, #1
 5332 010c 9AB2     		uxth	r2, r3
 5333 010e 3B8D     		ldrh	r3, [r7, #40]
 5334 0110 1344     		add	r3, r3, r2
 5335 0112 9BB2     		uxth	r3, r3
 5336 0114 0133     		adds	r3, r3, #1
 5337 0116 9BB2     		uxth	r3, r3
 5338 0118 1AB2     		sxth	r2, r3
 5339 011a BB8D     		ldrh	r3, [r7, #44]
 5340 011c FFF7FEFF 		bl	TFT_fastVLine
 726:source\bsw\tft/tft.c ****             TFT_fastVLine(x0-y, y0-x, 2*x+1+delta, color);
 5341              		.loc 1 726 0
 5342 0120 FA88     		ldrh	r2, [r7, #6]
 5343 0122 FB89     		ldrh	r3, [r7, #14]
 5344 0124 D31A     		subs	r3, r2, r3
 5345 0126 9BB2     		uxth	r3, r3
 5346 0128 18B2     		sxth	r0, r3
 5347 012a BA88     		ldrh	r2, [r7, #4]
 5348 012c 3B8A     		ldrh	r3, [r7, #16]
 5349 012e D31A     		subs	r3, r2, r3
 5350 0130 9BB2     		uxth	r3, r3
 5351 0132 19B2     		sxth	r1, r3
 5352 0134 3B8A     		ldrh	r3, [r7, #16]
 5353 0136 5B00     		lsls	r3, r3, #1
 5354 0138 9AB2     		uxth	r2, r3
 5355 013a 3B8D     		ldrh	r3, [r7, #40]
 5356 013c 1344     		add	r3, r3, r2
 5357 013e 9BB2     		uxth	r3, r3
 5358 0140 0133     		adds	r3, r3, #1
 5359 0142 9BB2     		uxth	r3, r3
 5360 0144 1AB2     		sxth	r2, r3
 5361 0146 BB8D     		ldrh	r3, [r7, #44]
 5362 0148 FFF7FEFF 		bl	TFT_fastVLine
 5363              	.L192:
 710:source\bsw\tft/tft.c ****         if (f >= 0) {
 5364              		.loc 1 710 0
 5365 014c B7F91020 		ldrsh	r2, [r7, #16]
 5366 0150 B7F90E30 		ldrsh	r3, [r7, #14]
 5367 0154 9A42     		cmp	r2, r3
 5368 0156 FFF675AF 		blt	.L195
 727:source\bsw\tft/tft.c ****         }
 728:source\bsw\tft/tft.c ****     }
 729:source\bsw\tft/tft.c **** }
ARM GAS  C:\Users\schmi\AppData\Local\Temp\ccA9az4I.s 			page 110


 5369              		.loc 1 729 0
 5370 015a 00BF     		nop
 5371 015c 1C37     		adds	r7, r7, #28
 5372              		.cfi_def_cfa_offset 12
 5373 015e BD46     		mov	sp, r7
 5374              		.cfi_def_cfa_register 13
 5375              		@ sp needed
 5376 0160 90BD     		pop	{r4, r7, pc}
 5377              		.cfi_endproc
 5378              	.LFE148:
 5379              		.size	TFT_fillCircleHelper, .-TFT_fillCircleHelper
 5380 0162 00BF     		.section	.text.TFT_drawTriangle,"ax",%progbits
 5381              		.align	2
 5382              		.global	TFT_drawTriangle
 5383              		.thumb
 5384              		.thumb_func
 5385              		.type	TFT_drawTriangle, %function
 5386              	TFT_drawTriangle:
 5387              	.LFB149:
 730:source\bsw\tft/tft.c **** 
 731:source\bsw\tft/tft.c **** // Draw a triangle
 732:source\bsw\tft/tft.c **** void TFT_drawTriangle(int16_t x0, int16_t y0, int16_t x1, int16_t y1, int16_t x2, int16_t y2, TFT_c
 5388              		.loc 1 732 0
 5389              		.cfi_startproc
 5390              		@ args = 12, pretend = 0, frame = 8
 5391              		@ frame_needed = 1, uses_anonymous_args = 0
 5392 0000 90B5     		push	{r4, r7, lr}
 5393              		.cfi_def_cfa_offset 12
 5394              		.cfi_offset 4, -12
 5395              		.cfi_offset 7, -8
 5396              		.cfi_offset 14, -4
 5397 0002 85B0     		sub	sp, sp, #20
 5398              		.cfi_def_cfa_offset 32
 5399 0004 02AF     		add	r7, sp, #8
 5400              		.cfi_def_cfa 7, 24
 5401 0006 0446     		mov	r4, r0
 5402 0008 0846     		mov	r0, r1
 5403 000a 1146     		mov	r1, r2
 5404 000c 1A46     		mov	r2, r3
 5405 000e 2346     		mov	r3, r4	@ movhi
 5406 0010 FB80     		strh	r3, [r7, #6]	@ movhi
 5407 0012 0346     		mov	r3, r0	@ movhi
 5408 0014 BB80     		strh	r3, [r7, #4]	@ movhi
 5409 0016 0B46     		mov	r3, r1	@ movhi
 5410 0018 7B80     		strh	r3, [r7, #2]	@ movhi
 5411 001a 1346     		mov	r3, r2	@ movhi
 5412 001c 3B80     		strh	r3, [r7]	@ movhi
 733:source\bsw\tft/tft.c ****     TFT_writeLine(x0, y0, x1, y1, color);
 5413              		.loc 1 733 0
 5414 001e B7F90040 		ldrsh	r4, [r7]
 5415 0022 B7F90220 		ldrsh	r2, [r7, #2]
 5416 0026 B7F90410 		ldrsh	r1, [r7, #4]
 5417 002a B7F90600 		ldrsh	r0, [r7, #6]
 5418 002e 3B8C     		ldrh	r3, [r7, #32]
 5419 0030 0093     		str	r3, [sp]
 5420 0032 2346     		mov	r3, r4
 5421 0034 FFF7FEFF 		bl	TFT_writeLine
ARM GAS  C:\Users\schmi\AppData\Local\Temp\ccA9az4I.s 			page 111


 734:source\bsw\tft/tft.c ****     TFT_writeLine(x1, y1, x2, y2, color);
 5422              		.loc 1 734 0
 5423 0038 B7F91C40 		ldrsh	r4, [r7, #28]
 5424 003c B7F91820 		ldrsh	r2, [r7, #24]
 5425 0040 B7F90010 		ldrsh	r1, [r7]
 5426 0044 B7F90200 		ldrsh	r0, [r7, #2]
 5427 0048 3B8C     		ldrh	r3, [r7, #32]
 5428 004a 0093     		str	r3, [sp]
 5429 004c 2346     		mov	r3, r4
 5430 004e FFF7FEFF 		bl	TFT_writeLine
 735:source\bsw\tft/tft.c ****     TFT_writeLine(x2, y2, x0, y0, color);
 5431              		.loc 1 735 0
 5432 0052 B7F90440 		ldrsh	r4, [r7, #4]
 5433 0056 B7F90620 		ldrsh	r2, [r7, #6]
 5434 005a B7F91C10 		ldrsh	r1, [r7, #28]
 5435 005e B7F91800 		ldrsh	r0, [r7, #24]
 5436 0062 3B8C     		ldrh	r3, [r7, #32]
 5437 0064 0093     		str	r3, [sp]
 5438 0066 2346     		mov	r3, r4
 5439 0068 FFF7FEFF 		bl	TFT_writeLine
 736:source\bsw\tft/tft.c **** }
 5440              		.loc 1 736 0
 5441 006c 00BF     		nop
 5442 006e 0C37     		adds	r7, r7, #12
 5443              		.cfi_def_cfa_offset 12
 5444 0070 BD46     		mov	sp, r7
 5445              		.cfi_def_cfa_register 13
 5446              		@ sp needed
 5447 0072 90BD     		pop	{r4, r7, pc}
 5448              		.cfi_endproc
 5449              	.LFE149:
 5450              		.size	TFT_drawTriangle, .-TFT_drawTriangle
 5451              		.section	.text.TFT_fillTriangle,"ax",%progbits
 5452              		.align	2
 5453              		.global	TFT_fillTriangle
 5454              		.thumb
 5455              		.thumb_func
 5456              		.type	TFT_fillTriangle, %function
 5457              	TFT_fillTriangle:
 5458              	.LFB150:
 737:source\bsw\tft/tft.c **** 
 738:source\bsw\tft/tft.c **** // Fill a triangle
 739:source\bsw\tft/tft.c **** void TFT_fillTriangle(int16_t x0, int16_t y0, int16_t x1, int16_t y1, int16_t x2, int16_t y2, TFT_c
 5459              		.loc 1 739 0
 5460              		.cfi_startproc
 5461              		@ args = 12, pretend = 0, frame = 56
 5462              		@ frame_needed = 1, uses_anonymous_args = 0
 5463 0000 90B5     		push	{r4, r7, lr}
 5464              		.cfi_def_cfa_offset 12
 5465              		.cfi_offset 4, -12
 5466              		.cfi_offset 7, -8
 5467              		.cfi_offset 14, -4
 5468 0002 8FB0     		sub	sp, sp, #60
 5469              		.cfi_def_cfa_offset 72
 5470 0004 00AF     		add	r7, sp, #0
 5471              		.cfi_def_cfa_register 7
 5472 0006 0446     		mov	r4, r0
ARM GAS  C:\Users\schmi\AppData\Local\Temp\ccA9az4I.s 			page 112


 5473 0008 0846     		mov	r0, r1
 5474 000a 1146     		mov	r1, r2
 5475 000c 1A46     		mov	r2, r3
 5476 000e 2346     		mov	r3, r4	@ movhi
 5477 0010 FB80     		strh	r3, [r7, #6]	@ movhi
 5478 0012 0346     		mov	r3, r0	@ movhi
 5479 0014 BB80     		strh	r3, [r7, #4]	@ movhi
 5480 0016 0B46     		mov	r3, r1	@ movhi
 5481 0018 7B80     		strh	r3, [r7, #2]	@ movhi
 5482 001a 1346     		mov	r3, r2	@ movhi
 5483 001c 3B80     		strh	r3, [r7]	@ movhi
 740:source\bsw\tft/tft.c **** 
 741:source\bsw\tft/tft.c ****     int16_t a, b, y, last;
 742:source\bsw\tft/tft.c **** 
 743:source\bsw\tft/tft.c ****     // Sort coordinates by Y order (y2 >= y1 >= y0)
 744:source\bsw\tft/tft.c ****     if (y0 > y1) {
 5484              		.loc 1 744 0
 5485 001e B7F90420 		ldrsh	r2, [r7, #4]
 5486 0022 B7F90030 		ldrsh	r3, [r7]
 5487 0026 9A42     		cmp	r2, r3
 5488 0028 0BDD     		ble	.L198
 5489              	.LBB13:
 745:source\bsw\tft/tft.c ****         _swap_int16_t(y0, y1); _swap_int16_t(x0, x1);
 5490              		.loc 1 745 0
 5491 002a BB88     		ldrh	r3, [r7, #4]	@ movhi
 5492 002c FB84     		strh	r3, [r7, #38]	@ movhi
 5493 002e 3B88     		ldrh	r3, [r7]	@ movhi
 5494 0030 BB80     		strh	r3, [r7, #4]	@ movhi
 5495 0032 FB8C     		ldrh	r3, [r7, #38]	@ movhi
 5496 0034 3B80     		strh	r3, [r7]	@ movhi
 5497              	.LBE13:
 5498              	.LBB14:
 5499 0036 FB88     		ldrh	r3, [r7, #6]	@ movhi
 5500 0038 BB84     		strh	r3, [r7, #36]	@ movhi
 5501 003a 7B88     		ldrh	r3, [r7, #2]	@ movhi
 5502 003c FB80     		strh	r3, [r7, #6]	@ movhi
 5503 003e BB8C     		ldrh	r3, [r7, #36]	@ movhi
 5504 0040 7B80     		strh	r3, [r7, #2]	@ movhi
 5505              	.L198:
 5506              	.LBE14:
 746:source\bsw\tft/tft.c ****     }
 747:source\bsw\tft/tft.c ****     if (y1 > y2) {
 5507              		.loc 1 747 0
 5508 0042 B7F90020 		ldrsh	r2, [r7]
 5509 0046 B7F94C30 		ldrsh	r3, [r7, #76]
 5510 004a 9A42     		cmp	r2, r3
 5511 004c 0FDD     		ble	.L199
 5512              	.LBB15:
 748:source\bsw\tft/tft.c ****         _swap_int16_t(y2, y1); _swap_int16_t(x2, x1);
 5513              		.loc 1 748 0
 5514 004e B7F84C30 		ldrh	r3, [r7, #76]	@ movhi
 5515 0052 7B84     		strh	r3, [r7, #34]	@ movhi
 5516 0054 3B88     		ldrh	r3, [r7]	@ movhi
 5517 0056 A7F84C30 		strh	r3, [r7, #76]	@ movhi
 5518 005a 7B8C     		ldrh	r3, [r7, #34]	@ movhi
 5519 005c 3B80     		strh	r3, [r7]	@ movhi
 5520              	.LBE15:
ARM GAS  C:\Users\schmi\AppData\Local\Temp\ccA9az4I.s 			page 113


 5521              	.LBB16:
 5522 005e B7F84830 		ldrh	r3, [r7, #72]	@ movhi
 5523 0062 3B84     		strh	r3, [r7, #32]	@ movhi
 5524 0064 7B88     		ldrh	r3, [r7, #2]	@ movhi
 5525 0066 A7F84830 		strh	r3, [r7, #72]	@ movhi
 5526 006a 3B8C     		ldrh	r3, [r7, #32]	@ movhi
 5527 006c 7B80     		strh	r3, [r7, #2]	@ movhi
 5528              	.L199:
 5529              	.LBE16:
 749:source\bsw\tft/tft.c ****     }
 750:source\bsw\tft/tft.c ****     if (y0 > y1) {
 5530              		.loc 1 750 0
 5531 006e B7F90420 		ldrsh	r2, [r7, #4]
 5532 0072 B7F90030 		ldrsh	r3, [r7]
 5533 0076 9A42     		cmp	r2, r3
 5534 0078 0BDD     		ble	.L200
 5535              	.LBB17:
 751:source\bsw\tft/tft.c ****         _swap_int16_t(y0, y1); _swap_int16_t(x0, x1);
 5536              		.loc 1 751 0
 5537 007a BB88     		ldrh	r3, [r7, #4]	@ movhi
 5538 007c FB83     		strh	r3, [r7, #30]	@ movhi
 5539 007e 3B88     		ldrh	r3, [r7]	@ movhi
 5540 0080 BB80     		strh	r3, [r7, #4]	@ movhi
 5541 0082 FB8B     		ldrh	r3, [r7, #30]	@ movhi
 5542 0084 3B80     		strh	r3, [r7]	@ movhi
 5543              	.LBE17:
 5544              	.LBB18:
 5545 0086 FB88     		ldrh	r3, [r7, #6]	@ movhi
 5546 0088 BB83     		strh	r3, [r7, #28]	@ movhi
 5547 008a 7B88     		ldrh	r3, [r7, #2]	@ movhi
 5548 008c FB80     		strh	r3, [r7, #6]	@ movhi
 5549 008e BB8B     		ldrh	r3, [r7, #28]	@ movhi
 5550 0090 7B80     		strh	r3, [r7, #2]	@ movhi
 5551              	.L200:
 5552              	.LBE18:
 752:source\bsw\tft/tft.c ****     }
 753:source\bsw\tft/tft.c **** 
 754:source\bsw\tft/tft.c ****     if(y0 == y2) { // Handle awkward all-on-same-line case as its own thing
 5553              		.loc 1 754 0
 5554 0092 B7F90420 		ldrsh	r2, [r7, #4]
 5555 0096 B7F94C30 		ldrsh	r3, [r7, #76]
 5556 009a 9A42     		cmp	r2, r3
 5557 009c 37D1     		bne	.L201
 755:source\bsw\tft/tft.c ****         a = b = x0;
 5558              		.loc 1 755 0
 5559 009e FB88     		ldrh	r3, [r7, #6]	@ movhi
 5560 00a0 BB86     		strh	r3, [r7, #52]	@ movhi
 5561 00a2 BB8E     		ldrh	r3, [r7, #52]	@ movhi
 5562 00a4 FB86     		strh	r3, [r7, #54]	@ movhi
 756:source\bsw\tft/tft.c ****         if(x1 < a)      a = x1;
 5563              		.loc 1 756 0
 5564 00a6 B7F90220 		ldrsh	r2, [r7, #2]
 5565 00aa B7F93630 		ldrsh	r3, [r7, #54]
 5566 00ae 9A42     		cmp	r2, r3
 5567 00b0 02DA     		bge	.L202
 5568              		.loc 1 756 0 is_stmt 0 discriminator 1
 5569 00b2 7B88     		ldrh	r3, [r7, #2]	@ movhi
ARM GAS  C:\Users\schmi\AppData\Local\Temp\ccA9az4I.s 			page 114


 5570 00b4 FB86     		strh	r3, [r7, #54]	@ movhi
 5571 00b6 07E0     		b	.L203
 5572              	.L202:
 757:source\bsw\tft/tft.c ****         else if(x1 > b) b = x1;
 5573              		.loc 1 757 0 is_stmt 1
 5574 00b8 B7F90220 		ldrsh	r2, [r7, #2]
 5575 00bc B7F93430 		ldrsh	r3, [r7, #52]
 5576 00c0 9A42     		cmp	r2, r3
 5577 00c2 01DD     		ble	.L203
 5578              		.loc 1 757 0 is_stmt 0 discriminator 1
 5579 00c4 7B88     		ldrh	r3, [r7, #2]	@ movhi
 5580 00c6 BB86     		strh	r3, [r7, #52]	@ movhi
 5581              	.L203:
 758:source\bsw\tft/tft.c ****         if(x2 < a)      a = x2;
 5582              		.loc 1 758 0 is_stmt 1
 5583 00c8 B7F94820 		ldrsh	r2, [r7, #72]
 5584 00cc B7F93630 		ldrsh	r3, [r7, #54]
 5585 00d0 9A42     		cmp	r2, r3
 5586 00d2 03DA     		bge	.L204
 5587              		.loc 1 758 0 is_stmt 0 discriminator 1
 5588 00d4 B7F84830 		ldrh	r3, [r7, #72]	@ movhi
 5589 00d8 FB86     		strh	r3, [r7, #54]	@ movhi
 5590 00da 08E0     		b	.L205
 5591              	.L204:
 759:source\bsw\tft/tft.c ****         else if(x2 > b) b = x2;
 5592              		.loc 1 759 0 is_stmt 1
 5593 00dc B7F94820 		ldrsh	r2, [r7, #72]
 5594 00e0 B7F93430 		ldrsh	r3, [r7, #52]
 5595 00e4 9A42     		cmp	r2, r3
 5596 00e6 02DD     		ble	.L205
 5597              		.loc 1 759 0 is_stmt 0 discriminator 1
 5598 00e8 B7F84830 		ldrh	r3, [r7, #72]	@ movhi
 5599 00ec BB86     		strh	r3, [r7, #52]	@ movhi
 5600              	.L205:
 760:source\bsw\tft/tft.c ****         TFT_fastHLine(a, y0, b-a+1, color);
 5601              		.loc 1 760 0 is_stmt 1
 5602 00ee BA8E     		ldrh	r2, [r7, #52]
 5603 00f0 FB8E     		ldrh	r3, [r7, #54]
 5604 00f2 D31A     		subs	r3, r2, r3
 5605 00f4 9BB2     		uxth	r3, r3
 5606 00f6 0133     		adds	r3, r3, #1
 5607 00f8 9BB2     		uxth	r3, r3
 5608 00fa 1AB2     		sxth	r2, r3
 5609 00fc B7F85030 		ldrh	r3, [r7, #80]
 5610 0100 B7F90410 		ldrsh	r1, [r7, #4]
 5611 0104 B7F93600 		ldrsh	r0, [r7, #54]
 5612 0108 FFF7FEFF 		bl	TFT_fastHLine
 761:source\bsw\tft/tft.c ****         return;
 5613              		.loc 1 761 0
 5614 010c D4E0     		b	.L197
 5615              	.L201:
 762:source\bsw\tft/tft.c ****     }
 763:source\bsw\tft/tft.c **** 
 764:source\bsw\tft/tft.c ****     int16_t
 765:source\bsw\tft/tft.c ****     dx01 = x1 - x0,
 5616              		.loc 1 765 0
 5617 010e 7A88     		ldrh	r2, [r7, #2]
ARM GAS  C:\Users\schmi\AppData\Local\Temp\ccA9az4I.s 			page 115


 5618 0110 FB88     		ldrh	r3, [r7, #6]
 5619 0112 D31A     		subs	r3, r2, r3
 5620 0114 9BB2     		uxth	r3, r3
 5621 0116 7B83     		strh	r3, [r7, #26]	@ movhi
 766:source\bsw\tft/tft.c ****     dy01 = y1 - y0,
 5622              		.loc 1 766 0
 5623 0118 3A88     		ldrh	r2, [r7]
 5624 011a BB88     		ldrh	r3, [r7, #4]
 5625 011c D31A     		subs	r3, r2, r3
 5626 011e 9BB2     		uxth	r3, r3
 5627 0120 3B83     		strh	r3, [r7, #24]	@ movhi
 767:source\bsw\tft/tft.c ****     dx02 = x2 - x0,
 5628              		.loc 1 767 0
 5629 0122 B7F84820 		ldrh	r2, [r7, #72]
 5630 0126 FB88     		ldrh	r3, [r7, #6]
 5631 0128 D31A     		subs	r3, r2, r3
 5632 012a 9BB2     		uxth	r3, r3
 5633 012c FB82     		strh	r3, [r7, #22]	@ movhi
 768:source\bsw\tft/tft.c ****     dy02 = y2 - y0,
 5634              		.loc 1 768 0
 5635 012e B7F84C20 		ldrh	r2, [r7, #76]
 5636 0132 BB88     		ldrh	r3, [r7, #4]
 5637 0134 D31A     		subs	r3, r2, r3
 5638 0136 9BB2     		uxth	r3, r3
 5639 0138 BB82     		strh	r3, [r7, #20]	@ movhi
 769:source\bsw\tft/tft.c ****     dx12 = x2 - x1,
 5640              		.loc 1 769 0
 5641 013a B7F84820 		ldrh	r2, [r7, #72]
 5642 013e 7B88     		ldrh	r3, [r7, #2]
 5643 0140 D31A     		subs	r3, r2, r3
 5644 0142 9BB2     		uxth	r3, r3
 5645 0144 7B82     		strh	r3, [r7, #18]	@ movhi
 770:source\bsw\tft/tft.c ****     dy12 = y2 - y1;
 5646              		.loc 1 770 0
 5647 0146 B7F84C20 		ldrh	r2, [r7, #76]
 5648 014a 3B88     		ldrh	r3, [r7]
 5649 014c D31A     		subs	r3, r2, r3
 5650 014e 9BB2     		uxth	r3, r3
 5651 0150 3B82     		strh	r3, [r7, #16]	@ movhi
 771:source\bsw\tft/tft.c ****     int32_t
 772:source\bsw\tft/tft.c ****     sa   = 0,
 5652              		.loc 1 772 0
 5653 0152 0023     		movs	r3, #0
 5654 0154 FB62     		str	r3, [r7, #44]
 773:source\bsw\tft/tft.c ****     sb   = 0;
 5655              		.loc 1 773 0
 5656 0156 0023     		movs	r3, #0
 5657 0158 BB62     		str	r3, [r7, #40]
 774:source\bsw\tft/tft.c **** 
 775:source\bsw\tft/tft.c ****     // For upper part of triangle, find scanline crossings for segments
 776:source\bsw\tft/tft.c ****     // 0-1 and 0-2.  If y1=y2 (flat-bottomed triangle), the scanline y1
 777:source\bsw\tft/tft.c ****     // is included here (and second loop will be skipped, avoiding a /0
 778:source\bsw\tft/tft.c ****     // error there), otherwise scanline y1 is skipped here and handled
 779:source\bsw\tft/tft.c ****     // in the second loop...which also avoids a /0 error here if y0=y1
 780:source\bsw\tft/tft.c ****     // (flat-topped triangle).
 781:source\bsw\tft/tft.c ****     if(y1 == y2) last = y1;   // Include y1 scanline
 5658              		.loc 1 781 0
ARM GAS  C:\Users\schmi\AppData\Local\Temp\ccA9az4I.s 			page 116


 5659 015a B7F90020 		ldrsh	r2, [r7]
 5660 015e B7F94C30 		ldrsh	r3, [r7, #76]
 5661 0162 9A42     		cmp	r2, r3
 5662 0164 02D1     		bne	.L207
 5663              		.loc 1 781 0 is_stmt 0 discriminator 1
 5664 0166 3B88     		ldrh	r3, [r7]	@ movhi
 5665 0168 3B86     		strh	r3, [r7, #48]	@ movhi
 5666 016a 03E0     		b	.L208
 5667              	.L207:
 782:source\bsw\tft/tft.c ****     else         last = y1-1; // Skip it
 5668              		.loc 1 782 0 is_stmt 1
 5669 016c 3B88     		ldrh	r3, [r7]
 5670 016e 013B     		subs	r3, r3, #1
 5671 0170 9BB2     		uxth	r3, r3
 5672 0172 3B86     		strh	r3, [r7, #48]	@ movhi
 5673              	.L208:
 783:source\bsw\tft/tft.c **** 
 784:source\bsw\tft/tft.c ****     for(y=y0; y<=last; y++) {
 5674              		.loc 1 784 0
 5675 0174 BB88     		ldrh	r3, [r7, #4]	@ movhi
 5676 0176 7B86     		strh	r3, [r7, #50]	@ movhi
 5677 0178 3EE0     		b	.L209
 5678              	.L211:
 785:source\bsw\tft/tft.c ****         a   = x0 + sa / dy01;
 5679              		.loc 1 785 0
 5680 017a B7F91830 		ldrsh	r3, [r7, #24]
 5681 017e FA6A     		ldr	r2, [r7, #44]
 5682 0180 92FBF3F3 		sdiv	r3, r2, r3
 5683 0184 9AB2     		uxth	r2, r3
 5684 0186 FB88     		ldrh	r3, [r7, #6]
 5685 0188 1344     		add	r3, r3, r2
 5686 018a 9BB2     		uxth	r3, r3
 5687 018c FB86     		strh	r3, [r7, #54]	@ movhi
 786:source\bsw\tft/tft.c ****         b   = x0 + sb / dy02;
 5688              		.loc 1 786 0
 5689 018e B7F91430 		ldrsh	r3, [r7, #20]
 5690 0192 BA6A     		ldr	r2, [r7, #40]
 5691 0194 92FBF3F3 		sdiv	r3, r2, r3
 5692 0198 9AB2     		uxth	r2, r3
 5693 019a FB88     		ldrh	r3, [r7, #6]
 5694 019c 1344     		add	r3, r3, r2
 5695 019e 9BB2     		uxth	r3, r3
 5696 01a0 BB86     		strh	r3, [r7, #52]	@ movhi
 787:source\bsw\tft/tft.c ****         sa += dx01;
 5697              		.loc 1 787 0
 5698 01a2 B7F91A30 		ldrsh	r3, [r7, #26]
 5699 01a6 FA6A     		ldr	r2, [r7, #44]
 5700 01a8 1344     		add	r3, r3, r2
 5701 01aa FB62     		str	r3, [r7, #44]
 788:source\bsw\tft/tft.c ****         sb += dx02;
 5702              		.loc 1 788 0
 5703 01ac B7F91630 		ldrsh	r3, [r7, #22]
 5704 01b0 BA6A     		ldr	r2, [r7, #40]
 5705 01b2 1344     		add	r3, r3, r2
 5706 01b4 BB62     		str	r3, [r7, #40]
 789:source\bsw\tft/tft.c ****         /* longhand:
 790:source\bsw\tft/tft.c ****         a = x0 + (x1 - x0) * (y - y0) / (y1 - y0);
ARM GAS  C:\Users\schmi\AppData\Local\Temp\ccA9az4I.s 			page 117


 791:source\bsw\tft/tft.c ****         b = x0 + (x2 - x0) * (y - y0) / (y2 - y0);
 792:source\bsw\tft/tft.c ****         */
 793:source\bsw\tft/tft.c ****         if(a > b) _swap_int16_t(a,b);
 5707              		.loc 1 793 0
 5708 01b6 B7F93620 		ldrsh	r2, [r7, #54]
 5709 01ba B7F93430 		ldrsh	r3, [r7, #52]
 5710 01be 9A42     		cmp	r2, r3
 5711 01c0 05DD     		ble	.L210
 5712              	.LBB19:
 5713              		.loc 1 793 0 is_stmt 0 discriminator 1
 5714 01c2 FB8E     		ldrh	r3, [r7, #54]	@ movhi
 5715 01c4 FB81     		strh	r3, [r7, #14]	@ movhi
 5716 01c6 BB8E     		ldrh	r3, [r7, #52]	@ movhi
 5717 01c8 FB86     		strh	r3, [r7, #54]	@ movhi
 5718 01ca FB89     		ldrh	r3, [r7, #14]	@ movhi
 5719 01cc BB86     		strh	r3, [r7, #52]	@ movhi
 5720              	.L210:
 5721              	.LBE19:
 794:source\bsw\tft/tft.c ****         TFT_fastHLine(a, y, b-a+1, color);
 5722              		.loc 1 794 0 is_stmt 1 discriminator 2
 5723 01ce BA8E     		ldrh	r2, [r7, #52]
 5724 01d0 FB8E     		ldrh	r3, [r7, #54]
 5725 01d2 D31A     		subs	r3, r2, r3
 5726 01d4 9BB2     		uxth	r3, r3
 5727 01d6 0133     		adds	r3, r3, #1
 5728 01d8 9BB2     		uxth	r3, r3
 5729 01da 1AB2     		sxth	r2, r3
 5730 01dc B7F85030 		ldrh	r3, [r7, #80]
 5731 01e0 B7F93210 		ldrsh	r1, [r7, #50]
 5732 01e4 B7F93600 		ldrsh	r0, [r7, #54]
 5733 01e8 FFF7FEFF 		bl	TFT_fastHLine
 784:source\bsw\tft/tft.c ****         a   = x0 + sa / dy01;
 5734              		.loc 1 784 0 discriminator 2
 5735 01ec B7F93230 		ldrsh	r3, [r7, #50]
 5736 01f0 9BB2     		uxth	r3, r3
 5737 01f2 0133     		adds	r3, r3, #1
 5738 01f4 9BB2     		uxth	r3, r3
 5739 01f6 7B86     		strh	r3, [r7, #50]	@ movhi
 5740              	.L209:
 784:source\bsw\tft/tft.c ****         a   = x0 + sa / dy01;
 5741              		.loc 1 784 0 is_stmt 0 discriminator 1
 5742 01f8 B7F93220 		ldrsh	r2, [r7, #50]
 5743 01fc B7F93030 		ldrsh	r3, [r7, #48]
 5744 0200 9A42     		cmp	r2, r3
 5745 0202 BADD     		ble	.L211
 795:source\bsw\tft/tft.c ****     }
 796:source\bsw\tft/tft.c **** 
 797:source\bsw\tft/tft.c ****     // For lower part of triangle, find scanline crossings for segments
 798:source\bsw\tft/tft.c ****     // 0-2 and 1-2.  This loop is skipped if y1=y2.
 799:source\bsw\tft/tft.c ****     sa = dx12 * (y - y1);
 5746              		.loc 1 799 0 is_stmt 1
 5747 0204 B7F91230 		ldrsh	r3, [r7, #18]
 5748 0208 B7F93210 		ldrsh	r1, [r7, #50]
 5749 020c B7F90020 		ldrsh	r2, [r7]
 5750 0210 8A1A     		subs	r2, r1, r2
 5751 0212 02FB03F3 		mul	r3, r2, r3
 5752 0216 FB62     		str	r3, [r7, #44]
ARM GAS  C:\Users\schmi\AppData\Local\Temp\ccA9az4I.s 			page 118


 800:source\bsw\tft/tft.c ****     sb = dx02 * (y - y0);
 5753              		.loc 1 800 0
 5754 0218 B7F91630 		ldrsh	r3, [r7, #22]
 5755 021c B7F93210 		ldrsh	r1, [r7, #50]
 5756 0220 B7F90420 		ldrsh	r2, [r7, #4]
 5757 0224 8A1A     		subs	r2, r1, r2
 5758 0226 02FB03F3 		mul	r3, r2, r3
 5759 022a BB62     		str	r3, [r7, #40]
 801:source\bsw\tft/tft.c ****     for(; y<=y2; y++) {
 5760              		.loc 1 801 0
 5761 022c 3EE0     		b	.L212
 5762              	.L214:
 802:source\bsw\tft/tft.c ****         a   = x1 + sa / dy12;
 5763              		.loc 1 802 0
 5764 022e B7F91030 		ldrsh	r3, [r7, #16]
 5765 0232 FA6A     		ldr	r2, [r7, #44]
 5766 0234 92FBF3F3 		sdiv	r3, r2, r3
 5767 0238 9AB2     		uxth	r2, r3
 5768 023a 7B88     		ldrh	r3, [r7, #2]
 5769 023c 1344     		add	r3, r3, r2
 5770 023e 9BB2     		uxth	r3, r3
 5771 0240 FB86     		strh	r3, [r7, #54]	@ movhi
 803:source\bsw\tft/tft.c ****         b   = x0 + sb / dy02;
 5772              		.loc 1 803 0
 5773 0242 B7F91430 		ldrsh	r3, [r7, #20]
 5774 0246 BA6A     		ldr	r2, [r7, #40]
 5775 0248 92FBF3F3 		sdiv	r3, r2, r3
 5776 024c 9AB2     		uxth	r2, r3
 5777 024e FB88     		ldrh	r3, [r7, #6]
 5778 0250 1344     		add	r3, r3, r2
 5779 0252 9BB2     		uxth	r3, r3
 5780 0254 BB86     		strh	r3, [r7, #52]	@ movhi
 804:source\bsw\tft/tft.c ****         sa += dx12;
 5781              		.loc 1 804 0
 5782 0256 B7F91230 		ldrsh	r3, [r7, #18]
 5783 025a FA6A     		ldr	r2, [r7, #44]
 5784 025c 1344     		add	r3, r3, r2
 5785 025e FB62     		str	r3, [r7, #44]
 805:source\bsw\tft/tft.c ****         sb += dx02;
 5786              		.loc 1 805 0
 5787 0260 B7F91630 		ldrsh	r3, [r7, #22]
 5788 0264 BA6A     		ldr	r2, [r7, #40]
 5789 0266 1344     		add	r3, r3, r2
 5790 0268 BB62     		str	r3, [r7, #40]
 806:source\bsw\tft/tft.c ****         /* longhand:
 807:source\bsw\tft/tft.c ****         a = x1 + (x2 - x1) * (y - y1) / (y2 - y1);
 808:source\bsw\tft/tft.c ****         b = x0 + (x2 - x0) * (y - y0) / (y2 - y0);
 809:source\bsw\tft/tft.c ****         */
 810:source\bsw\tft/tft.c ****         if(a > b) _swap_int16_t(a,b);
 5791              		.loc 1 810 0
 5792 026a B7F93620 		ldrsh	r2, [r7, #54]
 5793 026e B7F93430 		ldrsh	r3, [r7, #52]
 5794 0272 9A42     		cmp	r2, r3
 5795 0274 05DD     		ble	.L213
 5796              	.LBB20:
 5797              		.loc 1 810 0 is_stmt 0 discriminator 1
 5798 0276 FB8E     		ldrh	r3, [r7, #54]	@ movhi
ARM GAS  C:\Users\schmi\AppData\Local\Temp\ccA9az4I.s 			page 119


 5799 0278 BB81     		strh	r3, [r7, #12]	@ movhi
 5800 027a BB8E     		ldrh	r3, [r7, #52]	@ movhi
 5801 027c FB86     		strh	r3, [r7, #54]	@ movhi
 5802 027e BB89     		ldrh	r3, [r7, #12]	@ movhi
 5803 0280 BB86     		strh	r3, [r7, #52]	@ movhi
 5804              	.L213:
 5805              	.LBE20:
 811:source\bsw\tft/tft.c ****         TFT_fastHLine(a, y, b-a+1, color);
 5806              		.loc 1 811 0 is_stmt 1
 5807 0282 BA8E     		ldrh	r2, [r7, #52]
 5808 0284 FB8E     		ldrh	r3, [r7, #54]
 5809 0286 D31A     		subs	r3, r2, r3
 5810 0288 9BB2     		uxth	r3, r3
 5811 028a 0133     		adds	r3, r3, #1
 5812 028c 9BB2     		uxth	r3, r3
 5813 028e 1AB2     		sxth	r2, r3
 5814 0290 B7F85030 		ldrh	r3, [r7, #80]
 5815 0294 B7F93210 		ldrsh	r1, [r7, #50]
 5816 0298 B7F93600 		ldrsh	r0, [r7, #54]
 5817 029c FFF7FEFF 		bl	TFT_fastHLine
 801:source\bsw\tft/tft.c ****         a   = x1 + sa / dy12;
 5818              		.loc 1 801 0
 5819 02a0 B7F93230 		ldrsh	r3, [r7, #50]
 5820 02a4 9BB2     		uxth	r3, r3
 5821 02a6 0133     		adds	r3, r3, #1
 5822 02a8 9BB2     		uxth	r3, r3
 5823 02aa 7B86     		strh	r3, [r7, #50]	@ movhi
 5824              	.L212:
 801:source\bsw\tft/tft.c ****         a   = x1 + sa / dy12;
 5825              		.loc 1 801 0 is_stmt 0 discriminator 1
 5826 02ac B7F93220 		ldrsh	r2, [r7, #50]
 5827 02b0 B7F94C30 		ldrsh	r3, [r7, #76]
 5828 02b4 9A42     		cmp	r2, r3
 5829 02b6 BADD     		ble	.L214
 5830              	.L197:
 812:source\bsw\tft/tft.c ****     }
 813:source\bsw\tft/tft.c **** }
 5831              		.loc 1 813 0 is_stmt 1
 5832 02b8 3C37     		adds	r7, r7, #60
 5833              		.cfi_def_cfa_offset 12
 5834 02ba BD46     		mov	sp, r7
 5835              		.cfi_def_cfa_register 13
 5836              		@ sp needed
 5837 02bc 90BD     		pop	{r4, r7, pc}
 5838              		.cfi_endproc
 5839              	.LFE150:
 5840              		.size	TFT_fillTriangle, .-TFT_fillTriangle
 5841 02be 00BF     		.section	.text.TFT_drawRoundRect,"ax",%progbits
 5842              		.align	2
 5843              		.global	TFT_drawRoundRect
 5844              		.thumb
 5845              		.thumb_func
 5846              		.type	TFT_drawRoundRect, %function
 5847              	TFT_drawRoundRect:
 5848              	.LFB151:
 814:source\bsw\tft/tft.c **** 
 815:source\bsw\tft/tft.c **** // Draw a rounded rectangle
ARM GAS  C:\Users\schmi\AppData\Local\Temp\ccA9az4I.s 			page 120


 816:source\bsw\tft/tft.c **** void TFT_drawRoundRect(int16_t x, int16_t y, int16_t w, int16_t h, int16_t r, TFT_color_t color) {
 5849              		.loc 1 816 0
 5850              		.cfi_startproc
 5851              		@ args = 8, pretend = 0, frame = 8
 5852              		@ frame_needed = 1, uses_anonymous_args = 0
 5853 0000 90B5     		push	{r4, r7, lr}
 5854              		.cfi_def_cfa_offset 12
 5855              		.cfi_offset 4, -12
 5856              		.cfi_offset 7, -8
 5857              		.cfi_offset 14, -4
 5858 0002 85B0     		sub	sp, sp, #20
 5859              		.cfi_def_cfa_offset 32
 5860 0004 02AF     		add	r7, sp, #8
 5861              		.cfi_def_cfa 7, 24
 5862 0006 0446     		mov	r4, r0
 5863 0008 0846     		mov	r0, r1
 5864 000a 1146     		mov	r1, r2
 5865 000c 1A46     		mov	r2, r3
 5866 000e 2346     		mov	r3, r4	@ movhi
 5867 0010 FB80     		strh	r3, [r7, #6]	@ movhi
 5868 0012 0346     		mov	r3, r0	@ movhi
 5869 0014 BB80     		strh	r3, [r7, #4]	@ movhi
 5870 0016 0B46     		mov	r3, r1	@ movhi
 5871 0018 7B80     		strh	r3, [r7, #2]	@ movhi
 5872 001a 1346     		mov	r3, r2	@ movhi
 5873 001c 3B80     		strh	r3, [r7]	@ movhi
 817:source\bsw\tft/tft.c ****     // smarter version
 818:source\bsw\tft/tft.c ****     TFT_fastHLine(x+r  , y    , w-2*r, color); // Top
 5874              		.loc 1 818 0
 5875 001e FA88     		ldrh	r2, [r7, #6]
 5876 0020 3B8B     		ldrh	r3, [r7, #24]
 5877 0022 1344     		add	r3, r3, r2
 5878 0024 9BB2     		uxth	r3, r3
 5879 0026 18B2     		sxth	r0, r3
 5880 0028 7A88     		ldrh	r2, [r7, #2]
 5881 002a 3B8B     		ldrh	r3, [r7, #24]
 5882 002c 5B00     		lsls	r3, r3, #1
 5883 002e 9BB2     		uxth	r3, r3
 5884 0030 D31A     		subs	r3, r2, r3
 5885 0032 9BB2     		uxth	r3, r3
 5886 0034 1AB2     		sxth	r2, r3
 5887 0036 BB8B     		ldrh	r3, [r7, #28]
 5888 0038 B7F90410 		ldrsh	r1, [r7, #4]
 5889 003c FFF7FEFF 		bl	TFT_fastHLine
 819:source\bsw\tft/tft.c ****     TFT_fastHLine(x+r  , y+h-1, w-2*r, color); // Bottom
 5890              		.loc 1 819 0
 5891 0040 FA88     		ldrh	r2, [r7, #6]
 5892 0042 3B8B     		ldrh	r3, [r7, #24]
 5893 0044 1344     		add	r3, r3, r2
 5894 0046 9BB2     		uxth	r3, r3
 5895 0048 18B2     		sxth	r0, r3
 5896 004a BA88     		ldrh	r2, [r7, #4]
 5897 004c 3B88     		ldrh	r3, [r7]
 5898 004e 1344     		add	r3, r3, r2
 5899 0050 9BB2     		uxth	r3, r3
 5900 0052 013B     		subs	r3, r3, #1
 5901 0054 9BB2     		uxth	r3, r3
ARM GAS  C:\Users\schmi\AppData\Local\Temp\ccA9az4I.s 			page 121


 5902 0056 19B2     		sxth	r1, r3
 5903 0058 7A88     		ldrh	r2, [r7, #2]
 5904 005a 3B8B     		ldrh	r3, [r7, #24]
 5905 005c 5B00     		lsls	r3, r3, #1
 5906 005e 9BB2     		uxth	r3, r3
 5907 0060 D31A     		subs	r3, r2, r3
 5908 0062 9BB2     		uxth	r3, r3
 5909 0064 1AB2     		sxth	r2, r3
 5910 0066 BB8B     		ldrh	r3, [r7, #28]
 5911 0068 FFF7FEFF 		bl	TFT_fastHLine
 820:source\bsw\tft/tft.c ****     TFT_fastVLine(x    , y+r  , h-2*r, color); // Left
 5912              		.loc 1 820 0
 5913 006c BA88     		ldrh	r2, [r7, #4]
 5914 006e 3B8B     		ldrh	r3, [r7, #24]
 5915 0070 1344     		add	r3, r3, r2
 5916 0072 9BB2     		uxth	r3, r3
 5917 0074 19B2     		sxth	r1, r3
 5918 0076 3A88     		ldrh	r2, [r7]
 5919 0078 3B8B     		ldrh	r3, [r7, #24]
 5920 007a 5B00     		lsls	r3, r3, #1
 5921 007c 9BB2     		uxth	r3, r3
 5922 007e D31A     		subs	r3, r2, r3
 5923 0080 9BB2     		uxth	r3, r3
 5924 0082 1AB2     		sxth	r2, r3
 5925 0084 BB8B     		ldrh	r3, [r7, #28]
 5926 0086 B7F90600 		ldrsh	r0, [r7, #6]
 5927 008a FFF7FEFF 		bl	TFT_fastVLine
 821:source\bsw\tft/tft.c ****     TFT_fastVLine(x+w-1, y+r  , h-2*r, color); // Right
 5928              		.loc 1 821 0
 5929 008e FA88     		ldrh	r2, [r7, #6]
 5930 0090 7B88     		ldrh	r3, [r7, #2]
 5931 0092 1344     		add	r3, r3, r2
 5932 0094 9BB2     		uxth	r3, r3
 5933 0096 013B     		subs	r3, r3, #1
 5934 0098 9BB2     		uxth	r3, r3
 5935 009a 18B2     		sxth	r0, r3
 5936 009c BA88     		ldrh	r2, [r7, #4]
 5937 009e 3B8B     		ldrh	r3, [r7, #24]
 5938 00a0 1344     		add	r3, r3, r2
 5939 00a2 9BB2     		uxth	r3, r3
 5940 00a4 19B2     		sxth	r1, r3
 5941 00a6 3A88     		ldrh	r2, [r7]
 5942 00a8 3B8B     		ldrh	r3, [r7, #24]
 5943 00aa 5B00     		lsls	r3, r3, #1
 5944 00ac 9BB2     		uxth	r3, r3
 5945 00ae D31A     		subs	r3, r2, r3
 5946 00b0 9BB2     		uxth	r3, r3
 5947 00b2 1AB2     		sxth	r2, r3
 5948 00b4 BB8B     		ldrh	r3, [r7, #28]
 5949 00b6 FFF7FEFF 		bl	TFT_fastVLine
 822:source\bsw\tft/tft.c ****     // draw four corners
 823:source\bsw\tft/tft.c ****     TFT_drawCircleHelper(x+r    , y+r    , r, 1, color);
 5950              		.loc 1 823 0
 5951 00ba FA88     		ldrh	r2, [r7, #6]
 5952 00bc 3B8B     		ldrh	r3, [r7, #24]
 5953 00be 1344     		add	r3, r3, r2
 5954 00c0 9BB2     		uxth	r3, r3
ARM GAS  C:\Users\schmi\AppData\Local\Temp\ccA9az4I.s 			page 122


 5955 00c2 18B2     		sxth	r0, r3
 5956 00c4 BA88     		ldrh	r2, [r7, #4]
 5957 00c6 3B8B     		ldrh	r3, [r7, #24]
 5958 00c8 1344     		add	r3, r3, r2
 5959 00ca 9BB2     		uxth	r3, r3
 5960 00cc 19B2     		sxth	r1, r3
 5961 00ce B7F91820 		ldrsh	r2, [r7, #24]
 5962 00d2 BB8B     		ldrh	r3, [r7, #28]
 5963 00d4 0093     		str	r3, [sp]
 5964 00d6 0123     		movs	r3, #1
 5965 00d8 FFF7FEFF 		bl	TFT_drawCircleHelper
 824:source\bsw\tft/tft.c ****     TFT_drawCircleHelper(x+w-r-1, y+r    , r, 2, color);
 5966              		.loc 1 824 0
 5967 00dc FA88     		ldrh	r2, [r7, #6]
 5968 00de 7B88     		ldrh	r3, [r7, #2]
 5969 00e0 1344     		add	r3, r3, r2
 5970 00e2 9AB2     		uxth	r2, r3
 5971 00e4 3B8B     		ldrh	r3, [r7, #24]
 5972 00e6 D31A     		subs	r3, r2, r3
 5973 00e8 9BB2     		uxth	r3, r3
 5974 00ea 013B     		subs	r3, r3, #1
 5975 00ec 9BB2     		uxth	r3, r3
 5976 00ee 18B2     		sxth	r0, r3
 5977 00f0 BA88     		ldrh	r2, [r7, #4]
 5978 00f2 3B8B     		ldrh	r3, [r7, #24]
 5979 00f4 1344     		add	r3, r3, r2
 5980 00f6 9BB2     		uxth	r3, r3
 5981 00f8 19B2     		sxth	r1, r3
 5982 00fa B7F91820 		ldrsh	r2, [r7, #24]
 5983 00fe BB8B     		ldrh	r3, [r7, #28]
 5984 0100 0093     		str	r3, [sp]
 5985 0102 0223     		movs	r3, #2
 5986 0104 FFF7FEFF 		bl	TFT_drawCircleHelper
 825:source\bsw\tft/tft.c ****     TFT_drawCircleHelper(x+w-r-1, y+h-r-1, r, 4, color);
 5987              		.loc 1 825 0
 5988 0108 FA88     		ldrh	r2, [r7, #6]
 5989 010a 7B88     		ldrh	r3, [r7, #2]
 5990 010c 1344     		add	r3, r3, r2
 5991 010e 9AB2     		uxth	r2, r3
 5992 0110 3B8B     		ldrh	r3, [r7, #24]
 5993 0112 D31A     		subs	r3, r2, r3
 5994 0114 9BB2     		uxth	r3, r3
 5995 0116 013B     		subs	r3, r3, #1
 5996 0118 9BB2     		uxth	r3, r3
 5997 011a 18B2     		sxth	r0, r3
 5998 011c BA88     		ldrh	r2, [r7, #4]
 5999 011e 3B88     		ldrh	r3, [r7]
 6000 0120 1344     		add	r3, r3, r2
 6001 0122 9AB2     		uxth	r2, r3
 6002 0124 3B8B     		ldrh	r3, [r7, #24]
 6003 0126 D31A     		subs	r3, r2, r3
 6004 0128 9BB2     		uxth	r3, r3
 6005 012a 013B     		subs	r3, r3, #1
 6006 012c 9BB2     		uxth	r3, r3
 6007 012e 19B2     		sxth	r1, r3
 6008 0130 B7F91820 		ldrsh	r2, [r7, #24]
 6009 0134 BB8B     		ldrh	r3, [r7, #28]
ARM GAS  C:\Users\schmi\AppData\Local\Temp\ccA9az4I.s 			page 123


 6010 0136 0093     		str	r3, [sp]
 6011 0138 0423     		movs	r3, #4
 6012 013a FFF7FEFF 		bl	TFT_drawCircleHelper
 826:source\bsw\tft/tft.c ****     TFT_drawCircleHelper(x+r    , y+h-r-1, r, 8, color);
 6013              		.loc 1 826 0
 6014 013e FA88     		ldrh	r2, [r7, #6]
 6015 0140 3B8B     		ldrh	r3, [r7, #24]
 6016 0142 1344     		add	r3, r3, r2
 6017 0144 9BB2     		uxth	r3, r3
 6018 0146 18B2     		sxth	r0, r3
 6019 0148 BA88     		ldrh	r2, [r7, #4]
 6020 014a 3B88     		ldrh	r3, [r7]
 6021 014c 1344     		add	r3, r3, r2
 6022 014e 9AB2     		uxth	r2, r3
 6023 0150 3B8B     		ldrh	r3, [r7, #24]
 6024 0152 D31A     		subs	r3, r2, r3
 6025 0154 9BB2     		uxth	r3, r3
 6026 0156 013B     		subs	r3, r3, #1
 6027 0158 9BB2     		uxth	r3, r3
 6028 015a 19B2     		sxth	r1, r3
 6029 015c B7F91820 		ldrsh	r2, [r7, #24]
 6030 0160 BB8B     		ldrh	r3, [r7, #28]
 6031 0162 0093     		str	r3, [sp]
 6032 0164 0823     		movs	r3, #8
 6033 0166 FFF7FEFF 		bl	TFT_drawCircleHelper
 827:source\bsw\tft/tft.c **** 
 828:source\bsw\tft/tft.c **** }
 6034              		.loc 1 828 0
 6035 016a 00BF     		nop
 6036 016c 0C37     		adds	r7, r7, #12
 6037              		.cfi_def_cfa_offset 12
 6038 016e BD46     		mov	sp, r7
 6039              		.cfi_def_cfa_register 13
 6040              		@ sp needed
 6041 0170 90BD     		pop	{r4, r7, pc}
 6042              		.cfi_endproc
 6043              	.LFE151:
 6044              		.size	TFT_drawRoundRect, .-TFT_drawRoundRect
 6045 0172 00BF     		.section	.text.TFT_fillRoundRect,"ax",%progbits
 6046              		.align	2
 6047              		.global	TFT_fillRoundRect
 6048              		.thumb
 6049              		.thumb_func
 6050              		.type	TFT_fillRoundRect, %function
 6051              	TFT_fillRoundRect:
 6052              	.LFB152:
 829:source\bsw\tft/tft.c **** 
 830:source\bsw\tft/tft.c **** // Fill a rounded rectangle
 831:source\bsw\tft/tft.c **** void TFT_fillRoundRect(int16_t x, int16_t y, int16_t w, int16_t h, int16_t r, TFT_color_t color) {
 6053              		.loc 1 831 0
 6054              		.cfi_startproc
 6055              		@ args = 8, pretend = 0, frame = 8
 6056              		@ frame_needed = 1, uses_anonymous_args = 0
 6057 0000 90B5     		push	{r4, r7, lr}
 6058              		.cfi_def_cfa_offset 12
 6059              		.cfi_offset 4, -12
 6060              		.cfi_offset 7, -8
ARM GAS  C:\Users\schmi\AppData\Local\Temp\ccA9az4I.s 			page 124


 6061              		.cfi_offset 14, -4
 6062 0002 85B0     		sub	sp, sp, #20
 6063              		.cfi_def_cfa_offset 32
 6064 0004 02AF     		add	r7, sp, #8
 6065              		.cfi_def_cfa 7, 24
 6066 0006 0446     		mov	r4, r0
 6067 0008 0846     		mov	r0, r1
 6068 000a 1146     		mov	r1, r2
 6069 000c 1A46     		mov	r2, r3
 6070 000e 2346     		mov	r3, r4	@ movhi
 6071 0010 FB80     		strh	r3, [r7, #6]	@ movhi
 6072 0012 0346     		mov	r3, r0	@ movhi
 6073 0014 BB80     		strh	r3, [r7, #4]	@ movhi
 6074 0016 0B46     		mov	r3, r1	@ movhi
 6075 0018 7B80     		strh	r3, [r7, #2]	@ movhi
 6076 001a 1346     		mov	r3, r2	@ movhi
 6077 001c 3B80     		strh	r3, [r7]	@ movhi
 832:source\bsw\tft/tft.c ****     // smarter version
 833:source\bsw\tft/tft.c **** 
 834:source\bsw\tft/tft.c ****     TFT_fillRect(x+r, y, w-2*r, h, color);
 6078              		.loc 1 834 0
 6079 001e FA88     		ldrh	r2, [r7, #6]
 6080 0020 3B8B     		ldrh	r3, [r7, #24]
 6081 0022 1344     		add	r3, r3, r2
 6082 0024 9BB2     		uxth	r3, r3
 6083 0026 18B2     		sxth	r0, r3
 6084 0028 7A88     		ldrh	r2, [r7, #2]
 6085 002a 3B8B     		ldrh	r3, [r7, #24]
 6086 002c 5B00     		lsls	r3, r3, #1
 6087 002e 9BB2     		uxth	r3, r3
 6088 0030 D31A     		subs	r3, r2, r3
 6089 0032 9BB2     		uxth	r3, r3
 6090 0034 1AB2     		sxth	r2, r3
 6091 0036 B7F90040 		ldrsh	r4, [r7]
 6092 003a B7F90410 		ldrsh	r1, [r7, #4]
 6093 003e BB8B     		ldrh	r3, [r7, #28]
 6094 0040 0093     		str	r3, [sp]
 6095 0042 2346     		mov	r3, r4
 6096 0044 FFF7FEFF 		bl	TFT_fillRect
 835:source\bsw\tft/tft.c **** 
 836:source\bsw\tft/tft.c ****     // draw four corners
 837:source\bsw\tft/tft.c ****     TFT_fillCircleHelper(x+w-r-1, y+r, r, 1, h-2*r-1, color);
 6097              		.loc 1 837 0
 6098 0048 FA88     		ldrh	r2, [r7, #6]
 6099 004a 7B88     		ldrh	r3, [r7, #2]
 6100 004c 1344     		add	r3, r3, r2
 6101 004e 9AB2     		uxth	r2, r3
 6102 0050 3B8B     		ldrh	r3, [r7, #24]
 6103 0052 D31A     		subs	r3, r2, r3
 6104 0054 9BB2     		uxth	r3, r3
 6105 0056 013B     		subs	r3, r3, #1
 6106 0058 9BB2     		uxth	r3, r3
 6107 005a 18B2     		sxth	r0, r3
 6108 005c BA88     		ldrh	r2, [r7, #4]
 6109 005e 3B8B     		ldrh	r3, [r7, #24]
 6110 0060 1344     		add	r3, r3, r2
 6111 0062 9BB2     		uxth	r3, r3
ARM GAS  C:\Users\schmi\AppData\Local\Temp\ccA9az4I.s 			page 125


 6112 0064 19B2     		sxth	r1, r3
 6113 0066 3A88     		ldrh	r2, [r7]
 6114 0068 3B8B     		ldrh	r3, [r7, #24]
 6115 006a 5B00     		lsls	r3, r3, #1
 6116 006c 9BB2     		uxth	r3, r3
 6117 006e D31A     		subs	r3, r2, r3
 6118 0070 9BB2     		uxth	r3, r3
 6119 0072 013B     		subs	r3, r3, #1
 6120 0074 9BB2     		uxth	r3, r3
 6121 0076 1BB2     		sxth	r3, r3
 6122 0078 B7F91840 		ldrsh	r4, [r7, #24]
 6123 007c BA8B     		ldrh	r2, [r7, #28]
 6124 007e 0192     		str	r2, [sp, #4]
 6125 0080 0093     		str	r3, [sp]
 6126 0082 0123     		movs	r3, #1
 6127 0084 2246     		mov	r2, r4
 6128 0086 FFF7FEFF 		bl	TFT_fillCircleHelper
 838:source\bsw\tft/tft.c ****     TFT_fillCircleHelper(x+r    , y+r, r, 2, h-2*r-1, color);
 6129              		.loc 1 838 0
 6130 008a FA88     		ldrh	r2, [r7, #6]
 6131 008c 3B8B     		ldrh	r3, [r7, #24]
 6132 008e 1344     		add	r3, r3, r2
 6133 0090 9BB2     		uxth	r3, r3
 6134 0092 18B2     		sxth	r0, r3
 6135 0094 BA88     		ldrh	r2, [r7, #4]
 6136 0096 3B8B     		ldrh	r3, [r7, #24]
 6137 0098 1344     		add	r3, r3, r2
 6138 009a 9BB2     		uxth	r3, r3
 6139 009c 19B2     		sxth	r1, r3
 6140 009e 3A88     		ldrh	r2, [r7]
 6141 00a0 3B8B     		ldrh	r3, [r7, #24]
 6142 00a2 5B00     		lsls	r3, r3, #1
 6143 00a4 9BB2     		uxth	r3, r3
 6144 00a6 D31A     		subs	r3, r2, r3
 6145 00a8 9BB2     		uxth	r3, r3
 6146 00aa 013B     		subs	r3, r3, #1
 6147 00ac 9BB2     		uxth	r3, r3
 6148 00ae 1BB2     		sxth	r3, r3
 6149 00b0 B7F91840 		ldrsh	r4, [r7, #24]
 6150 00b4 BA8B     		ldrh	r2, [r7, #28]
 6151 00b6 0192     		str	r2, [sp, #4]
 6152 00b8 0093     		str	r3, [sp]
 6153 00ba 0223     		movs	r3, #2
 6154 00bc 2246     		mov	r2, r4
 6155 00be FFF7FEFF 		bl	TFT_fillCircleHelper
 839:source\bsw\tft/tft.c **** 
 840:source\bsw\tft/tft.c **** }
 6156              		.loc 1 840 0
 6157 00c2 00BF     		nop
 6158 00c4 0C37     		adds	r7, r7, #12
 6159              		.cfi_def_cfa_offset 12
 6160 00c6 BD46     		mov	sp, r7
 6161              		.cfi_def_cfa_register 13
 6162              		@ sp needed
 6163 00c8 90BD     		pop	{r4, r7, pc}
 6164              		.cfi_endproc
 6165              	.LFE152:
ARM GAS  C:\Users\schmi\AppData\Local\Temp\ccA9az4I.s 			page 126


 6166              		.size	TFT_fillRoundRect, .-TFT_fillRoundRect
 6167 00ca 00BF     		.section	.text.TFT_drawRect,"ax",%progbits
 6168              		.align	2
 6169              		.global	TFT_drawRect
 6170              		.thumb
 6171              		.thumb_func
 6172              		.type	TFT_drawRect, %function
 6173              	TFT_drawRect:
 6174              	.LFB153:
 841:source\bsw\tft/tft.c **** 
 842:source\bsw\tft/tft.c **** // Draw a rectangle
 843:source\bsw\tft/tft.c **** void TFT_drawRect(int16_t x, int16_t y, int16_t w, int16_t h,  TFT_color_t color) {
 6175              		.loc 1 843 0
 6176              		.cfi_startproc
 6177              		@ args = 4, pretend = 0, frame = 8
 6178              		@ frame_needed = 1, uses_anonymous_args = 0
 6179 0000 90B5     		push	{r4, r7, lr}
 6180              		.cfi_def_cfa_offset 12
 6181              		.cfi_offset 4, -12
 6182              		.cfi_offset 7, -8
 6183              		.cfi_offset 14, -4
 6184 0002 83B0     		sub	sp, sp, #12
 6185              		.cfi_def_cfa_offset 24
 6186 0004 00AF     		add	r7, sp, #0
 6187              		.cfi_def_cfa_register 7
 6188 0006 0446     		mov	r4, r0
 6189 0008 0846     		mov	r0, r1
 6190 000a 1146     		mov	r1, r2
 6191 000c 1A46     		mov	r2, r3
 6192 000e 2346     		mov	r3, r4	@ movhi
 6193 0010 FB80     		strh	r3, [r7, #6]	@ movhi
 6194 0012 0346     		mov	r3, r0	@ movhi
 6195 0014 BB80     		strh	r3, [r7, #4]	@ movhi
 6196 0016 0B46     		mov	r3, r1	@ movhi
 6197 0018 7B80     		strh	r3, [r7, #2]	@ movhi
 6198 001a 1346     		mov	r3, r2	@ movhi
 6199 001c 3B80     		strh	r3, [r7]	@ movhi
 844:source\bsw\tft/tft.c ****     TFT_fastHLine(x, y, w, color);
 6200              		.loc 1 844 0
 6201 001e 3B8B     		ldrh	r3, [r7, #24]
 6202 0020 B7F90220 		ldrsh	r2, [r7, #2]
 6203 0024 B7F90410 		ldrsh	r1, [r7, #4]
 6204 0028 B7F90600 		ldrsh	r0, [r7, #6]
 6205 002c FFF7FEFF 		bl	TFT_fastHLine
 845:source\bsw\tft/tft.c ****     TFT_fastHLine(x, y+h-1, w, color);
 6206              		.loc 1 845 0
 6207 0030 BA88     		ldrh	r2, [r7, #4]
 6208 0032 3B88     		ldrh	r3, [r7]
 6209 0034 1344     		add	r3, r3, r2
 6210 0036 9BB2     		uxth	r3, r3
 6211 0038 013B     		subs	r3, r3, #1
 6212 003a 9BB2     		uxth	r3, r3
 6213 003c 19B2     		sxth	r1, r3
 6214 003e 3B8B     		ldrh	r3, [r7, #24]
 6215 0040 B7F90220 		ldrsh	r2, [r7, #2]
 6216 0044 B7F90600 		ldrsh	r0, [r7, #6]
 6217 0048 FFF7FEFF 		bl	TFT_fastHLine
ARM GAS  C:\Users\schmi\AppData\Local\Temp\ccA9az4I.s 			page 127


 846:source\bsw\tft/tft.c ****     TFT_fastVLine(x, y, h, color);
 6218              		.loc 1 846 0
 6219 004c 3B8B     		ldrh	r3, [r7, #24]
 6220 004e B7F90020 		ldrsh	r2, [r7]
 6221 0052 B7F90410 		ldrsh	r1, [r7, #4]
 6222 0056 B7F90600 		ldrsh	r0, [r7, #6]
 6223 005a FFF7FEFF 		bl	TFT_fastVLine
 847:source\bsw\tft/tft.c ****     TFT_fastVLine(x+w-1, y, h, color);
 6224              		.loc 1 847 0
 6225 005e FA88     		ldrh	r2, [r7, #6]
 6226 0060 7B88     		ldrh	r3, [r7, #2]
 6227 0062 1344     		add	r3, r3, r2
 6228 0064 9BB2     		uxth	r3, r3
 6229 0066 013B     		subs	r3, r3, #1
 6230 0068 9BB2     		uxth	r3, r3
 6231 006a 18B2     		sxth	r0, r3
 6232 006c 3B8B     		ldrh	r3, [r7, #24]
 6233 006e B7F90020 		ldrsh	r2, [r7]
 6234 0072 B7F90410 		ldrsh	r1, [r7, #4]
 6235 0076 FFF7FEFF 		bl	TFT_fastVLine
 848:source\bsw\tft/tft.c **** }
 6236              		.loc 1 848 0
 6237 007a 00BF     		nop
 6238 007c 0C37     		adds	r7, r7, #12
 6239              		.cfi_def_cfa_offset 12
 6240 007e BD46     		mov	sp, r7
 6241              		.cfi_def_cfa_register 13
 6242              		@ sp needed
 6243 0080 90BD     		pop	{r4, r7, pc}
 6244              		.cfi_endproc
 6245              	.LFE153:
 6246              		.size	TFT_drawRect, .-TFT_drawRect
 6247 0082 00BF     		.section	.text.TFT_drawChar,"ax",%progbits
 6248              		.align	2
 6249              		.global	TFT_drawChar
 6250              		.thumb
 6251              		.thumb_func
 6252              		.type	TFT_drawChar, %function
 6253              	TFT_drawChar:
 6254              	.LFB154:
 849:source\bsw\tft/tft.c **** 
 850:source\bsw\tft/tft.c **** // Draw a character
 851:source\bsw\tft/tft.c **** void TFT_drawChar(int16_t x, int16_t y, unsigned char c,  TFT_color_t color, TFT_color_t bg, uint8_
 6255              		.loc 1 851 0
 6256              		.cfi_startproc
 6257              		@ args = 8, pretend = 0, frame = 40
 6258              		@ frame_needed = 1, uses_anonymous_args = 0
 6259 0000 90B5     		push	{r4, r7, lr}
 6260              		.cfi_def_cfa_offset 12
 6261              		.cfi_offset 4, -12
 6262              		.cfi_offset 7, -8
 6263              		.cfi_offset 14, -4
 6264 0002 8DB0     		sub	sp, sp, #52
 6265              		.cfi_def_cfa_offset 64
 6266 0004 02AF     		add	r7, sp, #8
 6267              		.cfi_def_cfa 7, 56
 6268 0006 0446     		mov	r4, r0
ARM GAS  C:\Users\schmi\AppData\Local\Temp\ccA9az4I.s 			page 128


 6269 0008 0846     		mov	r0, r1
 6270 000a 1146     		mov	r1, r2
 6271 000c 1A46     		mov	r2, r3
 6272 000e 2346     		mov	r3, r4	@ movhi
 6273 0010 FB80     		strh	r3, [r7, #6]	@ movhi
 6274 0012 0346     		mov	r3, r0	@ movhi
 6275 0014 BB80     		strh	r3, [r7, #4]	@ movhi
 6276 0016 0B46     		mov	r3, r1
 6277 0018 FB70     		strb	r3, [r7, #3]
 6278 001a 1346     		mov	r3, r2	@ movhi
 6279 001c 3B80     		strh	r3, [r7]	@ movhi
 852:source\bsw\tft/tft.c **** 
 853:source\bsw\tft/tft.c ****     if(!gfxFont) { // 'Classic' built-in font
 6280              		.loc 1 853 0
 6281 001e A64B     		ldr	r3, .L243
 6282 0020 1B68     		ldr	r3, [r3]
 6283 0022 002B     		cmp	r3, #0
 6284 0024 40F00981 		bne	.L219
 854:source\bsw\tft/tft.c **** 
 855:source\bsw\tft/tft.c ****         if((x >= _width)            || // Clip right
 6285              		.loc 1 855 0
 6286 0028 A44B     		ldr	r3, .L243+4
 6287 002a B3F90030 		ldrsh	r3, [r3]
 6288 002e B7F90620 		ldrsh	r2, [r7, #6]
 6289 0032 9A42     		cmp	r2, r3
 6290 0034 80F2C081 		bge	.L242
 856:source\bsw\tft/tft.c ****            (y >= _height)           || // Clip bottom
 6291              		.loc 1 856 0 discriminator 1
 6292 0038 B7F90430 		ldrsh	r3, [r7, #4]
 6293 003c A04A     		ldr	r2, .L243+8
 6294 003e 1288     		ldrh	r2, [r2]
 855:source\bsw\tft/tft.c ****            (y >= _height)           || // Clip bottom
 6295              		.loc 1 855 0 discriminator 1
 6296 0040 9342     		cmp	r3, r2
 6297 0042 80F2B981 		bge	.L242
 857:source\bsw\tft/tft.c ****            ((x + 6 * size - 1) < 0) || // Clip left
 6298              		.loc 1 857 0
 6299 0046 B7F90610 		ldrsh	r1, [r7, #6]
 6300 004a 97F83C20 		ldrb	r2, [r7, #60]	@ zero_extendqisi2
 6301 004e 1346     		mov	r3, r2
 6302 0050 5B00     		lsls	r3, r3, #1
 6303 0052 1344     		add	r3, r3, r2
 6304 0054 5B00     		lsls	r3, r3, #1
 6305 0056 0B44     		add	r3, r3, r1
 6306 0058 013B     		subs	r3, r3, #1
 856:source\bsw\tft/tft.c ****            (y >= _height)           || // Clip bottom
 6307              		.loc 1 856 0
 6308 005a 002B     		cmp	r3, #0
 6309 005c C0F2AC81 		blt	.L242
 858:source\bsw\tft/tft.c ****            ((y + 8 * size - 1) < 0))   // Clip top
 6310              		.loc 1 858 0
 6311 0060 B7F90420 		ldrsh	r2, [r7, #4]
 6312 0064 97F83C30 		ldrb	r3, [r7, #60]	@ zero_extendqisi2
 6313 0068 DB00     		lsls	r3, r3, #3
 6314 006a 1344     		add	r3, r3, r2
 6315 006c 013B     		subs	r3, r3, #1
 857:source\bsw\tft/tft.c ****            ((x + 6 * size - 1) < 0) || // Clip left
ARM GAS  C:\Users\schmi\AppData\Local\Temp\ccA9az4I.s 			page 129


 6316              		.loc 1 857 0
 6317 006e 002B     		cmp	r3, #0
 6318 0070 C0F2A281 		blt	.L242
 6319              	.LBB21:
 859:source\bsw\tft/tft.c ****             return;
 860:source\bsw\tft/tft.c **** 
 861:source\bsw\tft/tft.c ****         for(int8_t i=0; i<5; i++ ) { // Char bitmap = 5 columns
 6320              		.loc 1 861 0
 6321 0074 0023     		movs	r3, #0
 6322 0076 87F82730 		strb	r3, [r7, #39]
 6323 007a A9E0     		b	.L223
 6324              	.L231:
 6325              	.LBB22:
 862:source\bsw\tft/tft.c ****             uint8_t line = pgm_read_byte(&font[c * 5 + i]);
 6326              		.loc 1 862 0
 6327 007c FA78     		ldrb	r2, [r7, #3]	@ zero_extendqisi2
 6328 007e 1346     		mov	r3, r2
 6329 0080 9B00     		lsls	r3, r3, #2
 6330 0082 1A44     		add	r2, r2, r3
 6331 0084 97F92730 		ldrsb	r3, [r7, #39]
 6332 0088 1344     		add	r3, r3, r2
 6333 008a 8E4A     		ldr	r2, .L243+12
 6334 008c D35C     		ldrb	r3, [r2, r3]
 6335 008e 87F82630 		strb	r3, [r7, #38]
 6336              	.LBB23:
 863:source\bsw\tft/tft.c ****             for(int8_t j=0; j<8; j++, line >>= 1) {
 6337              		.loc 1 863 0
 6338 0092 0023     		movs	r3, #0
 6339 0094 87F82530 		strb	r3, [r7, #37]
 6340 0098 8EE0     		b	.L224
 6341              	.L230:
 864:source\bsw\tft/tft.c ****                 if(line & 1) {
 6342              		.loc 1 864 0
 6343 009a 97F82630 		ldrb	r3, [r7, #38]	@ zero_extendqisi2
 6344 009e 03F00103 		and	r3, r3, #1
 6345 00a2 002B     		cmp	r3, #0
 6346 00a4 3CD0     		beq	.L225
 865:source\bsw\tft/tft.c ****                     if(size == 1)
 6347              		.loc 1 865 0
 6348 00a6 97F83C30 		ldrb	r3, [r7, #60]	@ zero_extendqisi2
 6349 00aa 012B     		cmp	r3, #1
 6350 00ac 12D1     		bne	.L226
 866:source\bsw\tft/tft.c ****                         TFT_drawPixel(x+i, y+j, color);
 6351              		.loc 1 866 0
 6352 00ae 97F92730 		ldrsb	r3, [r7, #39]
 6353 00b2 9AB2     		uxth	r2, r3
 6354 00b4 FB88     		ldrh	r3, [r7, #6]
 6355 00b6 1344     		add	r3, r3, r2
 6356 00b8 9BB2     		uxth	r3, r3
 6357 00ba 18B2     		sxth	r0, r3
 6358 00bc 97F92530 		ldrsb	r3, [r7, #37]
 6359 00c0 9AB2     		uxth	r2, r3
 6360 00c2 BB88     		ldrh	r3, [r7, #4]
 6361 00c4 1344     		add	r3, r3, r2
 6362 00c6 9BB2     		uxth	r3, r3
 6363 00c8 1BB2     		sxth	r3, r3
 6364 00ca 3A88     		ldrh	r2, [r7]
ARM GAS  C:\Users\schmi\AppData\Local\Temp\ccA9az4I.s 			page 130


 6365 00cc 1946     		mov	r1, r3
 6366 00ce FFF7FEFF 		bl	TFT_drawPixel
 6367 00d2 65E0     		b	.L228
 6368              	.L226:
 867:source\bsw\tft/tft.c ****                     else
 868:source\bsw\tft/tft.c ****                         TFT_fillRect(x+i*size, y+j*size, size, size, color);
 6369              		.loc 1 868 0
 6370 00d4 97F92730 		ldrsb	r3, [r7, #39]
 6371 00d8 9BB2     		uxth	r3, r3
 6372 00da 97F83C20 		ldrb	r2, [r7, #60]	@ zero_extendqisi2
 6373 00de 92B2     		uxth	r2, r2
 6374 00e0 02FB03F3 		mul	r3, r2, r3
 6375 00e4 9AB2     		uxth	r2, r3
 6376 00e6 FB88     		ldrh	r3, [r7, #6]
 6377 00e8 1344     		add	r3, r3, r2
 6378 00ea 9BB2     		uxth	r3, r3
 6379 00ec 18B2     		sxth	r0, r3
 6380 00ee 97F92530 		ldrsb	r3, [r7, #37]
 6381 00f2 9BB2     		uxth	r3, r3
 6382 00f4 97F83C20 		ldrb	r2, [r7, #60]	@ zero_extendqisi2
 6383 00f8 92B2     		uxth	r2, r2
 6384 00fa 02FB03F3 		mul	r3, r2, r3
 6385 00fe 9AB2     		uxth	r2, r3
 6386 0100 BB88     		ldrh	r3, [r7, #4]
 6387 0102 1344     		add	r3, r3, r2
 6388 0104 9BB2     		uxth	r3, r3
 6389 0106 19B2     		sxth	r1, r3
 6390 0108 97F83C30 		ldrb	r3, [r7, #60]	@ zero_extendqisi2
 6391 010c 1AB2     		sxth	r2, r3
 6392 010e 97F83C30 		ldrb	r3, [r7, #60]	@ zero_extendqisi2
 6393 0112 1CB2     		sxth	r4, r3
 6394 0114 3B88     		ldrh	r3, [r7]
 6395 0116 0093     		str	r3, [sp]
 6396 0118 2346     		mov	r3, r4
 6397 011a FFF7FEFF 		bl	TFT_fillRect
 6398 011e 3FE0     		b	.L228
 6399              	.L225:
 869:source\bsw\tft/tft.c ****                 } else if(bg != color) {
 6400              		.loc 1 869 0
 6401 0120 3A8F     		ldrh	r2, [r7, #56]
 6402 0122 3B88     		ldrh	r3, [r7]
 6403 0124 9A42     		cmp	r2, r3
 6404 0126 3BD0     		beq	.L228
 870:source\bsw\tft/tft.c ****                     if(size == 1)
 6405              		.loc 1 870 0
 6406 0128 97F83C30 		ldrb	r3, [r7, #60]	@ zero_extendqisi2
 6407 012c 012B     		cmp	r3, #1
 6408 012e 12D1     		bne	.L229
 871:source\bsw\tft/tft.c ****                         TFT_drawPixel(x+i, y+j, bg);
 6409              		.loc 1 871 0
 6410 0130 97F92730 		ldrsb	r3, [r7, #39]
 6411 0134 9AB2     		uxth	r2, r3
 6412 0136 FB88     		ldrh	r3, [r7, #6]
 6413 0138 1344     		add	r3, r3, r2
 6414 013a 9BB2     		uxth	r3, r3
 6415 013c 18B2     		sxth	r0, r3
 6416 013e 97F92530 		ldrsb	r3, [r7, #37]
ARM GAS  C:\Users\schmi\AppData\Local\Temp\ccA9az4I.s 			page 131


 6417 0142 9AB2     		uxth	r2, r3
 6418 0144 BB88     		ldrh	r3, [r7, #4]
 6419 0146 1344     		add	r3, r3, r2
 6420 0148 9BB2     		uxth	r3, r3
 6421 014a 1BB2     		sxth	r3, r3
 6422 014c 3A8F     		ldrh	r2, [r7, #56]
 6423 014e 1946     		mov	r1, r3
 6424 0150 FFF7FEFF 		bl	TFT_drawPixel
 6425 0154 24E0     		b	.L228
 6426              	.L229:
 872:source\bsw\tft/tft.c ****                     else
 873:source\bsw\tft/tft.c ****                         TFT_fillRect(x+i*size, y+j*size, size, size, bg);
 6427              		.loc 1 873 0
 6428 0156 97F92730 		ldrsb	r3, [r7, #39]
 6429 015a 9BB2     		uxth	r3, r3
 6430 015c 97F83C20 		ldrb	r2, [r7, #60]	@ zero_extendqisi2
 6431 0160 92B2     		uxth	r2, r2
 6432 0162 02FB03F3 		mul	r3, r2, r3
 6433 0166 9AB2     		uxth	r2, r3
 6434 0168 FB88     		ldrh	r3, [r7, #6]
 6435 016a 1344     		add	r3, r3, r2
 6436 016c 9BB2     		uxth	r3, r3
 6437 016e 18B2     		sxth	r0, r3
 6438 0170 97F92530 		ldrsb	r3, [r7, #37]
 6439 0174 9BB2     		uxth	r3, r3
 6440 0176 97F83C20 		ldrb	r2, [r7, #60]	@ zero_extendqisi2
 6441 017a 92B2     		uxth	r2, r2
 6442 017c 02FB03F3 		mul	r3, r2, r3
 6443 0180 9AB2     		uxth	r2, r3
 6444 0182 BB88     		ldrh	r3, [r7, #4]
 6445 0184 1344     		add	r3, r3, r2
 6446 0186 9BB2     		uxth	r3, r3
 6447 0188 19B2     		sxth	r1, r3
 6448 018a 97F83C30 		ldrb	r3, [r7, #60]	@ zero_extendqisi2
 6449 018e 1AB2     		sxth	r2, r3
 6450 0190 97F83C30 		ldrb	r3, [r7, #60]	@ zero_extendqisi2
 6451 0194 1CB2     		sxth	r4, r3
 6452 0196 3B8F     		ldrh	r3, [r7, #56]
 6453 0198 0093     		str	r3, [sp]
 6454 019a 2346     		mov	r3, r4
 6455 019c FFF7FEFF 		bl	TFT_fillRect
 6456              	.L228:
 863:source\bsw\tft/tft.c ****                 if(line & 1) {
 6457              		.loc 1 863 0 discriminator 2
 6458 01a0 97F92530 		ldrsb	r3, [r7, #37]
 6459 01a4 DBB2     		uxtb	r3, r3
 6460 01a6 0133     		adds	r3, r3, #1
 6461 01a8 DBB2     		uxtb	r3, r3
 6462 01aa 87F82530 		strb	r3, [r7, #37]
 6463 01ae 97F82630 		ldrb	r3, [r7, #38]	@ zero_extendqisi2
 6464 01b2 5B08     		lsrs	r3, r3, #1
 6465 01b4 87F82630 		strb	r3, [r7, #38]
 6466              	.L224:
 863:source\bsw\tft/tft.c ****                 if(line & 1) {
 6467              		.loc 1 863 0 is_stmt 0 discriminator 1
 6468 01b8 97F92530 		ldrsb	r3, [r7, #37]
 6469 01bc 072B     		cmp	r3, #7
ARM GAS  C:\Users\schmi\AppData\Local\Temp\ccA9az4I.s 			page 132


 6470 01be 7FF76CAF 		ble	.L230
 6471              	.LBE23:
 6472              	.LBE22:
 861:source\bsw\tft/tft.c ****             uint8_t line = pgm_read_byte(&font[c * 5 + i]);
 6473              		.loc 1 861 0 is_stmt 1 discriminator 2
 6474 01c2 97F92730 		ldrsb	r3, [r7, #39]
 6475 01c6 DBB2     		uxtb	r3, r3
 6476 01c8 0133     		adds	r3, r3, #1
 6477 01ca DBB2     		uxtb	r3, r3
 6478 01cc 87F82730 		strb	r3, [r7, #39]
 6479              	.L223:
 861:source\bsw\tft/tft.c ****             uint8_t line = pgm_read_byte(&font[c * 5 + i]);
 6480              		.loc 1 861 0 is_stmt 0 discriminator 1
 6481 01d0 97F92730 		ldrsb	r3, [r7, #39]
 6482 01d4 042B     		cmp	r3, #4
 6483 01d6 7FF751AF 		ble	.L231
 6484              	.LBE21:
 874:source\bsw\tft/tft.c ****                 }
 875:source\bsw\tft/tft.c ****             }
 876:source\bsw\tft/tft.c ****         }
 877:source\bsw\tft/tft.c ****         if(bg != color) { // If opaque, draw vertical line for last column
 6485              		.loc 1 877 0 is_stmt 1
 6486 01da 3A8F     		ldrh	r2, [r7, #56]
 6487 01dc 3B88     		ldrh	r3, [r7]
 6488 01de 9A42     		cmp	r2, r3
 6489 01e0 00F0EB80 		beq	.L218
 878:source\bsw\tft/tft.c ****             if(size == 1) TFT_fastVLine(x+5, y, 8, bg);
 6490              		.loc 1 878 0
 6491 01e4 97F83C30 		ldrb	r3, [r7, #60]	@ zero_extendqisi2
 6492 01e8 012B     		cmp	r3, #1
 6493 01ea 0AD1     		bne	.L233
 6494              		.loc 1 878 0 is_stmt 0 discriminator 1
 6495 01ec FB88     		ldrh	r3, [r7, #6]
 6496 01ee 0533     		adds	r3, r3, #5
 6497 01f0 9BB2     		uxth	r3, r3
 6498 01f2 18B2     		sxth	r0, r3
 6499 01f4 3B8F     		ldrh	r3, [r7, #56]
 6500 01f6 B7F90410 		ldrsh	r1, [r7, #4]
 6501 01fa 0822     		movs	r2, #8
 6502 01fc FFF7FEFF 		bl	TFT_fastVLine
 6503 0200 DBE0     		b	.L218
 6504              	.L233:
 879:source\bsw\tft/tft.c ****             else          TFT_fillRect(x+5*size, y, size, 8*size, bg);
 6505              		.loc 1 879 0 is_stmt 1
 6506 0202 97F83C30 		ldrb	r3, [r7, #60]	@ zero_extendqisi2
 6507 0206 9BB2     		uxth	r3, r3
 6508 0208 1A46     		mov	r2, r3	@ movhi
 6509 020a 9200     		lsls	r2, r2, #2
 6510 020c 1344     		add	r3, r3, r2
 6511 020e 9AB2     		uxth	r2, r3
 6512 0210 FB88     		ldrh	r3, [r7, #6]
 6513 0212 1344     		add	r3, r3, r2
 6514 0214 9BB2     		uxth	r3, r3
 6515 0216 18B2     		sxth	r0, r3
 6516 0218 97F83C30 		ldrb	r3, [r7, #60]	@ zero_extendqisi2
 6517 021c 1AB2     		sxth	r2, r3
 6518 021e 97F83C30 		ldrb	r3, [r7, #60]	@ zero_extendqisi2
ARM GAS  C:\Users\schmi\AppData\Local\Temp\ccA9az4I.s 			page 133


 6519 0222 9BB2     		uxth	r3, r3
 6520 0224 DB00     		lsls	r3, r3, #3
 6521 0226 9BB2     		uxth	r3, r3
 6522 0228 1CB2     		sxth	r4, r3
 6523 022a B7F90410 		ldrsh	r1, [r7, #4]
 6524 022e 3B8F     		ldrh	r3, [r7, #56]
 6525 0230 0093     		str	r3, [sp]
 6526 0232 2346     		mov	r3, r4
 6527 0234 FFF7FEFF 		bl	TFT_fillRect
 6528 0238 BFE0     		b	.L218
 6529              	.L219:
 6530              	.LBB24:
 880:source\bsw\tft/tft.c ****         }
 881:source\bsw\tft/tft.c **** 
 882:source\bsw\tft/tft.c ****     } else { // Custom font
 883:source\bsw\tft/tft.c **** 
 884:source\bsw\tft/tft.c ****         // Character is assumed previously filtered by write() to eliminate
 885:source\bsw\tft/tft.c ****         // newlines, returns, non-printable characters, etc.  Calling
 886:source\bsw\tft/tft.c ****         // drawChar() directly with 'bad' characters of font may cause mayhem!
 887:source\bsw\tft/tft.c **** 
 888:source\bsw\tft/tft.c ****         c -= (uint8_t)pgm_read_byte(&gfxFont->first);
 6531              		.loc 1 888 0
 6532 023a 1F4B     		ldr	r3, .L243
 6533 023c 1B68     		ldr	r3, [r3]
 6534 023e 0833     		adds	r3, r3, #8
 6535 0240 1B78     		ldrb	r3, [r3]	@ zero_extendqisi2
 6536 0242 FA78     		ldrb	r2, [r7, #3]
 6537 0244 D31A     		subs	r3, r2, r3
 6538 0246 FB70     		strb	r3, [r7, #3]
 889:source\bsw\tft/tft.c ****         GFXglyph *glyph  = &(((GFXglyph *)pgm_read_pointer(&gfxFont->glyph))[c]);
 6539              		.loc 1 889 0
 6540 0248 FB78     		ldrb	r3, [r7, #3]	@ zero_extendqisi2
 6541 024a DA00     		lsls	r2, r3, #3
 6542 024c 1A4B     		ldr	r3, .L243
 6543 024e 1B68     		ldr	r3, [r3]
 6544 0250 0433     		adds	r3, r3, #4
 6545 0252 1B68     		ldr	r3, [r3]
 6546 0254 1344     		add	r3, r3, r2
 6547 0256 7B61     		str	r3, [r7, #20]
 890:source\bsw\tft/tft.c ****         uint8_t  *bitmap = (uint8_t *)pgm_read_pointer(&gfxFont->bitmap);
 6548              		.loc 1 890 0
 6549 0258 174B     		ldr	r3, .L243
 6550 025a 1B68     		ldr	r3, [r3]
 6551 025c 1B68     		ldr	r3, [r3]
 6552 025e 3B61     		str	r3, [r7, #16]
 891:source\bsw\tft/tft.c **** 
 892:source\bsw\tft/tft.c ****         uint16_t bo = pgm_read_word(&glyph->bitmapOffset);
 6553              		.loc 1 892 0
 6554 0260 7B69     		ldr	r3, [r7, #20]
 6555 0262 1B88     		ldrh	r3, [r3]	@ movhi
 6556 0264 7B84     		strh	r3, [r7, #34]	@ movhi
 893:source\bsw\tft/tft.c ****         uint8_t  w  = pgm_read_byte(&glyph->width),
 6557              		.loc 1 893 0
 6558 0266 7B69     		ldr	r3, [r7, #20]
 6559 0268 9B78     		ldrb	r3, [r3, #2]
 6560 026a FB73     		strb	r3, [r7, #15]
 894:source\bsw\tft/tft.c ****                  h  = pgm_read_byte(&glyph->height);
ARM GAS  C:\Users\schmi\AppData\Local\Temp\ccA9az4I.s 			page 134


 6561              		.loc 1 894 0
 6562 026c 7B69     		ldr	r3, [r7, #20]
 6563 026e DB78     		ldrb	r3, [r3, #3]
 6564 0270 BB73     		strb	r3, [r7, #14]
 895:source\bsw\tft/tft.c ****         int8_t   xo = pgm_read_byte(&glyph->xOffset),
 6565              		.loc 1 895 0
 6566 0272 7B69     		ldr	r3, [r7, #20]
 6567 0274 0533     		adds	r3, r3, #5
 6568 0276 1B78     		ldrb	r3, [r3]	@ zero_extendqisi2
 6569 0278 7B73     		strb	r3, [r7, #13]
 896:source\bsw\tft/tft.c ****                  yo = pgm_read_byte(&glyph->yOffset);
 6570              		.loc 1 896 0
 6571 027a 7B69     		ldr	r3, [r7, #20]
 6572 027c 0633     		adds	r3, r3, #6
 6573 027e 1B78     		ldrb	r3, [r3]	@ zero_extendqisi2
 6574 0280 3B73     		strb	r3, [r7, #12]
 897:source\bsw\tft/tft.c ****         uint8_t  xx, yy, bits = 0, bit = 0;
 6575              		.loc 1 897 0
 6576 0282 0023     		movs	r3, #0
 6577 0284 FB77     		strb	r3, [r7, #31]
 6578 0286 0023     		movs	r3, #0
 6579 0288 BB77     		strb	r3, [r7, #30]
 898:source\bsw\tft/tft.c ****         int16_t  xo16 = 0, yo16 = 0;
 6580              		.loc 1 898 0
 6581 028a 0023     		movs	r3, #0
 6582 028c BB83     		strh	r3, [r7, #28]	@ movhi
 6583 028e 0023     		movs	r3, #0
 6584 0290 7B83     		strh	r3, [r7, #26]	@ movhi
 899:source\bsw\tft/tft.c **** 
 900:source\bsw\tft/tft.c ****         if(size > 1) {
 6585              		.loc 1 900 0
 6586 0292 97F83C30 		ldrb	r3, [r7, #60]	@ zero_extendqisi2
 6587 0296 012B     		cmp	r3, #1
 6588 0298 05D9     		bls	.L234
 901:source\bsw\tft/tft.c ****             xo16 = xo;
 6589              		.loc 1 901 0
 6590 029a 97F90D30 		ldrsb	r3, [r7, #13]
 6591 029e BB83     		strh	r3, [r7, #28]	@ movhi
 902:source\bsw\tft/tft.c ****             yo16 = yo;
 6592              		.loc 1 902 0
 6593 02a0 97F90C30 		ldrsb	r3, [r7, #12]
 6594 02a4 7B83     		strh	r3, [r7, #26]	@ movhi
 6595              	.L234:
 903:source\bsw\tft/tft.c ****         }
 904:source\bsw\tft/tft.c **** 
 905:source\bsw\tft/tft.c ****         // Todo: Add character clipping here
 906:source\bsw\tft/tft.c **** 
 907:source\bsw\tft/tft.c ****         // NOTE: THERE IS NO 'BACKGROUND' COLOR OPTION ON CUSTOM FONTS.
 908:source\bsw\tft/tft.c ****         // THIS IS ON PURPOSE AND BY DESIGN.  The background color feature
 909:source\bsw\tft/tft.c ****         // has typically been used with the 'classic' font to overwrite old
 910:source\bsw\tft/tft.c ****         // screen contents with new data.  This ONLY works because the
 911:source\bsw\tft/tft.c ****         // characters are a uniform size; it's not a sensible thing to do with
 912:source\bsw\tft/tft.c ****         // proportionally-spaced fonts with glyphs of varying sizes (and that
 913:source\bsw\tft/tft.c ****         // may overlap).  To replace previously-drawn text when using a custom
 914:source\bsw\tft/tft.c ****         // font, use the getTextBounds() function to determine the smallest
 915:source\bsw\tft/tft.c ****         // rectangle encompassing a string, erase the area with fillRect(),
 916:source\bsw\tft/tft.c ****         // then draw new text.  This WILL infortunately 'blink' the text, but
ARM GAS  C:\Users\schmi\AppData\Local\Temp\ccA9az4I.s 			page 135


 917:source\bsw\tft/tft.c ****         // is unavoidable.  Drawing 'background' pixels will NOT fix this,
 918:source\bsw\tft/tft.c ****         // only creates a new set of problems.  Have an idea to work around
 919:source\bsw\tft/tft.c ****         // this (a canvas object type for MCUs that can afford the RAM and
 920:source\bsw\tft/tft.c ****         // displays supporting setAddrWindow() and pushColors()), but haven't
 921:source\bsw\tft/tft.c ****         // implemented this yet.
 922:source\bsw\tft/tft.c ****         for(yy=0; yy<h; yy++) {
 6596              		.loc 1 922 0
 6597 02a6 0023     		movs	r3, #0
 6598 02a8 87F82030 		strb	r3, [r7, #32]
 6599 02ac 7DE0     		b	.L235
 6600              	.L241:
 923:source\bsw\tft/tft.c ****             for(xx=0; xx<w; xx++) {
 6601              		.loc 1 923 0
 6602 02ae 0023     		movs	r3, #0
 6603 02b0 87F82130 		strb	r3, [r7, #33]
 6604 02b4 6FE0     		b	.L236
 6605              	.L244:
 6606 02b6 00BF     		.align	2
 6607              	.L243:
 6608 02b8 14000000 		.word	gfxFont
 6609 02bc 06000000 		.word	_width
 6610 02c0 08000000 		.word	_height
 6611 02c4 58000000 		.word	font
 6612              	.L240:
 924:source\bsw\tft/tft.c ****                 if(!(bit++ & 7)) {
 6613              		.loc 1 924 0
 6614 02c8 BB7F     		ldrb	r3, [r7, #30]	@ zero_extendqisi2
 6615 02ca 5A1C     		adds	r2, r3, #1
 6616 02cc BA77     		strb	r2, [r7, #30]
 6617 02ce 03F00703 		and	r3, r3, #7
 6618 02d2 002B     		cmp	r3, #0
 6619 02d4 07D1     		bne	.L237
 925:source\bsw\tft/tft.c ****                     bits = pgm_read_byte(&bitmap[bo++]);
 6620              		.loc 1 925 0
 6621 02d6 7B8C     		ldrh	r3, [r7, #34]
 6622 02d8 5A1C     		adds	r2, r3, #1
 6623 02da 7A84     		strh	r2, [r7, #34]	@ movhi
 6624 02dc 1A46     		mov	r2, r3
 6625 02de 3B69     		ldr	r3, [r7, #16]
 6626 02e0 1344     		add	r3, r3, r2
 6627 02e2 1B78     		ldrb	r3, [r3]
 6628 02e4 FB77     		strb	r3, [r7, #31]
 6629              	.L237:
 926:source\bsw\tft/tft.c ****                 }
 927:source\bsw\tft/tft.c ****                 if(bits & 0x80) {
 6630              		.loc 1 927 0
 6631 02e6 97F91F30 		ldrsb	r3, [r7, #31]
 6632 02ea 002B     		cmp	r3, #0
 6633 02ec 4BDA     		bge	.L238
 928:source\bsw\tft/tft.c ****                     if(size == 1) {
 6634              		.loc 1 928 0
 6635 02ee 97F83C30 		ldrb	r3, [r7, #60]	@ zero_extendqisi2
 6636 02f2 012B     		cmp	r3, #1
 6637 02f4 1CD1     		bne	.L239
 929:source\bsw\tft/tft.c ****                         TFT_drawPixel(x+xo+xx, y+yo+yy, color);
 6638              		.loc 1 929 0
 6639 02f6 97F90D30 		ldrsb	r3, [r7, #13]
ARM GAS  C:\Users\schmi\AppData\Local\Temp\ccA9az4I.s 			page 136


 6640 02fa 9AB2     		uxth	r2, r3
 6641 02fc FB88     		ldrh	r3, [r7, #6]
 6642 02fe 1344     		add	r3, r3, r2
 6643 0300 9AB2     		uxth	r2, r3
 6644 0302 97F82130 		ldrb	r3, [r7, #33]	@ zero_extendqisi2
 6645 0306 9BB2     		uxth	r3, r3
 6646 0308 1344     		add	r3, r3, r2
 6647 030a 9BB2     		uxth	r3, r3
 6648 030c 18B2     		sxth	r0, r3
 6649 030e 97F90C30 		ldrsb	r3, [r7, #12]
 6650 0312 9AB2     		uxth	r2, r3
 6651 0314 BB88     		ldrh	r3, [r7, #4]
 6652 0316 1344     		add	r3, r3, r2
 6653 0318 9AB2     		uxth	r2, r3
 6654 031a 97F82030 		ldrb	r3, [r7, #32]	@ zero_extendqisi2
 6655 031e 9BB2     		uxth	r3, r3
 6656 0320 1344     		add	r3, r3, r2
 6657 0322 9BB2     		uxth	r3, r3
 6658 0324 1BB2     		sxth	r3, r3
 6659 0326 3A88     		ldrh	r2, [r7]
 6660 0328 1946     		mov	r1, r3
 6661 032a FFF7FEFF 		bl	TFT_drawPixel
 6662 032e 2AE0     		b	.L238
 6663              	.L239:
 930:source\bsw\tft/tft.c ****                     } else {
 931:source\bsw\tft/tft.c ****                         TFT_fillRect(x+(xo16+xx)*size, y+(yo16+yy)*size,
 6664              		.loc 1 931 0
 6665 0330 B7F91C20 		ldrsh	r2, [r7, #28]
 6666 0334 97F82130 		ldrb	r3, [r7, #33]	@ zero_extendqisi2
 6667 0338 1344     		add	r3, r3, r2
 6668 033a 9BB2     		uxth	r3, r3
 6669 033c 97F83C20 		ldrb	r2, [r7, #60]	@ zero_extendqisi2
 6670 0340 92B2     		uxth	r2, r2
 6671 0342 02FB03F3 		mul	r3, r2, r3
 6672 0346 9AB2     		uxth	r2, r3
 6673 0348 FB88     		ldrh	r3, [r7, #6]
 6674 034a 1344     		add	r3, r3, r2
 6675 034c 9BB2     		uxth	r3, r3
 6676 034e 18B2     		sxth	r0, r3
 6677 0350 B7F91A20 		ldrsh	r2, [r7, #26]
 6678 0354 97F82030 		ldrb	r3, [r7, #32]	@ zero_extendqisi2
 6679 0358 1344     		add	r3, r3, r2
 6680 035a 9BB2     		uxth	r3, r3
 6681 035c 97F83C20 		ldrb	r2, [r7, #60]	@ zero_extendqisi2
 6682 0360 92B2     		uxth	r2, r2
 6683 0362 02FB03F3 		mul	r3, r2, r3
 6684 0366 9AB2     		uxth	r2, r3
 6685 0368 BB88     		ldrh	r3, [r7, #4]
 6686 036a 1344     		add	r3, r3, r2
 6687 036c 9BB2     		uxth	r3, r3
 6688 036e 19B2     		sxth	r1, r3
 6689 0370 97F83C30 		ldrb	r3, [r7, #60]	@ zero_extendqisi2
 6690 0374 1AB2     		sxth	r2, r3
 6691 0376 97F83C30 		ldrb	r3, [r7, #60]	@ zero_extendqisi2
 6692 037a 1CB2     		sxth	r4, r3
 6693 037c 3B88     		ldrh	r3, [r7]
 6694 037e 0093     		str	r3, [sp]
ARM GAS  C:\Users\schmi\AppData\Local\Temp\ccA9az4I.s 			page 137


 6695 0380 2346     		mov	r3, r4
 6696 0382 FFF7FEFF 		bl	TFT_fillRect
 6697              	.L238:
 932:source\bsw\tft/tft.c ****                           size, size, color);
 933:source\bsw\tft/tft.c ****                     }
 934:source\bsw\tft/tft.c ****                 }
 935:source\bsw\tft/tft.c ****                 bits <<= 1;
 6698              		.loc 1 935 0 discriminator 2
 6699 0386 FB7F     		ldrb	r3, [r7, #31]
 6700 0388 5B00     		lsls	r3, r3, #1
 6701 038a FB77     		strb	r3, [r7, #31]
 923:source\bsw\tft/tft.c ****                 if(!(bit++ & 7)) {
 6702              		.loc 1 923 0 discriminator 2
 6703 038c 97F82130 		ldrb	r3, [r7, #33]	@ zero_extendqisi2
 6704 0390 0133     		adds	r3, r3, #1
 6705 0392 87F82130 		strb	r3, [r7, #33]
 6706              	.L236:
 923:source\bsw\tft/tft.c ****                 if(!(bit++ & 7)) {
 6707              		.loc 1 923 0 is_stmt 0 discriminator 1
 6708 0396 97F82120 		ldrb	r2, [r7, #33]	@ zero_extendqisi2
 6709 039a FB7B     		ldrb	r3, [r7, #15]	@ zero_extendqisi2
 6710 039c 9A42     		cmp	r2, r3
 6711 039e 93D3     		bcc	.L240
 922:source\bsw\tft/tft.c ****             for(xx=0; xx<w; xx++) {
 6712              		.loc 1 922 0 is_stmt 1 discriminator 2
 6713 03a0 97F82030 		ldrb	r3, [r7, #32]	@ zero_extendqisi2
 6714 03a4 0133     		adds	r3, r3, #1
 6715 03a6 87F82030 		strb	r3, [r7, #32]
 6716              	.L235:
 922:source\bsw\tft/tft.c ****             for(xx=0; xx<w; xx++) {
 6717              		.loc 1 922 0 is_stmt 0 discriminator 1
 6718 03aa 97F82020 		ldrb	r2, [r7, #32]	@ zero_extendqisi2
 6719 03ae BB7B     		ldrb	r3, [r7, #14]	@ zero_extendqisi2
 6720 03b0 9A42     		cmp	r2, r3
 6721 03b2 FFF47CAF 		bcc	.L241
 6722 03b6 00E0     		b	.L218
 6723              	.L242:
 6724              	.LBE24:
 859:source\bsw\tft/tft.c **** 
 6725              		.loc 1 859 0 is_stmt 1
 6726 03b8 00BF     		nop
 6727              	.L218:
 936:source\bsw\tft/tft.c ****             }
 937:source\bsw\tft/tft.c ****         }
 938:source\bsw\tft/tft.c **** 
 939:source\bsw\tft/tft.c ****     } // End classic vs custom font
 940:source\bsw\tft/tft.c **** }
 6728              		.loc 1 940 0
 6729 03ba 2C37     		adds	r7, r7, #44
 6730              		.cfi_def_cfa_offset 12
 6731 03bc BD46     		mov	sp, r7
 6732              		.cfi_def_cfa_register 13
 6733              		@ sp needed
 6734 03be 90BD     		pop	{r4, r7, pc}
 6735              		.cfi_endproc
 6736              	.LFE154:
 6737              		.size	TFT_drawChar, .-TFT_drawChar
ARM GAS  C:\Users\schmi\AppData\Local\Temp\ccA9az4I.s 			page 138


 6738              		.section	.text.TFT_width,"ax",%progbits
 6739              		.align	2
 6740              		.global	TFT_width
 6741              		.thumb
 6742              		.thumb_func
 6743              		.type	TFT_width, %function
 6744              	TFT_width:
 6745              	.LFB155:
 941:source\bsw\tft/tft.c **** 
 942:source\bsw\tft/tft.c **** int16_t TFT_width(void){
 6746              		.loc 1 942 0
 6747              		.cfi_startproc
 6748              		@ args = 0, pretend = 0, frame = 0
 6749              		@ frame_needed = 1, uses_anonymous_args = 0
 6750              		@ link register save eliminated.
 6751 0000 80B4     		push	{r7}
 6752              		.cfi_def_cfa_offset 4
 6753              		.cfi_offset 7, -4
 6754 0002 00AF     		add	r7, sp, #0
 6755              		.cfi_def_cfa_register 7
 943:source\bsw\tft/tft.c ****     return _width;
 6756              		.loc 1 943 0
 6757 0004 034B     		ldr	r3, .L247
 6758 0006 B3F90030 		ldrsh	r3, [r3]
 944:source\bsw\tft/tft.c **** }
 6759              		.loc 1 944 0
 6760 000a 1846     		mov	r0, r3
 6761 000c BD46     		mov	sp, r7
 6762              		.cfi_def_cfa_register 13
 6763              		@ sp needed
 6764 000e 80BC     		pop	{r7}
 6765              		.cfi_restore 7
 6766              		.cfi_def_cfa_offset 0
 6767 0010 7047     		bx	lr
 6768              	.L248:
 6769 0012 00BF     		.align	2
 6770              	.L247:
 6771 0014 06000000 		.word	_width
 6772              		.cfi_endproc
 6773              	.LFE155:
 6774              		.size	TFT_width, .-TFT_width
 6775              		.section	.text.TFT_height,"ax",%progbits
 6776              		.align	2
 6777              		.global	TFT_height
 6778              		.thumb
 6779              		.thumb_func
 6780              		.type	TFT_height, %function
 6781              	TFT_height:
 6782              	.LFB156:
 945:source\bsw\tft/tft.c **** 
 946:source\bsw\tft/tft.c **** int16_t TFT_height(void) {
 6783              		.loc 1 946 0
 6784              		.cfi_startproc
 6785              		@ args = 0, pretend = 0, frame = 0
 6786              		@ frame_needed = 1, uses_anonymous_args = 0
 6787              		@ link register save eliminated.
 6788 0000 80B4     		push	{r7}
ARM GAS  C:\Users\schmi\AppData\Local\Temp\ccA9az4I.s 			page 139


 6789              		.cfi_def_cfa_offset 4
 6790              		.cfi_offset 7, -4
 6791 0002 00AF     		add	r7, sp, #0
 6792              		.cfi_def_cfa_register 7
 947:source\bsw\tft/tft.c ****     return _height;
 6793              		.loc 1 947 0
 6794 0004 034B     		ldr	r3, .L251
 6795 0006 1B88     		ldrh	r3, [r3]
 6796 0008 1BB2     		sxth	r3, r3
 948:source\bsw\tft/tft.c **** }
 6797              		.loc 1 948 0
 6798 000a 1846     		mov	r0, r3
 6799 000c BD46     		mov	sp, r7
 6800              		.cfi_def_cfa_register 13
 6801              		@ sp needed
 6802 000e 80BC     		pop	{r7}
 6803              		.cfi_restore 7
 6804              		.cfi_def_cfa_offset 0
 6805 0010 7047     		bx	lr
 6806              	.L252:
 6807 0012 00BF     		.align	2
 6808              	.L251:
 6809 0014 08000000 		.word	_height
 6810              		.cfi_endproc
 6811              	.LFE156:
 6812              		.size	TFT_height, .-TFT_height
 6813              		.section	.text.TFT_getRotation,"ax",%progbits
 6814              		.align	2
 6815              		.global	TFT_getRotation
 6816              		.thumb
 6817              		.thumb_func
 6818              		.type	TFT_getRotation, %function
 6819              	TFT_getRotation:
 6820              	.LFB157:
 949:source\bsw\tft/tft.c **** 
 950:source\bsw\tft/tft.c **** TFT_rotation_t TFT_getRotation(void){
 6821              		.loc 1 950 0
 6822              		.cfi_startproc
 6823              		@ args = 0, pretend = 0, frame = 0
 6824              		@ frame_needed = 1, uses_anonymous_args = 0
 6825              		@ link register save eliminated.
 6826 0000 80B4     		push	{r7}
 6827              		.cfi_def_cfa_offset 4
 6828              		.cfi_offset 7, -4
 6829 0002 00AF     		add	r7, sp, #0
 6830              		.cfi_def_cfa_register 7
 951:source\bsw\tft/tft.c ****     return rotation;
 6831              		.loc 1 951 0
 6832 0004 024B     		ldr	r3, .L255
 6833 0006 1B78     		ldrb	r3, [r3]	@ zero_extendqisi2
 952:source\bsw\tft/tft.c **** }
 6834              		.loc 1 952 0
 6835 0008 1846     		mov	r0, r3
 6836 000a BD46     		mov	sp, r7
 6837              		.cfi_def_cfa_register 13
 6838              		@ sp needed
 6839 000c 80BC     		pop	{r7}
ARM GAS  C:\Users\schmi\AppData\Local\Temp\ccA9az4I.s 			page 140


 6840              		.cfi_restore 7
 6841              		.cfi_def_cfa_offset 0
 6842 000e 7047     		bx	lr
 6843              	.L256:
 6844              		.align	2
 6845              	.L255:
 6846 0010 05000000 		.word	rotation
 6847              		.cfi_endproc
 6848              	.LFE157:
 6849              		.size	TFT_getRotation, .-TFT_getRotation
 6850              		.section	.text.TFT_getCursorX,"ax",%progbits
 6851              		.align	2
 6852              		.global	TFT_getCursorX
 6853              		.thumb
 6854              		.thumb_func
 6855              		.type	TFT_getCursorX, %function
 6856              	TFT_getCursorX:
 6857              	.LFB158:
 953:source\bsw\tft/tft.c **** 
 954:source\bsw\tft/tft.c **** int16_t TFT_getCursorX(void){
 6858              		.loc 1 954 0
 6859              		.cfi_startproc
 6860              		@ args = 0, pretend = 0, frame = 0
 6861              		@ frame_needed = 1, uses_anonymous_args = 0
 6862              		@ link register save eliminated.
 6863 0000 80B4     		push	{r7}
 6864              		.cfi_def_cfa_offset 4
 6865              		.cfi_offset 7, -4
 6866 0002 00AF     		add	r7, sp, #0
 6867              		.cfi_def_cfa_register 7
 955:source\bsw\tft/tft.c ****     return cursor_x;
 6868              		.loc 1 955 0
 6869 0004 034B     		ldr	r3, .L259
 6870 0006 1B88     		ldrh	r3, [r3]
 6871 0008 1BB2     		sxth	r3, r3
 956:source\bsw\tft/tft.c **** }
 6872              		.loc 1 956 0
 6873 000a 1846     		mov	r0, r3
 6874 000c BD46     		mov	sp, r7
 6875              		.cfi_def_cfa_register 13
 6876              		@ sp needed
 6877 000e 80BC     		pop	{r7}
 6878              		.cfi_restore 7
 6879              		.cfi_def_cfa_offset 0
 6880 0010 7047     		bx	lr
 6881              	.L260:
 6882 0012 00BF     		.align	2
 6883              	.L259:
 6884 0014 0A000000 		.word	cursor_x
 6885              		.cfi_endproc
 6886              	.LFE158:
 6887              		.size	TFT_getCursorX, .-TFT_getCursorX
 6888              		.section	.text.TFT_getCursorY,"ax",%progbits
 6889              		.align	2
 6890              		.global	TFT_getCursorY
 6891              		.thumb
 6892              		.thumb_func
ARM GAS  C:\Users\schmi\AppData\Local\Temp\ccA9az4I.s 			page 141


 6893              		.type	TFT_getCursorY, %function
 6894              	TFT_getCursorY:
 6895              	.LFB159:
 957:source\bsw\tft/tft.c **** 
 958:source\bsw\tft/tft.c **** int16_t TFT_getCursorY(void) {
 6896              		.loc 1 958 0
 6897              		.cfi_startproc
 6898              		@ args = 0, pretend = 0, frame = 0
 6899              		@ frame_needed = 1, uses_anonymous_args = 0
 6900              		@ link register save eliminated.
 6901 0000 80B4     		push	{r7}
 6902              		.cfi_def_cfa_offset 4
 6903              		.cfi_offset 7, -4
 6904 0002 00AF     		add	r7, sp, #0
 6905              		.cfi_def_cfa_register 7
 959:source\bsw\tft/tft.c ****     return cursor_y;
 6906              		.loc 1 959 0
 6907 0004 034B     		ldr	r3, .L263
 6908 0006 1B88     		ldrh	r3, [r3]
 6909 0008 1BB2     		sxth	r3, r3
 960:source\bsw\tft/tft.c **** }
 6910              		.loc 1 960 0
 6911 000a 1846     		mov	r0, r3
 6912 000c BD46     		mov	sp, r7
 6913              		.cfi_def_cfa_register 13
 6914              		@ sp needed
 6915 000e 80BC     		pop	{r7}
 6916              		.cfi_restore 7
 6917              		.cfi_def_cfa_offset 0
 6918 0010 7047     		bx	lr
 6919              	.L264:
 6920 0012 00BF     		.align	2
 6921              	.L263:
 6922 0014 0C000000 		.word	cursor_y
 6923              		.cfi_endproc
 6924              	.LFE159:
 6925              		.size	TFT_getCursorY, .-TFT_getCursorY
 6926              		.text
 6927              	.Letext0:
 6928              		.file 2 ".\\source\\bsw/global.h"
 6929              		.file 3 "c:\\program files (x86)\\cypress\\psoc creator\\4.4\\psoc creator\\import\\gnu\\arm\\5.4.
 6930              		.file 4 "c:\\program files (x86)\\cypress\\psoc creator\\4.4\\psoc creator\\import\\gnu\\arm\\5.4.
 6931              		.file 5 "source\\bsw\\tft\\tft.h"
 6932              		.file 6 "source\\bsw\\tft\\ST7735.h"
 6933              		.file 7 "Generated_Source\\PSoC5/ErikaOS_1_common_ee_types.inc"
 6934              		.file 8 "Generated_Source\\PSoC5/ErikaOS_1_cortex_mx_ee_cpu.inc"
 6935              		.file 9 ".\\source\\bsw\\services/logging.h"
 6936              		.file 10 ".\\source\\bsw\\tft\\fonts/glcdfont.h"
 6937              		.file 11 "Generated_Source\\PSoC5/ErikaOS_1_ee_oo_intfunc.inc"
 6938              		.file 12 "Generated_Source\\PSoC5/ErikaOS_1_cortex_mx_ee_context.inc"
 6939              		.file 13 "Generated_Source\\PSoC5/ErikaOS_1_common_ee_primitives.inc"
 6940              		.file 14 "Generated_Source\\PSoC5/core_cm3.h"
 6941              		.section	.debug_info,"",%progbits
 6942              	.Ldebug_info0:
 6943 0000 04180000 		.4byte	0x1804
 6944 0004 0400     		.2byte	0x4
 6945 0006 00000000 		.4byte	.Ldebug_abbrev0
ARM GAS  C:\Users\schmi\AppData\Local\Temp\ccA9az4I.s 			page 142


 6946 000a 04       		.byte	0x4
 6947 000b 01       		.uleb128 0x1
 6948 000c F8040000 		.4byte	.LASF251
 6949 0010 0C       		.byte	0xc
 6950 0011 AD0B0000 		.4byte	.LASF252
 6951 0015 860A0000 		.4byte	.LASF253
 6952 0019 00000000 		.4byte	.Ldebug_ranges0+0
 6953 001d 00000000 		.4byte	0
 6954 0021 00000000 		.4byte	.Ldebug_line0
 6955 0025 02       		.uleb128 0x2
 6956 0026 01       		.byte	0x1
 6957 0027 06       		.byte	0x6
 6958 0028 4D020000 		.4byte	.LASF0
 6959 002c 03       		.uleb128 0x3
 6960 002d 59020000 		.4byte	.LASF3
 6961 0031 02       		.byte	0x2
 6962 0032 91       		.byte	0x91
 6963 0033 37000000 		.4byte	0x37
 6964 0037 02       		.uleb128 0x2
 6965 0038 01       		.byte	0x1
 6966 0039 08       		.byte	0x8
 6967 003a 72020000 		.4byte	.LASF1
 6968 003e 02       		.uleb128 0x2
 6969 003f 02       		.byte	0x2
 6970 0040 05       		.byte	0x5
 6971 0041 C7090000 		.4byte	.LASF2
 6972 0045 03       		.uleb128 0x3
 6973 0046 66080000 		.4byte	.LASF4
 6974 004a 02       		.byte	0x2
 6975 004b 93       		.byte	0x93
 6976 004c 50000000 		.4byte	0x50
 6977 0050 02       		.uleb128 0x2
 6978 0051 02       		.byte	0x2
 6979 0052 07       		.byte	0x7
 6980 0053 470B0000 		.4byte	.LASF5
 6981 0057 02       		.uleb128 0x2
 6982 0058 04       		.byte	0x4
 6983 0059 05       		.byte	0x5
 6984 005a 9C010000 		.4byte	.LASF6
 6985 005e 02       		.uleb128 0x2
 6986 005f 04       		.byte	0x4
 6987 0060 07       		.byte	0x7
 6988 0061 6E040000 		.4byte	.LASF7
 6989 0065 02       		.uleb128 0x2
 6990 0066 04       		.byte	0x4
 6991 0067 04       		.byte	0x4
 6992 0068 67060000 		.4byte	.LASF8
 6993 006c 02       		.uleb128 0x2
 6994 006d 08       		.byte	0x8
 6995 006e 04       		.byte	0x4
 6996 006f 07060000 		.4byte	.LASF9
 6997 0073 02       		.uleb128 0x2
 6998 0074 08       		.byte	0x8
 6999 0075 05       		.byte	0x5
 7000 0076 B6050000 		.4byte	.LASF10
 7001 007a 02       		.uleb128 0x2
 7002 007b 08       		.byte	0x8
ARM GAS  C:\Users\schmi\AppData\Local\Temp\ccA9az4I.s 			page 143


 7003 007c 07       		.byte	0x7
 7004 007d 44080000 		.4byte	.LASF11
 7005 0081 03       		.uleb128 0x3
 7006 0082 CE010000 		.4byte	.LASF12
 7007 0086 02       		.byte	0x2
 7008 0087 9C       		.byte	0x9c
 7009 0088 37000000 		.4byte	0x37
 7010 008c 02       		.uleb128 0x2
 7011 008d 01       		.byte	0x1
 7012 008e 08       		.byte	0x8
 7013 008f C0020000 		.4byte	.LASF13
 7014 0093 04       		.uleb128 0x4
 7015 0094 04       		.byte	0x4
 7016 0095 99000000 		.4byte	0x99
 7017 0099 05       		.uleb128 0x5
 7018 009a 8C000000 		.4byte	0x8c
 7019 009e 06       		.uleb128 0x6
 7020 009f 01       		.byte	0x1
 7021 00a0 25000000 		.4byte	0x25
 7022 00a4 02       		.byte	0x2
 7023 00a5 CF       		.byte	0xcf
 7024 00a6 47010000 		.4byte	0x147
 7025 00aa 07       		.uleb128 0x7
 7026 00ab 39080000 		.4byte	.LASF14
 7027 00af 00       		.byte	0
 7028 00b0 08       		.uleb128 0x8
 7029 00b1 DE040000 		.4byte	.LASF15
 7030 00b5 7F       		.sleb128 -1
 7031 00b6 08       		.uleb128 0x8
 7032 00b7 430A0000 		.4byte	.LASF16
 7033 00bb 7E       		.sleb128 -2
 7034 00bc 08       		.uleb128 0x8
 7035 00bd F70A0000 		.4byte	.LASF17
 7036 00c1 7D       		.sleb128 -3
 7037 00c2 08       		.uleb128 0x8
 7038 00c3 CB070000 		.4byte	.LASF18
 7039 00c7 7C       		.sleb128 -4
 7040 00c8 08       		.uleb128 0x8
 7041 00c9 E6090000 		.4byte	.LASF19
 7042 00cd 7B       		.sleb128 -5
 7043 00ce 08       		.uleb128 0x8
 7044 00cf 7C060000 		.4byte	.LASF20
 7045 00d3 7A       		.sleb128 -6
 7046 00d4 08       		.uleb128 0x8
 7047 00d5 B5090000 		.4byte	.LASF21
 7048 00d9 79       		.sleb128 -7
 7049 00da 08       		.uleb128 0x8
 7050 00db 16080000 		.4byte	.LASF22
 7051 00df 78       		.sleb128 -8
 7052 00e0 08       		.uleb128 0x8
 7053 00e1 8D090000 		.4byte	.LASF23
 7054 00e5 77       		.sleb128 -9
 7055 00e6 08       		.uleb128 0x8
 7056 00e7 A0000000 		.4byte	.LASF24
 7057 00eb 76       		.sleb128 -10
 7058 00ec 08       		.uleb128 0x8
 7059 00ed 5C040000 		.4byte	.LASF25
ARM GAS  C:\Users\schmi\AppData\Local\Temp\ccA9az4I.s 			page 144


 7060 00f1 75       		.sleb128 -11
 7061 00f2 08       		.uleb128 0x8
 7062 00f3 6F010000 		.4byte	.LASF26
 7063 00f7 74       		.sleb128 -12
 7064 00f8 08       		.uleb128 0x8
 7065 00f9 06000000 		.4byte	.LASF27
 7066 00fd 73       		.sleb128 -13
 7067 00fe 08       		.uleb128 0x8
 7068 00ff 90040000 		.4byte	.LASF28
 7069 0103 72       		.sleb128 -14
 7070 0104 08       		.uleb128 0x8
 7071 0105 0D0C0000 		.4byte	.LASF29
 7072 0109 71       		.sleb128 -15
 7073 010a 08       		.uleb128 0x8
 7074 010b 0E060000 		.4byte	.LASF30
 7075 010f 70       		.sleb128 -16
 7076 0110 08       		.uleb128 0x8
 7077 0111 050A0000 		.4byte	.LASF31
 7078 0115 6F       		.sleb128 -17
 7079 0116 08       		.uleb128 0x8
 7080 0117 09020000 		.4byte	.LASF32
 7081 011b 6E       		.sleb128 -18
 7082 011c 08       		.uleb128 0x8
 7083 011d B8070000 		.4byte	.LASF33
 7084 0121 6D       		.sleb128 -19
 7085 0122 08       		.uleb128 0x8
 7086 0123 49040000 		.4byte	.LASF34
 7087 0127 6C       		.sleb128 -20
 7088 0128 08       		.uleb128 0x8
 7089 0129 48060000 		.4byte	.LASF35
 7090 012d 6B       		.sleb128 -21
 7091 012e 08       		.uleb128 0x8
 7092 012f 35020000 		.4byte	.LASF36
 7093 0133 6A       		.sleb128 -22
 7094 0134 08       		.uleb128 0x8
 7095 0135 CC0B0000 		.4byte	.LASF37
 7096 0139 69       		.sleb128 -23
 7097 013a 08       		.uleb128 0x8
 7098 013b 43090000 		.4byte	.LASF38
 7099 013f 68       		.sleb128 -24
 7100 0140 08       		.uleb128 0x8
 7101 0141 96020000 		.4byte	.LASF39
 7102 0145 67       		.sleb128 -25
 7103 0146 00       		.byte	0
 7104 0147 03       		.uleb128 0x3
 7105 0148 B4010000 		.4byte	.LASF40
 7106 014c 02       		.byte	0x2
 7107 014d EA       		.byte	0xea
 7108 014e 9E000000 		.4byte	0x9e
 7109 0152 03       		.uleb128 0x3
 7110 0153 2B080000 		.4byte	.LASF41
 7111 0157 03       		.byte	0x3
 7112 0158 1B       		.byte	0x1b
 7113 0159 25000000 		.4byte	0x25
 7114 015d 03       		.uleb128 0x3
 7115 015e E9080000 		.4byte	.LASF42
 7116 0162 03       		.byte	0x3
ARM GAS  C:\Users\schmi\AppData\Local\Temp\ccA9az4I.s 			page 145


 7117 0163 29       		.byte	0x29
 7118 0164 3E000000 		.4byte	0x3e
 7119 0168 03       		.uleb128 0x3
 7120 0169 E30B0000 		.4byte	.LASF43
 7121 016d 03       		.byte	0x3
 7122 016e 3F       		.byte	0x3f
 7123 016f 57000000 		.4byte	0x57
 7124 0173 09       		.uleb128 0x9
 7125 0174 04       		.byte	0x4
 7126 0175 05       		.byte	0x5
 7127 0176 696E7400 		.ascii	"int\000"
 7128 017a 02       		.uleb128 0x2
 7129 017b 04       		.byte	0x4
 7130 017c 07       		.byte	0x7
 7131 017d AE060000 		.4byte	.LASF44
 7132 0181 02       		.uleb128 0x2
 7133 0182 08       		.byte	0x8
 7134 0183 04       		.byte	0x4
 7135 0184 91070000 		.4byte	.LASF45
 7136 0188 02       		.uleb128 0x2
 7137 0189 04       		.byte	0x4
 7138 018a 07       		.byte	0x7
 7139 018b 37000000 		.4byte	.LASF46
 7140 018f 04       		.uleb128 0x4
 7141 0190 04       		.byte	0x4
 7142 0191 8C000000 		.4byte	0x8c
 7143 0195 03       		.uleb128 0x3
 7144 0196 00080000 		.4byte	.LASF47
 7145 019a 04       		.byte	0x4
 7146 019b 14       		.byte	0x14
 7147 019c 52010000 		.4byte	0x152
 7148 01a0 03       		.uleb128 0x3
 7149 01a1 FD090000 		.4byte	.LASF48
 7150 01a5 04       		.byte	0x4
 7151 01a6 20       		.byte	0x20
 7152 01a7 5D010000 		.4byte	0x15d
 7153 01ab 03       		.uleb128 0x3
 7154 01ac 89000000 		.4byte	.LASF49
 7155 01b0 04       		.byte	0x4
 7156 01b1 2C       		.byte	0x2c
 7157 01b2 68010000 		.4byte	0x168
 7158 01b6 03       		.uleb128 0x3
 7159 01b7 18000000 		.4byte	.LASF50
 7160 01bb 05       		.byte	0x5
 7161 01bc 38       		.byte	0x38
 7162 01bd 45000000 		.4byte	0x45
 7163 01c1 0A       		.uleb128 0xa
 7164 01c2 08       		.byte	0x8
 7165 01c3 05       		.byte	0x5
 7166 01c4 3D       		.byte	0x3d
 7167 01c5 12020000 		.4byte	0x212
 7168 01c9 0B       		.uleb128 0xb
 7169 01ca CC000000 		.4byte	.LASF51
 7170 01ce 05       		.byte	0x5
 7171 01cf 3E       		.byte	0x3e
 7172 01d0 45000000 		.4byte	0x45
 7173 01d4 00       		.byte	0
ARM GAS  C:\Users\schmi\AppData\Local\Temp\ccA9az4I.s 			page 146


 7174 01d5 0B       		.uleb128 0xb
 7175 01d6 EB050000 		.4byte	.LASF52
 7176 01da 05       		.byte	0x5
 7177 01db 3F       		.byte	0x3f
 7178 01dc 2C000000 		.4byte	0x2c
 7179 01e0 02       		.byte	0x2
 7180 01e1 0B       		.uleb128 0xb
 7181 01e2 940C0000 		.4byte	.LASF53
 7182 01e6 05       		.byte	0x5
 7183 01e7 3F       		.byte	0x3f
 7184 01e8 2C000000 		.4byte	0x2c
 7185 01ec 03       		.byte	0x3
 7186 01ed 0B       		.uleb128 0xb
 7187 01ee 510A0000 		.4byte	.LASF54
 7188 01f2 05       		.byte	0x5
 7189 01f3 40       		.byte	0x40
 7190 01f4 2C000000 		.4byte	0x2c
 7191 01f8 04       		.byte	0x4
 7192 01f9 0B       		.uleb128 0xb
 7193 01fa 40000000 		.4byte	.LASF55
 7194 01fe 05       		.byte	0x5
 7195 01ff 41       		.byte	0x41
 7196 0200 95010000 		.4byte	0x195
 7197 0204 05       		.byte	0x5
 7198 0205 0B       		.uleb128 0xb
 7199 0206 F3000000 		.4byte	.LASF56
 7200 020a 05       		.byte	0x5
 7201 020b 41       		.byte	0x41
 7202 020c 95010000 		.4byte	0x195
 7203 0210 06       		.byte	0x6
 7204 0211 00       		.byte	0
 7205 0212 03       		.uleb128 0x3
 7206 0213 B9010000 		.4byte	.LASF57
 7207 0217 05       		.byte	0x5
 7208 0218 42       		.byte	0x42
 7209 0219 C1010000 		.4byte	0x1c1
 7210 021d 0A       		.uleb128 0xa
 7211 021e 0C       		.byte	0xc
 7212 021f 05       		.byte	0x5
 7213 0220 47       		.byte	0x47
 7214 0221 62020000 		.4byte	0x262
 7215 0225 0B       		.uleb128 0xb
 7216 0226 DC060000 		.4byte	.LASF58
 7217 022a 05       		.byte	0x5
 7218 022b 48       		.byte	0x48
 7219 022c 62020000 		.4byte	0x262
 7220 0230 00       		.byte	0
 7221 0231 0B       		.uleb128 0xb
 7222 0232 DC020000 		.4byte	.LASF59
 7223 0236 05       		.byte	0x5
 7224 0237 49       		.byte	0x49
 7225 0238 68020000 		.4byte	0x268
 7226 023c 04       		.byte	0x4
 7227 023d 0B       		.uleb128 0xb
 7228 023e 44070000 		.4byte	.LASF60
 7229 0242 05       		.byte	0x5
 7230 0243 4A       		.byte	0x4a
ARM GAS  C:\Users\schmi\AppData\Local\Temp\ccA9az4I.s 			page 147


 7231 0244 2C000000 		.4byte	0x2c
 7232 0248 08       		.byte	0x8
 7233 0249 0B       		.uleb128 0xb
 7234 024a 840C0000 		.4byte	.LASF61
 7235 024e 05       		.byte	0x5
 7236 024f 4A       		.byte	0x4a
 7237 0250 2C000000 		.4byte	0x2c
 7238 0254 09       		.byte	0x9
 7239 0255 0B       		.uleb128 0xb
 7240 0256 D3050000 		.4byte	.LASF62
 7241 025a 05       		.byte	0x5
 7242 025b 4B       		.byte	0x4b
 7243 025c 2C000000 		.4byte	0x2c
 7244 0260 0A       		.byte	0xa
 7245 0261 00       		.byte	0
 7246 0262 04       		.uleb128 0x4
 7247 0263 04       		.byte	0x4
 7248 0264 2C000000 		.4byte	0x2c
 7249 0268 04       		.uleb128 0x4
 7250 0269 04       		.byte	0x4
 7251 026a 12020000 		.4byte	0x212
 7252 026e 03       		.uleb128 0x3
 7253 026f D4080000 		.4byte	.LASF63
 7254 0273 05       		.byte	0x5
 7255 0274 4C       		.byte	0x4c
 7256 0275 1D020000 		.4byte	0x21d
 7257 0279 06       		.uleb128 0x6
 7258 027a 01       		.byte	0x1
 7259 027b 37000000 		.4byte	0x37
 7260 027f 05       		.byte	0x5
 7261 0280 51       		.byte	0x51
 7262 0281 9E020000 		.4byte	0x29e
 7263 0285 07       		.uleb128 0x7
 7264 0286 FA020000 		.4byte	.LASF64
 7265 028a 00       		.byte	0
 7266 028b 07       		.uleb128 0x7
 7267 028c EB070000 		.4byte	.LASF65
 7268 0290 01       		.byte	0x1
 7269 0291 07       		.uleb128 0x7
 7270 0292 4D000000 		.4byte	.LASF66
 7271 0296 02       		.byte	0x2
 7272 0297 07       		.uleb128 0x7
 7273 0298 29020000 		.4byte	.LASF67
 7274 029c 03       		.byte	0x3
 7275 029d 00       		.byte	0
 7276 029e 03       		.uleb128 0x3
 7277 029f 780B0000 		.4byte	.LASF68
 7278 02a3 05       		.byte	0x5
 7279 02a4 56       		.byte	0x56
 7280 02a5 79020000 		.4byte	0x279
 7281 02a9 06       		.uleb128 0x6
 7282 02aa 02       		.byte	0x2
 7283 02ab 50000000 		.4byte	0x50
 7284 02af 05       		.byte	0x5
 7285 02b0 5C       		.byte	0x5c
 7286 02b1 47030000 		.4byte	0x347
 7287 02b5 0C       		.uleb128 0xc
ARM GAS  C:\Users\schmi\AppData\Local\Temp\ccA9az4I.s 			page 148


 7288 02b6 FA0B0000 		.4byte	.LASF69
 7289 02ba FFFF     		.2byte	0xffff
 7290 02bc 07       		.uleb128 0x7
 7291 02bd FB000000 		.4byte	.LASF70
 7292 02c1 00       		.byte	0
 7293 02c2 0C       		.uleb128 0xc
 7294 02c3 43060000 		.4byte	.LASF71
 7295 02c7 00F8     		.2byte	0xf800
 7296 02c9 0C       		.uleb128 0xc
 7297 02ca 6D020000 		.4byte	.LASF72
 7298 02ce 1FF8     		.2byte	0xf81f
 7299 02d0 0C       		.uleb128 0xc
 7300 02d1 CF080000 		.4byte	.LASF73
 7301 02d5 FF07     		.2byte	0x7ff
 7302 02d7 0C       		.uleb128 0xc
 7303 02d8 D9000000 		.4byte	.LASF74
 7304 02dc E0FF     		.2byte	0xffe0
 7305 02de 0D       		.uleb128 0xd
 7306 02df 52454400 		.ascii	"RED\000"
 7307 02e3 1F       		.byte	0x1f
 7308 02e4 0C       		.uleb128 0xc
 7309 02e5 0F010000 		.4byte	.LASF75
 7310 02e9 1FF8     		.2byte	0xf81f
 7311 02eb 0C       		.uleb128 0xc
 7312 02ec 47020000 		.4byte	.LASF76
 7313 02f0 E007     		.2byte	0x7e0
 7314 02f2 0C       		.uleb128 0xc
 7315 02f3 32000000 		.4byte	.LASF77
 7316 02f7 E0FF     		.2byte	0xffe0
 7317 02f9 0C       		.uleb128 0xc
 7318 02fa F7010000 		.4byte	.LASF78
 7319 02fe FF07     		.2byte	0x7ff
 7320 0300 0C       		.uleb128 0xc
 7321 0301 F6060000 		.4byte	.LASF79
 7322 0305 3D02     		.2byte	0x23d
 7323 0307 0C       		.uleb128 0xc
 7324 0308 11070000 		.4byte	.LASF80
 7325 030c 3FE0     		.2byte	0xe03f
 7326 030e 0C       		.uleb128 0xc
 7327 030f 83070000 		.4byte	.LASF81
 7328 0313 210C     		.2byte	0xc21
 7329 0315 0C       		.uleb128 0xc
 7330 0316 94050000 		.4byte	.LASF82
 7331 031a 89F3     		.2byte	0xf389
 7332 031c 0C       		.uleb128 0xc
 7333 031d FC060000 		.4byte	.LASF83
 7334 0321 BE3E     		.2byte	0x3ebe
 7335 0323 0C       		.uleb128 0xc
 7336 0324 11030000 		.4byte	.LASF84
 7337 0328 2A1A     		.2byte	0x1a2a
 7338 032a 0C       		.uleb128 0xc
 7339 032b 1E020000 		.4byte	.LASF85
 7340 032f 21F8     		.2byte	0xf821
 7341 0331 0C       		.uleb128 0xc
 7342 0332 49030000 		.4byte	.LASF86
 7343 0336 6318     		.2byte	0x1863
 7344 0338 0C       		.uleb128 0xc
ARM GAS  C:\Users\schmi\AppData\Local\Temp\ccA9az4I.s 			page 149


 7345 0339 65010000 		.4byte	.LASF87
 7346 033d 658A     		.2byte	0x8a65
 7347 033f 0C       		.uleb128 0xc
 7348 0340 86050000 		.4byte	.LASF88
 7349 0344 D448     		.2byte	0x48d4
 7350 0346 00       		.byte	0
 7351 0347 06       		.uleb128 0x6
 7352 0348 01       		.byte	0x1
 7353 0349 37000000 		.4byte	0x37
 7354 034d 06       		.byte	0x6
 7355 034e 1D       		.byte	0x1d
 7356 034f 32040000 		.4byte	0x432
 7357 0353 07       		.uleb128 0x7
 7358 0354 470C0000 		.4byte	.LASF89
 7359 0358 00       		.byte	0
 7360 0359 07       		.uleb128 0x7
 7361 035a 91000000 		.4byte	.LASF90
 7362 035e 01       		.byte	0x1
 7363 035f 07       		.uleb128 0x7
 7364 0360 5A060000 		.4byte	.LASF91
 7365 0364 04       		.byte	0x4
 7366 0365 07       		.uleb128 0x7
 7367 0366 E20A0000 		.4byte	.LASF92
 7368 036a 09       		.byte	0x9
 7369 036b 07       		.uleb128 0x7
 7370 036c 280A0000 		.4byte	.LASF93
 7371 0370 10       		.byte	0x10
 7372 0371 07       		.uleb128 0x7
 7373 0372 6A0B0000 		.4byte	.LASF94
 7374 0376 11       		.byte	0x11
 7375 0377 07       		.uleb128 0x7
 7376 0378 DC080000 		.4byte	.LASF95
 7377 037c 12       		.byte	0x12
 7378 037d 07       		.uleb128 0x7
 7379 037e B1080000 		.4byte	.LASF96
 7380 0382 13       		.byte	0x13
 7381 0383 07       		.uleb128 0x7
 7382 0384 6C000000 		.4byte	.LASF97
 7383 0388 20       		.byte	0x20
 7384 0389 07       		.uleb128 0x7
 7385 038a D1090000 		.4byte	.LASF98
 7386 038e 21       		.byte	0x21
 7387 038f 07       		.uleb128 0x7
 7388 0390 07080000 		.4byte	.LASF99
 7389 0394 28       		.byte	0x28
 7390 0395 07       		.uleb128 0x7
 7391 0396 E5000000 		.4byte	.LASF100
 7392 039a 29       		.byte	0x29
 7393 039b 07       		.uleb128 0x7
 7394 039c 80020000 		.4byte	.LASF101
 7395 03a0 2A       		.byte	0x2a
 7396 03a1 07       		.uleb128 0x7
 7397 03a2 3A0B0000 		.4byte	.LASF102
 7398 03a6 2B       		.byte	0x2b
 7399 03a7 07       		.uleb128 0x7
 7400 03a8 04030000 		.4byte	.LASF103
 7401 03ac 2C       		.byte	0x2c
ARM GAS  C:\Users\schmi\AppData\Local\Temp\ccA9az4I.s 			page 150


 7402 03ad 07       		.uleb128 0x7
 7403 03ae 87010000 		.4byte	.LASF104
 7404 03b2 2E       		.byte	0x2e
 7405 03b3 07       		.uleb128 0x7
 7406 03b4 ED020000 		.4byte	.LASF105
 7407 03b8 30       		.byte	0x30
 7408 03b9 07       		.uleb128 0x7
 7409 03ba A8030000 		.4byte	.LASF106
 7410 03be 3A       		.byte	0x3a
 7411 03bf 07       		.uleb128 0x7
 7412 03c0 23090000 		.4byte	.LASF107
 7413 03c4 36       		.byte	0x36
 7414 03c5 07       		.uleb128 0x7
 7415 03c6 A5010000 		.4byte	.LASF108
 7416 03ca B1       		.byte	0xb1
 7417 03cb 07       		.uleb128 0x7
 7418 03cc AE000000 		.4byte	.LASF109
 7419 03d0 B2       		.byte	0xb2
 7420 03d1 07       		.uleb128 0x7
 7421 03d2 BD000000 		.4byte	.LASF110
 7422 03d6 B3       		.byte	0xb3
 7423 03d7 07       		.uleb128 0x7
 7424 03d8 01010000 		.4byte	.LASF111
 7425 03dc B4       		.byte	0xb4
 7426 03dd 07       		.uleb128 0x7
 7427 03de 62070000 		.4byte	.LASF112
 7428 03e2 B6       		.byte	0xb6
 7429 03e3 07       		.uleb128 0x7
 7430 03e4 EA030000 		.4byte	.LASF113
 7431 03e8 C0       		.byte	0xc0
 7432 03e9 07       		.uleb128 0x7
 7433 03ea F8030000 		.4byte	.LASF114
 7434 03ee C1       		.byte	0xc1
 7435 03ef 07       		.uleb128 0x7
 7436 03f0 06040000 		.4byte	.LASF115
 7437 03f4 C2       		.byte	0xc2
 7438 03f5 07       		.uleb128 0x7
 7439 03f6 14040000 		.4byte	.LASF116
 7440 03fa C3       		.byte	0xc3
 7441 03fb 07       		.uleb128 0x7
 7442 03fc 22040000 		.4byte	.LASF117
 7443 0400 C4       		.byte	0xc4
 7444 0401 07       		.uleb128 0x7
 7445 0402 CE020000 		.4byte	.LASF118
 7446 0406 C5       		.byte	0xc5
 7447 0407 07       		.uleb128 0x7
 7448 0408 B6030000 		.4byte	.LASF119
 7449 040c DA       		.byte	0xda
 7450 040d 07       		.uleb128 0x7
 7451 040e C3030000 		.4byte	.LASF120
 7452 0412 DB       		.byte	0xdb
 7453 0413 07       		.uleb128 0x7
 7454 0414 D0030000 		.4byte	.LASF121
 7455 0418 DC       		.byte	0xdc
 7456 0419 07       		.uleb128 0x7
 7457 041a DD030000 		.4byte	.LASF122
 7458 041e DD       		.byte	0xdd
ARM GAS  C:\Users\schmi\AppData\Local\Temp\ccA9az4I.s 			page 151


 7459 041f 07       		.uleb128 0x7
 7460 0420 30040000 		.4byte	.LASF123
 7461 0424 FC       		.byte	0xfc
 7462 0425 07       		.uleb128 0x7
 7463 0426 7A000000 		.4byte	.LASF124
 7464 042a E0       		.byte	0xe0
 7465 042b 07       		.uleb128 0x7
 7466 042c 310C0000 		.4byte	.LASF125
 7467 0430 E1       		.byte	0xe1
 7468 0431 00       		.byte	0
 7469 0432 06       		.uleb128 0x6
 7470 0433 01       		.byte	0x1
 7471 0434 37000000 		.4byte	0x37
 7472 0438 06       		.byte	0x6
 7473 0439 48       		.byte	0x48
 7474 043a 69040000 		.4byte	0x469
 7475 043e 07       		.uleb128 0x7
 7476 043f 97030000 		.4byte	.LASF126
 7477 0443 80       		.byte	0x80
 7478 0444 07       		.uleb128 0x7
 7479 0445 86030000 		.4byte	.LASF127
 7480 0449 40       		.byte	0x40
 7481 044a 07       		.uleb128 0x7
 7482 044b 75030000 		.4byte	.LASF128
 7483 044f 20       		.byte	0x20
 7484 0450 07       		.uleb128 0x7
 7485 0451 4F030000 		.4byte	.LASF129
 7486 0455 10       		.byte	0x10
 7487 0456 07       		.uleb128 0x7
 7488 0457 A6070000 		.4byte	.LASF130
 7489 045b 08       		.byte	0x8
 7490 045c 07       		.uleb128 0x7
 7491 045d 38030000 		.4byte	.LASF131
 7492 0461 04       		.byte	0x4
 7493 0462 07       		.uleb128 0x7
 7494 0463 680A0000 		.4byte	.LASF132
 7495 0467 02       		.byte	0x2
 7496 0468 00       		.byte	0
 7497 0469 03       		.uleb128 0x3
 7498 046a 64090000 		.4byte	.LASF133
 7499 046e 07       		.byte	0x7
 7500 046f 53       		.byte	0x53
 7501 0470 73010000 		.4byte	0x173
 7502 0474 03       		.uleb128 0x3
 7503 0475 BB060000 		.4byte	.LASF134
 7504 0479 07       		.byte	0x7
 7505 047a 54       		.byte	0x54
 7506 047b 7A010000 		.4byte	0x17a
 7507 047f 03       		.uleb128 0x3
 7508 0480 94010000 		.4byte	.LASF135
 7509 0484 08       		.byte	0x8
 7510 0485 4D       		.byte	0x4d
 7511 0486 74040000 		.4byte	0x474
 7512 048a 03       		.uleb128 0x3
 7513 048b D4060000 		.4byte	.LASF136
 7514 048f 08       		.byte	0x8
 7515 0490 4F       		.byte	0x4f
ARM GAS  C:\Users\schmi\AppData\Local\Temp\ccA9az4I.s 			page 152


 7516 0491 74040000 		.4byte	0x474
 7517 0495 03       		.uleb128 0x3
 7518 0496 3D070000 		.4byte	.LASF137
 7519 049a 08       		.byte	0x8
 7520 049b 78       		.byte	0x78
 7521 049c 69040000 		.4byte	0x469
 7522 04a0 06       		.uleb128 0x6
 7523 04a1 01       		.byte	0x1
 7524 04a2 37000000 		.4byte	0x37
 7525 04a6 09       		.byte	0x9
 7526 04a7 3D       		.byte	0x3d
 7527 04a8 D1040000 		.4byte	0x4d1
 7528 04ac 07       		.uleb128 0x7
 7529 04ad C2010000 		.4byte	.LASF138
 7530 04b1 00       		.byte	0
 7531 04b2 07       		.uleb128 0x7
 7532 04b3 1F060000 		.4byte	.LASF139
 7533 04b7 01       		.byte	0x1
 7534 04b8 07       		.uleb128 0x7
 7535 04b9 59010000 		.4byte	.LASF140
 7536 04bd 02       		.byte	0x2
 7537 04be 07       		.uleb128 0x7
 7538 04bf EC060000 		.4byte	.LASF141
 7539 04c3 03       		.byte	0x3
 7540 04c4 07       		.uleb128 0x7
 7541 04c5 7D010000 		.4byte	.LASF142
 7542 04c9 04       		.byte	0x4
 7543 04ca 07       		.uleb128 0x7
 7544 04cb DE090000 		.4byte	.LASF143
 7545 04cf 05       		.byte	0x5
 7546 04d0 00       		.byte	0
 7547 04d1 03       		.uleb128 0x3
 7548 04d2 3B010000 		.4byte	.LASF144
 7549 04d6 09       		.byte	0x9
 7550 04d7 44       		.byte	0x44
 7551 04d8 A0040000 		.4byte	0x4a0
 7552 04dc 0A       		.uleb128 0xa
 7553 04dd A8       		.byte	0xa8
 7554 04de 09       		.byte	0x9
 7555 04df 4B       		.byte	0x4b
 7556 04e0 09050000 		.4byte	0x509
 7557 04e4 0B       		.uleb128 0xb
 7558 04e5 00000000 		.4byte	.LASF145
 7559 04e9 09       		.byte	0x9
 7560 04ea 4C       		.byte	0x4c
 7561 04eb D1040000 		.4byte	0x4d1
 7562 04ef 00       		.byte	0
 7563 04f0 0B       		.uleb128 0xb
 7564 04f1 C5060000 		.4byte	.LASF146
 7565 04f5 09       		.byte	0x9
 7566 04f6 4D       		.byte	0x4d
 7567 04f7 09050000 		.4byte	0x509
 7568 04fb 01       		.byte	0x1
 7569 04fc 0B       		.uleb128 0xb
 7570 04fd 870B0000 		.4byte	.LASF147
 7571 0501 09       		.byte	0x9
 7572 0502 4E       		.byte	0x4e
ARM GAS  C:\Users\schmi\AppData\Local\Temp\ccA9az4I.s 			page 153


 7573 0503 19050000 		.4byte	0x519
 7574 0507 11       		.byte	0x11
 7575 0508 00       		.byte	0
 7576 0509 0E       		.uleb128 0xe
 7577 050a 8C000000 		.4byte	0x8c
 7578 050e 19050000 		.4byte	0x519
 7579 0512 0F       		.uleb128 0xf
 7580 0513 88010000 		.4byte	0x188
 7581 0517 0F       		.byte	0xf
 7582 0518 00       		.byte	0
 7583 0519 0E       		.uleb128 0xe
 7584 051a 8C000000 		.4byte	0x8c
 7585 051e 29050000 		.4byte	0x529
 7586 0522 0F       		.uleb128 0xf
 7587 0523 88010000 		.4byte	0x188
 7588 0527 96       		.byte	0x96
 7589 0528 00       		.byte	0
 7590 0529 03       		.uleb128 0x3
 7591 052a D4040000 		.4byte	.LASF148
 7592 052e 09       		.byte	0x9
 7593 052f 4F       		.byte	0x4f
 7594 0530 DC040000 		.4byte	0x4dc
 7595 0534 06       		.uleb128 0x6
 7596 0535 01       		.byte	0x1
 7597 0536 37000000 		.4byte	0x37
 7598 053a 01       		.byte	0x1
 7599 053b 50       		.byte	0x50
 7600 053c 53050000 		.4byte	0x553
 7601 0540 07       		.uleb128 0x7
 7602 0541 F5090000 		.4byte	.LASF149
 7603 0545 00       		.byte	0
 7604 0546 07       		.uleb128 0x7
 7605 0547 1A090000 		.4byte	.LASF150
 7606 054b 01       		.byte	0x1
 7607 054c 07       		.uleb128 0x7
 7608 054d 5B080000 		.4byte	.LASF151
 7609 0551 02       		.byte	0x2
 7610 0552 00       		.byte	0
 7611 0553 03       		.uleb128 0x3
 7612 0554 5A0A0000 		.4byte	.LASF152
 7613 0558 01       		.byte	0x1
 7614 0559 54       		.byte	0x54
 7615 055a 34050000 		.4byte	0x534
 7616 055e 0A       		.uleb128 0xa
 7617 055f 02       		.byte	0x2
 7618 0560 01       		.byte	0x1
 7619 0561 59       		.byte	0x59
 7620 0562 7E050000 		.4byte	0x57e
 7621 0566 10       		.uleb128 0x10
 7622 0567 444300   		.ascii	"DC\000"
 7623 056a 01       		.byte	0x1
 7624 056b 5A       		.byte	0x5a
 7625 056c 53050000 		.4byte	0x553
 7626 0570 00       		.byte	0
 7627 0571 0B       		.uleb128 0xb
 7628 0572 CC040000 		.4byte	.LASF153
 7629 0576 01       		.byte	0x1
ARM GAS  C:\Users\schmi\AppData\Local\Temp\ccA9az4I.s 			page 154


 7630 0577 5B       		.byte	0x5b
 7631 0578 2C000000 		.4byte	0x2c
 7632 057c 01       		.byte	0x1
 7633 057d 00       		.byte	0
 7634 057e 03       		.uleb128 0x3
 7635 057f E2020000 		.4byte	.LASF154
 7636 0583 01       		.byte	0x1
 7637 0584 5C       		.byte	0x5c
 7638 0585 5E050000 		.4byte	0x55e
 7639 0589 0A       		.uleb128 0xa
 7640 058a CE       		.byte	0xce
 7641 058b 01       		.byte	0x1
 7642 058c 5E       		.byte	0x5e
 7643 058d C2050000 		.4byte	0x5c2
 7644 0591 0B       		.uleb128 0xb
 7645 0592 8D060000 		.4byte	.LASF155
 7646 0596 01       		.byte	0x1
 7647 0597 5F       		.byte	0x5f
 7648 0598 45000000 		.4byte	0x45
 7649 059c 00       		.byte	0
 7650 059d 0B       		.uleb128 0xb
 7651 059e DF000000 		.4byte	.LASF156
 7652 05a2 01       		.byte	0x1
 7653 05a3 60       		.byte	0x60
 7654 05a4 45000000 		.4byte	0x45
 7655 05a8 02       		.byte	0x2
 7656 05a9 0B       		.uleb128 0xb
 7657 05aa 29030000 		.4byte	.LASF157
 7658 05ae 01       		.byte	0x1
 7659 05af 61       		.byte	0x61
 7660 05b0 45000000 		.4byte	0x45
 7661 05b4 04       		.byte	0x4
 7662 05b5 0B       		.uleb128 0xb
 7663 05b6 6D090000 		.4byte	.LASF158
 7664 05ba 01       		.byte	0x1
 7665 05bb 62       		.byte	0x62
 7666 05bc C2050000 		.4byte	0x5c2
 7667 05c0 06       		.byte	0x6
 7668 05c1 00       		.byte	0
 7669 05c2 0E       		.uleb128 0xe
 7670 05c3 7E050000 		.4byte	0x57e
 7671 05c7 D2050000 		.4byte	0x5d2
 7672 05cb 0F       		.uleb128 0xf
 7673 05cc 88010000 		.4byte	0x188
 7674 05d0 63       		.byte	0x63
 7675 05d1 00       		.byte	0
 7676 05d2 03       		.uleb128 0x3
 7677 05d3 000C0000 		.4byte	.LASF159
 7678 05d7 01       		.byte	0x1
 7679 05d8 63       		.byte	0x63
 7680 05d9 89050000 		.4byte	0x589
 7681 05dd 11       		.uleb128 0x11
 7682 05de 74090000 		.4byte	.LASF165
 7683 05e2 01       		.byte	0x1
 7684 05e3 8B       		.byte	0x8b
 7685 05e4 00000000 		.4byte	.LFB116
 7686 05e8 84000000 		.4byte	.LFE116-.LFB116
ARM GAS  C:\Users\schmi\AppData\Local\Temp\ccA9az4I.s 			page 155


 7687 05ec 01       		.uleb128 0x1
 7688 05ed 9C       		.byte	0x9c
 7689 05ee 01060000 		.4byte	0x601
 7690 05f2 12       		.uleb128 0x12
 7691 05f3 ED0B0000 		.4byte	.LASF161
 7692 05f7 01       		.byte	0x1
 7693 05f8 92       		.byte	0x92
 7694 05f9 01060000 		.4byte	0x601
 7695 05fd 02       		.uleb128 0x2
 7696 05fe 91       		.byte	0x91
 7697 05ff 74       		.sleb128 -12
 7698 0600 00       		.byte	0
 7699 0601 04       		.uleb128 0x4
 7700 0602 04       		.byte	0x4
 7701 0603 7E050000 		.4byte	0x57e
 7702 0607 13       		.uleb128 0x13
 7703 0608 9D070000 		.4byte	.LASF254
 7704 060c 01       		.byte	0x1
 7705 060d A8       		.byte	0xa8
 7706 060e 47010000 		.4byte	0x147
 7707 0612 00000000 		.4byte	.LFB117
 7708 0616 C4000000 		.4byte	.LFE117-.LFB117
 7709 061a 01       		.uleb128 0x1
 7710 061b 9C       		.byte	0x9c
 7711 061c 58060000 		.4byte	0x658
 7712 0620 14       		.uleb128 0x14
 7713 0621 36010000 		.4byte	.LASF160
 7714 0625 01       		.byte	0x1
 7715 0626 A8       		.byte	0xa8
 7716 0627 53050000 		.4byte	0x553
 7717 062b 03       		.uleb128 0x3
 7718 062c 91       		.byte	0x91
 7719 062d C77E     		.sleb128 -185
 7720 062f 14       		.uleb128 0x14
 7721 0630 CC040000 		.4byte	.LASF153
 7722 0634 01       		.byte	0x1
 7723 0635 A8       		.byte	0xa8
 7724 0636 2C000000 		.4byte	0x2c
 7725 063a 03       		.uleb128 0x3
 7726 063b 91       		.byte	0x91
 7727 063c C67E     		.sleb128 -186
 7728 063e 15       		.uleb128 0x15
 7729 063f 18000000 		.4byte	.LBB2
 7730 0643 36000000 		.4byte	.LBE2-.LBB2
 7731 0647 16       		.uleb128 0x16
 7732 0648 6D736700 		.ascii	"msg\000"
 7733 064c 01       		.byte	0x1
 7734 064d AD       		.byte	0xad
 7735 064e 29050000 		.4byte	0x529
 7736 0652 03       		.uleb128 0x3
 7737 0653 91       		.byte	0x91
 7738 0654 C87E     		.sleb128 -184
 7739 0656 00       		.byte	0
 7740 0657 00       		.byte	0
 7741 0658 17       		.uleb128 0x17
 7742 0659 8D020000 		.4byte	.LASF255
 7743 065d 01       		.byte	0x1
ARM GAS  C:\Users\schmi\AppData\Local\Temp\ccA9az4I.s 			page 156


 7744 065e C1       		.byte	0xc1
 7745 065f 00000000 		.4byte	.LFB118
 7746 0663 68010000 		.4byte	.LFE118-.LFB118
 7747 0667 01       		.uleb128 0x1
 7748 0668 9C       		.byte	0x9c
 7749 0669 98060000 		.4byte	0x698
 7750 066d 12       		.uleb128 0x12
 7751 066e 77060000 		.4byte	.LASF162
 7752 0672 01       		.byte	0x1
 7753 0673 E9       		.byte	0xe9
 7754 0674 62020000 		.4byte	0x262
 7755 0678 02       		.uleb128 0x2
 7756 0679 91       		.byte	0x91
 7757 067a 74       		.sleb128 -12
 7758 067b 12       		.uleb128 0x12
 7759 067c 61020000 		.4byte	.LASF163
 7760 0680 01       		.byte	0x1
 7761 0681 EA       		.byte	0xea
 7762 0682 2C000000 		.4byte	0x2c
 7763 0686 02       		.uleb128 0x2
 7764 0687 91       		.byte	0x91
 7765 0688 73       		.sleb128 -13
 7766 0689 12       		.uleb128 0x12
 7767 068a EF0A0000 		.4byte	.LASF164
 7768 068e 01       		.byte	0x1
 7769 068f EA       		.byte	0xea
 7770 0690 2C000000 		.4byte	0x2c
 7771 0694 02       		.uleb128 0x2
 7772 0695 91       		.byte	0x91
 7773 0696 72       		.sleb128 -14
 7774 0697 00       		.byte	0
 7775 0698 11       		.uleb128 0x11
 7776 0699 E7040000 		.4byte	.LASF166
 7777 069d 01       		.byte	0x1
 7778 069e FF       		.byte	0xff
 7779 069f 00000000 		.4byte	.LFB119
 7780 06a3 24000000 		.4byte	.LFE119-.LFB119
 7781 06a7 01       		.uleb128 0x1
 7782 06a8 9C       		.byte	0x9c
 7783 06a9 BA060000 		.4byte	0x6ba
 7784 06ad 18       		.uleb128 0x18
 7785 06ae 6200     		.ascii	"b\000"
 7786 06b0 01       		.byte	0x1
 7787 06b1 FF       		.byte	0xff
 7788 06b2 2C000000 		.4byte	0x2c
 7789 06b6 02       		.uleb128 0x2
 7790 06b7 91       		.byte	0x91
 7791 06b8 77       		.sleb128 -9
 7792 06b9 00       		.byte	0
 7793 06ba 19       		.uleb128 0x19
 7794 06bb AF020000 		.4byte	.LASF189
 7795 06bf 01       		.byte	0x1
 7796 06c0 0501     		.2byte	0x105
 7797 06c2 2C000000 		.4byte	0x2c
 7798 06c6 00000000 		.4byte	.LFB120
 7799 06ca 0E000000 		.4byte	.LFE120-.LFB120
 7800 06ce 01       		.uleb128 0x1
ARM GAS  C:\Users\schmi\AppData\Local\Temp\ccA9az4I.s 			page 157


 7801 06cf 9C       		.byte	0x9c
 7802 06d0 1A       		.uleb128 0x1a
 7803 06d1 28060000 		.4byte	.LASF182
 7804 06d5 01       		.byte	0x1
 7805 06d6 0901     		.2byte	0x109
 7806 06d8 00000000 		.4byte	.LFB121
 7807 06dc B0000000 		.4byte	.LFE121-.LFB121
 7808 06e0 01       		.uleb128 0x1
 7809 06e1 9C       		.byte	0x9c
 7810 06e2 1F070000 		.4byte	0x71f
 7811 06e6 1B       		.uleb128 0x1b
 7812 06e7 783000   		.ascii	"x0\000"
 7813 06ea 01       		.byte	0x1
 7814 06eb 0901     		.2byte	0x109
 7815 06ed 2C000000 		.4byte	0x2c
 7816 06f1 02       		.uleb128 0x2
 7817 06f2 91       		.byte	0x91
 7818 06f3 6F       		.sleb128 -17
 7819 06f4 1B       		.uleb128 0x1b
 7820 06f5 793000   		.ascii	"y0\000"
 7821 06f8 01       		.byte	0x1
 7822 06f9 0901     		.2byte	0x109
 7823 06fb 2C000000 		.4byte	0x2c
 7824 06ff 02       		.uleb128 0x2
 7825 0700 91       		.byte	0x91
 7826 0701 6E       		.sleb128 -18
 7827 0702 1B       		.uleb128 0x1b
 7828 0703 783100   		.ascii	"x1\000"
 7829 0706 01       		.byte	0x1
 7830 0707 0901     		.2byte	0x109
 7831 0709 2C000000 		.4byte	0x2c
 7832 070d 02       		.uleb128 0x2
 7833 070e 91       		.byte	0x91
 7834 070f 6D       		.sleb128 -19
 7835 0710 1B       		.uleb128 0x1b
 7836 0711 793100   		.ascii	"y1\000"
 7837 0714 01       		.byte	0x1
 7838 0715 0901     		.2byte	0x109
 7839 0717 2C000000 		.4byte	0x2c
 7840 071b 02       		.uleb128 0x2
 7841 071c 91       		.byte	0x91
 7842 071d 6C       		.sleb128 -20
 7843 071e 00       		.byte	0
 7844 071f 1C       		.uleb128 0x1c
 7845 0720 DB070000 		.4byte	.LASF167
 7846 0724 01       		.byte	0x1
 7847 0725 1A01     		.2byte	0x11a
 7848 0727 00000000 		.4byte	.LFB122
 7849 072b F8000000 		.4byte	.LFE122-.LFB122
 7850 072f 01       		.uleb128 0x1
 7851 0730 9C       		.byte	0x9c
 7852 0731 43070000 		.4byte	0x743
 7853 0735 1B       		.uleb128 0x1b
 7854 0736 6D00     		.ascii	"m\000"
 7855 0738 01       		.byte	0x1
 7856 0739 1A01     		.2byte	0x11a
 7857 073b 9E020000 		.4byte	0x29e
ARM GAS  C:\Users\schmi\AppData\Local\Temp\ccA9az4I.s 			page 158


 7858 073f 02       		.uleb128 0x2
 7859 0740 91       		.byte	0x91
 7860 0741 77       		.sleb128 -9
 7861 0742 00       		.byte	0
 7862 0743 1D       		.uleb128 0x1d
 7863 0744 050B0000 		.4byte	.LASF168
 7864 0748 01       		.byte	0x1
 7865 0749 4101     		.2byte	0x141
 7866 074b 00000000 		.4byte	.LFB123
 7867 074f 30000000 		.4byte	.LFE123-.LFB123
 7868 0753 01       		.uleb128 0x1
 7869 0754 9C       		.byte	0x9c
 7870 0755 74070000 		.4byte	0x774
 7871 0759 1B       		.uleb128 0x1b
 7872 075a 7800     		.ascii	"x\000"
 7873 075c 01       		.byte	0x1
 7874 075d 4101     		.2byte	0x141
 7875 075f A0010000 		.4byte	0x1a0
 7876 0763 02       		.uleb128 0x2
 7877 0764 91       		.byte	0x91
 7878 0765 76       		.sleb128 -10
 7879 0766 1B       		.uleb128 0x1b
 7880 0767 7900     		.ascii	"y\000"
 7881 0769 01       		.byte	0x1
 7882 076a 4101     		.2byte	0x141
 7883 076c A0010000 		.4byte	0x1a0
 7884 0770 02       		.uleb128 0x2
 7885 0771 91       		.byte	0x91
 7886 0772 74       		.sleb128 -12
 7887 0773 00       		.byte	0
 7888 0774 1D       		.uleb128 0x1d
 7889 0775 F6050000 		.4byte	.LASF169
 7890 0779 01       		.byte	0x1
 7891 077a 4601     		.2byte	0x146
 7892 077c 00000000 		.4byte	.LFB124
 7893 0780 20000000 		.4byte	.LFE124-.LFB124
 7894 0784 01       		.uleb128 0x1
 7895 0785 9C       		.byte	0x9c
 7896 0786 98070000 		.4byte	0x798
 7897 078a 1B       		.uleb128 0x1b
 7898 078b 6300     		.ascii	"c\000"
 7899 078d 01       		.byte	0x1
 7900 078e 4601     		.2byte	0x146
 7901 0790 45000000 		.4byte	0x45
 7902 0794 02       		.uleb128 0x2
 7903 0795 91       		.byte	0x91
 7904 0796 76       		.sleb128 -10
 7905 0797 00       		.byte	0
 7906 0798 1D       		.uleb128 0x1d
 7907 0799 A3040000 		.4byte	.LASF170
 7908 079d 01       		.byte	0x1
 7909 079e 4A01     		.2byte	0x14a
 7910 07a0 00000000 		.4byte	.LFB125
 7911 07a4 2C000000 		.4byte	.LFE125-.LFB125
 7912 07a8 01       		.uleb128 0x1
 7913 07a9 9C       		.byte	0x9c
 7914 07aa BC070000 		.4byte	0x7bc
ARM GAS  C:\Users\schmi\AppData\Local\Temp\ccA9az4I.s 			page 159


 7915 07ae 1B       		.uleb128 0x1b
 7916 07af 6300     		.ascii	"c\000"
 7917 07b1 01       		.byte	0x1
 7918 07b2 4A01     		.2byte	0x14a
 7919 07b4 45000000 		.4byte	0x45
 7920 07b8 02       		.uleb128 0x2
 7921 07b9 91       		.byte	0x91
 7922 07ba 76       		.sleb128 -10
 7923 07bb 00       		.byte	0
 7924 07bc 1D       		.uleb128 0x1d
 7925 07bd 4B010000 		.4byte	.LASF171
 7926 07c1 01       		.byte	0x1
 7927 07c2 5001     		.2byte	0x150
 7928 07c4 00000000 		.4byte	.LFB126
 7929 07c8 30000000 		.4byte	.LFE126-.LFB126
 7930 07cc 01       		.uleb128 0x1
 7931 07cd 9C       		.byte	0x9c
 7932 07ce ED070000 		.4byte	0x7ed
 7933 07d2 1B       		.uleb128 0x1b
 7934 07d3 6300     		.ascii	"c\000"
 7935 07d5 01       		.byte	0x1
 7936 07d6 5001     		.2byte	0x150
 7937 07d8 45000000 		.4byte	0x45
 7938 07dc 02       		.uleb128 0x2
 7939 07dd 91       		.byte	0x91
 7940 07de 76       		.sleb128 -10
 7941 07df 1B       		.uleb128 0x1b
 7942 07e0 6200     		.ascii	"b\000"
 7943 07e2 01       		.byte	0x1
 7944 07e3 5001     		.2byte	0x150
 7945 07e5 45000000 		.4byte	0x45
 7946 07e9 02       		.uleb128 0x2
 7947 07ea 91       		.byte	0x91
 7948 07eb 74       		.sleb128 -12
 7949 07ec 00       		.byte	0
 7950 07ed 1E       		.uleb128 0x1e
 7951 07ee 190A0000 		.4byte	.LASF172
 7952 07f2 01       		.byte	0x1
 7953 07f3 5601     		.2byte	0x156
 7954 07f5 B6010000 		.4byte	0x1b6
 7955 07f9 00000000 		.4byte	.LFB127
 7956 07fd 14000000 		.4byte	.LFE127-.LFB127
 7957 0801 01       		.uleb128 0x1
 7958 0802 9C       		.byte	0x9c
 7959 0803 1E       		.uleb128 0x1e
 7960 0804 1A030000 		.4byte	.LASF173
 7961 0808 01       		.byte	0x1
 7962 0809 5801     		.2byte	0x158
 7963 080b B6010000 		.4byte	0x1b6
 7964 080f 00000000 		.4byte	.LFB128
 7965 0813 14000000 		.4byte	.LFE128-.LFB128
 7966 0817 01       		.uleb128 0x1
 7967 0818 9C       		.byte	0x9c
 7968 0819 1D       		.uleb128 0x1d
 7969 081a 6A0C0000 		.4byte	.LASF174
 7970 081e 01       		.byte	0x1
 7971 081f 5B01     		.2byte	0x15b
ARM GAS  C:\Users\schmi\AppData\Local\Temp\ccA9az4I.s 			page 160


 7972 0821 00000000 		.4byte	.LFB129
 7973 0825 20000000 		.4byte	.LFE129-.LFB129
 7974 0829 01       		.uleb128 0x1
 7975 082a 9C       		.byte	0x9c
 7976 082b 3D080000 		.4byte	0x83d
 7977 082f 1B       		.uleb128 0x1b
 7978 0830 7700     		.ascii	"w\000"
 7979 0832 01       		.byte	0x1
 7980 0833 5B01     		.2byte	0x15b
 7981 0835 81000000 		.4byte	0x81
 7982 0839 02       		.uleb128 0x2
 7983 083a 91       		.byte	0x91
 7984 083b 77       		.sleb128 -9
 7985 083c 00       		.byte	0
 7986 083d 1D       		.uleb128 0x1d
 7987 083e 210C0000 		.4byte	.LASF175
 7988 0842 01       		.byte	0x1
 7989 0843 5F01     		.2byte	0x15f
 7990 0845 00000000 		.4byte	.LFB130
 7991 0849 28000000 		.4byte	.LFE130-.LFB130
 7992 084d 01       		.uleb128 0x1
 7993 084e 9C       		.byte	0x9c
 7994 084f 61080000 		.4byte	0x861
 7995 0853 1B       		.uleb128 0x1b
 7996 0854 7300     		.ascii	"s\000"
 7997 0856 01       		.byte	0x1
 7998 0857 5F01     		.2byte	0x15f
 7999 0859 2C000000 		.4byte	0x2c
 8000 085d 02       		.uleb128 0x2
 8001 085e 91       		.byte	0x91
 8002 085f 77       		.sleb128 -9
 8003 0860 00       		.byte	0
 8004 0861 1D       		.uleb128 0x1d
 8005 0862 56070000 		.4byte	.LASF176
 8006 0866 01       		.byte	0x1
 8007 0867 6301     		.2byte	0x163
 8008 0869 00000000 		.4byte	.LFB131
 8009 086d 50000000 		.4byte	.LFE131-.LFB131
 8010 0871 01       		.uleb128 0x1
 8011 0872 9C       		.byte	0x9c
 8012 0873 85080000 		.4byte	0x885
 8013 0877 1B       		.uleb128 0x1b
 8014 0878 6600     		.ascii	"f\000"
 8015 087a 01       		.byte	0x1
 8016 087b 6301     		.2byte	0x163
 8017 087d 85080000 		.4byte	0x885
 8018 0881 02       		.uleb128 0x2
 8019 0882 91       		.byte	0x91
 8020 0883 74       		.sleb128 -12
 8021 0884 00       		.byte	0
 8022 0885 04       		.uleb128 0x4
 8023 0886 04       		.byte	0x4
 8024 0887 8B080000 		.4byte	0x88b
 8025 088b 05       		.uleb128 0x5
 8026 088c 6E020000 		.4byte	0x26e
 8027 0890 1C       		.uleb128 0x1c
 8028 0891 520C0000 		.4byte	.LASF177
ARM GAS  C:\Users\schmi\AppData\Local\Temp\ccA9az4I.s 			page 161


 8029 0895 01       		.byte	0x1
 8030 0896 7301     		.2byte	0x173
 8031 0898 00000000 		.4byte	.LFB132
 8032 089c EC000000 		.4byte	.LFE132-.LFB132
 8033 08a0 01       		.uleb128 0x1
 8034 08a1 9C       		.byte	0x9c
 8035 08a2 4F090000 		.4byte	0x94f
 8036 08a6 1B       		.uleb128 0x1b
 8037 08a7 73747200 		.ascii	"str\000"
 8038 08ab 01       		.byte	0x1
 8039 08ac 7301     		.2byte	0x173
 8040 08ae 8F010000 		.4byte	0x18f
 8041 08b2 02       		.uleb128 0x2
 8042 08b3 91       		.byte	0x91
 8043 08b4 5C       		.sleb128 -36
 8044 08b5 1B       		.uleb128 0x1b
 8045 08b6 7800     		.ascii	"x\000"
 8046 08b8 01       		.byte	0x1
 8047 08b9 7301     		.2byte	0x173
 8048 08bb A0010000 		.4byte	0x1a0
 8049 08bf 02       		.uleb128 0x2
 8050 08c0 91       		.byte	0x91
 8051 08c1 5A       		.sleb128 -38
 8052 08c2 1B       		.uleb128 0x1b
 8053 08c3 7900     		.ascii	"y\000"
 8054 08c5 01       		.byte	0x1
 8055 08c6 7301     		.2byte	0x173
 8056 08c8 A0010000 		.4byte	0x1a0
 8057 08cc 02       		.uleb128 0x2
 8058 08cd 91       		.byte	0x91
 8059 08ce 58       		.sleb128 -40
 8060 08cf 1B       		.uleb128 0x1b
 8061 08d0 783100   		.ascii	"x1\000"
 8062 08d3 01       		.byte	0x1
 8063 08d4 7301     		.2byte	0x173
 8064 08d6 4F090000 		.4byte	0x94f
 8065 08da 02       		.uleb128 0x2
 8066 08db 91       		.byte	0x91
 8067 08dc 54       		.sleb128 -44
 8068 08dd 1B       		.uleb128 0x1b
 8069 08de 793100   		.ascii	"y1\000"
 8070 08e1 01       		.byte	0x1
 8071 08e2 7301     		.2byte	0x173
 8072 08e4 4F090000 		.4byte	0x94f
 8073 08e8 02       		.uleb128 0x2
 8074 08e9 91       		.byte	0x91
 8075 08ea 00       		.sleb128 0
 8076 08eb 1B       		.uleb128 0x1b
 8077 08ec 7700     		.ascii	"w\000"
 8078 08ee 01       		.byte	0x1
 8079 08ef 7301     		.2byte	0x173
 8080 08f1 55090000 		.4byte	0x955
 8081 08f5 02       		.uleb128 0x2
 8082 08f6 91       		.byte	0x91
 8083 08f7 04       		.sleb128 4
 8084 08f8 1B       		.uleb128 0x1b
 8085 08f9 6800     		.ascii	"h\000"
ARM GAS  C:\Users\schmi\AppData\Local\Temp\ccA9az4I.s 			page 162


 8086 08fb 01       		.byte	0x1
 8087 08fc 7301     		.2byte	0x173
 8088 08fe 55090000 		.4byte	0x955
 8089 0902 02       		.uleb128 0x2
 8090 0903 91       		.byte	0x91
 8091 0904 08       		.sleb128 8
 8092 0905 1F       		.uleb128 0x1f
 8093 0906 6300     		.ascii	"c\000"
 8094 0908 01       		.byte	0x1
 8095 0909 7401     		.2byte	0x174
 8096 090b 2C000000 		.4byte	0x2c
 8097 090f 02       		.uleb128 0x2
 8098 0910 91       		.byte	0x91
 8099 0911 6F       		.sleb128 -17
 8100 0912 20       		.uleb128 0x20
 8101 0913 C20B0000 		.4byte	.LASF178
 8102 0917 01       		.byte	0x1
 8103 0918 7A01     		.2byte	0x17a
 8104 091a A0010000 		.4byte	0x1a0
 8105 091e 02       		.uleb128 0x2
 8106 091f 91       		.byte	0x91
 8107 0920 6C       		.sleb128 -20
 8108 0921 20       		.uleb128 0x20
 8109 0922 C70B0000 		.4byte	.LASF179
 8110 0926 01       		.byte	0x1
 8111 0927 7A01     		.2byte	0x17a
 8112 0929 A0010000 		.4byte	0x1a0
 8113 092d 02       		.uleb128 0x2
 8114 092e 91       		.byte	0x91
 8115 092f 6A       		.sleb128 -22
 8116 0930 20       		.uleb128 0x20
 8117 0931 F6070000 		.4byte	.LASF180
 8118 0935 01       		.byte	0x1
 8119 0936 7A01     		.2byte	0x17a
 8120 0938 A0010000 		.4byte	0x1a0
 8121 093c 02       		.uleb128 0x2
 8122 093d 91       		.byte	0x91
 8123 093e 68       		.sleb128 -24
 8124 093f 20       		.uleb128 0x20
 8125 0940 FB070000 		.4byte	.LASF181
 8126 0944 01       		.byte	0x1
 8127 0945 7A01     		.2byte	0x17a
 8128 0947 A0010000 		.4byte	0x1a0
 8129 094b 02       		.uleb128 0x2
 8130 094c 91       		.byte	0x91
 8131 094d 66       		.sleb128 -26
 8132 094e 00       		.byte	0
 8133 094f 04       		.uleb128 0x4
 8134 0950 04       		.byte	0x4
 8135 0951 A0010000 		.4byte	0x1a0
 8136 0955 04       		.uleb128 0x4
 8137 0956 04       		.byte	0x4
 8138 0957 45000000 		.4byte	0x45
 8139 095b 21       		.uleb128 0x21
 8140 095c 06070000 		.4byte	.LASF183
 8141 0960 01       		.byte	0x1
 8142 0961 8901     		.2byte	0x189
ARM GAS  C:\Users\schmi\AppData\Local\Temp\ccA9az4I.s 			page 163


 8143 0963 00000000 		.4byte	.LFB133
 8144 0967 5C030000 		.4byte	.LFE133-.LFB133
 8145 096b 01       		.uleb128 0x1
 8146 096c 9C       		.byte	0x9c
 8147 096d CC0A0000 		.4byte	0xacc
 8148 0971 1B       		.uleb128 0x1b
 8149 0972 6300     		.ascii	"c\000"
 8150 0974 01       		.byte	0x1
 8151 0975 8901     		.2byte	0x189
 8152 0977 8C000000 		.4byte	0x8c
 8153 097b 02       		.uleb128 0x2
 8154 097c 91       		.byte	0x91
 8155 097d 57       		.sleb128 -41
 8156 097e 1B       		.uleb128 0x1b
 8157 097f 7800     		.ascii	"x\000"
 8158 0981 01       		.byte	0x1
 8159 0982 8901     		.2byte	0x189
 8160 0984 4F090000 		.4byte	0x94f
 8161 0988 02       		.uleb128 0x2
 8162 0989 91       		.byte	0x91
 8163 098a 50       		.sleb128 -48
 8164 098b 1B       		.uleb128 0x1b
 8165 098c 7900     		.ascii	"y\000"
 8166 098e 01       		.byte	0x1
 8167 098f 8901     		.2byte	0x189
 8168 0991 4F090000 		.4byte	0x94f
 8169 0995 02       		.uleb128 0x2
 8170 0996 91       		.byte	0x91
 8171 0997 4C       		.sleb128 -52
 8172 0998 22       		.uleb128 0x22
 8173 0999 C20B0000 		.4byte	.LASF178
 8174 099d 01       		.byte	0x1
 8175 099e 8901     		.2byte	0x189
 8176 09a0 4F090000 		.4byte	0x94f
 8177 09a4 02       		.uleb128 0x2
 8178 09a5 91       		.byte	0x91
 8179 09a6 48       		.sleb128 -56
 8180 09a7 22       		.uleb128 0x22
 8181 09a8 C70B0000 		.4byte	.LASF179
 8182 09ac 01       		.byte	0x1
 8183 09ad 8901     		.2byte	0x189
 8184 09af 4F090000 		.4byte	0x94f
 8185 09b3 02       		.uleb128 0x2
 8186 09b4 91       		.byte	0x91
 8187 09b5 00       		.sleb128 0
 8188 09b6 22       		.uleb128 0x22
 8189 09b7 F6070000 		.4byte	.LASF180
 8190 09bb 01       		.byte	0x1
 8191 09bc 8901     		.2byte	0x189
 8192 09be 4F090000 		.4byte	0x94f
 8193 09c2 02       		.uleb128 0x2
 8194 09c3 91       		.byte	0x91
 8195 09c4 04       		.sleb128 4
 8196 09c5 22       		.uleb128 0x22
 8197 09c6 FB070000 		.4byte	.LASF181
 8198 09ca 01       		.byte	0x1
 8199 09cb 8901     		.2byte	0x189
ARM GAS  C:\Users\schmi\AppData\Local\Temp\ccA9az4I.s 			page 164


 8200 09cd 4F090000 		.4byte	0x94f
 8201 09d1 02       		.uleb128 0x2
 8202 09d2 91       		.byte	0x91
 8203 09d3 08       		.sleb128 8
 8204 09d4 23       		.uleb128 0x23
 8205 09d5 58000000 		.4byte	.LBB3
 8206 09d9 AC010000 		.4byte	.LBE3-.LBB3
 8207 09dd A50A0000 		.4byte	0xaa5
 8208 09e1 20       		.uleb128 0x20
 8209 09e2 44070000 		.4byte	.LASF60
 8210 09e6 01       		.byte	0x1
 8211 09e7 9101     		.2byte	0x191
 8212 09e9 2C000000 		.4byte	0x2c
 8213 09ed 02       		.uleb128 0x2
 8214 09ee 91       		.byte	0x91
 8215 09ef 77       		.sleb128 -9
 8216 09f0 20       		.uleb128 0x20
 8217 09f1 840C0000 		.4byte	.LASF61
 8218 09f5 01       		.byte	0x1
 8219 09f6 9201     		.2byte	0x192
 8220 09f8 2C000000 		.4byte	0x2c
 8221 09fc 02       		.uleb128 0x2
 8222 09fd 91       		.byte	0x91
 8223 09fe 76       		.sleb128 -10
 8224 09ff 15       		.uleb128 0x15
 8225 0a00 84000000 		.4byte	.LBB4
 8226 0a04 80010000 		.4byte	.LBE4-.LBB4
 8227 0a08 20       		.uleb128 0x20
 8228 0a09 DC020000 		.4byte	.LASF59
 8229 0a0d 01       		.byte	0x1
 8230 0a0e 9401     		.2byte	0x194
 8231 0a10 68020000 		.4byte	0x268
 8232 0a14 02       		.uleb128 0x2
 8233 0a15 91       		.byte	0x91
 8234 0a16 70       		.sleb128 -16
 8235 0a17 1F       		.uleb128 0x1f
 8236 0a18 677700   		.ascii	"gw\000"
 8237 0a1b 01       		.byte	0x1
 8238 0a1c 9601     		.2byte	0x196
 8239 0a1e 2C000000 		.4byte	0x2c
 8240 0a22 02       		.uleb128 0x2
 8241 0a23 91       		.byte	0x91
 8242 0a24 6F       		.sleb128 -17
 8243 0a25 1F       		.uleb128 0x1f
 8244 0a26 676800   		.ascii	"gh\000"
 8245 0a29 01       		.byte	0x1
 8246 0a2a 9701     		.2byte	0x197
 8247 0a2c 2C000000 		.4byte	0x2c
 8248 0a30 02       		.uleb128 0x2
 8249 0a31 91       		.byte	0x91
 8250 0a32 6E       		.sleb128 -18
 8251 0a33 1F       		.uleb128 0x1f
 8252 0a34 786100   		.ascii	"xa\000"
 8253 0a37 01       		.byte	0x1
 8254 0a38 9801     		.2byte	0x198
 8255 0a3a 2C000000 		.4byte	0x2c
 8256 0a3e 02       		.uleb128 0x2
ARM GAS  C:\Users\schmi\AppData\Local\Temp\ccA9az4I.s 			page 165


 8257 0a3f 91       		.byte	0x91
 8258 0a40 6D       		.sleb128 -19
 8259 0a41 1F       		.uleb128 0x1f
 8260 0a42 786F00   		.ascii	"xo\000"
 8261 0a45 01       		.byte	0x1
 8262 0a46 9901     		.2byte	0x199
 8263 0a48 95010000 		.4byte	0x195
 8264 0a4c 02       		.uleb128 0x2
 8265 0a4d 91       		.byte	0x91
 8266 0a4e 6C       		.sleb128 -20
 8267 0a4f 1F       		.uleb128 0x1f
 8268 0a50 796F00   		.ascii	"yo\000"
 8269 0a53 01       		.byte	0x1
 8270 0a54 9A01     		.2byte	0x19a
 8271 0a56 95010000 		.4byte	0x195
 8272 0a5a 02       		.uleb128 0x2
 8273 0a5b 91       		.byte	0x91
 8274 0a5c 6B       		.sleb128 -21
 8275 0a5d 1F       		.uleb128 0x1f
 8276 0a5e 747300   		.ascii	"ts\000"
 8277 0a61 01       		.byte	0x1
 8278 0a62 9F01     		.2byte	0x19f
 8279 0a64 A0010000 		.4byte	0x1a0
 8280 0a68 02       		.uleb128 0x2
 8281 0a69 91       		.byte	0x91
 8282 0a6a 68       		.sleb128 -24
 8283 0a6b 1F       		.uleb128 0x1f
 8284 0a6c 783100   		.ascii	"x1\000"
 8285 0a6f 01       		.byte	0x1
 8286 0a70 A001     		.2byte	0x1a0
 8287 0a72 A0010000 		.4byte	0x1a0
 8288 0a76 02       		.uleb128 0x2
 8289 0a77 91       		.byte	0x91
 8290 0a78 66       		.sleb128 -26
 8291 0a79 1F       		.uleb128 0x1f
 8292 0a7a 793100   		.ascii	"y1\000"
 8293 0a7d 01       		.byte	0x1
 8294 0a7e A101     		.2byte	0x1a1
 8295 0a80 A0010000 		.4byte	0x1a0
 8296 0a84 02       		.uleb128 0x2
 8297 0a85 91       		.byte	0x91
 8298 0a86 64       		.sleb128 -28
 8299 0a87 1F       		.uleb128 0x1f
 8300 0a88 783200   		.ascii	"x2\000"
 8301 0a8b 01       		.byte	0x1
 8302 0a8c A201     		.2byte	0x1a2
 8303 0a8e A0010000 		.4byte	0x1a0
 8304 0a92 02       		.uleb128 0x2
 8305 0a93 91       		.byte	0x91
 8306 0a94 62       		.sleb128 -30
 8307 0a95 1F       		.uleb128 0x1f
 8308 0a96 793200   		.ascii	"y2\000"
 8309 0a99 01       		.byte	0x1
 8310 0a9a A301     		.2byte	0x1a3
 8311 0a9c A0010000 		.4byte	0x1a0
 8312 0aa0 02       		.uleb128 0x2
 8313 0aa1 91       		.byte	0x91
ARM GAS  C:\Users\schmi\AppData\Local\Temp\ccA9az4I.s 			page 166


 8314 0aa2 60       		.sleb128 -32
 8315 0aa3 00       		.byte	0
 8316 0aa4 00       		.byte	0
 8317 0aa5 15       		.uleb128 0x15
 8318 0aa6 46020000 		.4byte	.LBB5
 8319 0aaa FE000000 		.4byte	.LBE5-.LBB5
 8320 0aae 1F       		.uleb128 0x1f
 8321 0aaf 783200   		.ascii	"x2\000"
 8322 0ab2 01       		.byte	0x1
 8323 0ab3 B701     		.2byte	0x1b7
 8324 0ab5 73010000 		.4byte	0x173
 8325 0ab9 02       		.uleb128 0x2
 8326 0aba 91       		.byte	0x91
 8327 0abb 5C       		.sleb128 -36
 8328 0abc 1F       		.uleb128 0x1f
 8329 0abd 793200   		.ascii	"y2\000"
 8330 0ac0 01       		.byte	0x1
 8331 0ac1 B801     		.2byte	0x1b8
 8332 0ac3 73010000 		.4byte	0x173
 8333 0ac7 02       		.uleb128 0x2
 8334 0ac8 91       		.byte	0x91
 8335 0ac9 58       		.sleb128 -40
 8336 0aca 00       		.byte	0
 8337 0acb 00       		.byte	0
 8338 0acc 1C       		.uleb128 0x1c
 8339 0acd B5040000 		.4byte	.LASF184
 8340 0ad1 01       		.byte	0x1
 8341 0ad2 C401     		.2byte	0x1c4
 8342 0ad4 00000000 		.4byte	.LFB134
 8343 0ad8 28000000 		.4byte	.LFE134-.LFB134
 8344 0adc 01       		.uleb128 0x1
 8345 0add 9C       		.byte	0x9c
 8346 0ade F20A0000 		.4byte	0xaf2
 8347 0ae2 1B       		.uleb128 0x1b
 8348 0ae3 74787400 		.ascii	"txt\000"
 8349 0ae7 01       		.byte	0x1
 8350 0ae8 C401     		.2byte	0x1c4
 8351 0aea 8F010000 		.4byte	0x18f
 8352 0aee 02       		.uleb128 0x2
 8353 0aef 91       		.byte	0x91
 8354 0af0 74       		.sleb128 -12
 8355 0af1 00       		.byte	0
 8356 0af2 1C       		.uleb128 0x1c
 8357 0af3 4A070000 		.4byte	.LASF185
 8358 0af7 01       		.byte	0x1
 8359 0af8 CA01     		.2byte	0x1ca
 8360 0afa 00000000 		.4byte	.LFB135
 8361 0afe 2E000000 		.4byte	.LFE135-.LFB135
 8362 0b02 01       		.uleb128 0x1
 8363 0b03 9C       		.byte	0x9c
 8364 0b04 180B0000 		.4byte	0xb18
 8365 0b08 1B       		.uleb128 0x1b
 8366 0b09 74787400 		.ascii	"txt\000"
 8367 0b0d 01       		.byte	0x1
 8368 0b0e CA01     		.2byte	0x1ca
 8369 0b10 8F010000 		.4byte	0x18f
 8370 0b14 02       		.uleb128 0x2
ARM GAS  C:\Users\schmi\AppData\Local\Temp\ccA9az4I.s 			page 167


 8371 0b15 91       		.byte	0x91
 8372 0b16 74       		.sleb128 -12
 8373 0b17 00       		.byte	0
 8374 0b18 1C       		.uleb128 0x1c
 8375 0b19 6D060000 		.4byte	.LASF186
 8376 0b1d 01       		.byte	0x1
 8377 0b1e D101     		.2byte	0x1d1
 8378 0b20 00000000 		.4byte	.LFB136
 8379 0b24 14020000 		.4byte	.LFE136-.LFB136
 8380 0b28 01       		.uleb128 0x1
 8381 0b29 9C       		.byte	0x9c
 8382 0b2a A00B0000 		.4byte	0xba0
 8383 0b2e 1B       		.uleb128 0x1b
 8384 0b2f 6300     		.ascii	"c\000"
 8385 0b31 01       		.byte	0x1
 8386 0b32 D101     		.2byte	0x1d1
 8387 0b34 2C000000 		.4byte	0x2c
 8388 0b38 02       		.uleb128 0x2
 8389 0b39 91       		.byte	0x91
 8390 0b3a 5F       		.sleb128 -33
 8391 0b3b 15       		.uleb128 0x15
 8392 0b3c FC000000 		.4byte	.LBB6
 8393 0b40 EE000000 		.4byte	.LBE6-.LBB6
 8394 0b44 20       		.uleb128 0x20
 8395 0b45 44070000 		.4byte	.LASF60
 8396 0b49 01       		.byte	0x1
 8397 0b4a E801     		.2byte	0x1e8
 8398 0b4c 2C000000 		.4byte	0x2c
 8399 0b50 02       		.uleb128 0x2
 8400 0b51 91       		.byte	0x91
 8401 0b52 6F       		.sleb128 -17
 8402 0b53 15       		.uleb128 0x15
 8403 0b54 1A010000 		.4byte	.LBB7
 8404 0b58 D0000000 		.4byte	.LBE7-.LBB7
 8405 0b5c 20       		.uleb128 0x20
 8406 0b5d DC020000 		.4byte	.LASF59
 8407 0b61 01       		.byte	0x1
 8408 0b62 EA01     		.2byte	0x1ea
 8409 0b64 68020000 		.4byte	0x268
 8410 0b68 02       		.uleb128 0x2
 8411 0b69 91       		.byte	0x91
 8412 0b6a 68       		.sleb128 -24
 8413 0b6b 1F       		.uleb128 0x1f
 8414 0b6c 7700     		.ascii	"w\000"
 8415 0b6e 01       		.byte	0x1
 8416 0b6f EC01     		.2byte	0x1ec
 8417 0b71 2C000000 		.4byte	0x2c
 8418 0b75 02       		.uleb128 0x2
 8419 0b76 91       		.byte	0x91
 8420 0b77 67       		.sleb128 -25
 8421 0b78 1F       		.uleb128 0x1f
 8422 0b79 6800     		.ascii	"h\000"
 8423 0b7b 01       		.byte	0x1
 8424 0b7c ED01     		.2byte	0x1ed
 8425 0b7e 2C000000 		.4byte	0x2c
 8426 0b82 02       		.uleb128 0x2
 8427 0b83 91       		.byte	0x91
ARM GAS  C:\Users\schmi\AppData\Local\Temp\ccA9az4I.s 			page 168


 8428 0b84 66       		.sleb128 -26
 8429 0b85 15       		.uleb128 0x15
 8430 0b86 46010000 		.4byte	.LBB8
 8431 0b8a 84000000 		.4byte	.LBE8-.LBB8
 8432 0b8e 1F       		.uleb128 0x1f
 8433 0b8f 786F00   		.ascii	"xo\000"
 8434 0b92 01       		.byte	0x1
 8435 0b93 EF01     		.2byte	0x1ef
 8436 0b95 A0010000 		.4byte	0x1a0
 8437 0b99 02       		.uleb128 0x2
 8438 0b9a 91       		.byte	0x91
 8439 0b9b 64       		.sleb128 -28
 8440 0b9c 00       		.byte	0
 8441 0b9d 00       		.byte	0
 8442 0b9e 00       		.byte	0
 8443 0b9f 00       		.byte	0
 8444 0ba0 1C       		.uleb128 0x1c
 8445 0ba1 C4050000 		.4byte	.LASF187
 8446 0ba5 01       		.byte	0x1
 8447 0ba6 FE01     		.2byte	0x1fe
 8448 0ba8 00000000 		.4byte	.LFB137
 8449 0bac 34000000 		.4byte	.LFE137-.LFB137
 8450 0bb0 01       		.uleb128 0x1
 8451 0bb1 9C       		.byte	0x9c
 8452 0bb2 C60B0000 		.4byte	0xbc6
 8453 0bb6 22       		.uleb128 0x22
 8454 0bb7 0C090000 		.4byte	.LASF188
 8455 0bbb 01       		.byte	0x1
 8456 0bbc FE01     		.2byte	0x1fe
 8457 0bbe B6010000 		.4byte	0x1b6
 8458 0bc2 02       		.uleb128 0x2
 8459 0bc3 91       		.byte	0x91
 8460 0bc4 76       		.sleb128 -10
 8461 0bc5 00       		.byte	0
 8462 0bc6 24       		.uleb128 0x24
 8463 0bc7 54090000 		.4byte	.LASF190
 8464 0bcb 01       		.byte	0x1
 8465 0bcc 0202     		.2byte	0x202
 8466 0bce 00000000 		.4byte	.LFB138
 8467 0bd2 14000000 		.4byte	.LFE138-.LFB138
 8468 0bd6 01       		.uleb128 0x1
 8469 0bd7 9C       		.byte	0x9c
 8470 0bd8 1C       		.uleb128 0x1c
 8471 0bd9 BF040000 		.4byte	.LASF191
 8472 0bdd 01       		.byte	0x1
 8473 0bde 0402     		.2byte	0x204
 8474 0be0 00000000 		.4byte	.LFB139
 8475 0be4 18010000 		.4byte	.LFE139-.LFB139
 8476 0be8 01       		.uleb128 0x1
 8477 0be9 9C       		.byte	0x9c
 8478 0bea 4E0C0000 		.4byte	0xc4e
 8479 0bee 1B       		.uleb128 0x1b
 8480 0bef 7800     		.ascii	"x\000"
 8481 0bf1 01       		.byte	0x1
 8482 0bf2 0402     		.2byte	0x204
 8483 0bf4 A0010000 		.4byte	0x1a0
 8484 0bf8 02       		.uleb128 0x2
ARM GAS  C:\Users\schmi\AppData\Local\Temp\ccA9az4I.s 			page 169


 8485 0bf9 91       		.byte	0x91
 8486 0bfa 66       		.sleb128 -26
 8487 0bfb 1B       		.uleb128 0x1b
 8488 0bfc 7900     		.ascii	"y\000"
 8489 0bfe 01       		.byte	0x1
 8490 0bff 0402     		.2byte	0x204
 8491 0c01 A0010000 		.4byte	0x1a0
 8492 0c05 02       		.uleb128 0x2
 8493 0c06 91       		.byte	0x91
 8494 0c07 64       		.sleb128 -28
 8495 0c08 1B       		.uleb128 0x1b
 8496 0c09 7700     		.ascii	"w\000"
 8497 0c0b 01       		.byte	0x1
 8498 0c0c 0402     		.2byte	0x204
 8499 0c0e A0010000 		.4byte	0x1a0
 8500 0c12 02       		.uleb128 0x2
 8501 0c13 91       		.byte	0x91
 8502 0c14 62       		.sleb128 -30
 8503 0c15 1B       		.uleb128 0x1b
 8504 0c16 6800     		.ascii	"h\000"
 8505 0c18 01       		.byte	0x1
 8506 0c19 0402     		.2byte	0x204
 8507 0c1b A0010000 		.4byte	0x1a0
 8508 0c1f 02       		.uleb128 0x2
 8509 0c20 91       		.byte	0x91
 8510 0c21 60       		.sleb128 -32
 8511 0c22 22       		.uleb128 0x22
 8512 0c23 0C090000 		.4byte	.LASF188
 8513 0c27 01       		.byte	0x1
 8514 0c28 0402     		.2byte	0x204
 8515 0c2a B6010000 		.4byte	0x1b6
 8516 0c2e 02       		.uleb128 0x2
 8517 0c2f 91       		.byte	0x91
 8518 0c30 00       		.sleb128 0
 8519 0c31 1F       		.uleb128 0x1f
 8520 0c32 686900   		.ascii	"hi\000"
 8521 0c35 01       		.byte	0x1
 8522 0c36 0E02     		.2byte	0x20e
 8523 0c38 2C000000 		.4byte	0x2c
 8524 0c3c 02       		.uleb128 0x2
 8525 0c3d 91       		.byte	0x91
 8526 0c3e 6F       		.sleb128 -17
 8527 0c3f 1F       		.uleb128 0x1f
 8528 0c40 6C6F00   		.ascii	"lo\000"
 8529 0c43 01       		.byte	0x1
 8530 0c44 0E02     		.2byte	0x20e
 8531 0c46 2C000000 		.4byte	0x2c
 8532 0c4a 02       		.uleb128 0x2
 8533 0c4b 91       		.byte	0x91
 8534 0c4c 6E       		.sleb128 -18
 8535 0c4d 00       		.byte	0
 8536 0c4e 1C       		.uleb128 0x1c
 8537 0c4f A3080000 		.4byte	.LASF192
 8538 0c53 01       		.byte	0x1
 8539 0c54 1902     		.2byte	0x219
 8540 0c56 00000000 		.4byte	.LFB140
 8541 0c5a 8C000000 		.4byte	.LFE140-.LFB140
ARM GAS  C:\Users\schmi\AppData\Local\Temp\ccA9az4I.s 			page 170


 8542 0c5e 01       		.uleb128 0x1
 8543 0c5f 9C       		.byte	0x9c
 8544 0c60 8E0C0000 		.4byte	0xc8e
 8545 0c64 1B       		.uleb128 0x1b
 8546 0c65 7800     		.ascii	"x\000"
 8547 0c67 01       		.byte	0x1
 8548 0c68 1902     		.2byte	0x219
 8549 0c6a A0010000 		.4byte	0x1a0
 8550 0c6e 02       		.uleb128 0x2
 8551 0c6f 91       		.byte	0x91
 8552 0c70 76       		.sleb128 -10
 8553 0c71 1B       		.uleb128 0x1b
 8554 0c72 7900     		.ascii	"y\000"
 8555 0c74 01       		.byte	0x1
 8556 0c75 1902     		.2byte	0x219
 8557 0c77 A0010000 		.4byte	0x1a0
 8558 0c7b 02       		.uleb128 0x2
 8559 0c7c 91       		.byte	0x91
 8560 0c7d 74       		.sleb128 -12
 8561 0c7e 22       		.uleb128 0x22
 8562 0c7f 0C090000 		.4byte	.LASF188
 8563 0c83 01       		.byte	0x1
 8564 0c84 1902     		.2byte	0x219
 8565 0c86 B6010000 		.4byte	0x1b6
 8566 0c8a 02       		.uleb128 0x2
 8567 0c8b 91       		.byte	0x91
 8568 0c8c 72       		.sleb128 -14
 8569 0c8d 00       		.byte	0
 8570 0c8e 1C       		.uleb128 0x1c
 8571 0c8f 24000000 		.4byte	.LASF193
 8572 0c93 01       		.byte	0x1
 8573 0c94 2402     		.2byte	0x224
 8574 0c96 00000000 		.4byte	.LFB141
 8575 0c9a C4000000 		.4byte	.LFE141-.LFB141
 8576 0c9e 01       		.uleb128 0x1
 8577 0c9f 9C       		.byte	0x9c
 8578 0ca0 F70C0000 		.4byte	0xcf7
 8579 0ca4 1B       		.uleb128 0x1b
 8580 0ca5 7800     		.ascii	"x\000"
 8581 0ca7 01       		.byte	0x1
 8582 0ca8 2402     		.2byte	0x224
 8583 0caa A0010000 		.4byte	0x1a0
 8584 0cae 02       		.uleb128 0x2
 8585 0caf 91       		.byte	0x91
 8586 0cb0 66       		.sleb128 -26
 8587 0cb1 1B       		.uleb128 0x1b
 8588 0cb2 7900     		.ascii	"y\000"
 8589 0cb4 01       		.byte	0x1
 8590 0cb5 2402     		.2byte	0x224
 8591 0cb7 A0010000 		.4byte	0x1a0
 8592 0cbb 02       		.uleb128 0x2
 8593 0cbc 91       		.byte	0x91
 8594 0cbd 64       		.sleb128 -28
 8595 0cbe 1B       		.uleb128 0x1b
 8596 0cbf 6800     		.ascii	"h\000"
 8597 0cc1 01       		.byte	0x1
 8598 0cc2 2402     		.2byte	0x224
ARM GAS  C:\Users\schmi\AppData\Local\Temp\ccA9az4I.s 			page 171


 8599 0cc4 A0010000 		.4byte	0x1a0
 8600 0cc8 02       		.uleb128 0x2
 8601 0cc9 91       		.byte	0x91
 8602 0cca 62       		.sleb128 -30
 8603 0ccb 22       		.uleb128 0x22
 8604 0ccc 0C090000 		.4byte	.LASF188
 8605 0cd0 01       		.byte	0x1
 8606 0cd1 2402     		.2byte	0x224
 8607 0cd3 B6010000 		.4byte	0x1b6
 8608 0cd7 02       		.uleb128 0x2
 8609 0cd8 91       		.byte	0x91
 8610 0cd9 60       		.sleb128 -32
 8611 0cda 1F       		.uleb128 0x1f
 8612 0cdb 686900   		.ascii	"hi\000"
 8613 0cde 01       		.byte	0x1
 8614 0cdf 2B02     		.2byte	0x22b
 8615 0ce1 2C000000 		.4byte	0x2c
 8616 0ce5 02       		.uleb128 0x2
 8617 0ce6 91       		.byte	0x91
 8618 0ce7 6F       		.sleb128 -17
 8619 0ce8 1F       		.uleb128 0x1f
 8620 0ce9 6C6F00   		.ascii	"lo\000"
 8621 0cec 01       		.byte	0x1
 8622 0ced 2B02     		.2byte	0x22b
 8623 0cef 2C000000 		.4byte	0x2c
 8624 0cf3 02       		.uleb128 0x2
 8625 0cf4 91       		.byte	0x91
 8626 0cf5 6E       		.sleb128 -18
 8627 0cf6 00       		.byte	0
 8628 0cf7 1C       		.uleb128 0x1c
 8629 0cf8 350A0000 		.4byte	.LASF194
 8630 0cfc 01       		.byte	0x1
 8631 0cfd 3402     		.2byte	0x234
 8632 0cff 00000000 		.4byte	.LFB142
 8633 0d03 C8000000 		.4byte	.LFE142-.LFB142
 8634 0d07 01       		.uleb128 0x1
 8635 0d08 9C       		.byte	0x9c
 8636 0d09 600D0000 		.4byte	0xd60
 8637 0d0d 1B       		.uleb128 0x1b
 8638 0d0e 7800     		.ascii	"x\000"
 8639 0d10 01       		.byte	0x1
 8640 0d11 3402     		.2byte	0x234
 8641 0d13 A0010000 		.4byte	0x1a0
 8642 0d17 02       		.uleb128 0x2
 8643 0d18 91       		.byte	0x91
 8644 0d19 66       		.sleb128 -26
 8645 0d1a 1B       		.uleb128 0x1b
 8646 0d1b 7900     		.ascii	"y\000"
 8647 0d1d 01       		.byte	0x1
 8648 0d1e 3402     		.2byte	0x234
 8649 0d20 A0010000 		.4byte	0x1a0
 8650 0d24 02       		.uleb128 0x2
 8651 0d25 91       		.byte	0x91
 8652 0d26 64       		.sleb128 -28
 8653 0d27 1B       		.uleb128 0x1b
 8654 0d28 7700     		.ascii	"w\000"
 8655 0d2a 01       		.byte	0x1
ARM GAS  C:\Users\schmi\AppData\Local\Temp\ccA9az4I.s 			page 172


 8656 0d2b 3402     		.2byte	0x234
 8657 0d2d A0010000 		.4byte	0x1a0
 8658 0d31 02       		.uleb128 0x2
 8659 0d32 91       		.byte	0x91
 8660 0d33 62       		.sleb128 -30
 8661 0d34 22       		.uleb128 0x22
 8662 0d35 0C090000 		.4byte	.LASF188
 8663 0d39 01       		.byte	0x1
 8664 0d3a 3402     		.2byte	0x234
 8665 0d3c B6010000 		.4byte	0x1b6
 8666 0d40 02       		.uleb128 0x2
 8667 0d41 91       		.byte	0x91
 8668 0d42 60       		.sleb128 -32
 8669 0d43 1F       		.uleb128 0x1f
 8670 0d44 686900   		.ascii	"hi\000"
 8671 0d47 01       		.byte	0x1
 8672 0d48 3B02     		.2byte	0x23b
 8673 0d4a 2C000000 		.4byte	0x2c
 8674 0d4e 02       		.uleb128 0x2
 8675 0d4f 91       		.byte	0x91
 8676 0d50 6F       		.sleb128 -17
 8677 0d51 1F       		.uleb128 0x1f
 8678 0d52 6C6F00   		.ascii	"lo\000"
 8679 0d55 01       		.byte	0x1
 8680 0d56 3B02     		.2byte	0x23b
 8681 0d58 2C000000 		.4byte	0x2c
 8682 0d5c 02       		.uleb128 0x2
 8683 0d5d 91       		.byte	0x91
 8684 0d5e 6E       		.sleb128 -18
 8685 0d5f 00       		.byte	0
 8686 0d60 1C       		.uleb128 0x1c
 8687 0d61 28010000 		.4byte	.LASF195
 8688 0d65 01       		.byte	0x1
 8689 0d66 4602     		.2byte	0x246
 8690 0d68 00000000 		.4byte	.LFB143
 8691 0d6c 42010000 		.4byte	.LFE143-.LFB143
 8692 0d70 01       		.uleb128 0x1
 8693 0d71 9C       		.byte	0x9c
 8694 0d72 6F0E0000 		.4byte	0xe6f
 8695 0d76 1B       		.uleb128 0x1b
 8696 0d77 783000   		.ascii	"x0\000"
 8697 0d7a 01       		.byte	0x1
 8698 0d7b 4602     		.2byte	0x246
 8699 0d7d A0010000 		.4byte	0x1a0
 8700 0d81 02       		.uleb128 0x2
 8701 0d82 91       		.byte	0x91
 8702 0d83 56       		.sleb128 -42
 8703 0d84 1B       		.uleb128 0x1b
 8704 0d85 793000   		.ascii	"y0\000"
 8705 0d88 01       		.byte	0x1
 8706 0d89 4602     		.2byte	0x246
 8707 0d8b A0010000 		.4byte	0x1a0
 8708 0d8f 02       		.uleb128 0x2
 8709 0d90 91       		.byte	0x91
 8710 0d91 54       		.sleb128 -44
 8711 0d92 1B       		.uleb128 0x1b
 8712 0d93 783100   		.ascii	"x1\000"
ARM GAS  C:\Users\schmi\AppData\Local\Temp\ccA9az4I.s 			page 173


 8713 0d96 01       		.byte	0x1
 8714 0d97 4602     		.2byte	0x246
 8715 0d99 A0010000 		.4byte	0x1a0
 8716 0d9d 02       		.uleb128 0x2
 8717 0d9e 91       		.byte	0x91
 8718 0d9f 52       		.sleb128 -46
 8719 0da0 1B       		.uleb128 0x1b
 8720 0da1 793100   		.ascii	"y1\000"
 8721 0da4 01       		.byte	0x1
 8722 0da5 4602     		.2byte	0x246
 8723 0da7 A0010000 		.4byte	0x1a0
 8724 0dab 02       		.uleb128 0x2
 8725 0dac 91       		.byte	0x91
 8726 0dad 50       		.sleb128 -48
 8727 0dae 22       		.uleb128 0x22
 8728 0daf 0C090000 		.4byte	.LASF188
 8729 0db3 01       		.byte	0x1
 8730 0db4 4602     		.2byte	0x246
 8731 0db6 B6010000 		.4byte	0x1b6
 8732 0dba 02       		.uleb128 0x2
 8733 0dbb 91       		.byte	0x91
 8734 0dbc 00       		.sleb128 0
 8735 0dbd 20       		.uleb128 0x20
 8736 0dbe 43040000 		.4byte	.LASF196
 8737 0dc2 01       		.byte	0x1
 8738 0dc3 4702     		.2byte	0x247
 8739 0dc5 A0010000 		.4byte	0x1a0
 8740 0dc9 02       		.uleb128 0x2
 8741 0dca 91       		.byte	0x91
 8742 0dcb 6A       		.sleb128 -22
 8743 0dcc 1F       		.uleb128 0x1f
 8744 0dcd 647800   		.ascii	"dx\000"
 8745 0dd0 01       		.byte	0x1
 8746 0dd1 5202     		.2byte	0x252
 8747 0dd3 A0010000 		.4byte	0x1a0
 8748 0dd7 02       		.uleb128 0x2
 8749 0dd8 91       		.byte	0x91
 8750 0dd9 60       		.sleb128 -32
 8751 0dda 1F       		.uleb128 0x1f
 8752 0ddb 647900   		.ascii	"dy\000"
 8753 0dde 01       		.byte	0x1
 8754 0ddf 5202     		.2byte	0x252
 8755 0de1 A0010000 		.4byte	0x1a0
 8756 0de5 02       		.uleb128 0x2
 8757 0de6 91       		.byte	0x91
 8758 0de7 5E       		.sleb128 -34
 8759 0de8 1F       		.uleb128 0x1f
 8760 0de9 65727200 		.ascii	"err\000"
 8761 0ded 01       		.byte	0x1
 8762 0dee 5602     		.2byte	0x256
 8763 0df0 A0010000 		.4byte	0x1a0
 8764 0df4 02       		.uleb128 0x2
 8765 0df5 91       		.byte	0x91
 8766 0df6 6E       		.sleb128 -18
 8767 0df7 20       		.uleb128 0x20
 8768 0df8 640C0000 		.4byte	.LASF197
 8769 0dfc 01       		.byte	0x1
ARM GAS  C:\Users\schmi\AppData\Local\Temp\ccA9az4I.s 			page 174


 8770 0dfd 5702     		.2byte	0x257
 8771 0dff A0010000 		.4byte	0x1a0
 8772 0e03 02       		.uleb128 0x2
 8773 0e04 91       		.byte	0x91
 8774 0e05 6C       		.sleb128 -20
 8775 0e06 23       		.uleb128 0x23
 8776 0e07 54000000 		.4byte	.LBB9
 8777 0e0b 0C000000 		.4byte	.LBE9-.LBB9
 8778 0e0f 210E0000 		.4byte	0xe21
 8779 0e13 1F       		.uleb128 0x1f
 8780 0e14 7400     		.ascii	"t\000"
 8781 0e16 01       		.byte	0x1
 8782 0e17 4902     		.2byte	0x249
 8783 0e19 A0010000 		.4byte	0x1a0
 8784 0e1d 02       		.uleb128 0x2
 8785 0e1e 91       		.byte	0x91
 8786 0e1f 68       		.sleb128 -24
 8787 0e20 00       		.byte	0
 8788 0e21 23       		.uleb128 0x23
 8789 0e22 60000000 		.4byte	.LBB10
 8790 0e26 0C000000 		.4byte	.LBE10-.LBB10
 8791 0e2a 3C0E0000 		.4byte	0xe3c
 8792 0e2e 1F       		.uleb128 0x1f
 8793 0e2f 7400     		.ascii	"t\000"
 8794 0e31 01       		.byte	0x1
 8795 0e32 4A02     		.2byte	0x24a
 8796 0e34 A0010000 		.4byte	0x1a0
 8797 0e38 02       		.uleb128 0x2
 8798 0e39 91       		.byte	0x91
 8799 0e3a 66       		.sleb128 -26
 8800 0e3b 00       		.byte	0
 8801 0e3c 23       		.uleb128 0x23
 8802 0e3d 78000000 		.4byte	.LBB11
 8803 0e41 0C000000 		.4byte	.LBE11-.LBB11
 8804 0e45 570E0000 		.4byte	0xe57
 8805 0e49 1F       		.uleb128 0x1f
 8806 0e4a 7400     		.ascii	"t\000"
 8807 0e4c 01       		.byte	0x1
 8808 0e4d 4E02     		.2byte	0x24e
 8809 0e4f A0010000 		.4byte	0x1a0
 8810 0e53 02       		.uleb128 0x2
 8811 0e54 91       		.byte	0x91
 8812 0e55 64       		.sleb128 -28
 8813 0e56 00       		.byte	0
 8814 0e57 15       		.uleb128 0x15
 8815 0e58 84000000 		.4byte	.LBB12
 8816 0e5c 0C000000 		.4byte	.LBE12-.LBB12
 8817 0e60 1F       		.uleb128 0x1f
 8818 0e61 7400     		.ascii	"t\000"
 8819 0e63 01       		.byte	0x1
 8820 0e64 4F02     		.2byte	0x24f
 8821 0e66 A0010000 		.4byte	0x1a0
 8822 0e6a 02       		.uleb128 0x2
 8823 0e6b 91       		.byte	0x91
 8824 0e6c 62       		.sleb128 -30
 8825 0e6d 00       		.byte	0
 8826 0e6e 00       		.byte	0
ARM GAS  C:\Users\schmi\AppData\Local\Temp\ccA9az4I.s 			page 175


 8827 0e6f 1C       		.uleb128 0x1c
 8828 0e70 D8010000 		.4byte	.LASF198
 8829 0e74 01       		.byte	0x1
 8830 0e75 6D02     		.2byte	0x26d
 8831 0e77 00000000 		.4byte	.LFB144
 8832 0e7b 26000000 		.4byte	.LFE144-.LFB144
 8833 0e7f 01       		.uleb128 0x1
 8834 0e80 9C       		.byte	0x9c
 8835 0e81 930E0000 		.4byte	0xe93
 8836 0e85 1B       		.uleb128 0x1b
 8837 0e86 6900     		.ascii	"i\000"
 8838 0e88 01       		.byte	0x1
 8839 0e89 6D02     		.2byte	0x26d
 8840 0e8b 81000000 		.4byte	0x81
 8841 0e8f 02       		.uleb128 0x2
 8842 0e90 91       		.byte	0x91
 8843 0e91 77       		.sleb128 -9
 8844 0e92 00       		.byte	0
 8845 0e93 1C       		.uleb128 0x1c
 8846 0e94 DC050000 		.4byte	.LASF199
 8847 0e98 01       		.byte	0x1
 8848 0e99 7202     		.2byte	0x272
 8849 0e9b 00000000 		.4byte	.LFB145
 8850 0e9f D6010000 		.4byte	.LFE145-.LFB145
 8851 0ea3 01       		.uleb128 0x1
 8852 0ea4 9C       		.byte	0x9c
 8853 0ea5 270F0000 		.4byte	0xf27
 8854 0ea9 1B       		.uleb128 0x1b
 8855 0eaa 783000   		.ascii	"x0\000"
 8856 0ead 01       		.byte	0x1
 8857 0eae 7202     		.2byte	0x272
 8858 0eb0 A0010000 		.4byte	0x1a0
 8859 0eb4 02       		.uleb128 0x2
 8860 0eb5 91       		.byte	0x91
 8861 0eb6 5E       		.sleb128 -34
 8862 0eb7 1B       		.uleb128 0x1b
 8863 0eb8 793000   		.ascii	"y0\000"
 8864 0ebb 01       		.byte	0x1
 8865 0ebc 7202     		.2byte	0x272
 8866 0ebe A0010000 		.4byte	0x1a0
 8867 0ec2 02       		.uleb128 0x2
 8868 0ec3 91       		.byte	0x91
 8869 0ec4 5C       		.sleb128 -36
 8870 0ec5 1B       		.uleb128 0x1b
 8871 0ec6 7200     		.ascii	"r\000"
 8872 0ec8 01       		.byte	0x1
 8873 0ec9 7202     		.2byte	0x272
 8874 0ecb A0010000 		.4byte	0x1a0
 8875 0ecf 02       		.uleb128 0x2
 8876 0ed0 91       		.byte	0x91
 8877 0ed1 5A       		.sleb128 -38
 8878 0ed2 22       		.uleb128 0x22
 8879 0ed3 0C090000 		.4byte	.LASF188
 8880 0ed7 01       		.byte	0x1
 8881 0ed8 7202     		.2byte	0x272
 8882 0eda B6010000 		.4byte	0x1b6
 8883 0ede 02       		.uleb128 0x2
ARM GAS  C:\Users\schmi\AppData\Local\Temp\ccA9az4I.s 			page 176


 8884 0edf 91       		.byte	0x91
 8885 0ee0 58       		.sleb128 -40
 8886 0ee1 1F       		.uleb128 0x1f
 8887 0ee2 6600     		.ascii	"f\000"
 8888 0ee4 01       		.byte	0x1
 8889 0ee5 7302     		.2byte	0x273
 8890 0ee7 A0010000 		.4byte	0x1a0
 8891 0eeb 02       		.uleb128 0x2
 8892 0eec 91       		.byte	0x91
 8893 0eed 6E       		.sleb128 -18
 8894 0eee 20       		.uleb128 0x20
 8895 0eef 7A0A0000 		.4byte	.LASF200
 8896 0ef3 01       		.byte	0x1
 8897 0ef4 7402     		.2byte	0x274
 8898 0ef6 A0010000 		.4byte	0x1a0
 8899 0efa 02       		.uleb128 0x2
 8900 0efb 91       		.byte	0x91
 8901 0efc 6C       		.sleb128 -20
 8902 0efd 20       		.uleb128 0x20
 8903 0efe 800A0000 		.4byte	.LASF201
 8904 0f02 01       		.byte	0x1
 8905 0f03 7502     		.2byte	0x275
 8906 0f05 A0010000 		.4byte	0x1a0
 8907 0f09 02       		.uleb128 0x2
 8908 0f0a 91       		.byte	0x91
 8909 0f0b 6A       		.sleb128 -22
 8910 0f0c 1F       		.uleb128 0x1f
 8911 0f0d 7800     		.ascii	"x\000"
 8912 0f0f 01       		.byte	0x1
 8913 0f10 7602     		.2byte	0x276
 8914 0f12 A0010000 		.4byte	0x1a0
 8915 0f16 02       		.uleb128 0x2
 8916 0f17 91       		.byte	0x91
 8917 0f18 68       		.sleb128 -24
 8918 0f19 1F       		.uleb128 0x1f
 8919 0f1a 7900     		.ascii	"y\000"
 8920 0f1c 01       		.byte	0x1
 8921 0f1d 7702     		.2byte	0x277
 8922 0f1f A0010000 		.4byte	0x1a0
 8923 0f23 02       		.uleb128 0x2
 8924 0f24 91       		.byte	0x91
 8925 0f25 66       		.sleb128 -26
 8926 0f26 00       		.byte	0
 8927 0f27 1A       		.uleb128 0x1a
 8928 0f28 28070000 		.4byte	.LASF202
 8929 0f2c 01       		.byte	0x1
 8930 0f2d 9402     		.2byte	0x294
 8931 0f2f 00000000 		.4byte	.LFB146
 8932 0f33 A6010000 		.4byte	.LFE146-.LFB146
 8933 0f37 01       		.uleb128 0x1
 8934 0f38 9C       		.byte	0x9c
 8935 0f39 CA0F0000 		.4byte	0xfca
 8936 0f3d 1B       		.uleb128 0x1b
 8937 0f3e 783000   		.ascii	"x0\000"
 8938 0f41 01       		.byte	0x1
 8939 0f42 9402     		.2byte	0x294
 8940 0f44 A0010000 		.4byte	0x1a0
ARM GAS  C:\Users\schmi\AppData\Local\Temp\ccA9az4I.s 			page 177


 8941 0f48 02       		.uleb128 0x2
 8942 0f49 91       		.byte	0x91
 8943 0f4a 5E       		.sleb128 -34
 8944 0f4b 1B       		.uleb128 0x1b
 8945 0f4c 793000   		.ascii	"y0\000"
 8946 0f4f 01       		.byte	0x1
 8947 0f50 9402     		.2byte	0x294
 8948 0f52 A0010000 		.4byte	0x1a0
 8949 0f56 02       		.uleb128 0x2
 8950 0f57 91       		.byte	0x91
 8951 0f58 5C       		.sleb128 -36
 8952 0f59 1B       		.uleb128 0x1b
 8953 0f5a 7200     		.ascii	"r\000"
 8954 0f5c 01       		.byte	0x1
 8955 0f5d 9402     		.2byte	0x294
 8956 0f5f A0010000 		.4byte	0x1a0
 8957 0f63 02       		.uleb128 0x2
 8958 0f64 91       		.byte	0x91
 8959 0f65 5A       		.sleb128 -38
 8960 0f66 22       		.uleb128 0x22
 8961 0f67 FE010000 		.4byte	.LASF203
 8962 0f6b 01       		.byte	0x1
 8963 0f6c 9402     		.2byte	0x294
 8964 0f6e 2C000000 		.4byte	0x2c
 8965 0f72 02       		.uleb128 0x2
 8966 0f73 91       		.byte	0x91
 8967 0f74 59       		.sleb128 -39
 8968 0f75 22       		.uleb128 0x22
 8969 0f76 0C090000 		.4byte	.LASF188
 8970 0f7a 01       		.byte	0x1
 8971 0f7b 9402     		.2byte	0x294
 8972 0f7d B6010000 		.4byte	0x1b6
 8973 0f81 02       		.uleb128 0x2
 8974 0f82 91       		.byte	0x91
 8975 0f83 00       		.sleb128 0
 8976 0f84 1F       		.uleb128 0x1f
 8977 0f85 6600     		.ascii	"f\000"
 8978 0f87 01       		.byte	0x1
 8979 0f88 9502     		.2byte	0x295
 8980 0f8a A0010000 		.4byte	0x1a0
 8981 0f8e 02       		.uleb128 0x2
 8982 0f8f 91       		.byte	0x91
 8983 0f90 6E       		.sleb128 -18
 8984 0f91 20       		.uleb128 0x20
 8985 0f92 7A0A0000 		.4byte	.LASF200
 8986 0f96 01       		.byte	0x1
 8987 0f97 9602     		.2byte	0x296
 8988 0f99 A0010000 		.4byte	0x1a0
 8989 0f9d 02       		.uleb128 0x2
 8990 0f9e 91       		.byte	0x91
 8991 0f9f 6C       		.sleb128 -20
 8992 0fa0 20       		.uleb128 0x20
 8993 0fa1 800A0000 		.4byte	.LASF201
 8994 0fa5 01       		.byte	0x1
 8995 0fa6 9702     		.2byte	0x297
 8996 0fa8 A0010000 		.4byte	0x1a0
 8997 0fac 02       		.uleb128 0x2
ARM GAS  C:\Users\schmi\AppData\Local\Temp\ccA9az4I.s 			page 178


 8998 0fad 91       		.byte	0x91
 8999 0fae 6A       		.sleb128 -22
 9000 0faf 1F       		.uleb128 0x1f
 9001 0fb0 7800     		.ascii	"x\000"
 9002 0fb2 01       		.byte	0x1
 9003 0fb3 9802     		.2byte	0x298
 9004 0fb5 A0010000 		.4byte	0x1a0
 9005 0fb9 02       		.uleb128 0x2
 9006 0fba 91       		.byte	0x91
 9007 0fbb 68       		.sleb128 -24
 9008 0fbc 1F       		.uleb128 0x1f
 9009 0fbd 7900     		.ascii	"y\000"
 9010 0fbf 01       		.byte	0x1
 9011 0fc0 9902     		.2byte	0x299
 9012 0fc2 A0010000 		.4byte	0x1a0
 9013 0fc6 02       		.uleb128 0x2
 9014 0fc7 91       		.byte	0x91
 9015 0fc8 66       		.sleb128 -26
 9016 0fc9 00       		.byte	0
 9017 0fca 1C       		.uleb128 0x1c
 9018 0fcb 2B0B0000 		.4byte	.LASF204
 9019 0fcf 01       		.byte	0x1
 9020 0fd0 B702     		.2byte	0x2b7
 9021 0fd2 00000000 		.4byte	.LFB147
 9022 0fd6 60000000 		.4byte	.LFE147-.LFB147
 9023 0fda 01       		.uleb128 0x1
 9024 0fdb 9C       		.byte	0x9c
 9025 0fdc 19100000 		.4byte	0x1019
 9026 0fe0 1B       		.uleb128 0x1b
 9027 0fe1 783000   		.ascii	"x0\000"
 9028 0fe4 01       		.byte	0x1
 9029 0fe5 B702     		.2byte	0x2b7
 9030 0fe7 A0010000 		.4byte	0x1a0
 9031 0feb 02       		.uleb128 0x2
 9032 0fec 91       		.byte	0x91
 9033 0fed 6E       		.sleb128 -18
 9034 0fee 1B       		.uleb128 0x1b
 9035 0fef 793000   		.ascii	"y0\000"
 9036 0ff2 01       		.byte	0x1
 9037 0ff3 B702     		.2byte	0x2b7
 9038 0ff5 A0010000 		.4byte	0x1a0
 9039 0ff9 02       		.uleb128 0x2
 9040 0ffa 91       		.byte	0x91
 9041 0ffb 6C       		.sleb128 -20
 9042 0ffc 1B       		.uleb128 0x1b
 9043 0ffd 7200     		.ascii	"r\000"
 9044 0fff 01       		.byte	0x1
 9045 1000 B702     		.2byte	0x2b7
 9046 1002 A0010000 		.4byte	0x1a0
 9047 1006 02       		.uleb128 0x2
 9048 1007 91       		.byte	0x91
 9049 1008 6A       		.sleb128 -22
 9050 1009 22       		.uleb128 0x22
 9051 100a 0C090000 		.4byte	.LASF188
 9052 100e 01       		.byte	0x1
 9053 100f B702     		.2byte	0x2b7
 9054 1011 B6010000 		.4byte	0x1b6
ARM GAS  C:\Users\schmi\AppData\Local\Temp\ccA9az4I.s 			page 179


 9055 1015 02       		.uleb128 0x2
 9056 1016 91       		.byte	0x91
 9057 1017 68       		.sleb128 -24
 9058 1018 00       		.byte	0
 9059 1019 1A       		.uleb128 0x1a
 9060 101a 8E080000 		.4byte	.LASF205
 9061 101e 01       		.byte	0x1
 9062 101f BE02     		.2byte	0x2be
 9063 1021 00000000 		.4byte	.LFB148
 9064 1025 62010000 		.4byte	.LFE148-.LFB148
 9065 1029 01       		.uleb128 0x1
 9066 102a 9C       		.byte	0x9c
 9067 102b CB100000 		.4byte	0x10cb
 9068 102f 1B       		.uleb128 0x1b
 9069 1030 783000   		.ascii	"x0\000"
 9070 1033 01       		.byte	0x1
 9071 1034 BE02     		.2byte	0x2be
 9072 1036 A0010000 		.4byte	0x1a0
 9073 103a 02       		.uleb128 0x2
 9074 103b 91       		.byte	0x91
 9075 103c 5E       		.sleb128 -34
 9076 103d 1B       		.uleb128 0x1b
 9077 103e 793000   		.ascii	"y0\000"
 9078 1041 01       		.byte	0x1
 9079 1042 BE02     		.2byte	0x2be
 9080 1044 A0010000 		.4byte	0x1a0
 9081 1048 02       		.uleb128 0x2
 9082 1049 91       		.byte	0x91
 9083 104a 5C       		.sleb128 -36
 9084 104b 1B       		.uleb128 0x1b
 9085 104c 7200     		.ascii	"r\000"
 9086 104e 01       		.byte	0x1
 9087 104f BE02     		.2byte	0x2be
 9088 1051 A0010000 		.4byte	0x1a0
 9089 1055 02       		.uleb128 0x2
 9090 1056 91       		.byte	0x91
 9091 1057 5A       		.sleb128 -38
 9092 1058 22       		.uleb128 0x22
 9093 1059 FE010000 		.4byte	.LASF203
 9094 105d 01       		.byte	0x1
 9095 105e BE02     		.2byte	0x2be
 9096 1060 2C000000 		.4byte	0x2c
 9097 1064 02       		.uleb128 0x2
 9098 1065 91       		.byte	0x91
 9099 1066 59       		.sleb128 -39
 9100 1067 22       		.uleb128 0x22
 9101 1068 7D080000 		.4byte	.LASF206
 9102 106c 01       		.byte	0x1
 9103 106d BE02     		.2byte	0x2be
 9104 106f A0010000 		.4byte	0x1a0
 9105 1073 02       		.uleb128 0x2
 9106 1074 91       		.byte	0x91
 9107 1075 00       		.sleb128 0
 9108 1076 22       		.uleb128 0x22
 9109 1077 0C090000 		.4byte	.LASF188
 9110 107b 01       		.byte	0x1
 9111 107c BE02     		.2byte	0x2be
ARM GAS  C:\Users\schmi\AppData\Local\Temp\ccA9az4I.s 			page 180


 9112 107e B6010000 		.4byte	0x1b6
 9113 1082 02       		.uleb128 0x2
 9114 1083 91       		.byte	0x91
 9115 1084 04       		.sleb128 4
 9116 1085 1F       		.uleb128 0x1f
 9117 1086 6600     		.ascii	"f\000"
 9118 1088 01       		.byte	0x1
 9119 1089 C002     		.2byte	0x2c0
 9120 108b A0010000 		.4byte	0x1a0
 9121 108f 02       		.uleb128 0x2
 9122 1090 91       		.byte	0x91
 9123 1091 6E       		.sleb128 -18
 9124 1092 20       		.uleb128 0x20
 9125 1093 7A0A0000 		.4byte	.LASF200
 9126 1097 01       		.byte	0x1
 9127 1098 C102     		.2byte	0x2c1
 9128 109a A0010000 		.4byte	0x1a0
 9129 109e 02       		.uleb128 0x2
 9130 109f 91       		.byte	0x91
 9131 10a0 6C       		.sleb128 -20
 9132 10a1 20       		.uleb128 0x20
 9133 10a2 800A0000 		.4byte	.LASF201
 9134 10a6 01       		.byte	0x1
 9135 10a7 C202     		.2byte	0x2c2
 9136 10a9 A0010000 		.4byte	0x1a0
 9137 10ad 02       		.uleb128 0x2
 9138 10ae 91       		.byte	0x91
 9139 10af 6A       		.sleb128 -22
 9140 10b0 1F       		.uleb128 0x1f
 9141 10b1 7800     		.ascii	"x\000"
 9142 10b3 01       		.byte	0x1
 9143 10b4 C302     		.2byte	0x2c3
 9144 10b6 A0010000 		.4byte	0x1a0
 9145 10ba 02       		.uleb128 0x2
 9146 10bb 91       		.byte	0x91
 9147 10bc 68       		.sleb128 -24
 9148 10bd 1F       		.uleb128 0x1f
 9149 10be 7900     		.ascii	"y\000"
 9150 10c0 01       		.byte	0x1
 9151 10c1 C402     		.2byte	0x2c4
 9152 10c3 A0010000 		.4byte	0x1a0
 9153 10c7 02       		.uleb128 0x2
 9154 10c8 91       		.byte	0x91
 9155 10c9 66       		.sleb128 -26
 9156 10ca 00       		.byte	0
 9157 10cb 1C       		.uleb128 0x1c
 9158 10cc BE080000 		.4byte	.LASF207
 9159 10d0 01       		.byte	0x1
 9160 10d1 DC02     		.2byte	0x2dc
 9161 10d3 00000000 		.4byte	.LFB149
 9162 10d7 74000000 		.4byte	.LFE149-.LFB149
 9163 10db 01       		.uleb128 0x1
 9164 10dc 9C       		.byte	0x9c
 9165 10dd 45110000 		.4byte	0x1145
 9166 10e1 1B       		.uleb128 0x1b
 9167 10e2 783000   		.ascii	"x0\000"
 9168 10e5 01       		.byte	0x1
ARM GAS  C:\Users\schmi\AppData\Local\Temp\ccA9az4I.s 			page 181


 9169 10e6 DC02     		.2byte	0x2dc
 9170 10e8 A0010000 		.4byte	0x1a0
 9171 10ec 02       		.uleb128 0x2
 9172 10ed 91       		.byte	0x91
 9173 10ee 6E       		.sleb128 -18
 9174 10ef 1B       		.uleb128 0x1b
 9175 10f0 793000   		.ascii	"y0\000"
 9176 10f3 01       		.byte	0x1
 9177 10f4 DC02     		.2byte	0x2dc
 9178 10f6 A0010000 		.4byte	0x1a0
 9179 10fa 02       		.uleb128 0x2
 9180 10fb 91       		.byte	0x91
 9181 10fc 6C       		.sleb128 -20
 9182 10fd 1B       		.uleb128 0x1b
 9183 10fe 783100   		.ascii	"x1\000"
 9184 1101 01       		.byte	0x1
 9185 1102 DC02     		.2byte	0x2dc
 9186 1104 A0010000 		.4byte	0x1a0
 9187 1108 02       		.uleb128 0x2
 9188 1109 91       		.byte	0x91
 9189 110a 6A       		.sleb128 -22
 9190 110b 1B       		.uleb128 0x1b
 9191 110c 793100   		.ascii	"y1\000"
 9192 110f 01       		.byte	0x1
 9193 1110 DC02     		.2byte	0x2dc
 9194 1112 A0010000 		.4byte	0x1a0
 9195 1116 02       		.uleb128 0x2
 9196 1117 91       		.byte	0x91
 9197 1118 68       		.sleb128 -24
 9198 1119 1B       		.uleb128 0x1b
 9199 111a 783200   		.ascii	"x2\000"
 9200 111d 01       		.byte	0x1
 9201 111e DC02     		.2byte	0x2dc
 9202 1120 A0010000 		.4byte	0x1a0
 9203 1124 02       		.uleb128 0x2
 9204 1125 91       		.byte	0x91
 9205 1126 00       		.sleb128 0
 9206 1127 1B       		.uleb128 0x1b
 9207 1128 793200   		.ascii	"y2\000"
 9208 112b 01       		.byte	0x1
 9209 112c DC02     		.2byte	0x2dc
 9210 112e A0010000 		.4byte	0x1a0
 9211 1132 02       		.uleb128 0x2
 9212 1133 91       		.byte	0x91
 9213 1134 04       		.sleb128 4
 9214 1135 22       		.uleb128 0x22
 9215 1136 0C090000 		.4byte	.LASF188
 9216 113a 01       		.byte	0x1
 9217 113b DC02     		.2byte	0x2dc
 9218 113d B6010000 		.4byte	0x1b6
 9219 1141 02       		.uleb128 0x2
 9220 1142 91       		.byte	0x91
 9221 1143 08       		.sleb128 8
 9222 1144 00       		.byte	0
 9223 1145 1C       		.uleb128 0x1c
 9224 1146 17010000 		.4byte	.LASF208
 9225 114a 01       		.byte	0x1
ARM GAS  C:\Users\schmi\AppData\Local\Temp\ccA9az4I.s 			page 182


 9226 114b E302     		.2byte	0x2e3
 9227 114d 00000000 		.4byte	.LFB150
 9228 1151 BE020000 		.4byte	.LFE150-.LFB150
 9229 1155 01       		.uleb128 0x1
 9230 1156 9C       		.byte	0x9c
 9231 1157 43130000 		.4byte	0x1343
 9232 115b 1B       		.uleb128 0x1b
 9233 115c 783000   		.ascii	"x0\000"
 9234 115f 01       		.byte	0x1
 9235 1160 E302     		.2byte	0x2e3
 9236 1162 A0010000 		.4byte	0x1a0
 9237 1166 03       		.uleb128 0x3
 9238 1167 91       		.byte	0x91
 9239 1168 BE7F     		.sleb128 -66
 9240 116a 1B       		.uleb128 0x1b
 9241 116b 793000   		.ascii	"y0\000"
 9242 116e 01       		.byte	0x1
 9243 116f E302     		.2byte	0x2e3
 9244 1171 A0010000 		.4byte	0x1a0
 9245 1175 03       		.uleb128 0x3
 9246 1176 91       		.byte	0x91
 9247 1177 BC7F     		.sleb128 -68
 9248 1179 1B       		.uleb128 0x1b
 9249 117a 783100   		.ascii	"x1\000"
 9250 117d 01       		.byte	0x1
 9251 117e E302     		.2byte	0x2e3
 9252 1180 A0010000 		.4byte	0x1a0
 9253 1184 03       		.uleb128 0x3
 9254 1185 91       		.byte	0x91
 9255 1186 BA7F     		.sleb128 -70
 9256 1188 1B       		.uleb128 0x1b
 9257 1189 793100   		.ascii	"y1\000"
 9258 118c 01       		.byte	0x1
 9259 118d E302     		.2byte	0x2e3
 9260 118f A0010000 		.4byte	0x1a0
 9261 1193 03       		.uleb128 0x3
 9262 1194 91       		.byte	0x91
 9263 1195 B87F     		.sleb128 -72
 9264 1197 1B       		.uleb128 0x1b
 9265 1198 783200   		.ascii	"x2\000"
 9266 119b 01       		.byte	0x1
 9267 119c E302     		.2byte	0x2e3
 9268 119e A0010000 		.4byte	0x1a0
 9269 11a2 02       		.uleb128 0x2
 9270 11a3 91       		.byte	0x91
 9271 11a4 00       		.sleb128 0
 9272 11a5 1B       		.uleb128 0x1b
 9273 11a6 793200   		.ascii	"y2\000"
 9274 11a9 01       		.byte	0x1
 9275 11aa E302     		.2byte	0x2e3
 9276 11ac A0010000 		.4byte	0x1a0
 9277 11b0 02       		.uleb128 0x2
 9278 11b1 91       		.byte	0x91
 9279 11b2 04       		.sleb128 4
 9280 11b3 22       		.uleb128 0x22
 9281 11b4 0C090000 		.4byte	.LASF188
 9282 11b8 01       		.byte	0x1
ARM GAS  C:\Users\schmi\AppData\Local\Temp\ccA9az4I.s 			page 183


 9283 11b9 E302     		.2byte	0x2e3
 9284 11bb B6010000 		.4byte	0x1b6
 9285 11bf 02       		.uleb128 0x2
 9286 11c0 91       		.byte	0x91
 9287 11c1 08       		.sleb128 8
 9288 11c2 1F       		.uleb128 0x1f
 9289 11c3 6100     		.ascii	"a\000"
 9290 11c5 01       		.byte	0x1
 9291 11c6 E502     		.2byte	0x2e5
 9292 11c8 A0010000 		.4byte	0x1a0
 9293 11cc 02       		.uleb128 0x2
 9294 11cd 91       		.byte	0x91
 9295 11ce 6E       		.sleb128 -18
 9296 11cf 1F       		.uleb128 0x1f
 9297 11d0 6200     		.ascii	"b\000"
 9298 11d2 01       		.byte	0x1
 9299 11d3 E502     		.2byte	0x2e5
 9300 11d5 A0010000 		.4byte	0x1a0
 9301 11d9 02       		.uleb128 0x2
 9302 11da 91       		.byte	0x91
 9303 11db 6C       		.sleb128 -20
 9304 11dc 1F       		.uleb128 0x1f
 9305 11dd 7900     		.ascii	"y\000"
 9306 11df 01       		.byte	0x1
 9307 11e0 E502     		.2byte	0x2e5
 9308 11e2 A0010000 		.4byte	0x1a0
 9309 11e6 02       		.uleb128 0x2
 9310 11e7 91       		.byte	0x91
 9311 11e8 6A       		.sleb128 -22
 9312 11e9 20       		.uleb128 0x20
 9313 11ea 840C0000 		.4byte	.LASF61
 9314 11ee 01       		.byte	0x1
 9315 11ef E502     		.2byte	0x2e5
 9316 11f1 A0010000 		.4byte	0x1a0
 9317 11f5 02       		.uleb128 0x2
 9318 11f6 91       		.byte	0x91
 9319 11f7 68       		.sleb128 -24
 9320 11f8 20       		.uleb128 0x20
 9321 11f9 2E030000 		.4byte	.LASF209
 9322 11fd 01       		.byte	0x1
 9323 11fe FD02     		.2byte	0x2fd
 9324 1200 A0010000 		.4byte	0x1a0
 9325 1204 02       		.uleb128 0x2
 9326 1205 91       		.byte	0x91
 9327 1206 52       		.sleb128 -46
 9328 1207 20       		.uleb128 0x20
 9329 1208 A4060000 		.4byte	.LASF210
 9330 120c 01       		.byte	0x1
 9331 120d FE02     		.2byte	0x2fe
 9332 120f A0010000 		.4byte	0x1a0
 9333 1213 02       		.uleb128 0x2
 9334 1214 91       		.byte	0x91
 9335 1215 50       		.sleb128 -48
 9336 1216 20       		.uleb128 0x20
 9337 1217 33030000 		.4byte	.LASF211
 9338 121b 01       		.byte	0x1
 9339 121c FF02     		.2byte	0x2ff
ARM GAS  C:\Users\schmi\AppData\Local\Temp\ccA9az4I.s 			page 184


 9340 121e A0010000 		.4byte	0x1a0
 9341 1222 02       		.uleb128 0x2
 9342 1223 91       		.byte	0x91
 9343 1224 4E       		.sleb128 -50
 9344 1225 20       		.uleb128 0x20
 9345 1226 A9060000 		.4byte	.LASF212
 9346 122a 01       		.byte	0x1
 9347 122b 0003     		.2byte	0x300
 9348 122d A0010000 		.4byte	0x1a0
 9349 1231 02       		.uleb128 0x2
 9350 1232 91       		.byte	0x91
 9351 1233 4C       		.sleb128 -52
 9352 1234 20       		.uleb128 0x20
 9353 1235 3E040000 		.4byte	.LASF213
 9354 1239 01       		.byte	0x1
 9355 123a 0103     		.2byte	0x301
 9356 123c A0010000 		.4byte	0x1a0
 9357 1240 02       		.uleb128 0x2
 9358 1241 91       		.byte	0x91
 9359 1242 4A       		.sleb128 -54
 9360 1243 20       		.uleb128 0x20
 9361 1244 23070000 		.4byte	.LASF214
 9362 1248 01       		.byte	0x1
 9363 1249 0203     		.2byte	0x302
 9364 124b A0010000 		.4byte	0x1a0
 9365 124f 02       		.uleb128 0x2
 9366 1250 91       		.byte	0x91
 9367 1251 48       		.sleb128 -56
 9368 1252 1F       		.uleb128 0x1f
 9369 1253 736100   		.ascii	"sa\000"
 9370 1256 01       		.byte	0x1
 9371 1257 0403     		.2byte	0x304
 9372 1259 AB010000 		.4byte	0x1ab
 9373 125d 02       		.uleb128 0x2
 9374 125e 91       		.byte	0x91
 9375 125f 64       		.sleb128 -28
 9376 1260 1F       		.uleb128 0x1f
 9377 1261 736200   		.ascii	"sb\000"
 9378 1264 01       		.byte	0x1
 9379 1265 0503     		.2byte	0x305
 9380 1267 AB010000 		.4byte	0x1ab
 9381 126b 02       		.uleb128 0x2
 9382 126c 91       		.byte	0x91
 9383 126d 60       		.sleb128 -32
 9384 126e 23       		.uleb128 0x23
 9385 126f 2A000000 		.4byte	.LBB13
 9386 1273 0C000000 		.4byte	.LBE13-.LBB13
 9387 1277 89120000 		.4byte	0x1289
 9388 127b 1F       		.uleb128 0x1f
 9389 127c 7400     		.ascii	"t\000"
 9390 127e 01       		.byte	0x1
 9391 127f E902     		.2byte	0x2e9
 9392 1281 A0010000 		.4byte	0x1a0
 9393 1285 02       		.uleb128 0x2
 9394 1286 91       		.byte	0x91
 9395 1287 5E       		.sleb128 -34
 9396 1288 00       		.byte	0
ARM GAS  C:\Users\schmi\AppData\Local\Temp\ccA9az4I.s 			page 185


 9397 1289 23       		.uleb128 0x23
 9398 128a 36000000 		.4byte	.LBB14
 9399 128e 0C000000 		.4byte	.LBE14-.LBB14
 9400 1292 A4120000 		.4byte	0x12a4
 9401 1296 1F       		.uleb128 0x1f
 9402 1297 7400     		.ascii	"t\000"
 9403 1299 01       		.byte	0x1
 9404 129a E902     		.2byte	0x2e9
 9405 129c A0010000 		.4byte	0x1a0
 9406 12a0 02       		.uleb128 0x2
 9407 12a1 91       		.byte	0x91
 9408 12a2 5C       		.sleb128 -36
 9409 12a3 00       		.byte	0
 9410 12a4 23       		.uleb128 0x23
 9411 12a5 4E000000 		.4byte	.LBB15
 9412 12a9 10000000 		.4byte	.LBE15-.LBB15
 9413 12ad BF120000 		.4byte	0x12bf
 9414 12b1 1F       		.uleb128 0x1f
 9415 12b2 7400     		.ascii	"t\000"
 9416 12b4 01       		.byte	0x1
 9417 12b5 EC02     		.2byte	0x2ec
 9418 12b7 A0010000 		.4byte	0x1a0
 9419 12bb 02       		.uleb128 0x2
 9420 12bc 91       		.byte	0x91
 9421 12bd 5A       		.sleb128 -38
 9422 12be 00       		.byte	0
 9423 12bf 23       		.uleb128 0x23
 9424 12c0 5E000000 		.4byte	.LBB16
 9425 12c4 10000000 		.4byte	.LBE16-.LBB16
 9426 12c8 DA120000 		.4byte	0x12da
 9427 12cc 1F       		.uleb128 0x1f
 9428 12cd 7400     		.ascii	"t\000"
 9429 12cf 01       		.byte	0x1
 9430 12d0 EC02     		.2byte	0x2ec
 9431 12d2 A0010000 		.4byte	0x1a0
 9432 12d6 02       		.uleb128 0x2
 9433 12d7 91       		.byte	0x91
 9434 12d8 58       		.sleb128 -40
 9435 12d9 00       		.byte	0
 9436 12da 23       		.uleb128 0x23
 9437 12db 7A000000 		.4byte	.LBB17
 9438 12df 0C000000 		.4byte	.LBE17-.LBB17
 9439 12e3 F5120000 		.4byte	0x12f5
 9440 12e7 1F       		.uleb128 0x1f
 9441 12e8 7400     		.ascii	"t\000"
 9442 12ea 01       		.byte	0x1
 9443 12eb EF02     		.2byte	0x2ef
 9444 12ed A0010000 		.4byte	0x1a0
 9445 12f1 02       		.uleb128 0x2
 9446 12f2 91       		.byte	0x91
 9447 12f3 56       		.sleb128 -42
 9448 12f4 00       		.byte	0
 9449 12f5 23       		.uleb128 0x23
 9450 12f6 86000000 		.4byte	.LBB18
 9451 12fa 0C000000 		.4byte	.LBE18-.LBB18
 9452 12fe 10130000 		.4byte	0x1310
 9453 1302 1F       		.uleb128 0x1f
ARM GAS  C:\Users\schmi\AppData\Local\Temp\ccA9az4I.s 			page 186


 9454 1303 7400     		.ascii	"t\000"
 9455 1305 01       		.byte	0x1
 9456 1306 EF02     		.2byte	0x2ef
 9457 1308 A0010000 		.4byte	0x1a0
 9458 130c 02       		.uleb128 0x2
 9459 130d 91       		.byte	0x91
 9460 130e 54       		.sleb128 -44
 9461 130f 00       		.byte	0
 9462 1310 23       		.uleb128 0x23
 9463 1311 C2010000 		.4byte	.LBB19
 9464 1315 0C000000 		.4byte	.LBE19-.LBB19
 9465 1319 2B130000 		.4byte	0x132b
 9466 131d 1F       		.uleb128 0x1f
 9467 131e 7400     		.ascii	"t\000"
 9468 1320 01       		.byte	0x1
 9469 1321 1903     		.2byte	0x319
 9470 1323 A0010000 		.4byte	0x1a0
 9471 1327 02       		.uleb128 0x2
 9472 1328 91       		.byte	0x91
 9473 1329 46       		.sleb128 -58
 9474 132a 00       		.byte	0
 9475 132b 15       		.uleb128 0x15
 9476 132c 76020000 		.4byte	.LBB20
 9477 1330 0C000000 		.4byte	.LBE20-.LBB20
 9478 1334 1F       		.uleb128 0x1f
 9479 1335 7400     		.ascii	"t\000"
 9480 1337 01       		.byte	0x1
 9481 1338 2A03     		.2byte	0x32a
 9482 133a A0010000 		.4byte	0x1a0
 9483 133e 02       		.uleb128 0x2
 9484 133f 91       		.byte	0x91
 9485 1340 44       		.sleb128 -60
 9486 1341 00       		.byte	0
 9487 1342 00       		.byte	0
 9488 1343 1C       		.uleb128 0x1c
 9489 1344 A3090000 		.4byte	.LASF215
 9490 1348 01       		.byte	0x1
 9491 1349 3003     		.2byte	0x330
 9492 134b 00000000 		.4byte	.LFB151
 9493 134f 72010000 		.4byte	.LFE151-.LFB151
 9494 1353 01       		.uleb128 0x1
 9495 1354 9C       		.byte	0x9c
 9496 1355 AA130000 		.4byte	0x13aa
 9497 1359 1B       		.uleb128 0x1b
 9498 135a 7800     		.ascii	"x\000"
 9499 135c 01       		.byte	0x1
 9500 135d 3003     		.2byte	0x330
 9501 135f A0010000 		.4byte	0x1a0
 9502 1363 02       		.uleb128 0x2
 9503 1364 91       		.byte	0x91
 9504 1365 6E       		.sleb128 -18
 9505 1366 1B       		.uleb128 0x1b
 9506 1367 7900     		.ascii	"y\000"
 9507 1369 01       		.byte	0x1
 9508 136a 3003     		.2byte	0x330
 9509 136c A0010000 		.4byte	0x1a0
 9510 1370 02       		.uleb128 0x2
ARM GAS  C:\Users\schmi\AppData\Local\Temp\ccA9az4I.s 			page 187


 9511 1371 91       		.byte	0x91
 9512 1372 6C       		.sleb128 -20
 9513 1373 1B       		.uleb128 0x1b
 9514 1374 7700     		.ascii	"w\000"
 9515 1376 01       		.byte	0x1
 9516 1377 3003     		.2byte	0x330
 9517 1379 A0010000 		.4byte	0x1a0
 9518 137d 02       		.uleb128 0x2
 9519 137e 91       		.byte	0x91
 9520 137f 6A       		.sleb128 -22
 9521 1380 1B       		.uleb128 0x1b
 9522 1381 6800     		.ascii	"h\000"
 9523 1383 01       		.byte	0x1
 9524 1384 3003     		.2byte	0x330
 9525 1386 A0010000 		.4byte	0x1a0
 9526 138a 02       		.uleb128 0x2
 9527 138b 91       		.byte	0x91
 9528 138c 68       		.sleb128 -24
 9529 138d 1B       		.uleb128 0x1b
 9530 138e 7200     		.ascii	"r\000"
 9531 1390 01       		.byte	0x1
 9532 1391 3003     		.2byte	0x330
 9533 1393 A0010000 		.4byte	0x1a0
 9534 1397 02       		.uleb128 0x2
 9535 1398 91       		.byte	0x91
 9536 1399 00       		.sleb128 0
 9537 139a 22       		.uleb128 0x22
 9538 139b 0C090000 		.4byte	.LASF188
 9539 139f 01       		.byte	0x1
 9540 13a0 3003     		.2byte	0x330
 9541 13a2 B6010000 		.4byte	0x1b6
 9542 13a6 02       		.uleb128 0x2
 9543 13a7 91       		.byte	0x91
 9544 13a8 04       		.sleb128 4
 9545 13a9 00       		.byte	0
 9546 13aa 1C       		.uleb128 0x1c
 9547 13ab 31090000 		.4byte	.LASF216
 9548 13af 01       		.byte	0x1
 9549 13b0 3F03     		.2byte	0x33f
 9550 13b2 00000000 		.4byte	.LFB152
 9551 13b6 CA000000 		.4byte	.LFE152-.LFB152
 9552 13ba 01       		.uleb128 0x1
 9553 13bb 9C       		.byte	0x9c
 9554 13bc 11140000 		.4byte	0x1411
 9555 13c0 1B       		.uleb128 0x1b
 9556 13c1 7800     		.ascii	"x\000"
 9557 13c3 01       		.byte	0x1
 9558 13c4 3F03     		.2byte	0x33f
 9559 13c6 A0010000 		.4byte	0x1a0
 9560 13ca 02       		.uleb128 0x2
 9561 13cb 91       		.byte	0x91
 9562 13cc 6E       		.sleb128 -18
 9563 13cd 1B       		.uleb128 0x1b
 9564 13ce 7900     		.ascii	"y\000"
 9565 13d0 01       		.byte	0x1
 9566 13d1 3F03     		.2byte	0x33f
 9567 13d3 A0010000 		.4byte	0x1a0
ARM GAS  C:\Users\schmi\AppData\Local\Temp\ccA9az4I.s 			page 188


 9568 13d7 02       		.uleb128 0x2
 9569 13d8 91       		.byte	0x91
 9570 13d9 6C       		.sleb128 -20
 9571 13da 1B       		.uleb128 0x1b
 9572 13db 7700     		.ascii	"w\000"
 9573 13dd 01       		.byte	0x1
 9574 13de 3F03     		.2byte	0x33f
 9575 13e0 A0010000 		.4byte	0x1a0
 9576 13e4 02       		.uleb128 0x2
 9577 13e5 91       		.byte	0x91
 9578 13e6 6A       		.sleb128 -22
 9579 13e7 1B       		.uleb128 0x1b
 9580 13e8 6800     		.ascii	"h\000"
 9581 13ea 01       		.byte	0x1
 9582 13eb 3F03     		.2byte	0x33f
 9583 13ed A0010000 		.4byte	0x1a0
 9584 13f1 02       		.uleb128 0x2
 9585 13f2 91       		.byte	0x91
 9586 13f3 68       		.sleb128 -24
 9587 13f4 1B       		.uleb128 0x1b
 9588 13f5 7200     		.ascii	"r\000"
 9589 13f7 01       		.byte	0x1
 9590 13f8 3F03     		.2byte	0x33f
 9591 13fa A0010000 		.4byte	0x1a0
 9592 13fe 02       		.uleb128 0x2
 9593 13ff 91       		.byte	0x91
 9594 1400 00       		.sleb128 0
 9595 1401 22       		.uleb128 0x22
 9596 1402 0C090000 		.4byte	.LASF188
 9597 1406 01       		.byte	0x1
 9598 1407 3F03     		.2byte	0x33f
 9599 1409 B6010000 		.4byte	0x1b6
 9600 140d 02       		.uleb128 0x2
 9601 140e 91       		.byte	0x91
 9602 140f 04       		.sleb128 4
 9603 1410 00       		.byte	0
 9604 1411 1C       		.uleb128 0x1c
 9605 1412 EA010000 		.4byte	.LASF217
 9606 1416 01       		.byte	0x1
 9607 1417 4B03     		.2byte	0x34b
 9608 1419 00000000 		.4byte	.LFB153
 9609 141d 82000000 		.4byte	.LFE153-.LFB153
 9610 1421 01       		.uleb128 0x1
 9611 1422 9C       		.byte	0x9c
 9612 1423 6B140000 		.4byte	0x146b
 9613 1427 1B       		.uleb128 0x1b
 9614 1428 7800     		.ascii	"x\000"
 9615 142a 01       		.byte	0x1
 9616 142b 4B03     		.2byte	0x34b
 9617 142d A0010000 		.4byte	0x1a0
 9618 1431 02       		.uleb128 0x2
 9619 1432 91       		.byte	0x91
 9620 1433 6E       		.sleb128 -18
 9621 1434 1B       		.uleb128 0x1b
 9622 1435 7900     		.ascii	"y\000"
 9623 1437 01       		.byte	0x1
 9624 1438 4B03     		.2byte	0x34b
ARM GAS  C:\Users\schmi\AppData\Local\Temp\ccA9az4I.s 			page 189


 9625 143a A0010000 		.4byte	0x1a0
 9626 143e 02       		.uleb128 0x2
 9627 143f 91       		.byte	0x91
 9628 1440 6C       		.sleb128 -20
 9629 1441 1B       		.uleb128 0x1b
 9630 1442 7700     		.ascii	"w\000"
 9631 1444 01       		.byte	0x1
 9632 1445 4B03     		.2byte	0x34b
 9633 1447 A0010000 		.4byte	0x1a0
 9634 144b 02       		.uleb128 0x2
 9635 144c 91       		.byte	0x91
 9636 144d 6A       		.sleb128 -22
 9637 144e 1B       		.uleb128 0x1b
 9638 144f 6800     		.ascii	"h\000"
 9639 1451 01       		.byte	0x1
 9640 1452 4B03     		.2byte	0x34b
 9641 1454 A0010000 		.4byte	0x1a0
 9642 1458 02       		.uleb128 0x2
 9643 1459 91       		.byte	0x91
 9644 145a 68       		.sleb128 -24
 9645 145b 22       		.uleb128 0x22
 9646 145c 0C090000 		.4byte	.LASF188
 9647 1460 01       		.byte	0x1
 9648 1461 4B03     		.2byte	0x34b
 9649 1463 B6010000 		.4byte	0x1b6
 9650 1467 02       		.uleb128 0x2
 9651 1468 91       		.byte	0x91
 9652 1469 00       		.sleb128 0
 9653 146a 00       		.byte	0
 9654 146b 1C       		.uleb128 0x1c
 9655 146c 76070000 		.4byte	.LASF218
 9656 1470 01       		.byte	0x1
 9657 1471 5303     		.2byte	0x353
 9658 1473 00000000 		.4byte	.LFB154
 9659 1477 C0030000 		.4byte	.LFE154-.LFB154
 9660 147b 01       		.uleb128 0x1
 9661 147c 9C       		.byte	0x9c
 9662 147d E4150000 		.4byte	0x15e4
 9663 1481 1B       		.uleb128 0x1b
 9664 1482 7800     		.ascii	"x\000"
 9665 1484 01       		.byte	0x1
 9666 1485 5303     		.2byte	0x353
 9667 1487 A0010000 		.4byte	0x1a0
 9668 148b 02       		.uleb128 0x2
 9669 148c 91       		.byte	0x91
 9670 148d 4E       		.sleb128 -50
 9671 148e 1B       		.uleb128 0x1b
 9672 148f 7900     		.ascii	"y\000"
 9673 1491 01       		.byte	0x1
 9674 1492 5303     		.2byte	0x353
 9675 1494 A0010000 		.4byte	0x1a0
 9676 1498 02       		.uleb128 0x2
 9677 1499 91       		.byte	0x91
 9678 149a 4C       		.sleb128 -52
 9679 149b 1B       		.uleb128 0x1b
 9680 149c 6300     		.ascii	"c\000"
 9681 149e 01       		.byte	0x1
ARM GAS  C:\Users\schmi\AppData\Local\Temp\ccA9az4I.s 			page 190


 9682 149f 5303     		.2byte	0x353
 9683 14a1 37000000 		.4byte	0x37
 9684 14a5 02       		.uleb128 0x2
 9685 14a6 91       		.byte	0x91
 9686 14a7 4B       		.sleb128 -53
 9687 14a8 22       		.uleb128 0x22
 9688 14a9 0C090000 		.4byte	.LASF188
 9689 14ad 01       		.byte	0x1
 9690 14ae 5303     		.2byte	0x353
 9691 14b0 B6010000 		.4byte	0x1b6
 9692 14b4 02       		.uleb128 0x2
 9693 14b5 91       		.byte	0x91
 9694 14b6 48       		.sleb128 -56
 9695 14b7 1B       		.uleb128 0x1b
 9696 14b8 626700   		.ascii	"bg\000"
 9697 14bb 01       		.byte	0x1
 9698 14bc 5303     		.2byte	0x353
 9699 14be B6010000 		.4byte	0x1b6
 9700 14c2 02       		.uleb128 0x2
 9701 14c3 91       		.byte	0x91
 9702 14c4 00       		.sleb128 0
 9703 14c5 22       		.uleb128 0x22
 9704 14c6 34080000 		.4byte	.LASF219
 9705 14ca 01       		.byte	0x1
 9706 14cb 5303     		.2byte	0x353
 9707 14cd 2C000000 		.4byte	0x2c
 9708 14d1 02       		.uleb128 0x2
 9709 14d2 91       		.byte	0x91
 9710 14d3 04       		.sleb128 4
 9711 14d4 23       		.uleb128 0x23
 9712 14d5 74000000 		.4byte	.LBB21
 9713 14d9 66010000 		.4byte	.LBE21-.LBB21
 9714 14dd 1F150000 		.4byte	0x151f
 9715 14e1 1F       		.uleb128 0x1f
 9716 14e2 6900     		.ascii	"i\000"
 9717 14e4 01       		.byte	0x1
 9718 14e5 5D03     		.2byte	0x35d
 9719 14e7 95010000 		.4byte	0x195
 9720 14eb 02       		.uleb128 0x2
 9721 14ec 91       		.byte	0x91
 9722 14ed 6F       		.sleb128 -17
 9723 14ee 15       		.uleb128 0x15
 9724 14ef 7C000000 		.4byte	.LBB22
 9725 14f3 46010000 		.4byte	.LBE22-.LBB22
 9726 14f7 20       		.uleb128 0x20
 9727 14f8 B0040000 		.4byte	.LASF220
 9728 14fc 01       		.byte	0x1
 9729 14fd 5E03     		.2byte	0x35e
 9730 14ff 2C000000 		.4byte	0x2c
 9731 1503 02       		.uleb128 0x2
 9732 1504 91       		.byte	0x91
 9733 1505 6E       		.sleb128 -18
 9734 1506 15       		.uleb128 0x15
 9735 1507 92000000 		.4byte	.LBB23
 9736 150b 30010000 		.4byte	.LBE23-.LBB23
 9737 150f 1F       		.uleb128 0x1f
 9738 1510 6A00     		.ascii	"j\000"
ARM GAS  C:\Users\schmi\AppData\Local\Temp\ccA9az4I.s 			page 191


 9739 1512 01       		.byte	0x1
 9740 1513 5F03     		.2byte	0x35f
 9741 1515 95010000 		.4byte	0x195
 9742 1519 02       		.uleb128 0x2
 9743 151a 91       		.byte	0x91
 9744 151b 6D       		.sleb128 -19
 9745 151c 00       		.byte	0
 9746 151d 00       		.byte	0
 9747 151e 00       		.byte	0
 9748 151f 15       		.uleb128 0x15
 9749 1520 3A020000 		.4byte	.LBB24
 9750 1524 7E010000 		.4byte	.LBE24-.LBB24
 9751 1528 20       		.uleb128 0x20
 9752 1529 DC020000 		.4byte	.LASF59
 9753 152d 01       		.byte	0x1
 9754 152e 7903     		.2byte	0x379
 9755 1530 68020000 		.4byte	0x268
 9756 1534 02       		.uleb128 0x2
 9757 1535 91       		.byte	0x91
 9758 1536 5C       		.sleb128 -36
 9759 1537 20       		.uleb128 0x20
 9760 1538 DC060000 		.4byte	.LASF58
 9761 153c 01       		.byte	0x1
 9762 153d 7A03     		.2byte	0x37a
 9763 153f 62020000 		.4byte	0x262
 9764 1543 02       		.uleb128 0x2
 9765 1544 91       		.byte	0x91
 9766 1545 58       		.sleb128 -40
 9767 1546 1F       		.uleb128 0x1f
 9768 1547 626F00   		.ascii	"bo\000"
 9769 154a 01       		.byte	0x1
 9770 154b 7C03     		.2byte	0x37c
 9771 154d 45000000 		.4byte	0x45
 9772 1551 02       		.uleb128 0x2
 9773 1552 91       		.byte	0x91
 9774 1553 6A       		.sleb128 -22
 9775 1554 1F       		.uleb128 0x1f
 9776 1555 7700     		.ascii	"w\000"
 9777 1557 01       		.byte	0x1
 9778 1558 7D03     		.2byte	0x37d
 9779 155a 2C000000 		.4byte	0x2c
 9780 155e 02       		.uleb128 0x2
 9781 155f 91       		.byte	0x91
 9782 1560 57       		.sleb128 -41
 9783 1561 1F       		.uleb128 0x1f
 9784 1562 6800     		.ascii	"h\000"
 9785 1564 01       		.byte	0x1
 9786 1565 7E03     		.2byte	0x37e
 9787 1567 2C000000 		.4byte	0x2c
 9788 156b 02       		.uleb128 0x2
 9789 156c 91       		.byte	0x91
 9790 156d 56       		.sleb128 -42
 9791 156e 1F       		.uleb128 0x1f
 9792 156f 786F00   		.ascii	"xo\000"
 9793 1572 01       		.byte	0x1
 9794 1573 7F03     		.2byte	0x37f
 9795 1575 95010000 		.4byte	0x195
ARM GAS  C:\Users\schmi\AppData\Local\Temp\ccA9az4I.s 			page 192


 9796 1579 02       		.uleb128 0x2
 9797 157a 91       		.byte	0x91
 9798 157b 55       		.sleb128 -43
 9799 157c 1F       		.uleb128 0x1f
 9800 157d 796F00   		.ascii	"yo\000"
 9801 1580 01       		.byte	0x1
 9802 1581 8003     		.2byte	0x380
 9803 1583 95010000 		.4byte	0x195
 9804 1587 02       		.uleb128 0x2
 9805 1588 91       		.byte	0x91
 9806 1589 54       		.sleb128 -44
 9807 158a 1F       		.uleb128 0x1f
 9808 158b 787800   		.ascii	"xx\000"
 9809 158e 01       		.byte	0x1
 9810 158f 8103     		.2byte	0x381
 9811 1591 2C000000 		.4byte	0x2c
 9812 1595 02       		.uleb128 0x2
 9813 1596 91       		.byte	0x91
 9814 1597 69       		.sleb128 -23
 9815 1598 1F       		.uleb128 0x1f
 9816 1599 797900   		.ascii	"yy\000"
 9817 159c 01       		.byte	0x1
 9818 159d 8103     		.2byte	0x381
 9819 159f 2C000000 		.4byte	0x2c
 9820 15a3 02       		.uleb128 0x2
 9821 15a4 91       		.byte	0x91
 9822 15a5 68       		.sleb128 -24
 9823 15a6 20       		.uleb128 0x20
 9824 15a7 17070000 		.4byte	.LASF221
 9825 15ab 01       		.byte	0x1
 9826 15ac 8103     		.2byte	0x381
 9827 15ae 2C000000 		.4byte	0x2c
 9828 15b2 02       		.uleb128 0x2
 9829 15b3 91       		.byte	0x91
 9830 15b4 67       		.sleb128 -25
 9831 15b5 1F       		.uleb128 0x1f
 9832 15b6 62697400 		.ascii	"bit\000"
 9833 15ba 01       		.byte	0x1
 9834 15bb 8103     		.2byte	0x381
 9835 15bd 2C000000 		.4byte	0x2c
 9836 15c1 02       		.uleb128 0x2
 9837 15c2 91       		.byte	0x91
 9838 15c3 66       		.sleb128 -26
 9839 15c4 20       		.uleb128 0x20
 9840 15c5 48000000 		.4byte	.LASF222
 9841 15c9 01       		.byte	0x1
 9842 15ca 8203     		.2byte	0x382
 9843 15cc A0010000 		.4byte	0x1a0
 9844 15d0 02       		.uleb128 0x2
 9845 15d1 91       		.byte	0x91
 9846 15d2 64       		.sleb128 -28
 9847 15d3 20       		.uleb128 0x20
 9848 15d4 F1050000 		.4byte	.LASF223
 9849 15d8 01       		.byte	0x1
 9850 15d9 8203     		.2byte	0x382
 9851 15db A0010000 		.4byte	0x1a0
 9852 15df 02       		.uleb128 0x2
ARM GAS  C:\Users\schmi\AppData\Local\Temp\ccA9az4I.s 			page 193


 9853 15e0 91       		.byte	0x91
 9854 15e1 62       		.sleb128 -30
 9855 15e2 00       		.byte	0
 9856 15e3 00       		.byte	0
 9857 15e4 1E       		.uleb128 0x1e
 9858 15e5 7A0C0000 		.4byte	.LASF224
 9859 15e9 01       		.byte	0x1
 9860 15ea AE03     		.2byte	0x3ae
 9861 15ec A0010000 		.4byte	0x1a0
 9862 15f0 00000000 		.4byte	.LFB155
 9863 15f4 18000000 		.4byte	.LFE155-.LFB155
 9864 15f8 01       		.uleb128 0x1
 9865 15f9 9C       		.byte	0x9c
 9866 15fa 1E       		.uleb128 0x1e
 9867 15fb 83080000 		.4byte	.LASF225
 9868 15ff 01       		.byte	0x1
 9869 1600 B203     		.2byte	0x3b2
 9870 1602 A0010000 		.4byte	0x1a0
 9871 1606 00000000 		.4byte	.LFB156
 9872 160a 18000000 		.4byte	.LFE156-.LFB156
 9873 160e 01       		.uleb128 0x1
 9874 160f 9C       		.byte	0x9c
 9875 1610 1E       		.uleb128 0x1e
 9876 1611 5A0B0000 		.4byte	.LASF226
 9877 1615 01       		.byte	0x1
 9878 1616 B603     		.2byte	0x3b6
 9879 1618 9E020000 		.4byte	0x29e
 9880 161c 00000000 		.4byte	.LFB157
 9881 1620 14000000 		.4byte	.LFE157-.LFB157
 9882 1624 01       		.uleb128 0x1
 9883 1625 9C       		.byte	0x9c
 9884 1626 1E       		.uleb128 0x1e
 9885 1627 8F0B0000 		.4byte	.LASF227
 9886 162b 01       		.byte	0x1
 9887 162c BA03     		.2byte	0x3ba
 9888 162e A0010000 		.4byte	0x1a0
 9889 1632 00000000 		.4byte	.LFB158
 9890 1636 18000000 		.4byte	.LFE158-.LFB158
 9891 163a 01       		.uleb128 0x1
 9892 163b 9C       		.byte	0x9c
 9893 163c 1E       		.uleb128 0x1e
 9894 163d 9E0B0000 		.4byte	.LASF228
 9895 1641 01       		.byte	0x1
 9896 1642 BE03     		.2byte	0x3be
 9897 1644 A0010000 		.4byte	0x1a0
 9898 1648 00000000 		.4byte	.LFB159
 9899 164c 18000000 		.4byte	.LFE159-.LFB159
 9900 1650 01       		.uleb128 0x1
 9901 1651 9C       		.byte	0x9c
 9902 1652 0E       		.uleb128 0xe
 9903 1653 62160000 		.4byte	0x1662
 9904 1657 62160000 		.4byte	0x1662
 9905 165b 0F       		.uleb128 0xf
 9906 165c 88010000 		.4byte	0x188
 9907 1660 57       		.byte	0x57
 9908 1661 00       		.byte	0
 9909 1662 05       		.uleb128 0x5
ARM GAS  C:\Users\schmi\AppData\Local\Temp\ccA9az4I.s 			page 194


 9910 1663 2C000000 		.4byte	0x2c
 9911 1667 12       		.uleb128 0x12
 9912 1668 80040000 		.4byte	.LASF229
 9913 166c 06       		.byte	0x6
 9914 166d 55       		.byte	0x55
 9915 166e 78160000 		.4byte	0x1678
 9916 1672 05       		.uleb128 0x5
 9917 1673 03       		.byte	0x3
 9918 1674 00000000 		.4byte	SST35S_init_seq
 9919 1678 05       		.uleb128 0x5
 9920 1679 52160000 		.4byte	0x1652
 9921 167d 0E       		.uleb128 0xe
 9922 167e 8E160000 		.4byte	0x168e
 9923 1682 8E160000 		.4byte	0x168e
 9924 1686 25       		.uleb128 0x25
 9925 1687 88010000 		.4byte	0x188
 9926 168b FF04     		.2byte	0x4ff
 9927 168d 00       		.byte	0
 9928 168e 05       		.uleb128 0x5
 9929 168f 37000000 		.4byte	0x37
 9930 1693 12       		.uleb128 0x12
 9931 1694 71070000 		.4byte	.LASF230
 9932 1698 0A       		.byte	0xa
 9933 1699 08       		.byte	0x8
 9934 169a A4160000 		.4byte	0x16a4
 9935 169e 05       		.uleb128 0x5
 9936 169f 03       		.byte	0x3
 9937 16a0 58000000 		.4byte	font
 9938 16a4 05       		.uleb128 0x5
 9939 16a5 7D160000 		.4byte	0x167d
 9940 16a9 16       		.uleb128 0x16
 9941 16aa 54414700 		.ascii	"TAG\000"
 9942 16ae 01       		.byte	0x1
 9943 16af 68       		.byte	0x68
 9944 16b0 93000000 		.4byte	0x93
 9945 16b4 05       		.uleb128 0x5
 9946 16b5 03       		.byte	0x3
 9947 16b6 00000000 		.4byte	TAG
 9948 16ba 12       		.uleb128 0x12
 9949 16bb 88070000 		.4byte	.LASF231
 9950 16bf 01       		.byte	0x1
 9951 16c0 6A       		.byte	0x6a
 9952 16c1 2C000000 		.4byte	0x2c
 9953 16c5 05       		.uleb128 0x5
 9954 16c6 03       		.byte	0x3
 9955 16c7 00000000 		.4byte	colstart
 9956 16cb 12       		.uleb128 0x12
 9957 16cc E3060000 		.4byte	.LASF232
 9958 16d0 01       		.byte	0x1
 9959 16d1 6B       		.byte	0x6b
 9960 16d2 2C000000 		.4byte	0x2c
 9961 16d6 05       		.uleb128 0x5
 9962 16d7 03       		.byte	0x3
 9963 16d8 01000000 		.4byte	rowstart
 9964 16dc 12       		.uleb128 0x12
 9965 16dd 400C0000 		.4byte	.LASF233
 9966 16e1 01       		.byte	0x1
ARM GAS  C:\Users\schmi\AppData\Local\Temp\ccA9az4I.s 			page 195


 9967 16e2 6C       		.byte	0x6c
 9968 16e3 2C000000 		.4byte	0x2c
 9969 16e7 05       		.uleb128 0x5
 9970 16e8 03       		.byte	0x3
 9971 16e9 02000000 		.4byte	xstart
 9972 16ed 12       		.uleb128 0x12
 9973 16ee 1C070000 		.4byte	.LASF234
 9974 16f2 01       		.byte	0x1
 9975 16f3 6D       		.byte	0x6d
 9976 16f4 2C000000 		.4byte	0x2c
 9977 16f8 05       		.uleb128 0x5
 9978 16f9 03       		.byte	0x3
 9979 16fa 03000000 		.4byte	ystart
 9980 16fe 12       		.uleb128 0x12
 9981 16ff C5020000 		.4byte	.LASF235
 9982 1703 01       		.byte	0x1
 9983 1704 6F       		.byte	0x6f
 9984 1705 2C000000 		.4byte	0x2c
 9985 1709 05       		.uleb128 0x5
 9986 170a 03       		.byte	0x3
 9987 170b 04000000 		.4byte	textsize
 9988 170f 12       		.uleb128 0x12
 9989 1710 6F080000 		.4byte	.LASF236
 9990 1714 01       		.byte	0x1
 9991 1715 70       		.byte	0x70
 9992 1716 2C000000 		.4byte	0x2c
 9993 171a 05       		.uleb128 0x5
 9994 171b 03       		.byte	0x3
 9995 171c 05000000 		.4byte	rotation
 9996 1720 12       		.uleb128 0x12
 9997 1721 8D050000 		.4byte	.LASF237
 9998 1725 01       		.byte	0x1
 9999 1726 72       		.byte	0x72
 10000 1727 A0010000 		.4byte	0x1a0
 10001 172b 05       		.uleb128 0x5
 10002 172c 03       		.byte	0x3
 10003 172d 06000000 		.4byte	_width
 10004 1731 12       		.uleb128 0x12
 10005 1732 12090000 		.4byte	.LASF238
 10006 1736 01       		.byte	0x1
 10007 1737 73       		.byte	0x73
 10008 1738 45000000 		.4byte	0x45
 10009 173c 05       		.uleb128 0x5
 10010 173d 03       		.byte	0x3
 10011 173e 08000000 		.4byte	_height
 10012 1742 12       		.uleb128 0x12
 10013 1743 92060000 		.4byte	.LASF239
 10014 1747 01       		.byte	0x1
 10015 1748 74       		.byte	0x74
 10016 1749 45000000 		.4byte	0x45
 10017 174d 05       		.uleb128 0x5
 10018 174e 03       		.byte	0x3
 10019 174f 0A000000 		.4byte	cursor_x
 10020 1753 12       		.uleb128 0x12
 10021 1754 9B060000 		.4byte	.LASF240
 10022 1758 01       		.byte	0x1
 10023 1759 75       		.byte	0x75
ARM GAS  C:\Users\schmi\AppData\Local\Temp\ccA9az4I.s 			page 196


 10024 175a 45000000 		.4byte	0x45
 10025 175e 05       		.uleb128 0x5
 10026 175f 03       		.byte	0x3
 10027 1760 0C000000 		.4byte	cursor_y
 10028 1764 12       		.uleb128 0x12
 10029 1765 0C090000 		.4byte	.LASF188
 10030 1769 01       		.byte	0x1
 10031 176a 76       		.byte	0x76
 10032 176b B6010000 		.4byte	0x1b6
 10033 176f 05       		.uleb128 0x5
 10034 1770 03       		.byte	0x3
 10035 1771 0E000000 		.4byte	color
 10036 1775 12       		.uleb128 0x12
 10037 1776 CC060000 		.4byte	.LASF241
 10038 177a 01       		.byte	0x1
 10039 177b 77       		.byte	0x77
 10040 177c B6010000 		.4byte	0x1b6
 10041 1780 05       		.uleb128 0x5
 10042 1781 03       		.byte	0x3
 10043 1782 10000000 		.4byte	bgcolor
 10044 1786 12       		.uleb128 0x12
 10045 1787 78080000 		.4byte	.LASF242
 10046 178b 01       		.byte	0x1
 10047 178c 79       		.byte	0x79
 10048 178d 81000000 		.4byte	0x81
 10049 1791 05       		.uleb128 0x5
 10050 1792 03       		.byte	0x3
 10051 1793 12000000 		.4byte	wrap
 10052 1797 12       		.uleb128 0x12
 10053 1798 85090000 		.4byte	.LASF243
 10054 179c 01       		.byte	0x1
 10055 179d 7B       		.byte	0x7b
 10056 179e A8170000 		.4byte	0x17a8
 10057 17a2 05       		.uleb128 0x5
 10058 17a3 03       		.byte	0x3
 10059 17a4 14000000 		.4byte	gfxFont
 10060 17a8 04       		.uleb128 0x4
 10061 17a9 04       		.byte	0x4
 10062 17aa 6E020000 		.4byte	0x26e
 10063 17ae 12       		.uleb128 0x12
 10064 17af 890C0000 		.4byte	.LASF244
 10065 17b3 01       		.byte	0x1
 10066 17b4 7D       		.byte	0x7d
 10067 17b5 D2050000 		.4byte	0x5d2
 10068 17b9 05       		.uleb128 0x5
 10069 17ba 03       		.byte	0x3
 10070 17bb 18000000 		.4byte	TFT_RB_out
 10071 17bf 26       		.uleb128 0x26
 10072 17c0 130B0000 		.4byte	.LASF245
 10073 17c4 0B       		.byte	0xb
 10074 17c5 40       		.byte	0x40
 10075 17c6 7F040000 		.4byte	0x47f
 10076 17ca 26       		.uleb128 0x26
 10077 17cb 9D050000 		.4byte	.LASF246
 10078 17cf 0B       		.byte	0xb
 10079 17d0 47       		.byte	0x47
 10080 17d1 8A040000 		.4byte	0x48a
ARM GAS  C:\Users\schmi\AppData\Local\Temp\ccA9az4I.s 			page 197


 10081 17d5 26       		.uleb128 0x26
 10082 17d6 59000000 		.4byte	.LASF247
 10083 17da 0B       		.byte	0xb
 10084 17db 4A       		.byte	0x4a
 10085 17dc 7F040000 		.4byte	0x47f
 10086 17e0 26       		.uleb128 0x26
 10087 17e1 F3080000 		.4byte	.LASF248
 10088 17e5 0C       		.byte	0xc
 10089 17e6 48       		.byte	0x48
 10090 17e7 95040000 		.4byte	0x495
 10091 17eb 26       		.uleb128 0x26
 10092 17ec 60030000 		.4byte	.LASF249
 10093 17f0 0D       		.byte	0xd
 10094 17f1 44       		.byte	0x44
 10095 17f2 7F040000 		.4byte	0x47f
 10096 17f6 27       		.uleb128 0x27
 10097 17f7 36060000 		.4byte	.LASF250
 10098 17fb 0E       		.byte	0xe
 10099 17fc 1207     		.2byte	0x712
 10100 17fe 02180000 		.4byte	0x1802
 10101 1802 28       		.uleb128 0x28
 10102 1803 AB010000 		.4byte	0x1ab
 10103 1807 00       		.byte	0
 10104              		.section	.debug_abbrev,"",%progbits
 10105              	.Ldebug_abbrev0:
 10106 0000 01       		.uleb128 0x1
 10107 0001 11       		.uleb128 0x11
 10108 0002 01       		.byte	0x1
 10109 0003 25       		.uleb128 0x25
 10110 0004 0E       		.uleb128 0xe
 10111 0005 13       		.uleb128 0x13
 10112 0006 0B       		.uleb128 0xb
 10113 0007 03       		.uleb128 0x3
 10114 0008 0E       		.uleb128 0xe
 10115 0009 1B       		.uleb128 0x1b
 10116 000a 0E       		.uleb128 0xe
 10117 000b 55       		.uleb128 0x55
 10118 000c 17       		.uleb128 0x17
 10119 000d 11       		.uleb128 0x11
 10120 000e 01       		.uleb128 0x1
 10121 000f 10       		.uleb128 0x10
 10122 0010 17       		.uleb128 0x17
 10123 0011 00       		.byte	0
 10124 0012 00       		.byte	0
 10125 0013 02       		.uleb128 0x2
 10126 0014 24       		.uleb128 0x24
 10127 0015 00       		.byte	0
 10128 0016 0B       		.uleb128 0xb
 10129 0017 0B       		.uleb128 0xb
 10130 0018 3E       		.uleb128 0x3e
 10131 0019 0B       		.uleb128 0xb
 10132 001a 03       		.uleb128 0x3
 10133 001b 0E       		.uleb128 0xe
 10134 001c 00       		.byte	0
 10135 001d 00       		.byte	0
 10136 001e 03       		.uleb128 0x3
 10137 001f 16       		.uleb128 0x16
ARM GAS  C:\Users\schmi\AppData\Local\Temp\ccA9az4I.s 			page 198


 10138 0020 00       		.byte	0
 10139 0021 03       		.uleb128 0x3
 10140 0022 0E       		.uleb128 0xe
 10141 0023 3A       		.uleb128 0x3a
 10142 0024 0B       		.uleb128 0xb
 10143 0025 3B       		.uleb128 0x3b
 10144 0026 0B       		.uleb128 0xb
 10145 0027 49       		.uleb128 0x49
 10146 0028 13       		.uleb128 0x13
 10147 0029 00       		.byte	0
 10148 002a 00       		.byte	0
 10149 002b 04       		.uleb128 0x4
 10150 002c 0F       		.uleb128 0xf
 10151 002d 00       		.byte	0
 10152 002e 0B       		.uleb128 0xb
 10153 002f 0B       		.uleb128 0xb
 10154 0030 49       		.uleb128 0x49
 10155 0031 13       		.uleb128 0x13
 10156 0032 00       		.byte	0
 10157 0033 00       		.byte	0
 10158 0034 05       		.uleb128 0x5
 10159 0035 26       		.uleb128 0x26
 10160 0036 00       		.byte	0
 10161 0037 49       		.uleb128 0x49
 10162 0038 13       		.uleb128 0x13
 10163 0039 00       		.byte	0
 10164 003a 00       		.byte	0
 10165 003b 06       		.uleb128 0x6
 10166 003c 04       		.uleb128 0x4
 10167 003d 01       		.byte	0x1
 10168 003e 0B       		.uleb128 0xb
 10169 003f 0B       		.uleb128 0xb
 10170 0040 49       		.uleb128 0x49
 10171 0041 13       		.uleb128 0x13
 10172 0042 3A       		.uleb128 0x3a
 10173 0043 0B       		.uleb128 0xb
 10174 0044 3B       		.uleb128 0x3b
 10175 0045 0B       		.uleb128 0xb
 10176 0046 01       		.uleb128 0x1
 10177 0047 13       		.uleb128 0x13
 10178 0048 00       		.byte	0
 10179 0049 00       		.byte	0
 10180 004a 07       		.uleb128 0x7
 10181 004b 28       		.uleb128 0x28
 10182 004c 00       		.byte	0
 10183 004d 03       		.uleb128 0x3
 10184 004e 0E       		.uleb128 0xe
 10185 004f 1C       		.uleb128 0x1c
 10186 0050 0B       		.uleb128 0xb
 10187 0051 00       		.byte	0
 10188 0052 00       		.byte	0
 10189 0053 08       		.uleb128 0x8
 10190 0054 28       		.uleb128 0x28
 10191 0055 00       		.byte	0
 10192 0056 03       		.uleb128 0x3
 10193 0057 0E       		.uleb128 0xe
 10194 0058 1C       		.uleb128 0x1c
ARM GAS  C:\Users\schmi\AppData\Local\Temp\ccA9az4I.s 			page 199


 10195 0059 0D       		.uleb128 0xd
 10196 005a 00       		.byte	0
 10197 005b 00       		.byte	0
 10198 005c 09       		.uleb128 0x9
 10199 005d 24       		.uleb128 0x24
 10200 005e 00       		.byte	0
 10201 005f 0B       		.uleb128 0xb
 10202 0060 0B       		.uleb128 0xb
 10203 0061 3E       		.uleb128 0x3e
 10204 0062 0B       		.uleb128 0xb
 10205 0063 03       		.uleb128 0x3
 10206 0064 08       		.uleb128 0x8
 10207 0065 00       		.byte	0
 10208 0066 00       		.byte	0
 10209 0067 0A       		.uleb128 0xa
 10210 0068 13       		.uleb128 0x13
 10211 0069 01       		.byte	0x1
 10212 006a 0B       		.uleb128 0xb
 10213 006b 0B       		.uleb128 0xb
 10214 006c 3A       		.uleb128 0x3a
 10215 006d 0B       		.uleb128 0xb
 10216 006e 3B       		.uleb128 0x3b
 10217 006f 0B       		.uleb128 0xb
 10218 0070 01       		.uleb128 0x1
 10219 0071 13       		.uleb128 0x13
 10220 0072 00       		.byte	0
 10221 0073 00       		.byte	0
 10222 0074 0B       		.uleb128 0xb
 10223 0075 0D       		.uleb128 0xd
 10224 0076 00       		.byte	0
 10225 0077 03       		.uleb128 0x3
 10226 0078 0E       		.uleb128 0xe
 10227 0079 3A       		.uleb128 0x3a
 10228 007a 0B       		.uleb128 0xb
 10229 007b 3B       		.uleb128 0x3b
 10230 007c 0B       		.uleb128 0xb
 10231 007d 49       		.uleb128 0x49
 10232 007e 13       		.uleb128 0x13
 10233 007f 38       		.uleb128 0x38
 10234 0080 0B       		.uleb128 0xb
 10235 0081 00       		.byte	0
 10236 0082 00       		.byte	0
 10237 0083 0C       		.uleb128 0xc
 10238 0084 28       		.uleb128 0x28
 10239 0085 00       		.byte	0
 10240 0086 03       		.uleb128 0x3
 10241 0087 0E       		.uleb128 0xe
 10242 0088 1C       		.uleb128 0x1c
 10243 0089 05       		.uleb128 0x5
 10244 008a 00       		.byte	0
 10245 008b 00       		.byte	0
 10246 008c 0D       		.uleb128 0xd
 10247 008d 28       		.uleb128 0x28
 10248 008e 00       		.byte	0
 10249 008f 03       		.uleb128 0x3
 10250 0090 08       		.uleb128 0x8
 10251 0091 1C       		.uleb128 0x1c
ARM GAS  C:\Users\schmi\AppData\Local\Temp\ccA9az4I.s 			page 200


 10252 0092 0B       		.uleb128 0xb
 10253 0093 00       		.byte	0
 10254 0094 00       		.byte	0
 10255 0095 0E       		.uleb128 0xe
 10256 0096 01       		.uleb128 0x1
 10257 0097 01       		.byte	0x1
 10258 0098 49       		.uleb128 0x49
 10259 0099 13       		.uleb128 0x13
 10260 009a 01       		.uleb128 0x1
 10261 009b 13       		.uleb128 0x13
 10262 009c 00       		.byte	0
 10263 009d 00       		.byte	0
 10264 009e 0F       		.uleb128 0xf
 10265 009f 21       		.uleb128 0x21
 10266 00a0 00       		.byte	0
 10267 00a1 49       		.uleb128 0x49
 10268 00a2 13       		.uleb128 0x13
 10269 00a3 2F       		.uleb128 0x2f
 10270 00a4 0B       		.uleb128 0xb
 10271 00a5 00       		.byte	0
 10272 00a6 00       		.byte	0
 10273 00a7 10       		.uleb128 0x10
 10274 00a8 0D       		.uleb128 0xd
 10275 00a9 00       		.byte	0
 10276 00aa 03       		.uleb128 0x3
 10277 00ab 08       		.uleb128 0x8
 10278 00ac 3A       		.uleb128 0x3a
 10279 00ad 0B       		.uleb128 0xb
 10280 00ae 3B       		.uleb128 0x3b
 10281 00af 0B       		.uleb128 0xb
 10282 00b0 49       		.uleb128 0x49
 10283 00b1 13       		.uleb128 0x13
 10284 00b2 38       		.uleb128 0x38
 10285 00b3 0B       		.uleb128 0xb
 10286 00b4 00       		.byte	0
 10287 00b5 00       		.byte	0
 10288 00b6 11       		.uleb128 0x11
 10289 00b7 2E       		.uleb128 0x2e
 10290 00b8 01       		.byte	0x1
 10291 00b9 3F       		.uleb128 0x3f
 10292 00ba 19       		.uleb128 0x19
 10293 00bb 03       		.uleb128 0x3
 10294 00bc 0E       		.uleb128 0xe
 10295 00bd 3A       		.uleb128 0x3a
 10296 00be 0B       		.uleb128 0xb
 10297 00bf 3B       		.uleb128 0x3b
 10298 00c0 0B       		.uleb128 0xb
 10299 00c1 27       		.uleb128 0x27
 10300 00c2 19       		.uleb128 0x19
 10301 00c3 11       		.uleb128 0x11
 10302 00c4 01       		.uleb128 0x1
 10303 00c5 12       		.uleb128 0x12
 10304 00c6 06       		.uleb128 0x6
 10305 00c7 40       		.uleb128 0x40
 10306 00c8 18       		.uleb128 0x18
 10307 00c9 9642     		.uleb128 0x2116
 10308 00cb 19       		.uleb128 0x19
ARM GAS  C:\Users\schmi\AppData\Local\Temp\ccA9az4I.s 			page 201


 10309 00cc 01       		.uleb128 0x1
 10310 00cd 13       		.uleb128 0x13
 10311 00ce 00       		.byte	0
 10312 00cf 00       		.byte	0
 10313 00d0 12       		.uleb128 0x12
 10314 00d1 34       		.uleb128 0x34
 10315 00d2 00       		.byte	0
 10316 00d3 03       		.uleb128 0x3
 10317 00d4 0E       		.uleb128 0xe
 10318 00d5 3A       		.uleb128 0x3a
 10319 00d6 0B       		.uleb128 0xb
 10320 00d7 3B       		.uleb128 0x3b
 10321 00d8 0B       		.uleb128 0xb
 10322 00d9 49       		.uleb128 0x49
 10323 00da 13       		.uleb128 0x13
 10324 00db 02       		.uleb128 0x2
 10325 00dc 18       		.uleb128 0x18
 10326 00dd 00       		.byte	0
 10327 00de 00       		.byte	0
 10328 00df 13       		.uleb128 0x13
 10329 00e0 2E       		.uleb128 0x2e
 10330 00e1 01       		.byte	0x1
 10331 00e2 03       		.uleb128 0x3
 10332 00e3 0E       		.uleb128 0xe
 10333 00e4 3A       		.uleb128 0x3a
 10334 00e5 0B       		.uleb128 0xb
 10335 00e6 3B       		.uleb128 0x3b
 10336 00e7 0B       		.uleb128 0xb
 10337 00e8 27       		.uleb128 0x27
 10338 00e9 19       		.uleb128 0x19
 10339 00ea 49       		.uleb128 0x49
 10340 00eb 13       		.uleb128 0x13
 10341 00ec 11       		.uleb128 0x11
 10342 00ed 01       		.uleb128 0x1
 10343 00ee 12       		.uleb128 0x12
 10344 00ef 06       		.uleb128 0x6
 10345 00f0 40       		.uleb128 0x40
 10346 00f1 18       		.uleb128 0x18
 10347 00f2 9642     		.uleb128 0x2116
 10348 00f4 19       		.uleb128 0x19
 10349 00f5 01       		.uleb128 0x1
 10350 00f6 13       		.uleb128 0x13
 10351 00f7 00       		.byte	0
 10352 00f8 00       		.byte	0
 10353 00f9 14       		.uleb128 0x14
 10354 00fa 05       		.uleb128 0x5
 10355 00fb 00       		.byte	0
 10356 00fc 03       		.uleb128 0x3
 10357 00fd 0E       		.uleb128 0xe
 10358 00fe 3A       		.uleb128 0x3a
 10359 00ff 0B       		.uleb128 0xb
 10360 0100 3B       		.uleb128 0x3b
 10361 0101 0B       		.uleb128 0xb
 10362 0102 49       		.uleb128 0x49
 10363 0103 13       		.uleb128 0x13
 10364 0104 02       		.uleb128 0x2
 10365 0105 18       		.uleb128 0x18
ARM GAS  C:\Users\schmi\AppData\Local\Temp\ccA9az4I.s 			page 202


 10366 0106 00       		.byte	0
 10367 0107 00       		.byte	0
 10368 0108 15       		.uleb128 0x15
 10369 0109 0B       		.uleb128 0xb
 10370 010a 01       		.byte	0x1
 10371 010b 11       		.uleb128 0x11
 10372 010c 01       		.uleb128 0x1
 10373 010d 12       		.uleb128 0x12
 10374 010e 06       		.uleb128 0x6
 10375 010f 00       		.byte	0
 10376 0110 00       		.byte	0
 10377 0111 16       		.uleb128 0x16
 10378 0112 34       		.uleb128 0x34
 10379 0113 00       		.byte	0
 10380 0114 03       		.uleb128 0x3
 10381 0115 08       		.uleb128 0x8
 10382 0116 3A       		.uleb128 0x3a
 10383 0117 0B       		.uleb128 0xb
 10384 0118 3B       		.uleb128 0x3b
 10385 0119 0B       		.uleb128 0xb
 10386 011a 49       		.uleb128 0x49
 10387 011b 13       		.uleb128 0x13
 10388 011c 02       		.uleb128 0x2
 10389 011d 18       		.uleb128 0x18
 10390 011e 00       		.byte	0
 10391 011f 00       		.byte	0
 10392 0120 17       		.uleb128 0x17
 10393 0121 2E       		.uleb128 0x2e
 10394 0122 01       		.byte	0x1
 10395 0123 3F       		.uleb128 0x3f
 10396 0124 19       		.uleb128 0x19
 10397 0125 03       		.uleb128 0x3
 10398 0126 0E       		.uleb128 0xe
 10399 0127 3A       		.uleb128 0x3a
 10400 0128 0B       		.uleb128 0xb
 10401 0129 3B       		.uleb128 0x3b
 10402 012a 0B       		.uleb128 0xb
 10403 012b 11       		.uleb128 0x11
 10404 012c 01       		.uleb128 0x1
 10405 012d 12       		.uleb128 0x12
 10406 012e 06       		.uleb128 0x6
 10407 012f 40       		.uleb128 0x40
 10408 0130 18       		.uleb128 0x18
 10409 0131 9642     		.uleb128 0x2116
 10410 0133 19       		.uleb128 0x19
 10411 0134 01       		.uleb128 0x1
 10412 0135 13       		.uleb128 0x13
 10413 0136 00       		.byte	0
 10414 0137 00       		.byte	0
 10415 0138 18       		.uleb128 0x18
 10416 0139 05       		.uleb128 0x5
 10417 013a 00       		.byte	0
 10418 013b 03       		.uleb128 0x3
 10419 013c 08       		.uleb128 0x8
 10420 013d 3A       		.uleb128 0x3a
 10421 013e 0B       		.uleb128 0xb
 10422 013f 3B       		.uleb128 0x3b
ARM GAS  C:\Users\schmi\AppData\Local\Temp\ccA9az4I.s 			page 203


 10423 0140 0B       		.uleb128 0xb
 10424 0141 49       		.uleb128 0x49
 10425 0142 13       		.uleb128 0x13
 10426 0143 02       		.uleb128 0x2
 10427 0144 18       		.uleb128 0x18
 10428 0145 00       		.byte	0
 10429 0146 00       		.byte	0
 10430 0147 19       		.uleb128 0x19
 10431 0148 2E       		.uleb128 0x2e
 10432 0149 00       		.byte	0
 10433 014a 3F       		.uleb128 0x3f
 10434 014b 19       		.uleb128 0x19
 10435 014c 03       		.uleb128 0x3
 10436 014d 0E       		.uleb128 0xe
 10437 014e 3A       		.uleb128 0x3a
 10438 014f 0B       		.uleb128 0xb
 10439 0150 3B       		.uleb128 0x3b
 10440 0151 05       		.uleb128 0x5
 10441 0152 49       		.uleb128 0x49
 10442 0153 13       		.uleb128 0x13
 10443 0154 11       		.uleb128 0x11
 10444 0155 01       		.uleb128 0x1
 10445 0156 12       		.uleb128 0x12
 10446 0157 06       		.uleb128 0x6
 10447 0158 40       		.uleb128 0x40
 10448 0159 18       		.uleb128 0x18
 10449 015a 9642     		.uleb128 0x2116
 10450 015c 19       		.uleb128 0x19
 10451 015d 00       		.byte	0
 10452 015e 00       		.byte	0
 10453 015f 1A       		.uleb128 0x1a
 10454 0160 2E       		.uleb128 0x2e
 10455 0161 01       		.byte	0x1
 10456 0162 03       		.uleb128 0x3
 10457 0163 0E       		.uleb128 0xe
 10458 0164 3A       		.uleb128 0x3a
 10459 0165 0B       		.uleb128 0xb
 10460 0166 3B       		.uleb128 0x3b
 10461 0167 05       		.uleb128 0x5
 10462 0168 27       		.uleb128 0x27
 10463 0169 19       		.uleb128 0x19
 10464 016a 11       		.uleb128 0x11
 10465 016b 01       		.uleb128 0x1
 10466 016c 12       		.uleb128 0x12
 10467 016d 06       		.uleb128 0x6
 10468 016e 40       		.uleb128 0x40
 10469 016f 18       		.uleb128 0x18
 10470 0170 9642     		.uleb128 0x2116
 10471 0172 19       		.uleb128 0x19
 10472 0173 01       		.uleb128 0x1
 10473 0174 13       		.uleb128 0x13
 10474 0175 00       		.byte	0
 10475 0176 00       		.byte	0
 10476 0177 1B       		.uleb128 0x1b
 10477 0178 05       		.uleb128 0x5
 10478 0179 00       		.byte	0
 10479 017a 03       		.uleb128 0x3
ARM GAS  C:\Users\schmi\AppData\Local\Temp\ccA9az4I.s 			page 204


 10480 017b 08       		.uleb128 0x8
 10481 017c 3A       		.uleb128 0x3a
 10482 017d 0B       		.uleb128 0xb
 10483 017e 3B       		.uleb128 0x3b
 10484 017f 05       		.uleb128 0x5
 10485 0180 49       		.uleb128 0x49
 10486 0181 13       		.uleb128 0x13
 10487 0182 02       		.uleb128 0x2
 10488 0183 18       		.uleb128 0x18
 10489 0184 00       		.byte	0
 10490 0185 00       		.byte	0
 10491 0186 1C       		.uleb128 0x1c
 10492 0187 2E       		.uleb128 0x2e
 10493 0188 01       		.byte	0x1
 10494 0189 3F       		.uleb128 0x3f
 10495 018a 19       		.uleb128 0x19
 10496 018b 03       		.uleb128 0x3
 10497 018c 0E       		.uleb128 0xe
 10498 018d 3A       		.uleb128 0x3a
 10499 018e 0B       		.uleb128 0xb
 10500 018f 3B       		.uleb128 0x3b
 10501 0190 05       		.uleb128 0x5
 10502 0191 27       		.uleb128 0x27
 10503 0192 19       		.uleb128 0x19
 10504 0193 11       		.uleb128 0x11
 10505 0194 01       		.uleb128 0x1
 10506 0195 12       		.uleb128 0x12
 10507 0196 06       		.uleb128 0x6
 10508 0197 40       		.uleb128 0x40
 10509 0198 18       		.uleb128 0x18
 10510 0199 9642     		.uleb128 0x2116
 10511 019b 19       		.uleb128 0x19
 10512 019c 01       		.uleb128 0x1
 10513 019d 13       		.uleb128 0x13
 10514 019e 00       		.byte	0
 10515 019f 00       		.byte	0
 10516 01a0 1D       		.uleb128 0x1d
 10517 01a1 2E       		.uleb128 0x2e
 10518 01a2 01       		.byte	0x1
 10519 01a3 3F       		.uleb128 0x3f
 10520 01a4 19       		.uleb128 0x19
 10521 01a5 03       		.uleb128 0x3
 10522 01a6 0E       		.uleb128 0xe
 10523 01a7 3A       		.uleb128 0x3a
 10524 01a8 0B       		.uleb128 0xb
 10525 01a9 3B       		.uleb128 0x3b
 10526 01aa 05       		.uleb128 0x5
 10527 01ab 27       		.uleb128 0x27
 10528 01ac 19       		.uleb128 0x19
 10529 01ad 11       		.uleb128 0x11
 10530 01ae 01       		.uleb128 0x1
 10531 01af 12       		.uleb128 0x12
 10532 01b0 06       		.uleb128 0x6
 10533 01b1 40       		.uleb128 0x40
 10534 01b2 18       		.uleb128 0x18
 10535 01b3 9742     		.uleb128 0x2117
 10536 01b5 19       		.uleb128 0x19
ARM GAS  C:\Users\schmi\AppData\Local\Temp\ccA9az4I.s 			page 205


 10537 01b6 01       		.uleb128 0x1
 10538 01b7 13       		.uleb128 0x13
 10539 01b8 00       		.byte	0
 10540 01b9 00       		.byte	0
 10541 01ba 1E       		.uleb128 0x1e
 10542 01bb 2E       		.uleb128 0x2e
 10543 01bc 00       		.byte	0
 10544 01bd 3F       		.uleb128 0x3f
 10545 01be 19       		.uleb128 0x19
 10546 01bf 03       		.uleb128 0x3
 10547 01c0 0E       		.uleb128 0xe
 10548 01c1 3A       		.uleb128 0x3a
 10549 01c2 0B       		.uleb128 0xb
 10550 01c3 3B       		.uleb128 0x3b
 10551 01c4 05       		.uleb128 0x5
 10552 01c5 27       		.uleb128 0x27
 10553 01c6 19       		.uleb128 0x19
 10554 01c7 49       		.uleb128 0x49
 10555 01c8 13       		.uleb128 0x13
 10556 01c9 11       		.uleb128 0x11
 10557 01ca 01       		.uleb128 0x1
 10558 01cb 12       		.uleb128 0x12
 10559 01cc 06       		.uleb128 0x6
 10560 01cd 40       		.uleb128 0x40
 10561 01ce 18       		.uleb128 0x18
 10562 01cf 9742     		.uleb128 0x2117
 10563 01d1 19       		.uleb128 0x19
 10564 01d2 00       		.byte	0
 10565 01d3 00       		.byte	0
 10566 01d4 1F       		.uleb128 0x1f
 10567 01d5 34       		.uleb128 0x34
 10568 01d6 00       		.byte	0
 10569 01d7 03       		.uleb128 0x3
 10570 01d8 08       		.uleb128 0x8
 10571 01d9 3A       		.uleb128 0x3a
 10572 01da 0B       		.uleb128 0xb
 10573 01db 3B       		.uleb128 0x3b
 10574 01dc 05       		.uleb128 0x5
 10575 01dd 49       		.uleb128 0x49
 10576 01de 13       		.uleb128 0x13
 10577 01df 02       		.uleb128 0x2
 10578 01e0 18       		.uleb128 0x18
 10579 01e1 00       		.byte	0
 10580 01e2 00       		.byte	0
 10581 01e3 20       		.uleb128 0x20
 10582 01e4 34       		.uleb128 0x34
 10583 01e5 00       		.byte	0
 10584 01e6 03       		.uleb128 0x3
 10585 01e7 0E       		.uleb128 0xe
 10586 01e8 3A       		.uleb128 0x3a
 10587 01e9 0B       		.uleb128 0xb
 10588 01ea 3B       		.uleb128 0x3b
 10589 01eb 05       		.uleb128 0x5
 10590 01ec 49       		.uleb128 0x49
 10591 01ed 13       		.uleb128 0x13
 10592 01ee 02       		.uleb128 0x2
 10593 01ef 18       		.uleb128 0x18
ARM GAS  C:\Users\schmi\AppData\Local\Temp\ccA9az4I.s 			page 206


 10594 01f0 00       		.byte	0
 10595 01f1 00       		.byte	0
 10596 01f2 21       		.uleb128 0x21
 10597 01f3 2E       		.uleb128 0x2e
 10598 01f4 01       		.byte	0x1
 10599 01f5 03       		.uleb128 0x3
 10600 01f6 0E       		.uleb128 0xe
 10601 01f7 3A       		.uleb128 0x3a
 10602 01f8 0B       		.uleb128 0xb
 10603 01f9 3B       		.uleb128 0x3b
 10604 01fa 05       		.uleb128 0x5
 10605 01fb 27       		.uleb128 0x27
 10606 01fc 19       		.uleb128 0x19
 10607 01fd 11       		.uleb128 0x11
 10608 01fe 01       		.uleb128 0x1
 10609 01ff 12       		.uleb128 0x12
 10610 0200 06       		.uleb128 0x6
 10611 0201 40       		.uleb128 0x40
 10612 0202 18       		.uleb128 0x18
 10613 0203 9742     		.uleb128 0x2117
 10614 0205 19       		.uleb128 0x19
 10615 0206 01       		.uleb128 0x1
 10616 0207 13       		.uleb128 0x13
 10617 0208 00       		.byte	0
 10618 0209 00       		.byte	0
 10619 020a 22       		.uleb128 0x22
 10620 020b 05       		.uleb128 0x5
 10621 020c 00       		.byte	0
 10622 020d 03       		.uleb128 0x3
 10623 020e 0E       		.uleb128 0xe
 10624 020f 3A       		.uleb128 0x3a
 10625 0210 0B       		.uleb128 0xb
 10626 0211 3B       		.uleb128 0x3b
 10627 0212 05       		.uleb128 0x5
 10628 0213 49       		.uleb128 0x49
 10629 0214 13       		.uleb128 0x13
 10630 0215 02       		.uleb128 0x2
 10631 0216 18       		.uleb128 0x18
 10632 0217 00       		.byte	0
 10633 0218 00       		.byte	0
 10634 0219 23       		.uleb128 0x23
 10635 021a 0B       		.uleb128 0xb
 10636 021b 01       		.byte	0x1
 10637 021c 11       		.uleb128 0x11
 10638 021d 01       		.uleb128 0x1
 10639 021e 12       		.uleb128 0x12
 10640 021f 06       		.uleb128 0x6
 10641 0220 01       		.uleb128 0x1
 10642 0221 13       		.uleb128 0x13
 10643 0222 00       		.byte	0
 10644 0223 00       		.byte	0
 10645 0224 24       		.uleb128 0x24
 10646 0225 2E       		.uleb128 0x2e
 10647 0226 00       		.byte	0
 10648 0227 3F       		.uleb128 0x3f
 10649 0228 19       		.uleb128 0x19
 10650 0229 03       		.uleb128 0x3
ARM GAS  C:\Users\schmi\AppData\Local\Temp\ccA9az4I.s 			page 207


 10651 022a 0E       		.uleb128 0xe
 10652 022b 3A       		.uleb128 0x3a
 10653 022c 0B       		.uleb128 0xb
 10654 022d 3B       		.uleb128 0x3b
 10655 022e 05       		.uleb128 0x5
 10656 022f 27       		.uleb128 0x27
 10657 0230 19       		.uleb128 0x19
 10658 0231 11       		.uleb128 0x11
 10659 0232 01       		.uleb128 0x1
 10660 0233 12       		.uleb128 0x12
 10661 0234 06       		.uleb128 0x6
 10662 0235 40       		.uleb128 0x40
 10663 0236 18       		.uleb128 0x18
 10664 0237 9642     		.uleb128 0x2116
 10665 0239 19       		.uleb128 0x19
 10666 023a 00       		.byte	0
 10667 023b 00       		.byte	0
 10668 023c 25       		.uleb128 0x25
 10669 023d 21       		.uleb128 0x21
 10670 023e 00       		.byte	0
 10671 023f 49       		.uleb128 0x49
 10672 0240 13       		.uleb128 0x13
 10673 0241 2F       		.uleb128 0x2f
 10674 0242 05       		.uleb128 0x5
 10675 0243 00       		.byte	0
 10676 0244 00       		.byte	0
 10677 0245 26       		.uleb128 0x26
 10678 0246 34       		.uleb128 0x34
 10679 0247 00       		.byte	0
 10680 0248 03       		.uleb128 0x3
 10681 0249 0E       		.uleb128 0xe
 10682 024a 3A       		.uleb128 0x3a
 10683 024b 0B       		.uleb128 0xb
 10684 024c 3B       		.uleb128 0x3b
 10685 024d 0B       		.uleb128 0xb
 10686 024e 49       		.uleb128 0x49
 10687 024f 13       		.uleb128 0x13
 10688 0250 3F       		.uleb128 0x3f
 10689 0251 19       		.uleb128 0x19
 10690 0252 3C       		.uleb128 0x3c
 10691 0253 19       		.uleb128 0x19
 10692 0254 00       		.byte	0
 10693 0255 00       		.byte	0
 10694 0256 27       		.uleb128 0x27
 10695 0257 34       		.uleb128 0x34
 10696 0258 00       		.byte	0
 10697 0259 03       		.uleb128 0x3
 10698 025a 0E       		.uleb128 0xe
 10699 025b 3A       		.uleb128 0x3a
 10700 025c 0B       		.uleb128 0xb
 10701 025d 3B       		.uleb128 0x3b
 10702 025e 05       		.uleb128 0x5
 10703 025f 49       		.uleb128 0x49
 10704 0260 13       		.uleb128 0x13
 10705 0261 3F       		.uleb128 0x3f
 10706 0262 19       		.uleb128 0x19
 10707 0263 3C       		.uleb128 0x3c
ARM GAS  C:\Users\schmi\AppData\Local\Temp\ccA9az4I.s 			page 208


 10708 0264 19       		.uleb128 0x19
 10709 0265 00       		.byte	0
 10710 0266 00       		.byte	0
 10711 0267 28       		.uleb128 0x28
 10712 0268 35       		.uleb128 0x35
 10713 0269 00       		.byte	0
 10714 026a 49       		.uleb128 0x49
 10715 026b 13       		.uleb128 0x13
 10716 026c 00       		.byte	0
 10717 026d 00       		.byte	0
 10718 026e 00       		.byte	0
 10719              		.section	.debug_aranges,"",%progbits
 10720 0000 74010000 		.4byte	0x174
 10721 0004 0200     		.2byte	0x2
 10722 0006 00000000 		.4byte	.Ldebug_info0
 10723 000a 04       		.byte	0x4
 10724 000b 00       		.byte	0
 10725 000c 0000     		.2byte	0
 10726 000e 0000     		.2byte	0
 10727 0010 00000000 		.4byte	.LFB116
 10728 0014 84000000 		.4byte	.LFE116-.LFB116
 10729 0018 00000000 		.4byte	.LFB117
 10730 001c C4000000 		.4byte	.LFE117-.LFB117
 10731 0020 00000000 		.4byte	.LFB118
 10732 0024 68010000 		.4byte	.LFE118-.LFB118
 10733 0028 00000000 		.4byte	.LFB119
 10734 002c 24000000 		.4byte	.LFE119-.LFB119
 10735 0030 00000000 		.4byte	.LFB120
 10736 0034 0E000000 		.4byte	.LFE120-.LFB120
 10737 0038 00000000 		.4byte	.LFB121
 10738 003c B0000000 		.4byte	.LFE121-.LFB121
 10739 0040 00000000 		.4byte	.LFB122
 10740 0044 F8000000 		.4byte	.LFE122-.LFB122
 10741 0048 00000000 		.4byte	.LFB123
 10742 004c 30000000 		.4byte	.LFE123-.LFB123
 10743 0050 00000000 		.4byte	.LFB124
 10744 0054 20000000 		.4byte	.LFE124-.LFB124
 10745 0058 00000000 		.4byte	.LFB125
 10746 005c 2C000000 		.4byte	.LFE125-.LFB125
 10747 0060 00000000 		.4byte	.LFB126
 10748 0064 30000000 		.4byte	.LFE126-.LFB126
 10749 0068 00000000 		.4byte	.LFB127
 10750 006c 14000000 		.4byte	.LFE127-.LFB127
 10751 0070 00000000 		.4byte	.LFB128
 10752 0074 14000000 		.4byte	.LFE128-.LFB128
 10753 0078 00000000 		.4byte	.LFB129
 10754 007c 20000000 		.4byte	.LFE129-.LFB129
 10755 0080 00000000 		.4byte	.LFB130
 10756 0084 28000000 		.4byte	.LFE130-.LFB130
 10757 0088 00000000 		.4byte	.LFB131
 10758 008c 50000000 		.4byte	.LFE131-.LFB131
 10759 0090 00000000 		.4byte	.LFB132
 10760 0094 EC000000 		.4byte	.LFE132-.LFB132
 10761 0098 00000000 		.4byte	.LFB133
 10762 009c 5C030000 		.4byte	.LFE133-.LFB133
 10763 00a0 00000000 		.4byte	.LFB134
 10764 00a4 28000000 		.4byte	.LFE134-.LFB134
ARM GAS  C:\Users\schmi\AppData\Local\Temp\ccA9az4I.s 			page 209


 10765 00a8 00000000 		.4byte	.LFB135
 10766 00ac 2E000000 		.4byte	.LFE135-.LFB135
 10767 00b0 00000000 		.4byte	.LFB136
 10768 00b4 14020000 		.4byte	.LFE136-.LFB136
 10769 00b8 00000000 		.4byte	.LFB137
 10770 00bc 34000000 		.4byte	.LFE137-.LFB137
 10771 00c0 00000000 		.4byte	.LFB138
 10772 00c4 14000000 		.4byte	.LFE138-.LFB138
 10773 00c8 00000000 		.4byte	.LFB139
 10774 00cc 18010000 		.4byte	.LFE139-.LFB139
 10775 00d0 00000000 		.4byte	.LFB140
 10776 00d4 8C000000 		.4byte	.LFE140-.LFB140
 10777 00d8 00000000 		.4byte	.LFB141
 10778 00dc C4000000 		.4byte	.LFE141-.LFB141
 10779 00e0 00000000 		.4byte	.LFB142
 10780 00e4 C8000000 		.4byte	.LFE142-.LFB142
 10781 00e8 00000000 		.4byte	.LFB143
 10782 00ec 42010000 		.4byte	.LFE143-.LFB143
 10783 00f0 00000000 		.4byte	.LFB144
 10784 00f4 26000000 		.4byte	.LFE144-.LFB144
 10785 00f8 00000000 		.4byte	.LFB145
 10786 00fc D6010000 		.4byte	.LFE145-.LFB145
 10787 0100 00000000 		.4byte	.LFB146
 10788 0104 A6010000 		.4byte	.LFE146-.LFB146
 10789 0108 00000000 		.4byte	.LFB147
 10790 010c 60000000 		.4byte	.LFE147-.LFB147
 10791 0110 00000000 		.4byte	.LFB148
 10792 0114 62010000 		.4byte	.LFE148-.LFB148
 10793 0118 00000000 		.4byte	.LFB149
 10794 011c 74000000 		.4byte	.LFE149-.LFB149
 10795 0120 00000000 		.4byte	.LFB150
 10796 0124 BE020000 		.4byte	.LFE150-.LFB150
 10797 0128 00000000 		.4byte	.LFB151
 10798 012c 72010000 		.4byte	.LFE151-.LFB151
 10799 0130 00000000 		.4byte	.LFB152
 10800 0134 CA000000 		.4byte	.LFE152-.LFB152
 10801 0138 00000000 		.4byte	.LFB153
 10802 013c 82000000 		.4byte	.LFE153-.LFB153
 10803 0140 00000000 		.4byte	.LFB154
 10804 0144 C0030000 		.4byte	.LFE154-.LFB154
 10805 0148 00000000 		.4byte	.LFB155
 10806 014c 18000000 		.4byte	.LFE155-.LFB155
 10807 0150 00000000 		.4byte	.LFB156
 10808 0154 18000000 		.4byte	.LFE156-.LFB156
 10809 0158 00000000 		.4byte	.LFB157
 10810 015c 14000000 		.4byte	.LFE157-.LFB157
 10811 0160 00000000 		.4byte	.LFB158
 10812 0164 18000000 		.4byte	.LFE158-.LFB158
 10813 0168 00000000 		.4byte	.LFB159
 10814 016c 18000000 		.4byte	.LFE159-.LFB159
 10815 0170 00000000 		.4byte	0
 10816 0174 00000000 		.4byte	0
 10817              		.section	.debug_ranges,"",%progbits
 10818              	.Ldebug_ranges0:
 10819 0000 00000000 		.4byte	.LFB116
 10820 0004 84000000 		.4byte	.LFE116
 10821 0008 00000000 		.4byte	.LFB117
ARM GAS  C:\Users\schmi\AppData\Local\Temp\ccA9az4I.s 			page 210


 10822 000c C4000000 		.4byte	.LFE117
 10823 0010 00000000 		.4byte	.LFB118
 10824 0014 68010000 		.4byte	.LFE118
 10825 0018 00000000 		.4byte	.LFB119
 10826 001c 24000000 		.4byte	.LFE119
 10827 0020 00000000 		.4byte	.LFB120
 10828 0024 0E000000 		.4byte	.LFE120
 10829 0028 00000000 		.4byte	.LFB121
 10830 002c B0000000 		.4byte	.LFE121
 10831 0030 00000000 		.4byte	.LFB122
 10832 0034 F8000000 		.4byte	.LFE122
 10833 0038 00000000 		.4byte	.LFB123
 10834 003c 30000000 		.4byte	.LFE123
 10835 0040 00000000 		.4byte	.LFB124
 10836 0044 20000000 		.4byte	.LFE124
 10837 0048 00000000 		.4byte	.LFB125
 10838 004c 2C000000 		.4byte	.LFE125
 10839 0050 00000000 		.4byte	.LFB126
 10840 0054 30000000 		.4byte	.LFE126
 10841 0058 00000000 		.4byte	.LFB127
 10842 005c 14000000 		.4byte	.LFE127
 10843 0060 00000000 		.4byte	.LFB128
 10844 0064 14000000 		.4byte	.LFE128
 10845 0068 00000000 		.4byte	.LFB129
 10846 006c 20000000 		.4byte	.LFE129
 10847 0070 00000000 		.4byte	.LFB130
 10848 0074 28000000 		.4byte	.LFE130
 10849 0078 00000000 		.4byte	.LFB131
 10850 007c 50000000 		.4byte	.LFE131
 10851 0080 00000000 		.4byte	.LFB132
 10852 0084 EC000000 		.4byte	.LFE132
 10853 0088 00000000 		.4byte	.LFB133
 10854 008c 5C030000 		.4byte	.LFE133
 10855 0090 00000000 		.4byte	.LFB134
 10856 0094 28000000 		.4byte	.LFE134
 10857 0098 00000000 		.4byte	.LFB135
 10858 009c 2E000000 		.4byte	.LFE135
 10859 00a0 00000000 		.4byte	.LFB136
 10860 00a4 14020000 		.4byte	.LFE136
 10861 00a8 00000000 		.4byte	.LFB137
 10862 00ac 34000000 		.4byte	.LFE137
 10863 00b0 00000000 		.4byte	.LFB138
 10864 00b4 14000000 		.4byte	.LFE138
 10865 00b8 00000000 		.4byte	.LFB139
 10866 00bc 18010000 		.4byte	.LFE139
 10867 00c0 00000000 		.4byte	.LFB140
 10868 00c4 8C000000 		.4byte	.LFE140
 10869 00c8 00000000 		.4byte	.LFB141
 10870 00cc C4000000 		.4byte	.LFE141
 10871 00d0 00000000 		.4byte	.LFB142
 10872 00d4 C8000000 		.4byte	.LFE142
 10873 00d8 00000000 		.4byte	.LFB143
 10874 00dc 42010000 		.4byte	.LFE143
 10875 00e0 00000000 		.4byte	.LFB144
 10876 00e4 26000000 		.4byte	.LFE144
 10877 00e8 00000000 		.4byte	.LFB145
 10878 00ec D6010000 		.4byte	.LFE145
ARM GAS  C:\Users\schmi\AppData\Local\Temp\ccA9az4I.s 			page 211


 10879 00f0 00000000 		.4byte	.LFB146
 10880 00f4 A6010000 		.4byte	.LFE146
 10881 00f8 00000000 		.4byte	.LFB147
 10882 00fc 60000000 		.4byte	.LFE147
 10883 0100 00000000 		.4byte	.LFB148
 10884 0104 62010000 		.4byte	.LFE148
 10885 0108 00000000 		.4byte	.LFB149
 10886 010c 74000000 		.4byte	.LFE149
 10887 0110 00000000 		.4byte	.LFB150
 10888 0114 BE020000 		.4byte	.LFE150
 10889 0118 00000000 		.4byte	.LFB151
 10890 011c 72010000 		.4byte	.LFE151
 10891 0120 00000000 		.4byte	.LFB152
 10892 0124 CA000000 		.4byte	.LFE152
 10893 0128 00000000 		.4byte	.LFB153
 10894 012c 82000000 		.4byte	.LFE153
 10895 0130 00000000 		.4byte	.LFB154
 10896 0134 C0030000 		.4byte	.LFE154
 10897 0138 00000000 		.4byte	.LFB155
 10898 013c 18000000 		.4byte	.LFE155
 10899 0140 00000000 		.4byte	.LFB156
 10900 0144 18000000 		.4byte	.LFE156
 10901 0148 00000000 		.4byte	.LFB157
 10902 014c 14000000 		.4byte	.LFE157
 10903 0150 00000000 		.4byte	.LFB158
 10904 0154 18000000 		.4byte	.LFE158
 10905 0158 00000000 		.4byte	.LFB159
 10906 015c 18000000 		.4byte	.LFE159
 10907 0160 00000000 		.4byte	0
 10908 0164 00000000 		.4byte	0
 10909              		.section	.debug_line,"",%progbits
 10910              	.Ldebug_line0:
 10911 0000 3C090000 		.section	.debug_str,"MS",%progbits,1
 10911      02007102 
 10911      00000201 
 10911      FB0E0D00 
 10911      01010101 
 10912              	.LASF145:
 10913 0000 6C657665 		.ascii	"level\000"
 10913      6C00
 10914              	.LASF27:
 10915 0006 52435F45 		.ascii	"RC_ERROR_CHECKSUM\000"
 10915      52524F52 
 10915      5F434845 
 10915      434B5355 
 10915      4D00
 10916              	.LASF50:
 10917 0018 5446545F 		.ascii	"TFT_color_t\000"
 10917      636F6C6F 
 10917      725F7400 
 10918              	.LASF193:
 10919 0024 5446545F 		.ascii	"TFT_fastVLine\000"
 10919      66617374 
 10919      564C696E 
 10919      6500
 10920              	.LASF77:
 10921 0032 4359414E 		.ascii	"CYAN\000"
ARM GAS  C:\Users\schmi\AppData\Local\Temp\ccA9az4I.s 			page 212


 10921      00
 10922              	.LASF46:
 10923 0037 73697A65 		.ascii	"sizetype\000"
 10923      74797065 
 10923      00
 10924              	.LASF55:
 10925 0040 784F6666 		.ascii	"xOffset\000"
 10925      73657400 
 10926              	.LASF222:
 10927 0048 786F3136 		.ascii	"xo16\000"
 10927      00
 10928              	.LASF66:
 10929 004d 5446545F 		.ascii	"TFT_rot_180\000"
 10929      726F745F 
 10929      31383000 
 10930              	.LASF247:
 10931 0059 45455F41 		.ascii	"EE_ApplicationMode\000"
 10931      70706C69 
 10931      63617469 
 10931      6F6E4D6F 
 10931      646500
 10932              	.LASF97:
 10933 006c 53543737 		.ascii	"ST7735_INVOFF\000"
 10933      33355F49 
 10933      4E564F46 
 10933      4600
 10934              	.LASF124:
 10935 007a 53543737 		.ascii	"ST7735_GMCTRP1\000"
 10935      33355F47 
 10935      4D435452 
 10935      503100
 10936              	.LASF49:
 10937 0089 696E7433 		.ascii	"int32_t\000"
 10937      325F7400 
 10938              	.LASF90:
 10939 0091 53543737 		.ascii	"ST7735_SWRESET\000"
 10939      33355F53 
 10939      57524553 
 10939      455400
 10940              	.LASF24:
 10941 00a0 52435F45 		.ascii	"RC_ERROR_BUSY\000"
 10941      52524F52 
 10941      5F425553 
 10941      5900
 10942              	.LASF109:
 10943 00ae 53543737 		.ascii	"ST7735_FRMCTR2\000"
 10943      33355F46 
 10943      524D4354 
 10943      523200
 10944              	.LASF110:
 10945 00bd 53543737 		.ascii	"ST7735_FRMCTR3\000"
 10945      33355F46 
 10945      524D4354 
 10945      523300
 10946              	.LASF51:
 10947 00cc 6269746D 		.ascii	"bitmapOffset\000"
 10947      61704F66 
ARM GAS  C:\Users\schmi\AppData\Local\Temp\ccA9az4I.s 			page 213


 10947      66736574 
 10947      00
 10948              	.LASF74:
 10949 00d9 47424C55 		.ascii	"GBLUE\000"
 10949      4500
 10950              	.LASF156:
 10951 00df 77726974 		.ascii	"write\000"
 10951      6500
 10952              	.LASF100:
 10953 00e5 53543737 		.ascii	"ST7735_DISPON\000"
 10953      33355F44 
 10953      4953504F 
 10953      4E00
 10954              	.LASF56:
 10955 00f3 794F6666 		.ascii	"yOffset\000"
 10955      73657400 
 10956              	.LASF70:
 10957 00fb 424C4143 		.ascii	"BLACK\000"
 10957      4B00
 10958              	.LASF111:
 10959 0101 53543737 		.ascii	"ST7735_INVCTR\000"
 10959      33355F49 
 10959      4E564354 
 10959      5200
 10960              	.LASF75:
 10961 010f 4D414745 		.ascii	"MAGENTA\000"
 10961      4E544100 
 10962              	.LASF208:
 10963 0117 5446545F 		.ascii	"TFT_fillTriangle\000"
 10963      66696C6C 
 10963      54726961 
 10963      6E676C65 
 10963      00
 10964              	.LASF195:
 10965 0128 5446545F 		.ascii	"TFT_writeLine\000"
 10965      77726974 
 10965      654C696E 
 10965      6500
 10966              	.LASF160:
 10967 0136 74797065 		.ascii	"type\000"
 10967      00
 10968              	.LASF144:
 10969 013b 6C6F6767 		.ascii	"logging_level_t\000"
 10969      696E675F 
 10969      6C657665 
 10969      6C5F7400 
 10970              	.LASF171:
 10971 014b 5446545F 		.ascii	"TFT_setColors\000"
 10971      73657443 
 10971      6F6C6F72 
 10971      7300
 10972              	.LASF140:
 10973 0159 4C4F475F 		.ascii	"LOG_WARNING\000"
 10973      5741524E 
 10973      494E4700 
 10974              	.LASF87:
 10975 0165 4C475241 		.ascii	"LGRAYBLUE\000"
ARM GAS  C:\Users\schmi\AppData\Local\Temp\ccA9az4I.s 			page 214


 10975      59424C55 
 10975      4500
 10976              	.LASF26:
 10977 016f 52435F45 		.ascii	"RC_ERROR_OPEN\000"
 10977      52524F52 
 10977      5F4F5045 
 10977      4E00
 10978              	.LASF142:
 10979 017d 4C4F475F 		.ascii	"LOG_DEBUG\000"
 10979      44454255 
 10979      4700
 10980              	.LASF104:
 10981 0187 53543737 		.ascii	"ST7735_RAMRD\000"
 10981      33355F52 
 10981      414D5244 
 10981      00
 10982              	.LASF135:
 10983 0194 45455F55 		.ascii	"EE_UREG\000"
 10983      52454700 
 10984              	.LASF6:
 10985 019c 6C6F6E67 		.ascii	"long int\000"
 10985      20696E74 
 10985      00
 10986              	.LASF108:
 10987 01a5 53543737 		.ascii	"ST7735_FRMCTR1\000"
 10987      33355F46 
 10987      524D4354 
 10987      523100
 10988              	.LASF40:
 10989 01b4 52435F74 		.ascii	"RC_t\000"
 10989      00
 10990              	.LASF57:
 10991 01b9 47465867 		.ascii	"GFXglyph\000"
 10991      6C797068 
 10991      00
 10992              	.LASF138:
 10993 01c2 4C4F475F 		.ascii	"LOG_VERBOSE\000"
 10993      56455242 
 10993      4F534500 
 10994              	.LASF12:
 10995 01ce 626F6F6C 		.ascii	"boolean_t\000"
 10995      65616E5F 
 10995      7400
 10996              	.LASF198:
 10997 01d8 5446545F 		.ascii	"TFT_invertDisplay\000"
 10997      696E7665 
 10997      72744469 
 10997      73706C61 
 10997      7900
 10998              	.LASF217:
 10999 01ea 5446545F 		.ascii	"TFT_drawRect\000"
 10999      64726177 
 10999      52656374 
 10999      00
 11000              	.LASF78:
 11001 01f7 59454C4C 		.ascii	"YELLOW\000"
 11001      4F5700
ARM GAS  C:\Users\schmi\AppData\Local\Temp\ccA9az4I.s 			page 215


 11002              	.LASF203:
 11003 01fe 636F726E 		.ascii	"cornername\000"
 11003      65726E61 
 11003      6D6500
 11004              	.LASF32:
 11005 0209 52435F45 		.ascii	"RC_ERROR_WRITE_FAILS\000"
 11005      52524F52 
 11005      5F575249 
 11005      54455F46 
 11005      41494C53 
 11006              	.LASF85:
 11007 021e 4C494748 		.ascii	"LIGHTGREEN\000"
 11007      54475245 
 11007      454E00
 11008              	.LASF67:
 11009 0229 5446545F 		.ascii	"TFT_rot_270\000"
 11009      726F745F 
 11009      32373000 
 11010              	.LASF36:
 11011 0235 52435F45 		.ascii	"RC_ERROR_CANCELED\000"
 11011      52524F52 
 11011      5F43414E 
 11011      43454C45 
 11011      4400
 11012              	.LASF76:
 11013 0247 47524545 		.ascii	"GREEN\000"
 11013      4E00
 11014              	.LASF0:
 11015 024d 7369676E 		.ascii	"signed char\000"
 11015      65642063 
 11015      68617200 
 11016              	.LASF3:
 11017 0259 75696E74 		.ascii	"uint8_t\000"
 11017      385F7400 
 11018              	.LASF163:
 11019 0261 6E756D43 		.ascii	"numCommands\000"
 11019      6F6D6D61 
 11019      6E647300 
 11020              	.LASF72:
 11021 026d 42524544 		.ascii	"BRED\000"
 11021      00
 11022              	.LASF1:
 11023 0272 756E7369 		.ascii	"unsigned char\000"
 11023      676E6564 
 11023      20636861 
 11023      7200
 11024              	.LASF101:
 11025 0280 53543737 		.ascii	"ST7735_CASET\000"
 11025      33355F43 
 11025      41534554 
 11025      00
 11026              	.LASF255:
 11027 028d 5446545F 		.ascii	"TFT_init\000"
 11027      696E6974 
 11027      00
 11028              	.LASF39:
 11029 0296 52435F45 		.ascii	"RC_ERROR_NOT_IMPLEMENTED\000"
ARM GAS  C:\Users\schmi\AppData\Local\Temp\ccA9az4I.s 			page 216


 11029      52524F52 
 11029      5F4E4F54 
 11029      5F494D50 
 11029      4C454D45 
 11030              	.LASF189:
 11031 02af 5446545F 		.ascii	"TFT_getBacklight\000"
 11031      67657442 
 11031      61636B6C 
 11031      69676874 
 11031      00
 11032              	.LASF13:
 11033 02c0 63686172 		.ascii	"char\000"
 11033      00
 11034              	.LASF235:
 11035 02c5 74657874 		.ascii	"textsize\000"
 11035      73697A65 
 11035      00
 11036              	.LASF118:
 11037 02ce 53543737 		.ascii	"ST7735_VMCTR1\000"
 11037      33355F56 
 11037      4D435452 
 11037      3100
 11038              	.LASF59:
 11039 02dc 676C7970 		.ascii	"glyph\000"
 11039      6800
 11040              	.LASF154:
 11041 02e2 5446545F 		.ascii	"TFT_data_t\000"
 11041      64617461 
 11041      5F7400
 11042              	.LASF105:
 11043 02ed 53543737 		.ascii	"ST7735_PTLAR\000"
 11043      33355F50 
 11043      544C4152 
 11043      00
 11044              	.LASF64:
 11045 02fa 5446545F 		.ascii	"TFT_rot_0\000"
 11045      726F745F 
 11045      3000
 11046              	.LASF103:
 11047 0304 53543737 		.ascii	"ST7735_RAMWR\000"
 11047      33355F52 
 11047      414D5752 
 11047      00
 11048              	.LASF84:
 11049 0311 47524159 		.ascii	"GRAYBLUE\000"
 11049      424C5545 
 11049      00
 11050              	.LASF173:
 11051 031a 5446545F 		.ascii	"TFT_getBGcolor\000"
 11051      67657442 
 11051      47636F6C 
 11051      6F7200
 11052              	.LASF157:
 11053 0329 66696C6C 		.ascii	"fill\000"
 11053      00
 11054              	.LASF209:
 11055 032e 64783031 		.ascii	"dx01\000"
ARM GAS  C:\Users\schmi\AppData\Local\Temp\ccA9az4I.s 			page 217


 11055      00
 11056              	.LASF211:
 11057 0333 64783032 		.ascii	"dx02\000"
 11057      00
 11058              	.LASF131:
 11059 0338 53543737 		.ascii	"ST7735_MADCTL_MH\000"
 11059      33355F4D 
 11059      41444354 
 11059      4C5F4D48 
 11059      00
 11060              	.LASF86:
 11061 0349 4C475241 		.ascii	"LGRAY\000"
 11061      5900
 11062              	.LASF129:
 11063 034f 53543737 		.ascii	"ST7735_MADCTL_ML\000"
 11063      33355F4D 
 11063      41444354 
 11063      4C5F4D4C 
 11063      00
 11064              	.LASF249:
 11065 0360 45455F49 		.ascii	"EE_IRQ_nesting_level\000"
 11065      52515F6E 
 11065      65737469 
 11065      6E675F6C 
 11065      6576656C 
 11066              	.LASF128:
 11067 0375 53543737 		.ascii	"ST7735_MADCTL_MV\000"
 11067      33355F4D 
 11067      41444354 
 11067      4C5F4D56 
 11067      00
 11068              	.LASF127:
 11069 0386 53543737 		.ascii	"ST7735_MADCTL_MX\000"
 11069      33355F4D 
 11069      41444354 
 11069      4C5F4D58 
 11069      00
 11070              	.LASF126:
 11071 0397 53543737 		.ascii	"ST7735_MADCTL_MY\000"
 11071      33355F4D 
 11071      41444354 
 11071      4C5F4D59 
 11071      00
 11072              	.LASF106:
 11073 03a8 53543737 		.ascii	"ST7735_COLMOD\000"
 11073      33355F43 
 11073      4F4C4D4F 
 11073      4400
 11074              	.LASF119:
 11075 03b6 53543737 		.ascii	"ST7735_RDID1\000"
 11075      33355F52 
 11075      44494431 
 11075      00
 11076              	.LASF120:
 11077 03c3 53543737 		.ascii	"ST7735_RDID2\000"
 11077      33355F52 
 11077      44494432 
ARM GAS  C:\Users\schmi\AppData\Local\Temp\ccA9az4I.s 			page 218


 11077      00
 11078              	.LASF121:
 11079 03d0 53543737 		.ascii	"ST7735_RDID3\000"
 11079      33355F52 
 11079      44494433 
 11079      00
 11080              	.LASF122:
 11081 03dd 53543737 		.ascii	"ST7735_RDID4\000"
 11081      33355F52 
 11081      44494434 
 11081      00
 11082              	.LASF113:
 11083 03ea 53543737 		.ascii	"ST7735_PWCTR1\000"
 11083      33355F50 
 11083      57435452 
 11083      3100
 11084              	.LASF114:
 11085 03f8 53543737 		.ascii	"ST7735_PWCTR2\000"
 11085      33355F50 
 11085      57435452 
 11085      3200
 11086              	.LASF115:
 11087 0406 53543737 		.ascii	"ST7735_PWCTR3\000"
 11087      33355F50 
 11087      57435452 
 11087      3300
 11088              	.LASF116:
 11089 0414 53543737 		.ascii	"ST7735_PWCTR4\000"
 11089      33355F50 
 11089      57435452 
 11089      3400
 11090              	.LASF117:
 11091 0422 53543737 		.ascii	"ST7735_PWCTR5\000"
 11091      33355F50 
 11091      57435452 
 11091      3500
 11092              	.LASF123:
 11093 0430 53543737 		.ascii	"ST7735_PWCTR6\000"
 11093      33355F50 
 11093      57435452 
 11093      3600
 11094              	.LASF213:
 11095 043e 64783132 		.ascii	"dx12\000"
 11095      00
 11096              	.LASF196:
 11097 0443 73746565 		.ascii	"steep\000"
 11097      7000
 11098              	.LASF34:
 11099 0449 52435F45 		.ascii	"RC_ERROR_BAD_PARAM\000"
 11099      52524F52 
 11099      5F424144 
 11099      5F504152 
 11099      414D00
 11100              	.LASF25:
 11101 045c 52435F45 		.ascii	"RC_ERROR_TIME_OUT\000"
 11101      52524F52 
 11101      5F54494D 
ARM GAS  C:\Users\schmi\AppData\Local\Temp\ccA9az4I.s 			page 219


 11101      455F4F55 
 11101      5400
 11102              	.LASF7:
 11103 046e 6C6F6E67 		.ascii	"long unsigned int\000"
 11103      20756E73 
 11103      69676E65 
 11103      6420696E 
 11103      7400
 11104              	.LASF229:
 11105 0480 53535433 		.ascii	"SST35S_init_seq\000"
 11105      35535F69 
 11105      6E69745F 
 11105      73657100 
 11106              	.LASF28:
 11107 0490 52435F45 		.ascii	"RC_ERROR_READ_ONLY\000"
 11107      52524F52 
 11107      5F524541 
 11107      445F4F4E 
 11107      4C5900
 11108              	.LASF170:
 11109 04a3 5446545F 		.ascii	"TFT_setcolor\000"
 11109      73657463 
 11109      6F6C6F72 
 11109      00
 11110              	.LASF220:
 11111 04b0 6C696E65 		.ascii	"line\000"
 11111      00
 11112              	.LASF184:
 11113 04b5 5446545F 		.ascii	"TFT_print\000"
 11113      7072696E 
 11113      7400
 11114              	.LASF191:
 11115 04bf 5446545F 		.ascii	"TFT_fillRect\000"
 11115      66696C6C 
 11115      52656374 
 11115      00
 11116              	.LASF153:
 11117 04cc 7061796C 		.ascii	"payload\000"
 11117      6F616400 
 11118              	.LASF148:
 11119 04d4 6C6F6767 		.ascii	"logging_t\000"
 11119      696E675F 
 11119      7400
 11120              	.LASF15:
 11121 04de 52435F45 		.ascii	"RC_ERROR\000"
 11121      52524F52 
 11121      00
 11122              	.LASF166:
 11123 04e7 5446545F 		.ascii	"TFT_setBacklight\000"
 11123      73657442 
 11123      61636B6C 
 11123      69676874 
 11123      00
 11124              	.LASF251:
 11125 04f8 474E5520 		.ascii	"GNU C11 5.4.1 20160609 (release) [ARM/embedded-5-br"
 11125      43313120 
 11125      352E342E 
ARM GAS  C:\Users\schmi\AppData\Local\Temp\ccA9az4I.s 			page 220


 11125      31203230 
 11125      31363036 
 11126 052b 616E6368 		.ascii	"anch revision 237715] -mcpu=cortex-m3 -mthumb -g -O"
 11126      20726576 
 11126      6973696F 
 11126      6E203233 
 11126      37373135 
 11127 055e 30202D66 		.ascii	"0 -ffunction-sections -ffat-lto-objects\000"
 11127      66756E63 
 11127      74696F6E 
 11127      2D736563 
 11127      74696F6E 
 11128              	.LASF88:
 11129 0586 4C42424C 		.ascii	"LBBLUE\000"
 11129      554500
 11130              	.LASF237:
 11131 058d 5F776964 		.ascii	"_width\000"
 11131      746800
 11132              	.LASF82:
 11133 0594 4441524B 		.ascii	"DARKBLUE\000"
 11133      424C5545 
 11133      00
 11134              	.LASF246:
 11135 059d 45455F6F 		.ascii	"EE_oo_IRQ_suspend_status\000"
 11135      6F5F4952 
 11135      515F7375 
 11135      7370656E 
 11135      645F7374 
 11136              	.LASF10:
 11137 05b6 6C6F6E67 		.ascii	"long long int\000"
 11137      206C6F6E 
 11137      6720696E 
 11137      7400
 11138              	.LASF187:
 11139 05c4 5446545F 		.ascii	"TFT_fillScreen\000"
 11139      66696C6C 
 11139      53637265 
 11139      656E00
 11140              	.LASF62:
 11141 05d3 79416476 		.ascii	"yAdvance\000"
 11141      616E6365 
 11141      00
 11142              	.LASF199:
 11143 05dc 5446545F 		.ascii	"TFT_drawCircle\000"
 11143      64726177 
 11143      43697263 
 11143      6C6500
 11144              	.LASF52:
 11145 05eb 77696474 		.ascii	"width\000"
 11145      6800
 11146              	.LASF223:
 11147 05f1 796F3136 		.ascii	"yo16\000"
 11147      00
 11148              	.LASF169:
 11149 05f6 5446545F 		.ascii	"TFT_setTextColor\000"
 11149      73657454 
 11149      65787443 
ARM GAS  C:\Users\schmi\AppData\Local\Temp\ccA9az4I.s 			page 221


 11149      6F6C6F72 
 11149      00
 11150              	.LASF9:
 11151 0607 646F7562 		.ascii	"double\000"
 11151      6C6500
 11152              	.LASF30:
 11153 060e 52435F45 		.ascii	"RC_ERROR_INVALID\000"
 11153      52524F52 
 11153      5F494E56 
 11153      414C4944 
 11153      00
 11154              	.LASF139:
 11155 061f 4C4F475F 		.ascii	"LOG_INFO\000"
 11155      494E464F 
 11155      00
 11156              	.LASF182:
 11157 0628 73657441 		.ascii	"setAddrWindow\000"
 11157      64647257 
 11157      696E646F 
 11157      7700
 11158              	.LASF250:
 11159 0636 49544D5F 		.ascii	"ITM_RxBuffer\000"
 11159      52784275 
 11159      66666572 
 11159      00
 11160              	.LASF71:
 11161 0643 424C5545 		.ascii	"BLUE\000"
 11161      00
 11162              	.LASF35:
 11163 0648 52435F45 		.ascii	"RC_ERROR_BAD_DATA\000"
 11163      52524F52 
 11163      5F424144 
 11163      5F444154 
 11163      4100
 11164              	.LASF91:
 11165 065a 53543737 		.ascii	"ST7735_RDDID\000"
 11165      33355F52 
 11165      44444944 
 11165      00
 11166              	.LASF8:
 11167 0667 666C6F61 		.ascii	"float\000"
 11167      7400
 11168              	.LASF186:
 11169 066d 5446545F 		.ascii	"TFT_write\000"
 11169      77726974 
 11169      6500
 11170              	.LASF162:
 11171 0677 61646472 		.ascii	"addr\000"
 11171      00
 11172              	.LASF20:
 11173 067c 52435F45 		.ascii	"RC_ERROR_OVERRUN\000"
 11173      52524F52 
 11173      5F4F5645 
 11173      5252554E 
 11173      00
 11174              	.LASF155:
 11175 068d 72656164 		.ascii	"read\000"
ARM GAS  C:\Users\schmi\AppData\Local\Temp\ccA9az4I.s 			page 222


 11175      00
 11176              	.LASF239:
 11177 0692 63757273 		.ascii	"cursor_x\000"
 11177      6F725F78 
 11177      00
 11178              	.LASF240:
 11179 069b 63757273 		.ascii	"cursor_y\000"
 11179      6F725F79 
 11179      00
 11180              	.LASF210:
 11181 06a4 64793031 		.ascii	"dy01\000"
 11181      00
 11182              	.LASF212:
 11183 06a9 64793032 		.ascii	"dy02\000"
 11183      00
 11184              	.LASF44:
 11185 06ae 756E7369 		.ascii	"unsigned int\000"
 11185      676E6564 
 11185      20696E74 
 11185      00
 11186              	.LASF134:
 11187 06bb 45455F55 		.ascii	"EE_UINT32\000"
 11187      494E5433 
 11187      3200
 11188              	.LASF146:
 11189 06c5 73656E64 		.ascii	"sender\000"
 11189      657200
 11190              	.LASF241:
 11191 06cc 6267636F 		.ascii	"bgcolor\000"
 11191      6C6F7200 
 11192              	.LASF136:
 11193 06d4 45455F46 		.ascii	"EE_FREG\000"
 11193      52454700 
 11194              	.LASF58:
 11195 06dc 6269746D 		.ascii	"bitmap\000"
 11195      617000
 11196              	.LASF232:
 11197 06e3 726F7773 		.ascii	"rowstart\000"
 11197      74617274 
 11197      00
 11198              	.LASF141:
 11199 06ec 4C4F475F 		.ascii	"LOG_ERROR\000"
 11199      4552524F 
 11199      5200
 11200              	.LASF79:
 11201 06f6 42524F57 		.ascii	"BROWN\000"
 11201      4E00
 11202              	.LASF83:
 11203 06fc 4C494748 		.ascii	"LIGHTBLUE\000"
 11203      54424C55 
 11203      4500
 11204              	.LASF183:
 11205 0706 63686172 		.ascii	"charBounds\000"
 11205      426F756E 
 11205      647300
 11206              	.LASF80:
 11207 0711 42525245 		.ascii	"BRRED\000"
ARM GAS  C:\Users\schmi\AppData\Local\Temp\ccA9az4I.s 			page 223


 11207      4400
 11208              	.LASF221:
 11209 0717 62697473 		.ascii	"bits\000"
 11209      00
 11210              	.LASF234:
 11211 071c 79737461 		.ascii	"ystart\000"
 11211      727400
 11212              	.LASF214:
 11213 0723 64793132 		.ascii	"dy12\000"
 11213      00
 11214              	.LASF202:
 11215 0728 5446545F 		.ascii	"TFT_drawCircleHelper\000"
 11215      64726177 
 11215      43697263 
 11215      6C654865 
 11215      6C706572 
 11216              	.LASF137:
 11217 073d 45455F54 		.ascii	"EE_TID\000"
 11217      494400
 11218              	.LASF60:
 11219 0744 66697273 		.ascii	"first\000"
 11219      7400
 11220              	.LASF185:
 11221 074a 5446545F 		.ascii	"TFT_println\000"
 11221      7072696E 
 11221      746C6E00 
 11222              	.LASF176:
 11223 0756 5446545F 		.ascii	"TFT_setFont\000"
 11223      73657446 
 11223      6F6E7400 
 11224              	.LASF112:
 11225 0762 53543737 		.ascii	"ST7735_DISSET5\000"
 11225      33355F44 
 11225      49535345 
 11225      543500
 11226              	.LASF230:
 11227 0771 666F6E74 		.ascii	"font\000"
 11227      00
 11228              	.LASF218:
 11229 0776 5446545F 		.ascii	"TFT_drawChar\000"
 11229      64726177 
 11229      43686172 
 11229      00
 11230              	.LASF81:
 11231 0783 47524159 		.ascii	"GRAY\000"
 11231      00
 11232              	.LASF231:
 11233 0788 636F6C73 		.ascii	"colstart\000"
 11233      74617274 
 11233      00
 11234              	.LASF45:
 11235 0791 6C6F6E67 		.ascii	"long double\000"
 11235      20646F75 
 11235      626C6500 
 11236              	.LASF254:
 11237 079d 5446545F 		.ascii	"TFT_send\000"
 11237      73656E64 
ARM GAS  C:\Users\schmi\AppData\Local\Temp\ccA9az4I.s 			page 224


 11237      00
 11238              	.LASF130:
 11239 07a6 53543737 		.ascii	"ST7735_MADCTL_BGR\000"
 11239      33355F4D 
 11239      41444354 
 11239      4C5F4247 
 11239      5200
 11240              	.LASF33:
 11241 07b8 52435F45 		.ascii	"RC_ERROR_NOT_MATCH\000"
 11241      52524F52 
 11241      5F4E4F54 
 11241      5F4D4154 
 11241      434800
 11242              	.LASF18:
 11243 07cb 52435F45 		.ascii	"RC_ERROR_MEMORY\000"
 11243      52524F52 
 11243      5F4D454D 
 11243      4F525900 
 11244              	.LASF167:
 11245 07db 5446545F 		.ascii	"TFT_setRotation\000"
 11245      73657452 
 11245      6F746174 
 11245      696F6E00 
 11246              	.LASF65:
 11247 07eb 5446545F 		.ascii	"TFT_rot_90\000"
 11247      726F745F 
 11247      393000
 11248              	.LASF180:
 11249 07f6 6D617878 		.ascii	"maxx\000"
 11249      00
 11250              	.LASF181:
 11251 07fb 6D617879 		.ascii	"maxy\000"
 11251      00
 11252              	.LASF47:
 11253 0800 696E7438 		.ascii	"int8_t\000"
 11253      5F7400
 11254              	.LASF99:
 11255 0807 53543737 		.ascii	"ST7735_DISPOFF\000"
 11255      33355F44 
 11255      4953504F 
 11255      464600
 11256              	.LASF22:
 11257 0816 52435F45 		.ascii	"RC_ERROR_BUFFER_FULL\000"
 11257      52524F52 
 11257      5F425546 
 11257      4645525F 
 11257      46554C4C 
 11258              	.LASF41:
 11259 082b 5F5F696E 		.ascii	"__int8_t\000"
 11259      74385F74 
 11259      00
 11260              	.LASF219:
 11261 0834 73697A65 		.ascii	"size\000"
 11261      00
 11262              	.LASF14:
 11263 0839 52435F53 		.ascii	"RC_SUCCESS\000"
 11263      55434345 
ARM GAS  C:\Users\schmi\AppData\Local\Temp\ccA9az4I.s 			page 225


 11263      535300
 11264              	.LASF11:
 11265 0844 6C6F6E67 		.ascii	"long long unsigned int\000"
 11265      206C6F6E 
 11265      6720756E 
 11265      7369676E 
 11265      65642069 
 11266              	.LASF151:
 11267 085b 5446545F 		.ascii	"TFT_STREAM\000"
 11267      53545245 
 11267      414D00
 11268              	.LASF4:
 11269 0866 75696E74 		.ascii	"uint16_t\000"
 11269      31365F74 
 11269      00
 11270              	.LASF236:
 11271 086f 726F7461 		.ascii	"rotation\000"
 11271      74696F6E 
 11271      00
 11272              	.LASF242:
 11273 0878 77726170 		.ascii	"wrap\000"
 11273      00
 11274              	.LASF206:
 11275 087d 64656C74 		.ascii	"delta\000"
 11275      6100
 11276              	.LASF225:
 11277 0883 5446545F 		.ascii	"TFT_height\000"
 11277      68656967 
 11277      687400
 11278              	.LASF205:
 11279 088e 5446545F 		.ascii	"TFT_fillCircleHelper\000"
 11279      66696C6C 
 11279      43697263 
 11279      6C654865 
 11279      6C706572 
 11280              	.LASF192:
 11281 08a3 5446545F 		.ascii	"TFT_drawPixel\000"
 11281      64726177 
 11281      50697865 
 11281      6C00
 11282              	.LASF96:
 11283 08b1 53543737 		.ascii	"ST7735_NORON\000"
 11283      33355F4E 
 11283      4F524F4E 
 11283      00
 11284              	.LASF207:
 11285 08be 5446545F 		.ascii	"TFT_drawTriangle\000"
 11285      64726177 
 11285      54726961 
 11285      6E676C65 
 11285      00
 11286              	.LASF73:
 11287 08cf 47524544 		.ascii	"GRED\000"
 11287      00
 11288              	.LASF63:
 11289 08d4 47465866 		.ascii	"GFXfont\000"
 11289      6F6E7400 
ARM GAS  C:\Users\schmi\AppData\Local\Temp\ccA9az4I.s 			page 226


 11290              	.LASF95:
 11291 08dc 53543737 		.ascii	"ST7735_PTLON\000"
 11291      33355F50 
 11291      544C4F4E 
 11291      00
 11292              	.LASF42:
 11293 08e9 5F5F696E 		.ascii	"__int16_t\000"
 11293      7431365F 
 11293      7400
 11294              	.LASF248:
 11295 08f3 45455F73 		.ascii	"EE_std_endcycle_next_tid\000"
 11295      74645F65 
 11295      6E646379 
 11295      636C655F 
 11295      6E657874 
 11296              	.LASF188:
 11297 090c 636F6C6F 		.ascii	"color\000"
 11297      7200
 11298              	.LASF238:
 11299 0912 5F686569 		.ascii	"_height\000"
 11299      67687400 
 11300              	.LASF150:
 11301 091a 5446545F 		.ascii	"TFT_DATA\000"
 11301      44415441 
 11301      00
 11302              	.LASF107:
 11303 0923 53543737 		.ascii	"ST7735_MADCTL\000"
 11303      33355F4D 
 11303      41444354 
 11303      4C00
 11304              	.LASF216:
 11305 0931 5446545F 		.ascii	"TFT_fillRoundRect\000"
 11305      66696C6C 
 11305      526F756E 
 11305      64526563 
 11305      7400
 11306              	.LASF38:
 11307 0943 52435F45 		.ascii	"RC_ERROR_UNKNOWN\000"
 11307      52524F52 
 11307      5F554E4B 
 11307      4E4F574E 
 11307      00
 11308              	.LASF190:
 11309 0954 5446545F 		.ascii	"TFT_clearScreen\000"
 11309      636C6561 
 11309      72536372 
 11309      65656E00 
 11310              	.LASF133:
 11311 0964 45455F49 		.ascii	"EE_INT32\000"
 11311      4E543332 
 11311      00
 11312              	.LASF158:
 11313 096d 62756666 		.ascii	"buffer\000"
 11313      657200
 11314              	.LASF165:
 11315 0974 5F5F5446 		.ascii	"__TFT_SPI_TX_ISR\000"
 11315      545F5350 
ARM GAS  C:\Users\schmi\AppData\Local\Temp\ccA9az4I.s 			page 227


 11315      495F5458 
 11315      5F495352 
 11315      00
 11316              	.LASF243:
 11317 0985 67667846 		.ascii	"gfxFont\000"
 11317      6F6E7400 
 11318              	.LASF23:
 11319 098d 52435F45 		.ascii	"RC_ERROR_BUFFER_EMTPY\000"
 11319      52524F52 
 11319      5F425546 
 11319      4645525F 
 11319      454D5450 
 11320              	.LASF215:
 11321 09a3 5446545F 		.ascii	"TFT_drawRoundRect\000"
 11321      64726177 
 11321      526F756E 
 11321      64526563 
 11321      7400
 11322              	.LASF21:
 11323 09b5 52435F45 		.ascii	"RC_ERROR_UNDERRUN\000"
 11323      52524F52 
 11323      5F554E44 
 11323      45525255 
 11323      4E00
 11324              	.LASF2:
 11325 09c7 73686F72 		.ascii	"short int\000"
 11325      7420696E 
 11325      7400
 11326              	.LASF98:
 11327 09d1 53543737 		.ascii	"ST7735_INVON\000"
 11327      33355F49 
 11327      4E564F4E 
 11327      00
 11328              	.LASF143:
 11329 09de 4C4F475F 		.ascii	"LOG_OFF\000"
 11329      4F464600 
 11330              	.LASF19:
 11331 09e6 52435F45 		.ascii	"RC_ERROR_RANGE\000"
 11331      52524F52 
 11331      5F52414E 
 11331      474500
 11332              	.LASF149:
 11333 09f5 5446545F 		.ascii	"TFT_CMD\000"
 11333      434D4400 
 11334              	.LASF48:
 11335 09fd 696E7431 		.ascii	"int16_t\000"
 11335      365F7400 
 11336              	.LASF31:
 11337 0a05 52435F45 		.ascii	"RC_ERROR_READ_FAILS\000"
 11337      52524F52 
 11337      5F524541 
 11337      445F4641 
 11337      494C5300 
 11338              	.LASF172:
 11339 0a19 5446545F 		.ascii	"TFT_getFGcolor\000"
 11339      67657446 
 11339      47636F6C 
ARM GAS  C:\Users\schmi\AppData\Local\Temp\ccA9az4I.s 			page 228


 11339      6F7200
 11340              	.LASF93:
 11341 0a28 53543737 		.ascii	"ST7735_SLPIN\000"
 11341      33355F53 
 11341      4C50494E 
 11341      00
 11342              	.LASF194:
 11343 0a35 5446545F 		.ascii	"TFT_fastHLine\000"
 11343      66617374 
 11343      484C696E 
 11343      6500
 11344              	.LASF16:
 11345 0a43 52435F45 		.ascii	"RC_ERROR_NULL\000"
 11345      52524F52 
 11345      5F4E554C 
 11345      4C00
 11346              	.LASF54:
 11347 0a51 78416476 		.ascii	"xAdvance\000"
 11347      616E6365 
 11347      00
 11348              	.LASF152:
 11349 0a5a 5446545F 		.ascii	"TFT_payload_t\000"
 11349      7061796C 
 11349      6F61645F 
 11349      7400
 11350              	.LASF132:
 11351 0a68 53543737 		.ascii	"ST7735_MADCTL_RGB\000"
 11351      33355F4D 
 11351      41444354 
 11351      4C5F5247 
 11351      4200
 11352              	.LASF200:
 11353 0a7a 6464465F 		.ascii	"ddF_x\000"
 11353      7800
 11354              	.LASF201:
 11355 0a80 6464465F 		.ascii	"ddF_y\000"
 11355      7900
 11356              	.LASF253:
 11357 0a86 433A5C55 		.ascii	"C:\\Users\\schmi\\OneDrive\\Dokumente\\PSoC Creator"
 11357      73657273 
 11357      5C736368 
 11357      6D695C4F 
 11357      6E654472 
 11358 0ab4 5C4A736F 		.ascii	"\\JsonParserLAB3\\holidayProject\\setUpEnv.cydsn\000"
 11358      6E506172 
 11358      7365724C 
 11358      4142335C 
 11358      686F6C69 
 11359              	.LASF92:
 11360 0ae2 53543737 		.ascii	"ST7735_RDDST\000"
 11360      33355F52 
 11360      44445354 
 11360      00
 11361              	.LASF164:
 11362 0aef 6E756D41 		.ascii	"numArgs\000"
 11362      72677300 
 11363              	.LASF17:
ARM GAS  C:\Users\schmi\AppData\Local\Temp\ccA9az4I.s 			page 229


 11364 0af7 52435F45 		.ascii	"RC_ERROR_ZERO\000"
 11364      52524F52 
 11364      5F5A4552 
 11364      4F00
 11365              	.LASF168:
 11366 0b05 5446545F 		.ascii	"TFT_setCursor\000"
 11366      73657443 
 11366      7572736F 
 11366      7200
 11367              	.LASF245:
 11368 0b13 45455F6F 		.ascii	"EE_oo_IRQ_disable_count\000"
 11368      6F5F4952 
 11368      515F6469 
 11368      7361626C 
 11368      655F636F 
 11369              	.LASF204:
 11370 0b2b 5446545F 		.ascii	"TFT_fillCircle\000"
 11370      66696C6C 
 11370      43697263 
 11370      6C6500
 11371              	.LASF102:
 11372 0b3a 53543737 		.ascii	"ST7735_RASET\000"
 11372      33355F52 
 11372      41534554 
 11372      00
 11373              	.LASF5:
 11374 0b47 73686F72 		.ascii	"short unsigned int\000"
 11374      7420756E 
 11374      7369676E 
 11374      65642069 
 11374      6E7400
 11375              	.LASF226:
 11376 0b5a 5446545F 		.ascii	"TFT_getRotation\000"
 11376      67657452 
 11376      6F746174 
 11376      696F6E00 
 11377              	.LASF94:
 11378 0b6a 53543737 		.ascii	"ST7735_SLPOUT\000"
 11378      33355F53 
 11378      4C504F55 
 11378      5400
 11379              	.LASF68:
 11380 0b78 5446545F 		.ascii	"TFT_rotation_t\000"
 11380      726F7461 
 11380      74696F6E 
 11380      5F7400
 11381              	.LASF147:
 11382 0b87 6D657373 		.ascii	"message\000"
 11382      61676500 
 11383              	.LASF227:
 11384 0b8f 5446545F 		.ascii	"TFT_getCursorX\000"
 11384      67657443 
 11384      7572736F 
 11384      725800
 11385              	.LASF228:
 11386 0b9e 5446545F 		.ascii	"TFT_getCursorY\000"
 11386      67657443 
ARM GAS  C:\Users\schmi\AppData\Local\Temp\ccA9az4I.s 			page 230


 11386      7572736F 
 11386      725900
 11387              	.LASF252:
 11388 0bad 736F7572 		.ascii	"source\\bsw\\tft\\tft.c\000"
 11388      63655C62 
 11388      73775C74 
 11388      66745C74 
 11388      66742E63 
 11389              	.LASF178:
 11390 0bc2 6D696E78 		.ascii	"minx\000"
 11390      00
 11391              	.LASF179:
 11392 0bc7 6D696E79 		.ascii	"miny\000"
 11392      00
 11393              	.LASF37:
 11394 0bcc 52435F45 		.ascii	"RC_ERROR_INVALID_STATE\000"
 11394      52524F52 
 11394      5F494E56 
 11394      414C4944 
 11394      5F535441 
 11395              	.LASF43:
 11396 0be3 5F5F696E 		.ascii	"__int32_t\000"
 11396      7433325F 
 11396      7400
 11397              	.LASF161:
 11398 0bed 705F6E65 		.ascii	"p_next_frame\000"
 11398      78745F66 
 11398      72616D65 
 11398      00
 11399              	.LASF69:
 11400 0bfa 57484954 		.ascii	"WHITE\000"
 11400      4500
 11401              	.LASF159:
 11402 0c00 5446545F 		.ascii	"TFT_RB_out_t\000"
 11402      52425F6F 
 11402      75745F74 
 11402      00
 11403              	.LASF29:
 11404 0c0d 52435F45 		.ascii	"RC_ERROR_WRITE_ONLY\000"
 11404      52524F52 
 11404      5F575249 
 11404      54455F4F 
 11404      4E4C5900 
 11405              	.LASF175:
 11406 0c21 5446545F 		.ascii	"TFT_setTextSize\000"
 11406      73657454 
 11406      65787453 
 11406      697A6500 
 11407              	.LASF125:
 11408 0c31 53543737 		.ascii	"ST7735_GMCTRN1\000"
 11408      33355F47 
 11408      4D435452 
 11408      4E3100
 11409              	.LASF233:
 11410 0c40 78737461 		.ascii	"xstart\000"
 11410      727400
 11411              	.LASF89:
ARM GAS  C:\Users\schmi\AppData\Local\Temp\ccA9az4I.s 			page 231


 11412 0c47 53543737 		.ascii	"ST7735_NOP\000"
 11412      33355F4E 
 11412      4F5000
 11413              	.LASF177:
 11414 0c52 5446545F 		.ascii	"TFT_getTextBounds\000"
 11414      67657454 
 11414      65787442 
 11414      6F756E64 
 11414      7300
 11415              	.LASF197:
 11416 0c64 79737465 		.ascii	"ystep\000"
 11416      7000
 11417              	.LASF174:
 11418 0c6a 5446545F 		.ascii	"TFT_setTextWrap\000"
 11418      73657454 
 11418      65787457 
 11418      72617000 
 11419              	.LASF224:
 11420 0c7a 5446545F 		.ascii	"TFT_width\000"
 11420      77696474 
 11420      6800
 11421              	.LASF61:
 11422 0c84 6C617374 		.ascii	"last\000"
 11422      00
 11423              	.LASF244:
 11424 0c89 5446545F 		.ascii	"TFT_RB_out\000"
 11424      52425F6F 
 11424      757400
 11425              	.LASF53:
 11426 0c94 68656967 		.ascii	"height\000"
 11426      687400
 11427              		.ident	"GCC: (GNU Tools for ARM Embedded Processors) 5.4.1 20160609 (release) [ARM/embedded-5-bran
