ARM GAS  C:\Users\schmi\AppData\Local\Temp\ccA9az4I.s 			page 1


   1              		.syntax unified
   2              		.cpu cortex-m3
   3              		.fpu softvfp
   4              		.eabi_attribute 20, 1
   5              		.eabi_attribute 21, 1
   6              		.eabi_attribute 23, 3
   7              		.eabi_attribute 24, 1
   8              		.eabi_attribute 25, 1
   9              		.eabi_attribute 26, 1
  10              		.eabi_attribute 30, 6
  11              		.eabi_attribute 34, 1
  12              		.eabi_attribute 18, 4
  13              		.thumb
  14              		.syntax unified
  15              		.file	"tft.c"
  16              		.text
  17              	.Ltext0:
  18              		.cfi_sections	.debug_frame
  19              		.section	.rodata
  20              		.align	2
  21              		.type	SST35S_init_seq, %object
  22              		.size	SST35S_init_seq, 88
  23              	SST35S_init_seq:
  24 0000 0F       		.byte	15
  25 0001 B1       		.byte	-79
  26 0002 03       		.byte	3
  27 0003 05       		.byte	5
  28 0004 3C       		.byte	60
  29 0005 3C       		.byte	60
  30 0006 B2       		.byte	-78
  31 0007 03       		.byte	3
  32 0008 05       		.byte	5
  33 0009 3C       		.byte	60
  34 000a 3C       		.byte	60
  35 000b B3       		.byte	-77
  36 000c 06       		.byte	6
  37 000d 05       		.byte	5
  38 000e 3C       		.byte	60
  39 000f 3C       		.byte	60
  40 0010 05       		.byte	5
  41 0011 3C       		.byte	60
  42 0012 3C       		.byte	60
  43 0013 B4       		.byte	-76
  44 0014 01       		.byte	1
  45 0015 03       		.byte	3
  46 0016 C0       		.byte	-64
  47 0017 03       		.byte	3
  48 0018 28       		.byte	40
  49 0019 08       		.byte	8
  50 001a 04       		.byte	4
  51 001b C1       		.byte	-63
  52 001c 01       		.byte	1
  53 001d C0       		.byte	-64
  54 001e C2       		.byte	-62
  55 001f 02       		.byte	2
  56 0020 0D       		.byte	13
  57 0021 00       		.byte	0
ARM GAS  C:\Users\schmi\AppData\Local\Temp\ccA9az4I.s 			page 2


  58 0022 C3       		.byte	-61
  59 0023 02       		.byte	2
  60 0024 8D       		.byte	-115
  61 0025 2A       		.byte	42
  62 0026 C4       		.byte	-60
  63 0027 02       		.byte	2
  64 0028 8D       		.byte	-115
  65 0029 EE       		.byte	-18
  66 002a C5       		.byte	-59
  67 002b 01       		.byte	1
  68 002c 1A       		.byte	26
  69 002d 36       		.byte	54
  70 002e 01       		.byte	1
  71 002f C0       		.byte	-64
  72 0030 E0       		.byte	-32
  73 0031 10       		.byte	16
  74 0032 04       		.byte	4
  75 0033 22       		.byte	34
  76 0034 07       		.byte	7
  77 0035 0A       		.byte	10
  78 0036 2E       		.byte	46
  79 0037 30       		.byte	48
  80 0038 25       		.byte	37
  81 0039 2A       		.byte	42
  82 003a 28       		.byte	40
  83 003b 26       		.byte	38
  84 003c 2E       		.byte	46
  85 003d 3A       		.byte	58
  86 003e 00       		.byte	0
  87 003f 01       		.byte	1
  88 0040 03       		.byte	3
  89 0041 13       		.byte	19
  90 0042 E1       		.byte	-31
  91 0043 0F       		.byte	15
  92 0044 16       		.byte	22
  93 0045 06       		.byte	6
  94 0046 0D       		.byte	13
  95 0047 2D       		.byte	45
  96 0048 26       		.byte	38
  97 0049 23       		.byte	35
  98 004a 27       		.byte	39
  99 004b 27       		.byte	39
 100 004c 25       		.byte	37
 101 004d 2D       		.byte	45
 102 004e 3B       		.byte	59
 103 004f 00       		.byte	0
 104 0050 01       		.byte	1
 105 0051 04       		.byte	4
 106 0052 13       		.byte	19
 107 0053 3A       		.byte	58
 108 0054 01       		.byte	1
 109 0055 05       		.byte	5
 110 0056 29       		.byte	41
 111 0057 00       		.byte	0
 112              		.align	2
 113              		.type	font, %object
 114              		.size	font, 1280
ARM GAS  C:\Users\schmi\AppData\Local\Temp\ccA9az4I.s 			page 3


 115              	font:
 116 0058 00       		.byte	0
 117 0059 00       		.byte	0
 118 005a 00       		.byte	0
 119 005b 00       		.byte	0
 120 005c 00       		.byte	0
 121 005d 3E       		.byte	62
 122 005e 5B       		.byte	91
 123 005f 4F       		.byte	79
 124 0060 5B       		.byte	91
 125 0061 3E       		.byte	62
 126 0062 3E       		.byte	62
 127 0063 6B       		.byte	107
 128 0064 4F       		.byte	79
 129 0065 6B       		.byte	107
 130 0066 3E       		.byte	62
 131 0067 1C       		.byte	28
 132 0068 3E       		.byte	62
 133 0069 7C       		.byte	124
 134 006a 3E       		.byte	62
 135 006b 1C       		.byte	28
 136 006c 18       		.byte	24
 137 006d 3C       		.byte	60
 138 006e 7E       		.byte	126
 139 006f 3C       		.byte	60
 140 0070 18       		.byte	24
 141 0071 1C       		.byte	28
 142 0072 57       		.byte	87
 143 0073 7D       		.byte	125
 144 0074 57       		.byte	87
 145 0075 1C       		.byte	28
 146 0076 1C       		.byte	28
 147 0077 5E       		.byte	94
 148 0078 7F       		.byte	127
 149 0079 5E       		.byte	94
 150 007a 1C       		.byte	28
 151 007b 00       		.byte	0
 152 007c 18       		.byte	24
 153 007d 3C       		.byte	60
 154 007e 18       		.byte	24
 155 007f 00       		.byte	0
 156 0080 FF       		.byte	-1
 157 0081 E7       		.byte	-25
 158 0082 C3       		.byte	-61
 159 0083 E7       		.byte	-25
 160 0084 FF       		.byte	-1
 161 0085 00       		.byte	0
 162 0086 18       		.byte	24
 163 0087 24       		.byte	36
 164 0088 18       		.byte	24
 165 0089 00       		.byte	0
 166 008a FF       		.byte	-1
 167 008b E7       		.byte	-25
 168 008c DB       		.byte	-37
 169 008d E7       		.byte	-25
 170 008e FF       		.byte	-1
 171 008f 30       		.byte	48
ARM GAS  C:\Users\schmi\AppData\Local\Temp\ccA9az4I.s 			page 4


 172 0090 48       		.byte	72
 173 0091 3A       		.byte	58
 174 0092 06       		.byte	6
 175 0093 0E       		.byte	14
 176 0094 26       		.byte	38
 177 0095 29       		.byte	41
 178 0096 79       		.byte	121
 179 0097 29       		.byte	41
 180 0098 26       		.byte	38
 181 0099 40       		.byte	64
 182 009a 7F       		.byte	127
 183 009b 05       		.byte	5
 184 009c 05       		.byte	5
 185 009d 07       		.byte	7
 186 009e 40       		.byte	64
 187 009f 7F       		.byte	127
 188 00a0 05       		.byte	5
 189 00a1 25       		.byte	37
 190 00a2 3F       		.byte	63
 191 00a3 5A       		.byte	90
 192 00a4 3C       		.byte	60
 193 00a5 E7       		.byte	-25
 194 00a6 3C       		.byte	60
 195 00a7 5A       		.byte	90
 196 00a8 7F       		.byte	127
 197 00a9 3E       		.byte	62
 198 00aa 1C       		.byte	28
 199 00ab 1C       		.byte	28
 200 00ac 08       		.byte	8
 201 00ad 08       		.byte	8
 202 00ae 1C       		.byte	28
 203 00af 1C       		.byte	28
 204 00b0 3E       		.byte	62
 205 00b1 7F       		.byte	127
 206 00b2 14       		.byte	20
 207 00b3 22       		.byte	34
 208 00b4 7F       		.byte	127
 209 00b5 22       		.byte	34
 210 00b6 14       		.byte	20
 211 00b7 5F       		.byte	95
 212 00b8 5F       		.byte	95
 213 00b9 00       		.byte	0
 214 00ba 5F       		.byte	95
 215 00bb 5F       		.byte	95
 216 00bc 06       		.byte	6
 217 00bd 09       		.byte	9
 218 00be 7F       		.byte	127
 219 00bf 01       		.byte	1
 220 00c0 7F       		.byte	127
 221 00c1 00       		.byte	0
 222 00c2 66       		.byte	102
 223 00c3 89       		.byte	-119
 224 00c4 95       		.byte	-107
 225 00c5 6A       		.byte	106
 226 00c6 60       		.byte	96
 227 00c7 60       		.byte	96
 228 00c8 60       		.byte	96
ARM GAS  C:\Users\schmi\AppData\Local\Temp\ccA9az4I.s 			page 5


 229 00c9 60       		.byte	96
 230 00ca 60       		.byte	96
 231 00cb 94       		.byte	-108
 232 00cc A2       		.byte	-94
 233 00cd FF       		.byte	-1
 234 00ce A2       		.byte	-94
 235 00cf 94       		.byte	-108
 236 00d0 08       		.byte	8
 237 00d1 04       		.byte	4
 238 00d2 7E       		.byte	126
 239 00d3 04       		.byte	4
 240 00d4 08       		.byte	8
 241 00d5 10       		.byte	16
 242 00d6 20       		.byte	32
 243 00d7 7E       		.byte	126
 244 00d8 20       		.byte	32
 245 00d9 10       		.byte	16
 246 00da 08       		.byte	8
 247 00db 08       		.byte	8
 248 00dc 2A       		.byte	42
 249 00dd 1C       		.byte	28
 250 00de 08       		.byte	8
 251 00df 08       		.byte	8
 252 00e0 1C       		.byte	28
 253 00e1 2A       		.byte	42
 254 00e2 08       		.byte	8
 255 00e3 08       		.byte	8
 256 00e4 1E       		.byte	30
 257 00e5 10       		.byte	16
 258 00e6 10       		.byte	16
 259 00e7 10       		.byte	16
 260 00e8 10       		.byte	16
 261 00e9 0C       		.byte	12
 262 00ea 1E       		.byte	30
 263 00eb 0C       		.byte	12
 264 00ec 1E       		.byte	30
 265 00ed 0C       		.byte	12
 266 00ee 30       		.byte	48
 267 00ef 38       		.byte	56
 268 00f0 3E       		.byte	62
 269 00f1 38       		.byte	56
 270 00f2 30       		.byte	48
 271 00f3 06       		.byte	6
 272 00f4 0E       		.byte	14
 273 00f5 3E       		.byte	62
 274 00f6 0E       		.byte	14
 275 00f7 06       		.byte	6
 276 00f8 00       		.byte	0
 277 00f9 00       		.byte	0
 278 00fa 00       		.byte	0
 279 00fb 00       		.byte	0
 280 00fc 00       		.byte	0
 281 00fd 00       		.byte	0
 282 00fe 00       		.byte	0
 283 00ff 5F       		.byte	95
 284 0100 00       		.byte	0
 285 0101 00       		.byte	0
ARM GAS  C:\Users\schmi\AppData\Local\Temp\ccA9az4I.s 			page 6


 286 0102 00       		.byte	0
 287 0103 07       		.byte	7
 288 0104 00       		.byte	0
 289 0105 07       		.byte	7
 290 0106 00       		.byte	0
 291 0107 14       		.byte	20
 292 0108 7F       		.byte	127
 293 0109 14       		.byte	20
 294 010a 7F       		.byte	127
 295 010b 14       		.byte	20
 296 010c 24       		.byte	36
 297 010d 2A       		.byte	42
 298 010e 7F       		.byte	127
 299 010f 2A       		.byte	42
 300 0110 12       		.byte	18
 301 0111 23       		.byte	35
 302 0112 13       		.byte	19
 303 0113 08       		.byte	8
 304 0114 64       		.byte	100
 305 0115 62       		.byte	98
 306 0116 36       		.byte	54
 307 0117 49       		.byte	73
 308 0118 56       		.byte	86
 309 0119 20       		.byte	32
 310 011a 50       		.byte	80
 311 011b 00       		.byte	0
 312 011c 08       		.byte	8
 313 011d 07       		.byte	7
 314 011e 03       		.byte	3
 315 011f 00       		.byte	0
 316 0120 00       		.byte	0
 317 0121 1C       		.byte	28
 318 0122 22       		.byte	34
 319 0123 41       		.byte	65
 320 0124 00       		.byte	0
 321 0125 00       		.byte	0
 322 0126 41       		.byte	65
 323 0127 22       		.byte	34
 324 0128 1C       		.byte	28
 325 0129 00       		.byte	0
 326 012a 2A       		.byte	42
 327 012b 1C       		.byte	28
 328 012c 7F       		.byte	127
 329 012d 1C       		.byte	28
 330 012e 2A       		.byte	42
 331 012f 08       		.byte	8
 332 0130 08       		.byte	8
 333 0131 3E       		.byte	62
 334 0132 08       		.byte	8
 335 0133 08       		.byte	8
 336 0134 00       		.byte	0
 337 0135 80       		.byte	-128
 338 0136 70       		.byte	112
 339 0137 30       		.byte	48
 340 0138 00       		.byte	0
 341 0139 08       		.byte	8
 342 013a 08       		.byte	8
ARM GAS  C:\Users\schmi\AppData\Local\Temp\ccA9az4I.s 			page 7


 343 013b 08       		.byte	8
 344 013c 08       		.byte	8
 345 013d 08       		.byte	8
 346 013e 00       		.byte	0
 347 013f 00       		.byte	0
 348 0140 60       		.byte	96
 349 0141 60       		.byte	96
 350 0142 00       		.byte	0
 351 0143 20       		.byte	32
 352 0144 10       		.byte	16
 353 0145 08       		.byte	8
 354 0146 04       		.byte	4
 355 0147 02       		.byte	2
 356 0148 3E       		.byte	62
 357 0149 51       		.byte	81
 358 014a 49       		.byte	73
 359 014b 45       		.byte	69
 360 014c 3E       		.byte	62
 361 014d 00       		.byte	0
 362 014e 42       		.byte	66
 363 014f 7F       		.byte	127
 364 0150 40       		.byte	64
 365 0151 00       		.byte	0
 366 0152 72       		.byte	114
 367 0153 49       		.byte	73
 368 0154 49       		.byte	73
 369 0155 49       		.byte	73
 370 0156 46       		.byte	70
 371 0157 21       		.byte	33
 372 0158 41       		.byte	65
 373 0159 49       		.byte	73
 374 015a 4D       		.byte	77
 375 015b 33       		.byte	51
 376 015c 18       		.byte	24
 377 015d 14       		.byte	20
 378 015e 12       		.byte	18
 379 015f 7F       		.byte	127
 380 0160 10       		.byte	16
 381 0161 27       		.byte	39
 382 0162 45       		.byte	69
 383 0163 45       		.byte	69
 384 0164 45       		.byte	69
 385 0165 39       		.byte	57
 386 0166 3C       		.byte	60
 387 0167 4A       		.byte	74
 388 0168 49       		.byte	73
 389 0169 49       		.byte	73
 390 016a 31       		.byte	49
 391 016b 41       		.byte	65
 392 016c 21       		.byte	33
 393 016d 11       		.byte	17
 394 016e 09       		.byte	9
 395 016f 07       		.byte	7
 396 0170 36       		.byte	54
 397 0171 49       		.byte	73
 398 0172 49       		.byte	73
 399 0173 49       		.byte	73
ARM GAS  C:\Users\schmi\AppData\Local\Temp\ccA9az4I.s 			page 8


 400 0174 36       		.byte	54
 401 0175 46       		.byte	70
 402 0176 49       		.byte	73
 403 0177 49       		.byte	73
 404 0178 29       		.byte	41
 405 0179 1E       		.byte	30
 406 017a 00       		.byte	0
 407 017b 00       		.byte	0
 408 017c 14       		.byte	20
 409 017d 00       		.byte	0
 410 017e 00       		.byte	0
 411 017f 00       		.byte	0
 412 0180 40       		.byte	64
 413 0181 34       		.byte	52
 414 0182 00       		.byte	0
 415 0183 00       		.byte	0
 416 0184 00       		.byte	0
 417 0185 08       		.byte	8
 418 0186 14       		.byte	20
 419 0187 22       		.byte	34
 420 0188 41       		.byte	65
 421 0189 14       		.byte	20
 422 018a 14       		.byte	20
 423 018b 14       		.byte	20
 424 018c 14       		.byte	20
 425 018d 14       		.byte	20
 426 018e 00       		.byte	0
 427 018f 41       		.byte	65
 428 0190 22       		.byte	34
 429 0191 14       		.byte	20
 430 0192 08       		.byte	8
 431 0193 02       		.byte	2
 432 0194 01       		.byte	1
 433 0195 59       		.byte	89
 434 0196 09       		.byte	9
 435 0197 06       		.byte	6
 436 0198 3E       		.byte	62
 437 0199 41       		.byte	65
 438 019a 5D       		.byte	93
 439 019b 59       		.byte	89
 440 019c 4E       		.byte	78
 441 019d 7C       		.byte	124
 442 019e 12       		.byte	18
 443 019f 11       		.byte	17
 444 01a0 12       		.byte	18
 445 01a1 7C       		.byte	124
 446 01a2 7F       		.byte	127
 447 01a3 49       		.byte	73
 448 01a4 49       		.byte	73
 449 01a5 49       		.byte	73
 450 01a6 36       		.byte	54
 451 01a7 3E       		.byte	62
 452 01a8 41       		.byte	65
 453 01a9 41       		.byte	65
 454 01aa 41       		.byte	65
 455 01ab 22       		.byte	34
 456 01ac 7F       		.byte	127
ARM GAS  C:\Users\schmi\AppData\Local\Temp\ccA9az4I.s 			page 9


 457 01ad 41       		.byte	65
 458 01ae 41       		.byte	65
 459 01af 41       		.byte	65
 460 01b0 3E       		.byte	62
 461 01b1 7F       		.byte	127
 462 01b2 49       		.byte	73
 463 01b3 49       		.byte	73
 464 01b4 49       		.byte	73
 465 01b5 41       		.byte	65
 466 01b6 7F       		.byte	127
 467 01b7 09       		.byte	9
 468 01b8 09       		.byte	9
 469 01b9 09       		.byte	9
 470 01ba 01       		.byte	1
 471 01bb 3E       		.byte	62
 472 01bc 41       		.byte	65
 473 01bd 41       		.byte	65
 474 01be 51       		.byte	81
 475 01bf 73       		.byte	115
 476 01c0 7F       		.byte	127
 477 01c1 08       		.byte	8
 478 01c2 08       		.byte	8
 479 01c3 08       		.byte	8
 480 01c4 7F       		.byte	127
 481 01c5 00       		.byte	0
 482 01c6 41       		.byte	65
 483 01c7 7F       		.byte	127
 484 01c8 41       		.byte	65
 485 01c9 00       		.byte	0
 486 01ca 20       		.byte	32
 487 01cb 40       		.byte	64
 488 01cc 41       		.byte	65
 489 01cd 3F       		.byte	63
 490 01ce 01       		.byte	1
 491 01cf 7F       		.byte	127
 492 01d0 08       		.byte	8
 493 01d1 14       		.byte	20
 494 01d2 22       		.byte	34
 495 01d3 41       		.byte	65
 496 01d4 7F       		.byte	127
 497 01d5 40       		.byte	64
 498 01d6 40       		.byte	64
 499 01d7 40       		.byte	64
 500 01d8 40       		.byte	64
 501 01d9 7F       		.byte	127
 502 01da 02       		.byte	2
 503 01db 1C       		.byte	28
 504 01dc 02       		.byte	2
 505 01dd 7F       		.byte	127
 506 01de 7F       		.byte	127
 507 01df 04       		.byte	4
 508 01e0 08       		.byte	8
 509 01e1 10       		.byte	16
 510 01e2 7F       		.byte	127
 511 01e3 3E       		.byte	62
 512 01e4 41       		.byte	65
 513 01e5 41       		.byte	65
ARM GAS  C:\Users\schmi\AppData\Local\Temp\ccA9az4I.s 			page 10


 514 01e6 41       		.byte	65
 515 01e7 3E       		.byte	62
 516 01e8 7F       		.byte	127
 517 01e9 09       		.byte	9
 518 01ea 09       		.byte	9
 519 01eb 09       		.byte	9
 520 01ec 06       		.byte	6
 521 01ed 3E       		.byte	62
 522 01ee 41       		.byte	65
 523 01ef 51       		.byte	81
 524 01f0 21       		.byte	33
 525 01f1 5E       		.byte	94
 526 01f2 7F       		.byte	127
 527 01f3 09       		.byte	9
 528 01f4 19       		.byte	25
 529 01f5 29       		.byte	41
 530 01f6 46       		.byte	70
 531 01f7 26       		.byte	38
 532 01f8 49       		.byte	73
 533 01f9 49       		.byte	73
 534 01fa 49       		.byte	73
 535 01fb 32       		.byte	50
 536 01fc 03       		.byte	3
 537 01fd 01       		.byte	1
 538 01fe 7F       		.byte	127
 539 01ff 01       		.byte	1
 540 0200 03       		.byte	3
 541 0201 3F       		.byte	63
 542 0202 40       		.byte	64
 543 0203 40       		.byte	64
 544 0204 40       		.byte	64
 545 0205 3F       		.byte	63
 546 0206 1F       		.byte	31
 547 0207 20       		.byte	32
 548 0208 40       		.byte	64
 549 0209 20       		.byte	32
 550 020a 1F       		.byte	31
 551 020b 3F       		.byte	63
 552 020c 40       		.byte	64
 553 020d 38       		.byte	56
 554 020e 40       		.byte	64
 555 020f 3F       		.byte	63
 556 0210 63       		.byte	99
 557 0211 14       		.byte	20
 558 0212 08       		.byte	8
 559 0213 14       		.byte	20
 560 0214 63       		.byte	99
 561 0215 03       		.byte	3
 562 0216 04       		.byte	4
 563 0217 78       		.byte	120
 564 0218 04       		.byte	4
 565 0219 03       		.byte	3
 566 021a 61       		.byte	97
 567 021b 59       		.byte	89
 568 021c 49       		.byte	73
 569 021d 4D       		.byte	77
 570 021e 43       		.byte	67
ARM GAS  C:\Users\schmi\AppData\Local\Temp\ccA9az4I.s 			page 11


 571 021f 00       		.byte	0
 572 0220 7F       		.byte	127
 573 0221 41       		.byte	65
 574 0222 41       		.byte	65
 575 0223 41       		.byte	65
 576 0224 02       		.byte	2
 577 0225 04       		.byte	4
 578 0226 08       		.byte	8
 579 0227 10       		.byte	16
 580 0228 20       		.byte	32
 581 0229 00       		.byte	0
 582 022a 41       		.byte	65
 583 022b 41       		.byte	65
 584 022c 41       		.byte	65
 585 022d 7F       		.byte	127
 586 022e 04       		.byte	4
 587 022f 02       		.byte	2
 588 0230 01       		.byte	1
 589 0231 02       		.byte	2
 590 0232 04       		.byte	4
 591 0233 40       		.byte	64
 592 0234 40       		.byte	64
 593 0235 40       		.byte	64
 594 0236 40       		.byte	64
 595 0237 40       		.byte	64
 596 0238 00       		.byte	0
 597 0239 03       		.byte	3
 598 023a 07       		.byte	7
 599 023b 08       		.byte	8
 600 023c 00       		.byte	0
 601 023d 20       		.byte	32
 602 023e 54       		.byte	84
 603 023f 54       		.byte	84
 604 0240 78       		.byte	120
 605 0241 40       		.byte	64
 606 0242 7F       		.byte	127
 607 0243 28       		.byte	40
 608 0244 44       		.byte	68
 609 0245 44       		.byte	68
 610 0246 38       		.byte	56
 611 0247 38       		.byte	56
 612 0248 44       		.byte	68
 613 0249 44       		.byte	68
 614 024a 44       		.byte	68
 615 024b 28       		.byte	40
 616 024c 38       		.byte	56
 617 024d 44       		.byte	68
 618 024e 44       		.byte	68
 619 024f 28       		.byte	40
 620 0250 7F       		.byte	127
 621 0251 38       		.byte	56
 622 0252 54       		.byte	84
 623 0253 54       		.byte	84
 624 0254 54       		.byte	84
 625 0255 18       		.byte	24
 626 0256 00       		.byte	0
 627 0257 08       		.byte	8
ARM GAS  C:\Users\schmi\AppData\Local\Temp\ccA9az4I.s 			page 12


 628 0258 7E       		.byte	126
 629 0259 09       		.byte	9
 630 025a 02       		.byte	2
 631 025b 18       		.byte	24
 632 025c A4       		.byte	-92
 633 025d A4       		.byte	-92
 634 025e 9C       		.byte	-100
 635 025f 78       		.byte	120
 636 0260 7F       		.byte	127
 637 0261 08       		.byte	8
 638 0262 04       		.byte	4
 639 0263 04       		.byte	4
 640 0264 78       		.byte	120
 641 0265 00       		.byte	0
 642 0266 44       		.byte	68
 643 0267 7D       		.byte	125
 644 0268 40       		.byte	64
 645 0269 00       		.byte	0
 646 026a 20       		.byte	32
 647 026b 40       		.byte	64
 648 026c 40       		.byte	64
 649 026d 3D       		.byte	61
 650 026e 00       		.byte	0
 651 026f 7F       		.byte	127
 652 0270 10       		.byte	16
 653 0271 28       		.byte	40
 654 0272 44       		.byte	68
 655 0273 00       		.byte	0
 656 0274 00       		.byte	0
 657 0275 41       		.byte	65
 658 0276 7F       		.byte	127
 659 0277 40       		.byte	64
 660 0278 00       		.byte	0
 661 0279 7C       		.byte	124
 662 027a 04       		.byte	4
 663 027b 78       		.byte	120
 664 027c 04       		.byte	4
 665 027d 78       		.byte	120
 666 027e 7C       		.byte	124
 667 027f 08       		.byte	8
 668 0280 04       		.byte	4
 669 0281 04       		.byte	4
 670 0282 78       		.byte	120
 671 0283 38       		.byte	56
 672 0284 44       		.byte	68
 673 0285 44       		.byte	68
 674 0286 44       		.byte	68
 675 0287 38       		.byte	56
 676 0288 FC       		.byte	-4
 677 0289 18       		.byte	24
 678 028a 24       		.byte	36
 679 028b 24       		.byte	36
 680 028c 18       		.byte	24
 681 028d 18       		.byte	24
 682 028e 24       		.byte	36
 683 028f 24       		.byte	36
 684 0290 18       		.byte	24
ARM GAS  C:\Users\schmi\AppData\Local\Temp\ccA9az4I.s 			page 13


 685 0291 FC       		.byte	-4
 686 0292 7C       		.byte	124
 687 0293 08       		.byte	8
 688 0294 04       		.byte	4
 689 0295 04       		.byte	4
 690 0296 08       		.byte	8
 691 0297 48       		.byte	72
 692 0298 54       		.byte	84
 693 0299 54       		.byte	84
 694 029a 54       		.byte	84
 695 029b 24       		.byte	36
 696 029c 04       		.byte	4
 697 029d 04       		.byte	4
 698 029e 3F       		.byte	63
 699 029f 44       		.byte	68
 700 02a0 24       		.byte	36
 701 02a1 3C       		.byte	60
 702 02a2 40       		.byte	64
 703 02a3 40       		.byte	64
 704 02a4 20       		.byte	32
 705 02a5 7C       		.byte	124
 706 02a6 1C       		.byte	28
 707 02a7 20       		.byte	32
 708 02a8 40       		.byte	64
 709 02a9 20       		.byte	32
 710 02aa 1C       		.byte	28
 711 02ab 3C       		.byte	60
 712 02ac 40       		.byte	64
 713 02ad 30       		.byte	48
 714 02ae 40       		.byte	64
 715 02af 3C       		.byte	60
 716 02b0 44       		.byte	68
 717 02b1 28       		.byte	40
 718 02b2 10       		.byte	16
 719 02b3 28       		.byte	40
 720 02b4 44       		.byte	68
 721 02b5 4C       		.byte	76
 722 02b6 90       		.byte	-112
 723 02b7 90       		.byte	-112
 724 02b8 90       		.byte	-112
 725 02b9 7C       		.byte	124
 726 02ba 44       		.byte	68
 727 02bb 64       		.byte	100
 728 02bc 54       		.byte	84
 729 02bd 4C       		.byte	76
 730 02be 44       		.byte	68
 731 02bf 00       		.byte	0
 732 02c0 08       		.byte	8
 733 02c1 36       		.byte	54
 734 02c2 41       		.byte	65
 735 02c3 00       		.byte	0
 736 02c4 00       		.byte	0
 737 02c5 00       		.byte	0
 738 02c6 77       		.byte	119
 739 02c7 00       		.byte	0
 740 02c8 00       		.byte	0
 741 02c9 00       		.byte	0
ARM GAS  C:\Users\schmi\AppData\Local\Temp\ccA9az4I.s 			page 14


 742 02ca 41       		.byte	65
 743 02cb 36       		.byte	54
 744 02cc 08       		.byte	8
 745 02cd 00       		.byte	0
 746 02ce 02       		.byte	2
 747 02cf 01       		.byte	1
 748 02d0 02       		.byte	2
 749 02d1 04       		.byte	4
 750 02d2 02       		.byte	2
 751 02d3 3C       		.byte	60
 752 02d4 26       		.byte	38
 753 02d5 23       		.byte	35
 754 02d6 26       		.byte	38
 755 02d7 3C       		.byte	60
 756 02d8 1E       		.byte	30
 757 02d9 A1       		.byte	-95
 758 02da A1       		.byte	-95
 759 02db 61       		.byte	97
 760 02dc 12       		.byte	18
 761 02dd 3A       		.byte	58
 762 02de 40       		.byte	64
 763 02df 40       		.byte	64
 764 02e0 20       		.byte	32
 765 02e1 7A       		.byte	122
 766 02e2 38       		.byte	56
 767 02e3 54       		.byte	84
 768 02e4 54       		.byte	84
 769 02e5 55       		.byte	85
 770 02e6 59       		.byte	89
 771 02e7 21       		.byte	33
 772 02e8 55       		.byte	85
 773 02e9 55       		.byte	85
 774 02ea 79       		.byte	121
 775 02eb 41       		.byte	65
 776 02ec 22       		.byte	34
 777 02ed 54       		.byte	84
 778 02ee 54       		.byte	84
 779 02ef 78       		.byte	120
 780 02f0 42       		.byte	66
 781 02f1 21       		.byte	33
 782 02f2 55       		.byte	85
 783 02f3 54       		.byte	84
 784 02f4 78       		.byte	120
 785 02f5 40       		.byte	64
 786 02f6 20       		.byte	32
 787 02f7 54       		.byte	84
 788 02f8 55       		.byte	85
 789 02f9 79       		.byte	121
 790 02fa 40       		.byte	64
 791 02fb 0C       		.byte	12
 792 02fc 1E       		.byte	30
 793 02fd 52       		.byte	82
 794 02fe 72       		.byte	114
 795 02ff 12       		.byte	18
 796 0300 39       		.byte	57
 797 0301 55       		.byte	85
 798 0302 55       		.byte	85
ARM GAS  C:\Users\schmi\AppData\Local\Temp\ccA9az4I.s 			page 15


 799 0303 55       		.byte	85
 800 0304 59       		.byte	89
 801 0305 39       		.byte	57
 802 0306 54       		.byte	84
 803 0307 54       		.byte	84
 804 0308 54       		.byte	84
 805 0309 59       		.byte	89
 806 030a 39       		.byte	57
 807 030b 55       		.byte	85
 808 030c 54       		.byte	84
 809 030d 54       		.byte	84
 810 030e 58       		.byte	88
 811 030f 00       		.byte	0
 812 0310 00       		.byte	0
 813 0311 45       		.byte	69
 814 0312 7C       		.byte	124
 815 0313 41       		.byte	65
 816 0314 00       		.byte	0
 817 0315 02       		.byte	2
 818 0316 45       		.byte	69
 819 0317 7D       		.byte	125
 820 0318 42       		.byte	66
 821 0319 00       		.byte	0
 822 031a 01       		.byte	1
 823 031b 45       		.byte	69
 824 031c 7C       		.byte	124
 825 031d 40       		.byte	64
 826 031e 7D       		.byte	125
 827 031f 12       		.byte	18
 828 0320 11       		.byte	17
 829 0321 12       		.byte	18
 830 0322 7D       		.byte	125
 831 0323 F0       		.byte	-16
 832 0324 28       		.byte	40
 833 0325 25       		.byte	37
 834 0326 28       		.byte	40
 835 0327 F0       		.byte	-16
 836 0328 7C       		.byte	124
 837 0329 54       		.byte	84
 838 032a 55       		.byte	85
 839 032b 45       		.byte	69
 840 032c 00       		.byte	0
 841 032d 20       		.byte	32
 842 032e 54       		.byte	84
 843 032f 54       		.byte	84
 844 0330 7C       		.byte	124
 845 0331 54       		.byte	84
 846 0332 7C       		.byte	124
 847 0333 0A       		.byte	10
 848 0334 09       		.byte	9
 849 0335 7F       		.byte	127
 850 0336 49       		.byte	73
 851 0337 32       		.byte	50
 852 0338 49       		.byte	73
 853 0339 49       		.byte	73
 854 033a 49       		.byte	73
 855 033b 32       		.byte	50
ARM GAS  C:\Users\schmi\AppData\Local\Temp\ccA9az4I.s 			page 16


 856 033c 3A       		.byte	58
 857 033d 44       		.byte	68
 858 033e 44       		.byte	68
 859 033f 44       		.byte	68
 860 0340 3A       		.byte	58
 861 0341 32       		.byte	50
 862 0342 4A       		.byte	74
 863 0343 48       		.byte	72
 864 0344 48       		.byte	72
 865 0345 30       		.byte	48
 866 0346 3A       		.byte	58
 867 0347 41       		.byte	65
 868 0348 41       		.byte	65
 869 0349 21       		.byte	33
 870 034a 7A       		.byte	122
 871 034b 3A       		.byte	58
 872 034c 42       		.byte	66
 873 034d 40       		.byte	64
 874 034e 20       		.byte	32
 875 034f 78       		.byte	120
 876 0350 00       		.byte	0
 877 0351 9D       		.byte	-99
 878 0352 A0       		.byte	-96
 879 0353 A0       		.byte	-96
 880 0354 7D       		.byte	125
 881 0355 3D       		.byte	61
 882 0356 42       		.byte	66
 883 0357 42       		.byte	66
 884 0358 42       		.byte	66
 885 0359 3D       		.byte	61
 886 035a 3D       		.byte	61
 887 035b 40       		.byte	64
 888 035c 40       		.byte	64
 889 035d 40       		.byte	64
 890 035e 3D       		.byte	61
 891 035f 3C       		.byte	60
 892 0360 24       		.byte	36
 893 0361 FF       		.byte	-1
 894 0362 24       		.byte	36
 895 0363 24       		.byte	36
 896 0364 48       		.byte	72
 897 0365 7E       		.byte	126
 898 0366 49       		.byte	73
 899 0367 43       		.byte	67
 900 0368 66       		.byte	102
 901 0369 2B       		.byte	43
 902 036a 2F       		.byte	47
 903 036b FC       		.byte	-4
 904 036c 2F       		.byte	47
 905 036d 2B       		.byte	43
 906 036e FF       		.byte	-1
 907 036f 09       		.byte	9
 908 0370 29       		.byte	41
 909 0371 F6       		.byte	-10
 910 0372 20       		.byte	32
 911 0373 C0       		.byte	-64
 912 0374 88       		.byte	-120
ARM GAS  C:\Users\schmi\AppData\Local\Temp\ccA9az4I.s 			page 17


 913 0375 7E       		.byte	126
 914 0376 09       		.byte	9
 915 0377 03       		.byte	3
 916 0378 20       		.byte	32
 917 0379 54       		.byte	84
 918 037a 54       		.byte	84
 919 037b 79       		.byte	121
 920 037c 41       		.byte	65
 921 037d 00       		.byte	0
 922 037e 00       		.byte	0
 923 037f 44       		.byte	68
 924 0380 7D       		.byte	125
 925 0381 41       		.byte	65
 926 0382 30       		.byte	48
 927 0383 48       		.byte	72
 928 0384 48       		.byte	72
 929 0385 4A       		.byte	74
 930 0386 32       		.byte	50
 931 0387 38       		.byte	56
 932 0388 40       		.byte	64
 933 0389 40       		.byte	64
 934 038a 22       		.byte	34
 935 038b 7A       		.byte	122
 936 038c 00       		.byte	0
 937 038d 7A       		.byte	122
 938 038e 0A       		.byte	10
 939 038f 0A       		.byte	10
 940 0390 72       		.byte	114
 941 0391 7D       		.byte	125
 942 0392 0D       		.byte	13
 943 0393 19       		.byte	25
 944 0394 31       		.byte	49
 945 0395 7D       		.byte	125
 946 0396 26       		.byte	38
 947 0397 29       		.byte	41
 948 0398 29       		.byte	41
 949 0399 2F       		.byte	47
 950 039a 28       		.byte	40
 951 039b 26       		.byte	38
 952 039c 29       		.byte	41
 953 039d 29       		.byte	41
 954 039e 29       		.byte	41
 955 039f 26       		.byte	38
 956 03a0 30       		.byte	48
 957 03a1 48       		.byte	72
 958 03a2 4D       		.byte	77
 959 03a3 40       		.byte	64
 960 03a4 20       		.byte	32
 961 03a5 38       		.byte	56
 962 03a6 08       		.byte	8
 963 03a7 08       		.byte	8
 964 03a8 08       		.byte	8
 965 03a9 08       		.byte	8
 966 03aa 08       		.byte	8
 967 03ab 08       		.byte	8
 968 03ac 08       		.byte	8
 969 03ad 08       		.byte	8
ARM GAS  C:\Users\schmi\AppData\Local\Temp\ccA9az4I.s 			page 18


 970 03ae 38       		.byte	56
 971 03af 2F       		.byte	47
 972 03b0 10       		.byte	16
 973 03b1 C8       		.byte	-56
 974 03b2 AC       		.byte	-84
 975 03b3 BA       		.byte	-70
 976 03b4 2F       		.byte	47
 977 03b5 10       		.byte	16
 978 03b6 28       		.byte	40
 979 03b7 34       		.byte	52
 980 03b8 FA       		.byte	-6
 981 03b9 00       		.byte	0
 982 03ba 00       		.byte	0
 983 03bb 7B       		.byte	123
 984 03bc 00       		.byte	0
 985 03bd 00       		.byte	0
 986 03be 08       		.byte	8
 987 03bf 14       		.byte	20
 988 03c0 2A       		.byte	42
 989 03c1 14       		.byte	20
 990 03c2 22       		.byte	34
 991 03c3 22       		.byte	34
 992 03c4 14       		.byte	20
 993 03c5 2A       		.byte	42
 994 03c6 14       		.byte	20
 995 03c7 08       		.byte	8
 996 03c8 55       		.byte	85
 997 03c9 00       		.byte	0
 998 03ca 55       		.byte	85
 999 03cb 00       		.byte	0
 1000 03cc 55       		.byte	85
 1001 03cd AA       		.byte	-86
 1002 03ce 55       		.byte	85
 1003 03cf AA       		.byte	-86
 1004 03d0 55       		.byte	85
 1005 03d1 AA       		.byte	-86
 1006 03d2 FF       		.byte	-1
 1007 03d3 55       		.byte	85
 1008 03d4 FF       		.byte	-1
 1009 03d5 55       		.byte	85
 1010 03d6 FF       		.byte	-1
 1011 03d7 00       		.byte	0
 1012 03d8 00       		.byte	0
 1013 03d9 00       		.byte	0
 1014 03da FF       		.byte	-1
 1015 03db 00       		.byte	0
 1016 03dc 10       		.byte	16
 1017 03dd 10       		.byte	16
 1018 03de 10       		.byte	16
 1019 03df FF       		.byte	-1
 1020 03e0 00       		.byte	0
 1021 03e1 14       		.byte	20
 1022 03e2 14       		.byte	20
 1023 03e3 14       		.byte	20
 1024 03e4 FF       		.byte	-1
 1025 03e5 00       		.byte	0
 1026 03e6 10       		.byte	16
ARM GAS  C:\Users\schmi\AppData\Local\Temp\ccA9az4I.s 			page 19


 1027 03e7 10       		.byte	16
 1028 03e8 FF       		.byte	-1
 1029 03e9 00       		.byte	0
 1030 03ea FF       		.byte	-1
 1031 03eb 10       		.byte	16
 1032 03ec 10       		.byte	16
 1033 03ed F0       		.byte	-16
 1034 03ee 10       		.byte	16
 1035 03ef F0       		.byte	-16
 1036 03f0 14       		.byte	20
 1037 03f1 14       		.byte	20
 1038 03f2 14       		.byte	20
 1039 03f3 FC       		.byte	-4
 1040 03f4 00       		.byte	0
 1041 03f5 14       		.byte	20
 1042 03f6 14       		.byte	20
 1043 03f7 F7       		.byte	-9
 1044 03f8 00       		.byte	0
 1045 03f9 FF       		.byte	-1
 1046 03fa 00       		.byte	0
 1047 03fb 00       		.byte	0
 1048 03fc FF       		.byte	-1
 1049 03fd 00       		.byte	0
 1050 03fe FF       		.byte	-1
 1051 03ff 14       		.byte	20
 1052 0400 14       		.byte	20
 1053 0401 F4       		.byte	-12
 1054 0402 04       		.byte	4
 1055 0403 FC       		.byte	-4
 1056 0404 14       		.byte	20
 1057 0405 14       		.byte	20
 1058 0406 17       		.byte	23
 1059 0407 10       		.byte	16
 1060 0408 1F       		.byte	31
 1061 0409 10       		.byte	16
 1062 040a 10       		.byte	16
 1063 040b 1F       		.byte	31
 1064 040c 10       		.byte	16
 1065 040d 1F       		.byte	31
 1066 040e 14       		.byte	20
 1067 040f 14       		.byte	20
 1068 0410 14       		.byte	20
 1069 0411 1F       		.byte	31
 1070 0412 00       		.byte	0
 1071 0413 10       		.byte	16
 1072 0414 10       		.byte	16
 1073 0415 10       		.byte	16
 1074 0416 F0       		.byte	-16
 1075 0417 00       		.byte	0
 1076 0418 00       		.byte	0
 1077 0419 00       		.byte	0
 1078 041a 00       		.byte	0
 1079 041b 1F       		.byte	31
 1080 041c 10       		.byte	16
 1081 041d 10       		.byte	16
 1082 041e 10       		.byte	16
 1083 041f 10       		.byte	16
ARM GAS  C:\Users\schmi\AppData\Local\Temp\ccA9az4I.s 			page 20


 1084 0420 1F       		.byte	31
 1085 0421 10       		.byte	16
 1086 0422 10       		.byte	16
 1087 0423 10       		.byte	16
 1088 0424 10       		.byte	16
 1089 0425 F0       		.byte	-16
 1090 0426 10       		.byte	16
 1091 0427 00       		.byte	0
 1092 0428 00       		.byte	0
 1093 0429 00       		.byte	0
 1094 042a FF       		.byte	-1
 1095 042b 10       		.byte	16
 1096 042c 10       		.byte	16
 1097 042d 10       		.byte	16
 1098 042e 10       		.byte	16
 1099 042f 10       		.byte	16
 1100 0430 10       		.byte	16
 1101 0431 10       		.byte	16
 1102 0432 10       		.byte	16
 1103 0433 10       		.byte	16
 1104 0434 FF       		.byte	-1
 1105 0435 10       		.byte	16
 1106 0436 00       		.byte	0
 1107 0437 00       		.byte	0
 1108 0438 00       		.byte	0
 1109 0439 FF       		.byte	-1
 1110 043a 14       		.byte	20
 1111 043b 00       		.byte	0
 1112 043c 00       		.byte	0
 1113 043d FF       		.byte	-1
 1114 043e 00       		.byte	0
 1115 043f FF       		.byte	-1
 1116 0440 00       		.byte	0
 1117 0441 00       		.byte	0
 1118 0442 1F       		.byte	31
 1119 0443 10       		.byte	16
 1120 0444 17       		.byte	23
 1121 0445 00       		.byte	0
 1122 0446 00       		.byte	0
 1123 0447 FC       		.byte	-4
 1124 0448 04       		.byte	4
 1125 0449 F4       		.byte	-12
 1126 044a 14       		.byte	20
 1127 044b 14       		.byte	20
 1128 044c 17       		.byte	23
 1129 044d 10       		.byte	16
 1130 044e 17       		.byte	23
 1131 044f 14       		.byte	20
 1132 0450 14       		.byte	20
 1133 0451 F4       		.byte	-12
 1134 0452 04       		.byte	4
 1135 0453 F4       		.byte	-12
 1136 0454 00       		.byte	0
 1137 0455 00       		.byte	0
 1138 0456 FF       		.byte	-1
 1139 0457 00       		.byte	0
 1140 0458 F7       		.byte	-9
ARM GAS  C:\Users\schmi\AppData\Local\Temp\ccA9az4I.s 			page 21


 1141 0459 14       		.byte	20
 1142 045a 14       		.byte	20
 1143 045b 14       		.byte	20
 1144 045c 14       		.byte	20
 1145 045d 14       		.byte	20
 1146 045e 14       		.byte	20
 1147 045f 14       		.byte	20
 1148 0460 F7       		.byte	-9
 1149 0461 00       		.byte	0
 1150 0462 F7       		.byte	-9
 1151 0463 14       		.byte	20
 1152 0464 14       		.byte	20
 1153 0465 14       		.byte	20
 1154 0466 17       		.byte	23
 1155 0467 14       		.byte	20
 1156 0468 10       		.byte	16
 1157 0469 10       		.byte	16
 1158 046a 1F       		.byte	31
 1159 046b 10       		.byte	16
 1160 046c 1F       		.byte	31
 1161 046d 14       		.byte	20
 1162 046e 14       		.byte	20
 1163 046f 14       		.byte	20
 1164 0470 F4       		.byte	-12
 1165 0471 14       		.byte	20
 1166 0472 10       		.byte	16
 1167 0473 10       		.byte	16
 1168 0474 F0       		.byte	-16
 1169 0475 10       		.byte	16
 1170 0476 F0       		.byte	-16
 1171 0477 00       		.byte	0
 1172 0478 00       		.byte	0
 1173 0479 1F       		.byte	31
 1174 047a 10       		.byte	16
 1175 047b 1F       		.byte	31
 1176 047c 00       		.byte	0
 1177 047d 00       		.byte	0
 1178 047e 00       		.byte	0
 1179 047f 1F       		.byte	31
 1180 0480 14       		.byte	20
 1181 0481 00       		.byte	0
 1182 0482 00       		.byte	0
 1183 0483 00       		.byte	0
 1184 0484 FC       		.byte	-4
 1185 0485 14       		.byte	20
 1186 0486 00       		.byte	0
 1187 0487 00       		.byte	0
 1188 0488 F0       		.byte	-16
 1189 0489 10       		.byte	16
 1190 048a F0       		.byte	-16
 1191 048b 10       		.byte	16
 1192 048c 10       		.byte	16
 1193 048d FF       		.byte	-1
 1194 048e 10       		.byte	16
 1195 048f FF       		.byte	-1
 1196 0490 14       		.byte	20
 1197 0491 14       		.byte	20
ARM GAS  C:\Users\schmi\AppData\Local\Temp\ccA9az4I.s 			page 22


 1198 0492 14       		.byte	20
 1199 0493 FF       		.byte	-1
 1200 0494 14       		.byte	20
 1201 0495 10       		.byte	16
 1202 0496 10       		.byte	16
 1203 0497 10       		.byte	16
 1204 0498 1F       		.byte	31
 1205 0499 00       		.byte	0
 1206 049a 00       		.byte	0
 1207 049b 00       		.byte	0
 1208 049c 00       		.byte	0
 1209 049d F0       		.byte	-16
 1210 049e 10       		.byte	16
 1211 049f FF       		.byte	-1
 1212 04a0 FF       		.byte	-1
 1213 04a1 FF       		.byte	-1
 1214 04a2 FF       		.byte	-1
 1215 04a3 FF       		.byte	-1
 1216 04a4 F0       		.byte	-16
 1217 04a5 F0       		.byte	-16
 1218 04a6 F0       		.byte	-16
 1219 04a7 F0       		.byte	-16
 1220 04a8 F0       		.byte	-16
 1221 04a9 FF       		.byte	-1
 1222 04aa FF       		.byte	-1
 1223 04ab FF       		.byte	-1
 1224 04ac 00       		.byte	0
 1225 04ad 00       		.byte	0
 1226 04ae 00       		.byte	0
 1227 04af 00       		.byte	0
 1228 04b0 00       		.byte	0
 1229 04b1 FF       		.byte	-1
 1230 04b2 FF       		.byte	-1
 1231 04b3 0F       		.byte	15
 1232 04b4 0F       		.byte	15
 1233 04b5 0F       		.byte	15
 1234 04b6 0F       		.byte	15
 1235 04b7 0F       		.byte	15
 1236 04b8 38       		.byte	56
 1237 04b9 44       		.byte	68
 1238 04ba 44       		.byte	68
 1239 04bb 38       		.byte	56
 1240 04bc 44       		.byte	68
 1241 04bd FC       		.byte	-4
 1242 04be 4A       		.byte	74
 1243 04bf 4A       		.byte	74
 1244 04c0 4A       		.byte	74
 1245 04c1 34       		.byte	52
 1246 04c2 7E       		.byte	126
 1247 04c3 02       		.byte	2
 1248 04c4 02       		.byte	2
 1249 04c5 06       		.byte	6
 1250 04c6 06       		.byte	6
 1251 04c7 02       		.byte	2
 1252 04c8 7E       		.byte	126
 1253 04c9 02       		.byte	2
 1254 04ca 7E       		.byte	126
ARM GAS  C:\Users\schmi\AppData\Local\Temp\ccA9az4I.s 			page 23


 1255 04cb 02       		.byte	2
 1256 04cc 63       		.byte	99
 1257 04cd 55       		.byte	85
 1258 04ce 49       		.byte	73
 1259 04cf 41       		.byte	65
 1260 04d0 63       		.byte	99
 1261 04d1 38       		.byte	56
 1262 04d2 44       		.byte	68
 1263 04d3 44       		.byte	68
 1264 04d4 3C       		.byte	60
 1265 04d5 04       		.byte	4
 1266 04d6 40       		.byte	64
 1267 04d7 7E       		.byte	126
 1268 04d8 20       		.byte	32
 1269 04d9 1E       		.byte	30
 1270 04da 20       		.byte	32
 1271 04db 06       		.byte	6
 1272 04dc 02       		.byte	2
 1273 04dd 7E       		.byte	126
 1274 04de 02       		.byte	2
 1275 04df 02       		.byte	2
 1276 04e0 99       		.byte	-103
 1277 04e1 A5       		.byte	-91
 1278 04e2 E7       		.byte	-25
 1279 04e3 A5       		.byte	-91
 1280 04e4 99       		.byte	-103
 1281 04e5 1C       		.byte	28
 1282 04e6 2A       		.byte	42
 1283 04e7 49       		.byte	73
 1284 04e8 2A       		.byte	42
 1285 04e9 1C       		.byte	28
 1286 04ea 4C       		.byte	76
 1287 04eb 72       		.byte	114
 1288 04ec 01       		.byte	1
 1289 04ed 72       		.byte	114
 1290 04ee 4C       		.byte	76
 1291 04ef 30       		.byte	48
 1292 04f0 4A       		.byte	74
 1293 04f1 4D       		.byte	77
 1294 04f2 4D       		.byte	77
 1295 04f3 30       		.byte	48
 1296 04f4 30       		.byte	48
 1297 04f5 48       		.byte	72
 1298 04f6 78       		.byte	120
 1299 04f7 48       		.byte	72
 1300 04f8 30       		.byte	48
 1301 04f9 BC       		.byte	-68
 1302 04fa 62       		.byte	98
 1303 04fb 5A       		.byte	90
 1304 04fc 46       		.byte	70
 1305 04fd 3D       		.byte	61
 1306 04fe 3E       		.byte	62
 1307 04ff 49       		.byte	73
 1308 0500 49       		.byte	73
 1309 0501 49       		.byte	73
 1310 0502 00       		.byte	0
 1311 0503 7E       		.byte	126
ARM GAS  C:\Users\schmi\AppData\Local\Temp\ccA9az4I.s 			page 24


 1312 0504 01       		.byte	1
 1313 0505 01       		.byte	1
 1314 0506 01       		.byte	1
 1315 0507 7E       		.byte	126
 1316 0508 2A       		.byte	42
 1317 0509 2A       		.byte	42
 1318 050a 2A       		.byte	42
 1319 050b 2A       		.byte	42
 1320 050c 2A       		.byte	42
 1321 050d 44       		.byte	68
 1322 050e 44       		.byte	68
 1323 050f 5F       		.byte	95
 1324 0510 44       		.byte	68
 1325 0511 44       		.byte	68
 1326 0512 40       		.byte	64
 1327 0513 51       		.byte	81
 1328 0514 4A       		.byte	74
 1329 0515 44       		.byte	68
 1330 0516 40       		.byte	64
 1331 0517 40       		.byte	64
 1332 0518 44       		.byte	68
 1333 0519 4A       		.byte	74
 1334 051a 51       		.byte	81
 1335 051b 40       		.byte	64
 1336 051c 00       		.byte	0
 1337 051d 00       		.byte	0
 1338 051e FF       		.byte	-1
 1339 051f 01       		.byte	1
 1340 0520 03       		.byte	3
 1341 0521 E0       		.byte	-32
 1342 0522 80       		.byte	-128
 1343 0523 FF       		.byte	-1
 1344 0524 00       		.byte	0
 1345 0525 00       		.byte	0
 1346 0526 08       		.byte	8
 1347 0527 08       		.byte	8
 1348 0528 6B       		.byte	107
 1349 0529 6B       		.byte	107
 1350 052a 08       		.byte	8
 1351 052b 36       		.byte	54
 1352 052c 12       		.byte	18
 1353 052d 36       		.byte	54
 1354 052e 24       		.byte	36
 1355 052f 36       		.byte	54
 1356 0530 06       		.byte	6
 1357 0531 0F       		.byte	15
 1358 0532 09       		.byte	9
 1359 0533 0F       		.byte	15
 1360 0534 06       		.byte	6
 1361 0535 00       		.byte	0
 1362 0536 00       		.byte	0
 1363 0537 18       		.byte	24
 1364 0538 18       		.byte	24
 1365 0539 00       		.byte	0
 1366 053a 00       		.byte	0
 1367 053b 00       		.byte	0
 1368 053c 10       		.byte	16
ARM GAS  C:\Users\schmi\AppData\Local\Temp\ccA9az4I.s 			page 25


 1369 053d 10       		.byte	16
 1370 053e 00       		.byte	0
 1371 053f 30       		.byte	48
 1372 0540 40       		.byte	64
 1373 0541 FF       		.byte	-1
 1374 0542 01       		.byte	1
 1375 0543 01       		.byte	1
 1376 0544 00       		.byte	0
 1377 0545 1F       		.byte	31
 1378 0546 01       		.byte	1
 1379 0547 01       		.byte	1
 1380 0548 1E       		.byte	30
 1381 0549 00       		.byte	0
 1382 054a 19       		.byte	25
 1383 054b 1D       		.byte	29
 1384 054c 17       		.byte	23
 1385 054d 12       		.byte	18
 1386 054e 00       		.byte	0
 1387 054f 3C       		.byte	60
 1388 0550 3C       		.byte	60
 1389 0551 3C       		.byte	60
 1390 0552 3C       		.byte	60
 1391 0553 00       		.byte	0
 1392 0554 00       		.byte	0
 1393 0555 00       		.byte	0
 1394 0556 00       		.byte	0
 1395 0557 00       		.byte	0
 1396              		.align	2
 1397              	.LC0:
 1398 0558 54465400 		.ascii	"TFT\000"
 1399              		.data
 1400              		.align	2
 1401              		.type	TAG, %object
 1402              		.size	TAG, 4
 1403              	TAG:
 1404 0000 58050000 		.word	.LC0
 1405              		.bss
 1406              	colstart:
 1407 0000 00       		.space	1
 1408              	rowstart:
 1409 0001 00       		.space	1
 1410              	xstart:
 1411 0002 00       		.space	1
 1412              	ystart:
 1413 0003 00       		.space	1
 1414              	textsize:
 1415 0004 00       		.space	1
 1416              	rotation:
 1417 0005 00       		.space	1
 1418              		.align	1
 1419              	_width:
 1420 0006 0000     		.space	2
 1421              		.align	1
 1422              	_height:
 1423 0008 0000     		.space	2
 1424              		.align	1
 1425              	cursor_x:
ARM GAS  C:\Users\schmi\AppData\Local\Temp\ccA9az4I.s 			page 26


 1426 000a 0000     		.space	2
 1427              		.align	1
 1428              	cursor_y:
 1429 000c 0000     		.space	2
 1430              		.align	1
 1431              	color:
 1432 000e 0000     		.space	2
 1433              		.align	1
 1434              	bgcolor:
 1435 0010 0000     		.space	2
 1436              	wrap:
 1437 0012 00       		.space	1
 1438 0013 00       		.align	2
 1439              	gfxFont:
 1440 0014 00000000 		.space	4
 1441              		.align	2
 1442              	TFT_RB_out:
 1443 0018 00000000 		.space	206
 1443      00000000 
 1443      00000000 
 1443      00000000 
 1443      00000000 
 1444              		.section	.text.__TFT_SPI_TX_ISR,"ax",%progbits
 1445              		.align	2
 1446              		.global	__TFT_SPI_TX_ISR
 1447              		.thumb
 1448              		.thumb_func
 1449              		.type	__TFT_SPI_TX_ISR, %function
 1450              	__TFT_SPI_TX_ISR:
 1451              	.LFB116:
 1452              		.file 1 "source\\bsw\\tft\\tft.c"
   1:source\bsw\tft/tft.c **** /**
   2:source\bsw\tft/tft.c ****  * \file	TFT.c
   3:source\bsw\tft/tft.c ****  * \author	Limor Fried 	Adafruit Industries
   4:source\bsw\tft/tft.c ****  * \author	Thomas Barth 	Hochschule Darmstadt - thomas.barth@h-da.de
   5:source\bsw\tft/tft.c ****  * \date 	08.08.2017
   6:source\bsw\tft/tft.c ****  * \version	0.1
   7:source\bsw\tft/tft.c ****  *
   8:source\bsw\tft/tft.c ****  * \copyright Copyright ©2017
   9:source\bsw\tft/tft.c ****  * Department of electrical engineering and information technology, Hochschule Darmstadt - Universi
  10:source\bsw\tft/tft.c ****  * Permission to use, copy, modify, and distribute this software and its documentation for educatio
  11:source\bsw\tft/tft.c ****  * (unless permitted by h_da) and official h_da projects, is hereby granted for enrolled students o
  12:source\bsw\tft/tft.c ****  * this paragraph and the following paragraph appear in all copies, modifications, and distribution
  13:source\bsw\tft/tft.c ****  * Contact Prof.Dr.-Ing. Peter Fromm, peter.fromm@h-da.de, Birkenweg 8 64295 Darmstadt - GERMANY fo
  14:source\bsw\tft/tft.c ****  *
  15:source\bsw\tft/tft.c ****  * \warning This software is a PROTOTYPE version and is not designed or intended for use in product
  16:source\bsw\tft/tft.c ****  * The user represents and warrants that it will NOT use or redistribute the Software for such purp
  17:source\bsw\tft/tft.c ****  * This prototype is for research purposes only. This software is provided "AS IS," without a warra
  18:source\bsw\tft/tft.c ****  */
  19:source\bsw\tft/tft.c **** 
  20:source\bsw\tft/tft.c **** #include "tft.h"
  21:source\bsw\tft/tft.c **** #include "ST7735.h"
  22:source\bsw\tft/tft.c **** #include "glcdfont.h"
  23:source\bsw\tft/tft.c **** #include "math_helper.h"
  24:source\bsw\tft/tft.c **** #include "logging.h"
  25:source\bsw\tft/tft.c **** 
  26:source\bsw\tft/tft.c **** //-------------------------------------[Definitions]
ARM GAS  C:\Users\schmi\AppData\Local\Temp\ccA9az4I.s 			page 27


  27:source\bsw\tft/tft.c **** 
  28:source\bsw\tft/tft.c **** /** 
  29:source\bsw\tft/tft.c **** * \brief API glue for the SPI module
  30:source\bsw\tft/tft.c **** */
  31:source\bsw\tft/tft.c **** #define MODULE_SPI(x)       PPCAT(CFG_TFT_SPI_MODULE, x)
  32:source\bsw\tft/tft.c **** 
  33:source\bsw\tft/tft.c **** /** 
  34:source\bsw\tft/tft.c **** * \brief API glue for the backlight PWM module
  35:source\bsw\tft/tft.c **** */
  36:source\bsw\tft/tft.c **** #define MODULE_PWM(x)       PPCAT(CFG_TFT_LED_MODULE, x)
  37:source\bsw\tft/tft.c **** 
  38:source\bsw\tft/tft.c **** // API glue for the Pins
  39:source\bsw\tft/tft.c **** #define MODULE_DC(x)        PPCAT(CFG_TFT_DC_PIN, x)      
  40:source\bsw\tft/tft.c **** #define MODULE_RES(x)       PPCAT(CFG_TFT_RES_PIN, x)  
  41:source\bsw\tft/tft.c **** #define TFT_DC_LOW          MODULE_DC(Write)(0)     /**< \brief Macro to set the DC(A0) pin LOW*/
  42:source\bsw\tft/tft.c **** #define TFT_DC_HIGH         MODULE_DC(Write)(1)     /**< \brief Macro to set the DC(A0) pin HIGH*/
  43:source\bsw\tft/tft.c **** #define TFT_RES_LOW         MODULE_RES(Write)(0)    /**< \brief Macro to set the Reset pin LOW*/
  44:source\bsw\tft/tft.c **** #define TFT_RES_HIGH        MODULE_RES(Write)(1)    /**< \brief Macro to set the Reset pin HIGH*/
  45:source\bsw\tft/tft.c **** 
  46:source\bsw\tft/tft.c **** /** 
  47:source\bsw\tft/tft.c **** * \brief swap 2 int 16 values
  48:source\bsw\tft/tft.c **** */
  49:source\bsw\tft/tft.c **** #ifndef _swap_int16_t
  50:source\bsw\tft/tft.c **** #define _swap_int16_t(a, b) { int16_t t = a; a = b; b = t; }
  51:source\bsw\tft/tft.c **** #endif
  52:source\bsw\tft/tft.c **** 
  53:source\bsw\tft/tft.c **** // The code comes from an AVR. Those are macros to overcome that strange PROGMEM read stuff
  54:source\bsw\tft/tft.c **** #ifndef pgm_read_byte
  55:source\bsw\tft/tft.c ****  #define pgm_read_byte(addr) (*(const unsigned char *)(addr))
  56:source\bsw\tft/tft.c **** #endif
  57:source\bsw\tft/tft.c **** #ifndef pgm_read_word
  58:source\bsw\tft/tft.c ****  #define pgm_read_word(addr) (*(const unsigned short *)(addr))
  59:source\bsw\tft/tft.c **** #endif
  60:source\bsw\tft/tft.c **** #ifndef pgm_read_dword
  61:source\bsw\tft/tft.c ****  #define pgm_read_dword(addr) (*(const unsigned long *)(addr))
  62:source\bsw\tft/tft.c **** #endif
  63:source\bsw\tft/tft.c **** 
  64:source\bsw\tft/tft.c **** // Pointers are a peculiar case...typically 16-bit on AVR boards,
  65:source\bsw\tft/tft.c **** // 32 bits elsewhere.  Try to accommodate both...
  66:source\bsw\tft/tft.c **** #if !defined(__INT_MAX__) || (__INT_MAX__ > 0xFFFF)
  67:source\bsw\tft/tft.c ****  #define pgm_read_pointer(addr) ((void *)pgm_read_dword(addr))
  68:source\bsw\tft/tft.c **** #else
  69:source\bsw\tft/tft.c ****  #define pgm_read_pointer(addr) ((void *)pgm_read_word(addr))
  70:source\bsw\tft/tft.c **** #endif
  71:source\bsw\tft/tft.c **** 
  72:source\bsw\tft/tft.c **** #define TFT_write_cmd(x)            TFT_send(TFT_CMD,x)
  73:source\bsw\tft/tft.c **** #define TFT_write_data(x)           TFT_send(TFT_DATA,x)
  74:source\bsw\tft/tft.c **** #define TFT_write_stream(x)         TFT_send(TFT_STREAM,x)
  75:source\bsw\tft/tft.c **** 
  76:source\bsw\tft/tft.c **** //-------------------------------------[types]
  77:source\bsw\tft/tft.c **** /**
  78:source\bsw\tft/tft.c **** * \brief Data send to the TFT is either DATA or COMMAND data.
  79:source\bsw\tft/tft.c **** */
  80:source\bsw\tft/tft.c **** typedef enum{
  81:source\bsw\tft/tft.c ****     TFT_CMD,                        /**< Payload is command. */
  82:source\bsw\tft/tft.c ****     TFT_DATA,                       /**< Payload is data */
  83:source\bsw\tft/tft.c ****     TFT_STREAM                      /**< D/C has already been set */
ARM GAS  C:\Users\schmi\AppData\Local\Temp\ccA9az4I.s 			page 28


  84:source\bsw\tft/tft.c **** }TFT_payload_t;
  85:source\bsw\tft/tft.c **** 
  86:source\bsw\tft/tft.c **** /**
  87:source\bsw\tft/tft.c **** * \brief Outgoing data to the tft
  88:source\bsw\tft/tft.c **** */
  89:source\bsw\tft/tft.c **** typedef struct{
  90:source\bsw\tft/tft.c ****     TFT_payload_t   DC;             /**< Determines if this is a a command (#TFT_CMD) or data (#TFT
  91:source\bsw\tft/tft.c ****     uint8_t         payload;
  92:source\bsw\tft/tft.c **** }TFT_data_t;
  93:source\bsw\tft/tft.c **** 
  94:source\bsw\tft/tft.c **** typedef struct {
  95:source\bsw\tft/tft.c ****     uint16_t    read;
  96:source\bsw\tft/tft.c ****     uint16_t    write;
  97:source\bsw\tft/tft.c ****     uint16_t    fill;
  98:source\bsw\tft/tft.c ****     TFT_data_t  buffer[CFG_TFT_RB_OUT_SZ];
  99:source\bsw\tft/tft.c **** }TFT_RB_out_t;
 100:source\bsw\tft/tft.c **** 
 101:source\bsw\tft/tft.c **** 
 102:source\bsw\tft/tft.c **** //-------------------------------------[local variables]
 103:source\bsw\tft/tft.c **** 
 104:source\bsw\tft/tft.c **** static const char* TAG="TFT";
 105:source\bsw\tft/tft.c **** 
 106:source\bsw\tft/tft.c **** static uint8_t  colstart;           /**< \brief Column (RAM) start*/
 107:source\bsw\tft/tft.c **** static uint8_t  rowstart;           /**< \brief Row (RAM) start*/
 108:source\bsw\tft/tft.c **** static uint8_t  xstart;             /**< \brief x position start*/
 109:source\bsw\tft/tft.c **** static uint8_t  ystart;             /**< \brief y position start*/
 110:source\bsw\tft/tft.c **** 
 111:source\bsw\tft/tft.c **** static uint8_t  textsize;           /**< \brief current text size*/
 112:source\bsw\tft/tft.c **** static uint8_t  rotation;           /**< \brief current orientation/rotation*/
 113:source\bsw\tft/tft.c **** 
 114:source\bsw\tft/tft.c **** static int16_t  _width;             /**< \brief Display width as modified by current rotation*/
 115:source\bsw\tft/tft.c **** static uint16_t _height;            /**< \brief Display heigth as modified by current rotation*/ 
 116:source\bsw\tft/tft.c **** static uint16_t cursor_x;           /**< \brief Cursor X position*/
 117:source\bsw\tft/tft.c **** static uint16_t cursor_y;           /**< \brief Cursor Y position*/
 118:source\bsw\tft/tft.c **** static TFT_color_t color;              /**< \brief Current foreground color*/
 119:source\bsw\tft/tft.c **** static TFT_color_t bgcolor;            /**< \brief Current background color*/
 120:source\bsw\tft/tft.c **** 
 121:source\bsw\tft/tft.c **** static boolean_t wrap;              /**< \brief If set, 'wrap' text at right edge of display*/ 
 122:source\bsw\tft/tft.c ****     
 123:source\bsw\tft/tft.c **** static GFXfont *gfxFont;            /**< \brief Current Font*/ 
 124:source\bsw\tft/tft.c **** 
 125:source\bsw\tft/tft.c **** static TFT_RB_out_t TFT_RB_out;     /**< \brief Ringbuffer for SPI communication*/
 126:source\bsw\tft/tft.c ****     
 127:source\bsw\tft/tft.c **** //-------------------------------------[local function prototypes]
 128:source\bsw\tft/tft.c **** 
 129:source\bsw\tft/tft.c **** static void setAddrWindow(uint8_t x0, uint8_t y0, uint8_t x1, uint8_t y1);
 130:source\bsw\tft/tft.c **** static void charBounds(char c, int16_t *x, int16_t *y,  int16_t *minx, int16_t *miny, int16_t *maxx
 131:source\bsw\tft/tft.c **** static void TFT_drawCircleHelper(int16_t x0, int16_t y0, int16_t r, uint8_t cornername, TFT_color_t
 132:source\bsw\tft/tft.c **** static void TFT_fillCircleHelper(int16_t x0, int16_t y0, int16_t r, uint8_t cornername, int16_t del
 133:source\bsw\tft/tft.c **** 
 134:source\bsw\tft/tft.c **** static RC_t TFT_send(TFT_payload_t type, uint8_t payload);
 135:source\bsw\tft/tft.c **** //-------------------------------------[Implementation]
 136:source\bsw\tft/tft.c **** 
 137:source\bsw\tft/tft.c **** //----------------- Ringbuffer
 138:source\bsw\tft/tft.c **** 
 139:source\bsw\tft/tft.c **** void __TFT_SPI_TX_ISR(void){
 1453              		.loc 1 139 0
ARM GAS  C:\Users\schmi\AppData\Local\Temp\ccA9az4I.s 			page 29


 1454              		.cfi_startproc
 1455              		@ args = 0, pretend = 0, frame = 8
 1456              		@ frame_needed = 1, uses_anonymous_args = 0
 1457 0000 80B5     		push	{r7, lr}
 1458              		.cfi_def_cfa_offset 8
 1459              		.cfi_offset 7, -8
 1460              		.cfi_offset 14, -4
 1461 0002 82B0     		sub	sp, sp, #8
 1462              		.cfi_def_cfa_offset 16
 1463 0004 00AF     		add	r7, sp, #0
 1464              		.cfi_def_cfa_register 7
 140:source\bsw\tft/tft.c ****     
 141:source\bsw\tft/tft.c ****     //check if we have data waiting
 142:source\bsw\tft/tft.c ****     if(TFT_RB_out.fill==0)
 1465              		.loc 1 142 0
 1466 0006 1D4B     		ldr	r3, .L9
 1467 0008 9B88     		ldrh	r3, [r3, #4]
 1468 000a 002B     		cmp	r3, #0
 1469 000c 32D0     		beq	.L8
 143:source\bsw\tft/tft.c ****         return;
 144:source\bsw\tft/tft.c ****     
 145:source\bsw\tft/tft.c ****     //get the next frame to be send
 146:source\bsw\tft/tft.c ****     TFT_data_t* p_next_frame=&TFT_RB_out.buffer[TFT_RB_out.read++];
 1470              		.loc 1 146 0
 1471 000e 1B4B     		ldr	r3, .L9
 1472 0010 1B88     		ldrh	r3, [r3]
 1473 0012 5A1C     		adds	r2, r3, #1
 1474 0014 91B2     		uxth	r1, r2
 1475 0016 194A     		ldr	r2, .L9
 1476 0018 1180     		strh	r1, [r2]	@ movhi
 1477 001a 5B00     		lsls	r3, r3, #1
 1478 001c 174A     		ldr	r2, .L9
 1479 001e 1344     		add	r3, r3, r2
 1480 0020 0633     		adds	r3, r3, #6
 1481 0022 7B60     		str	r3, [r7, #4]
 147:source\bsw\tft/tft.c ****     
 148:source\bsw\tft/tft.c ****     //adjust read index and fill level
 149:source\bsw\tft/tft.c ****     TFT_RB_out.read%=CFG_TFT_RB_OUT_SZ;
 1482              		.loc 1 149 0
 1483 0024 154B     		ldr	r3, .L9
 1484 0026 1B88     		ldrh	r3, [r3]
 1485 0028 154A     		ldr	r2, .L9+4
 1486 002a A2FB0312 		umull	r1, r2, r2, r3
 1487 002e 5209     		lsrs	r2, r2, #5
 1488 0030 6421     		movs	r1, #100
 1489 0032 01FB02F2 		mul	r2, r1, r2
 1490 0036 9B1A     		subs	r3, r3, r2
 1491 0038 9AB2     		uxth	r2, r3
 1492 003a 104B     		ldr	r3, .L9
 1493 003c 1A80     		strh	r2, [r3]	@ movhi
 150:source\bsw\tft/tft.c ****     TFT_RB_out.fill--;
 1494              		.loc 1 150 0
 1495 003e 0F4B     		ldr	r3, .L9
 1496 0040 9B88     		ldrh	r3, [r3, #4]
 1497 0042 013B     		subs	r3, r3, #1
 1498 0044 9AB2     		uxth	r2, r3
 1499 0046 0D4B     		ldr	r3, .L9
ARM GAS  C:\Users\schmi\AppData\Local\Temp\ccA9az4I.s 			page 30


 1500 0048 9A80     		strh	r2, [r3, #4]	@ movhi
 151:source\bsw\tft/tft.c ****     
 152:source\bsw\tft/tft.c ****     //check payload type
 153:source\bsw\tft/tft.c ****     switch(p_next_frame->DC){
 1501              		.loc 1 153 0
 1502 004a 7B68     		ldr	r3, [r7, #4]
 1503 004c 1B78     		ldrb	r3, [r3]	@ zero_extendqisi2
 1504 004e 002B     		cmp	r3, #0
 1505 0050 02D0     		beq	.L5
 1506 0052 012B     		cmp	r3, #1
 1507 0054 04D0     		beq	.L6
 154:source\bsw\tft/tft.c ****         case TFT_CMD:
 155:source\bsw\tft/tft.c ****             TFT_DC_LOW;
 156:source\bsw\tft/tft.c ****             break;
 157:source\bsw\tft/tft.c ****         
 158:source\bsw\tft/tft.c ****         case TFT_DATA:
 159:source\bsw\tft/tft.c ****             TFT_DC_HIGH;
 160:source\bsw\tft/tft.c ****             break;
 161:source\bsw\tft/tft.c ****         default:
 162:source\bsw\tft/tft.c ****         break;
 1508              		.loc 1 162 0
 1509 0056 07E0     		b	.L7
 1510              	.L5:
 155:source\bsw\tft/tft.c ****             break;
 1511              		.loc 1 155 0
 1512 0058 0020     		movs	r0, #0
 1513 005a FFF7FEFF 		bl	TFT_DC_Write
 156:source\bsw\tft/tft.c ****         
 1514              		.loc 1 156 0
 1515 005e 03E0     		b	.L7
 1516              	.L6:
 159:source\bsw\tft/tft.c ****             break;
 1517              		.loc 1 159 0
 1518 0060 0120     		movs	r0, #1
 1519 0062 FFF7FEFF 		bl	TFT_DC_Write
 160:source\bsw\tft/tft.c ****         default:
 1520              		.loc 1 160 0
 1521 0066 00BF     		nop
 1522              	.L7:
 163:source\bsw\tft/tft.c ****     }
 164:source\bsw\tft/tft.c **** 
 165:source\bsw\tft/tft.c ****     MODULE_SPI(WriteTxData)(p_next_frame->payload);    
 1523              		.loc 1 165 0
 1524 0068 7B68     		ldr	r3, [r7, #4]
 1525 006a 5B78     		ldrb	r3, [r3, #1]	@ zero_extendqisi2
 1526 006c 1846     		mov	r0, r3
 1527 006e FFF7FEFF 		bl	TFT_SPI_WriteTxData
 1528 0072 00E0     		b	.L1
 1529              	.L8:
 143:source\bsw\tft/tft.c ****     
 1530              		.loc 1 143 0
 1531 0074 00BF     		nop
 1532              	.L1:
 166:source\bsw\tft/tft.c **** }
 1533              		.loc 1 166 0
 1534 0076 0837     		adds	r7, r7, #8
 1535              		.cfi_def_cfa_offset 8
ARM GAS  C:\Users\schmi\AppData\Local\Temp\ccA9az4I.s 			page 31


 1536 0078 BD46     		mov	sp, r7
 1537              		.cfi_def_cfa_register 13
 1538              		@ sp needed
 1539 007a 80BD     		pop	{r7, pc}
 1540              	.L10:
 1541              		.align	2
 1542              	.L9:
 1543 007c 18000000 		.word	TFT_RB_out
 1544 0080 1F85EB51 		.word	1374389535
 1545              		.cfi_endproc
 1546              	.LFE116:
 1547              		.size	__TFT_SPI_TX_ISR, .-__TFT_SPI_TX_ISR
 1548              		.section	.rodata
 1549              		.align	2
 1550              	.LC1:
 1551 055c 42756666 		.ascii	"Buffer overflow\000"
 1551      6572206F 
 1551      76657266 
 1551      6C6F7700 
 1552              		.section	.text.TFT_send,"ax",%progbits
 1553              		.align	2
 1554              		.thumb
 1555              		.thumb_func
 1556              		.type	TFT_send, %function
 1557              	TFT_send:
 1558              	.LFB117:
 167:source\bsw\tft/tft.c **** 
 168:source\bsw\tft/tft.c **** RC_t TFT_send(TFT_payload_t type, uint8_t payload){
 1559              		.loc 1 168 0
 1560              		.cfi_startproc
 1561              		@ args = 0, pretend = 0, frame = 176
 1562              		@ frame_needed = 1, uses_anonymous_args = 0
 1563 0000 B0B5     		push	{r4, r5, r7, lr}
 1564              		.cfi_def_cfa_offset 16
 1565              		.cfi_offset 4, -16
 1566              		.cfi_offset 5, -12
 1567              		.cfi_offset 7, -8
 1568              		.cfi_offset 14, -4
 1569 0002 ACB0     		sub	sp, sp, #176
 1570              		.cfi_def_cfa_offset 192
 1571 0004 00AF     		add	r7, sp, #0
 1572              		.cfi_def_cfa_register 7
 1573 0006 0346     		mov	r3, r0
 1574 0008 0A46     		mov	r2, r1
 1575 000a FB71     		strb	r3, [r7, #7]
 1576 000c 1346     		mov	r3, r2
 1577 000e BB71     		strb	r3, [r7, #6]
 169:source\bsw\tft/tft.c **** 
 170:source\bsw\tft/tft.c ****     //check if buffer is full
 171:source\bsw\tft/tft.c ****     if(TFT_RB_out.fill>=CFG_TFT_RB_OUT_SZ){
 1578              		.loc 1 171 0
 1579 0010 284B     		ldr	r3, .L15
 1580 0012 9B88     		ldrh	r3, [r3, #4]
 1581 0014 632B     		cmp	r3, #99
 1582 0016 1DD9     		bls	.L12
 1583              	.LBB2:
 172:source\bsw\tft/tft.c ****         //TODO: fire event or DET STOP
ARM GAS  C:\Users\schmi\AppData\Local\Temp\ccA9az4I.s 			page 32


 173:source\bsw\tft/tft.c ****         LOG_E(TAG,"Buffer overflow");
 1584              		.loc 1 173 0 discriminator 1
 1585 0018 0323     		movs	r3, #3
 1586 001a 3B72     		strb	r3, [r7, #8]
 1587 001c 264B     		ldr	r3, .L15+4
 1588 001e 1A68     		ldr	r2, [r3]
 1589 0020 07F10803 		add	r3, r7, #8
 1590 0024 0133     		adds	r3, r3, #1
 1591 0026 1146     		mov	r1, r2
 1592 0028 1846     		mov	r0, r3
 1593 002a FFF7FEFF 		bl	strcpy
 1594 002e 07F10803 		add	r3, r7, #8
 1595 0032 1133     		adds	r3, r3, #17
 1596 0034 214A     		ldr	r2, .L15+8
 1597 0036 1C46     		mov	r4, r3
 1598 0038 1546     		mov	r5, r2
 1599 003a 0FCD     		ldmia	r5!, {r0, r1, r2, r3}
 1600 003c 2060     		str	r0, [r4]	@ unaligned
 1601 003e 6160     		str	r1, [r4, #4]	@ unaligned
 1602 0040 A260     		str	r2, [r4, #8]	@ unaligned
 1603 0042 E360     		str	r3, [r4, #12]	@ unaligned
 1604 0044 07F10803 		add	r3, r7, #8
 1605 0048 1846     		mov	r0, r3
 1606 004a FFF7FEFF 		bl	LOG_send
 1607              	.LBE2:
 174:source\bsw\tft/tft.c ****         return RC_ERROR_BUFFER_FULL;
 1608              		.loc 1 174 0 discriminator 1
 1609 004e 6FF00703 		mvn	r3, #7
 1610 0052 2AE0     		b	.L13
 1611              	.L12:
 175:source\bsw\tft/tft.c ****     }
 176:source\bsw\tft/tft.c ****     
 177:source\bsw\tft/tft.c ****     //add frame to buffer
 178:source\bsw\tft/tft.c ****     TFT_RB_out.buffer[TFT_RB_out.write++]=(TFT_data_t){type,payload};
 1612              		.loc 1 178 0
 1613 0054 174B     		ldr	r3, .L15
 1614 0056 5B88     		ldrh	r3, [r3, #2]
 1615 0058 5A1C     		adds	r2, r3, #1
 1616 005a 91B2     		uxth	r1, r2
 1617 005c 154A     		ldr	r2, .L15
 1618 005e 5180     		strh	r1, [r2, #2]	@ movhi
 1619 0060 1A46     		mov	r2, r3
 1620 0062 1449     		ldr	r1, .L15
 1621 0064 5300     		lsls	r3, r2, #1
 1622 0066 0B44     		add	r3, r3, r1
 1623 0068 F979     		ldrb	r1, [r7, #7]
 1624 006a 9971     		strb	r1, [r3, #6]
 1625 006c 1149     		ldr	r1, .L15
 1626 006e 5300     		lsls	r3, r2, #1
 1627 0070 0B44     		add	r3, r3, r1
 1628 0072 BA79     		ldrb	r2, [r7, #6]
 1629 0074 DA71     		strb	r2, [r3, #7]
 179:source\bsw\tft/tft.c **** 
 180:source\bsw\tft/tft.c ****     //adjust write index and fill level
 181:source\bsw\tft/tft.c ****     TFT_RB_out.write%=CFG_TFT_RB_OUT_SZ;
 1630              		.loc 1 181 0
 1631 0076 0F4B     		ldr	r3, .L15
ARM GAS  C:\Users\schmi\AppData\Local\Temp\ccA9az4I.s 			page 33


 1632 0078 5B88     		ldrh	r3, [r3, #2]
 1633 007a 114A     		ldr	r2, .L15+12
 1634 007c A2FB0312 		umull	r1, r2, r2, r3
 1635 0080 5209     		lsrs	r2, r2, #5
 1636 0082 6421     		movs	r1, #100
 1637 0084 01FB02F2 		mul	r2, r1, r2
 1638 0088 9B1A     		subs	r3, r3, r2
 1639 008a 9AB2     		uxth	r2, r3
 1640 008c 094B     		ldr	r3, .L15
 1641 008e 5A80     		strh	r2, [r3, #2]	@ movhi
 182:source\bsw\tft/tft.c ****     TFT_RB_out.fill++;
 1642              		.loc 1 182 0
 1643 0090 084B     		ldr	r3, .L15
 1644 0092 9B88     		ldrh	r3, [r3, #4]
 1645 0094 0133     		adds	r3, r3, #1
 1646 0096 9AB2     		uxth	r2, r3
 1647 0098 064B     		ldr	r3, .L15
 1648 009a 9A80     		strh	r2, [r3, #4]	@ movhi
 183:source\bsw\tft/tft.c ****     
 184:source\bsw\tft/tft.c ****     //check if this is the only entry in the ringbuffer and trigger the ISR
 185:source\bsw\tft/tft.c ****     if(TFT_RB_out.fill==1)
 1649              		.loc 1 185 0
 1650 009c 054B     		ldr	r3, .L15
 1651 009e 9B88     		ldrh	r3, [r3, #4]
 1652 00a0 012B     		cmp	r3, #1
 1653 00a2 01D1     		bne	.L14
 186:source\bsw\tft/tft.c ****         __TFT_SPI_TX_ISR();
 1654              		.loc 1 186 0
 1655 00a4 FFF7FEFF 		bl	__TFT_SPI_TX_ISR
 1656              	.L14:
 187:source\bsw\tft/tft.c **** 
 188:source\bsw\tft/tft.c ****     return RC_SUCCESS;
 1657              		.loc 1 188 0
 1658 00a8 0023     		movs	r3, #0
 1659              	.L13:
 189:source\bsw\tft/tft.c **** }
 1660              		.loc 1 189 0
 1661 00aa 1846     		mov	r0, r3
 1662 00ac B037     		adds	r7, r7, #176
 1663              		.cfi_def_cfa_offset 16
 1664 00ae BD46     		mov	sp, r7
 1665              		.cfi_def_cfa_register 13
 1666              		@ sp needed
 1667 00b0 B0BD     		pop	{r4, r5, r7, pc}
 1668              	.L16:
 1669 00b2 00BF     		.align	2
 1670              	.L15:
 1671 00b4 18000000 		.word	TFT_RB_out
 1672 00b8 00000000 		.word	TAG
 1673 00bc 5C050000 		.word	.LC1
 1674 00c0 1F85EB51 		.word	1374389535
 1675              		.cfi_endproc
 1676              	.LFE117:
 1677              		.size	TFT_send, .-TFT_send
 1678              		.section	.text.TFT_init,"ax",%progbits
 1679              		.align	2
 1680              		.global	TFT_init
ARM GAS  C:\Users\schmi\AppData\Local\Temp\ccA9az4I.s 			page 34


 1681              		.thumb
 1682              		.thumb_func
 1683              		.type	TFT_init, %function
 1684              	TFT_init:
 1685              	.LFB118:
 190:source\bsw\tft/tft.c **** 
 191:source\bsw\tft/tft.c **** 
 192:source\bsw\tft/tft.c **** //----------------- CTRL
 193:source\bsw\tft/tft.c **** void TFT_init(){
 1686              		.loc 1 193 0
 1687              		.cfi_startproc
 1688              		@ args = 0, pretend = 0, frame = 8
 1689              		@ frame_needed = 1, uses_anonymous_args = 0
 1690 0000 80B5     		push	{r7, lr}
 1691              		.cfi_def_cfa_offset 8
 1692              		.cfi_offset 7, -8
 1693              		.cfi_offset 14, -4
 1694 0002 82B0     		sub	sp, sp, #8
 1695              		.cfi_def_cfa_offset 16
 1696 0004 00AF     		add	r7, sp, #0
 1697              		.cfi_def_cfa_register 7
 194:source\bsw\tft/tft.c ****     
 195:source\bsw\tft/tft.c ****     //init local vars
 196:source\bsw\tft/tft.c ****     _width    = CFG_TFT_WIDTH;
 1698              		.loc 1 196 0
 1699 0006 484B     		ldr	r3, .L22
 1700 0008 8022     		movs	r2, #128
 1701 000a 1A80     		strh	r2, [r3]	@ movhi
 197:source\bsw\tft/tft.c ****     _height   = CFG_TFT_HEIGHT;
 1702              		.loc 1 197 0
 1703 000c 474B     		ldr	r3, .L22+4
 1704 000e A022     		movs	r2, #160
 1705 0010 1A80     		strh	r2, [r3]	@ movhi
 198:source\bsw\tft/tft.c ****     rotation=0;
 1706              		.loc 1 198 0
 1707 0012 474B     		ldr	r3, .L22+8
 1708 0014 0022     		movs	r2, #0
 1709 0016 1A70     		strb	r2, [r3]
 199:source\bsw\tft/tft.c ****     cursor_x=0;
 1710              		.loc 1 199 0
 1711 0018 464B     		ldr	r3, .L22+12
 1712 001a 0022     		movs	r2, #0
 1713 001c 1A80     		strh	r2, [r3]	@ movhi
 200:source\bsw\tft/tft.c ****     cursor_y=0;
 1714              		.loc 1 200 0
 1715 001e 464B     		ldr	r3, .L22+16
 1716 0020 0022     		movs	r2, #0
 1717 0022 1A80     		strh	r2, [r3]	@ movhi
 201:source\bsw\tft/tft.c ****     textsize=1;
 1718              		.loc 1 201 0
 1719 0024 454B     		ldr	r3, .L22+20
 1720 0026 0122     		movs	r2, #1
 1721 0028 1A70     		strb	r2, [r3]
 202:source\bsw\tft/tft.c ****     color=CFG_TFT_COLOR_TEXT;
 1722              		.loc 1 202 0
 1723 002a 454B     		ldr	r3, .L22+24
 1724 002c 4FF6FF72 		movw	r2, #65535
ARM GAS  C:\Users\schmi\AppData\Local\Temp\ccA9az4I.s 			page 35


 1725 0030 1A80     		strh	r2, [r3]	@ movhi
 203:source\bsw\tft/tft.c ****     bgcolor=CFG_TFT_COLOR_TEXTBG;
 1726              		.loc 1 203 0
 1727 0032 444B     		ldr	r3, .L22+28
 1728 0034 0022     		movs	r2, #0
 1729 0036 1A80     		strh	r2, [r3]	@ movhi
 204:source\bsw\tft/tft.c ****     wrap=TRUE;
 1730              		.loc 1 204 0
 1731 0038 434B     		ldr	r3, .L22+32
 1732 003a 0122     		movs	r2, #1
 1733 003c 1A70     		strb	r2, [r3]
 205:source\bsw\tft/tft.c ****     gfxFont=NULL;
 1734              		.loc 1 205 0
 1735 003e 434B     		ldr	r3, .L22+36
 1736 0040 0022     		movs	r2, #0
 1737 0042 1A60     		str	r2, [r3]
 206:source\bsw\tft/tft.c ****     ystart = xstart = colstart  = rowstart = 0;
 1738              		.loc 1 206 0
 1739 0044 424B     		ldr	r3, .L22+40
 1740 0046 0022     		movs	r2, #0
 1741 0048 1A70     		strb	r2, [r3]
 1742 004a 414B     		ldr	r3, .L22+40
 1743 004c 1A78     		ldrb	r2, [r3]	@ zero_extendqisi2
 1744 004e 414B     		ldr	r3, .L22+44
 1745 0050 1A70     		strb	r2, [r3]
 1746 0052 404B     		ldr	r3, .L22+44
 1747 0054 1A78     		ldrb	r2, [r3]	@ zero_extendqisi2
 1748 0056 404B     		ldr	r3, .L22+48
 1749 0058 1A70     		strb	r2, [r3]
 1750 005a 3F4B     		ldr	r3, .L22+48
 1751 005c 1A78     		ldrb	r2, [r3]	@ zero_extendqisi2
 1752 005e 3F4B     		ldr	r3, .L22+52
 1753 0060 1A70     		strb	r2, [r3]
 207:source\bsw\tft/tft.c ****     
 208:source\bsw\tft/tft.c ****     //init ringbuffer
 209:source\bsw\tft/tft.c ****     TFT_RB_out.read=0;
 1754              		.loc 1 209 0
 1755 0062 3F4B     		ldr	r3, .L22+56
 1756 0064 0022     		movs	r2, #0
 1757 0066 1A80     		strh	r2, [r3]	@ movhi
 210:source\bsw\tft/tft.c ****     TFT_RB_out.write=0;
 1758              		.loc 1 210 0
 1759 0068 3D4B     		ldr	r3, .L22+56
 1760 006a 0022     		movs	r2, #0
 1761 006c 5A80     		strh	r2, [r3, #2]	@ movhi
 211:source\bsw\tft/tft.c ****     TFT_RB_out.fill=0;
 1762              		.loc 1 211 0
 1763 006e 3C4B     		ldr	r3, .L22+56
 1764 0070 0022     		movs	r2, #0
 1765 0072 9A80     		strh	r2, [r3, #4]	@ movhi
 212:source\bsw\tft/tft.c ****     
 213:source\bsw\tft/tft.c ****     //Start SPI Interface
 214:source\bsw\tft/tft.c ****     MODULE_SPI(Start)();
 1766              		.loc 1 214 0
 1767 0074 FFF7FEFF 		bl	TFT_SPI_Start
 215:source\bsw\tft/tft.c ****     
 216:source\bsw\tft/tft.c ****     //Perform Hardware reset
ARM GAS  C:\Users\schmi\AppData\Local\Temp\ccA9az4I.s 			page 36


 217:source\bsw\tft/tft.c ****     TFT_RES_HIGH;
 1768              		.loc 1 217 0
 1769 0078 0120     		movs	r0, #1
 1770 007a FFF7FEFF 		bl	TFT_RES_Write
 218:source\bsw\tft/tft.c ****     CFG_TFT_DELAY_MS(100);
 1771              		.loc 1 218 0
 1772 007e 6420     		movs	r0, #100
 1773 0080 FFF7FEFF 		bl	CyDelay
 219:source\bsw\tft/tft.c ****     TFT_RES_LOW;
 1774              		.loc 1 219 0
 1775 0084 0020     		movs	r0, #0
 1776 0086 FFF7FEFF 		bl	TFT_RES_Write
 220:source\bsw\tft/tft.c **** 	CFG_TFT_DELAY_MS(100);
 1777              		.loc 1 220 0
 1778 008a 6420     		movs	r0, #100
 1779 008c FFF7FEFF 		bl	CyDelay
 221:source\bsw\tft/tft.c **** 	TFT_RES_HIGH;
 1780              		.loc 1 221 0
 1781 0090 0120     		movs	r0, #1
 1782 0092 FFF7FEFF 		bl	TFT_RES_Write
 222:source\bsw\tft/tft.c **** 	CFG_TFT_DELAY_MS(20);
 1783              		.loc 1 222 0
 1784 0096 1420     		movs	r0, #20
 1785 0098 FFF7FEFF 		bl	CyDelay
 223:source\bsw\tft/tft.c ****     
 224:source\bsw\tft/tft.c ****     //Software reset
 225:source\bsw\tft/tft.c ****     TFT_write_cmd(ST7735_SWRESET);
 1786              		.loc 1 225 0
 1787 009c 0121     		movs	r1, #1
 1788 009e 0020     		movs	r0, #0
 1789 00a0 FFF7FEFF 		bl	TFT_send
 226:source\bsw\tft/tft.c ****     CFG_TFT_DELAY_MS(50);
 1790              		.loc 1 226 0
 1791 00a4 3220     		movs	r0, #50
 1792 00a6 FFF7FEFF 		bl	CyDelay
 227:source\bsw\tft/tft.c ****     
 228:source\bsw\tft/tft.c ****     //sleep out
 229:source\bsw\tft/tft.c ****     TFT_write_cmd(ST7735_SLPOUT);    //Sleep out
 1793              		.loc 1 229 0
 1794 00aa 1121     		movs	r1, #17
 1795 00ac 0020     		movs	r0, #0
 1796 00ae FFF7FEFF 		bl	TFT_send
 230:source\bsw\tft/tft.c **** 	CFG_TFT_DELAY_MS(120);              //Delay 120ms
 1797              		.loc 1 230 0
 1798 00b2 7820     		movs	r0, #120
 1799 00b4 FFF7FEFF 		bl	CyDelay
 231:source\bsw\tft/tft.c ****     
 232:source\bsw\tft/tft.c ****     //send init commands
 233:source\bsw\tft/tft.c ****     uint8_t* addr=(uint8_t*)SST35S_init_seq;    
 1800              		.loc 1 233 0
 1801 00b8 2A4B     		ldr	r3, .L22+60
 1802 00ba 7B60     		str	r3, [r7, #4]
 234:source\bsw\tft/tft.c ****     uint8_t  numCommands, numArgs;
 235:source\bsw\tft/tft.c ****     numCommands = *(addr++);        // Number of commands to follow
 1803              		.loc 1 235 0
 1804 00bc 7B68     		ldr	r3, [r7, #4]
 1805 00be 5A1C     		adds	r2, r3, #1
ARM GAS  C:\Users\schmi\AppData\Local\Temp\ccA9az4I.s 			page 37


 1806 00c0 7A60     		str	r2, [r7, #4]
 1807 00c2 1B78     		ldrb	r3, [r3]
 1808 00c4 FB70     		strb	r3, [r7, #3]
 236:source\bsw\tft/tft.c ****     while(numCommands--) {          // For each command...
 1809              		.loc 1 236 0
 1810 00c6 1AE0     		b	.L18
 1811              	.L21:
 237:source\bsw\tft/tft.c ****         TFT_write_cmd(*(addr++));    // Read, issue command
 1812              		.loc 1 237 0
 1813 00c8 7B68     		ldr	r3, [r7, #4]
 1814 00ca 5A1C     		adds	r2, r3, #1
 1815 00cc 7A60     		str	r2, [r7, #4]
 1816 00ce 1B78     		ldrb	r3, [r3]	@ zero_extendqisi2
 1817 00d0 1946     		mov	r1, r3
 1818 00d2 0020     		movs	r0, #0
 1819 00d4 FFF7FEFF 		bl	TFT_send
 238:source\bsw\tft/tft.c ****         numArgs  = *(addr++);       // Number of args to follow
 1820              		.loc 1 238 0
 1821 00d8 7B68     		ldr	r3, [r7, #4]
 1822 00da 5A1C     		adds	r2, r3, #1
 1823 00dc 7A60     		str	r2, [r7, #4]
 1824 00de 1B78     		ldrb	r3, [r3]
 1825 00e0 BB70     		strb	r3, [r7, #2]
 239:source\bsw\tft/tft.c ****         while(numArgs--) {          // For each argument...
 1826              		.loc 1 239 0
 1827 00e2 07E0     		b	.L19
 1828              	.L20:
 240:source\bsw\tft/tft.c ****           TFT_write_data(*(addr++));     // Read, issue argument
 1829              		.loc 1 240 0
 1830 00e4 7B68     		ldr	r3, [r7, #4]
 1831 00e6 5A1C     		adds	r2, r3, #1
 1832 00e8 7A60     		str	r2, [r7, #4]
 1833 00ea 1B78     		ldrb	r3, [r3]	@ zero_extendqisi2
 1834 00ec 1946     		mov	r1, r3
 1835 00ee 0120     		movs	r0, #1
 1836 00f0 FFF7FEFF 		bl	TFT_send
 1837              	.L19:
 239:source\bsw\tft/tft.c ****         while(numArgs--) {          // For each argument...
 1838              		.loc 1 239 0
 1839 00f4 BB78     		ldrb	r3, [r7, #2]	@ zero_extendqisi2
 1840 00f6 5A1E     		subs	r2, r3, #1
 1841 00f8 BA70     		strb	r2, [r7, #2]
 1842 00fa 002B     		cmp	r3, #0
 1843 00fc F2D1     		bne	.L20
 1844              	.L18:
 236:source\bsw\tft/tft.c ****         TFT_write_cmd(*(addr++));    // Read, issue command
 1845              		.loc 1 236 0
 1846 00fe FB78     		ldrb	r3, [r7, #3]	@ zero_extendqisi2
 1847 0100 5A1E     		subs	r2, r3, #1
 1848 0102 FA70     		strb	r2, [r7, #3]
 1849 0104 002B     		cmp	r3, #0
 1850 0106 DFD1     		bne	.L21
 241:source\bsw\tft/tft.c ****         }
 242:source\bsw\tft/tft.c ****     }
 243:source\bsw\tft/tft.c ****     
 244:source\bsw\tft/tft.c ****     //set roation
 245:source\bsw\tft/tft.c ****     TFT_setRotation(CFG_TFT_ORIENTATION);
ARM GAS  C:\Users\schmi\AppData\Local\Temp\ccA9az4I.s 			page 38


 1851              		.loc 1 245 0
 1852 0108 0220     		movs	r0, #2
 1853 010a FFF7FEFF 		bl	TFT_setRotation
 246:source\bsw\tft/tft.c ****     
 247:source\bsw\tft/tft.c ****     //init RAM
 248:source\bsw\tft/tft.c ****     TFT_fillScreen(BLACK);
 1854              		.loc 1 248 0
 1855 010e 0020     		movs	r0, #0
 1856 0110 FFF7FEFF 		bl	TFT_fillScreen
 249:source\bsw\tft/tft.c ****     
 250:source\bsw\tft/tft.c ****     //activate backlight
 251:source\bsw\tft/tft.c ****     MODULE_PWM(Start)();
 1857              		.loc 1 251 0
 1858 0114 FFF7FEFF 		bl	TFT_BackLight_Start
 252:source\bsw\tft/tft.c ****     MODULE_PWM(WriteCompare)(CFG_TFT_BACKLIGHT);
 1859              		.loc 1 252 0
 1860 0118 6420     		movs	r0, #100
 1861 011a FFF7FEFF 		bl	TFT_BackLight_WriteCompare
 253:source\bsw\tft/tft.c **** }
 1862              		.loc 1 253 0
 1863 011e 00BF     		nop
 1864 0120 0837     		adds	r7, r7, #8
 1865              		.cfi_def_cfa_offset 8
 1866 0122 BD46     		mov	sp, r7
 1867              		.cfi_def_cfa_register 13
 1868              		@ sp needed
 1869 0124 80BD     		pop	{r7, pc}
 1870              	.L23:
 1871 0126 00BF     		.align	2
 1872              	.L22:
 1873 0128 06000000 		.word	_width
 1874 012c 08000000 		.word	_height
 1875 0130 05000000 		.word	rotation
 1876 0134 0A000000 		.word	cursor_x
 1877 0138 0C000000 		.word	cursor_y
 1878 013c 04000000 		.word	textsize
 1879 0140 0E000000 		.word	color
 1880 0144 10000000 		.word	bgcolor
 1881 0148 12000000 		.word	wrap
 1882 014c 14000000 		.word	gfxFont
 1883 0150 01000000 		.word	rowstart
 1884 0154 00000000 		.word	colstart
 1885 0158 02000000 		.word	xstart
 1886 015c 03000000 		.word	ystart
 1887 0160 18000000 		.word	TFT_RB_out
 1888 0164 00000000 		.word	SST35S_init_seq
 1889              		.cfi_endproc
 1890              	.LFE118:
 1891              		.size	TFT_init, .-TFT_init
 1892              		.section	.text.TFT_setBacklight,"ax",%progbits
 1893              		.align	2
 1894              		.global	TFT_setBacklight
 1895              		.thumb
 1896              		.thumb_func
 1897              		.type	TFT_setBacklight, %function
 1898              	TFT_setBacklight:
 1899              	.LFB119:
ARM GAS  C:\Users\schmi\AppData\Local\Temp\ccA9az4I.s 			page 39


 254:source\bsw\tft/tft.c **** 
 255:source\bsw\tft/tft.c **** void TFT_setBacklight(uint8_t b){
 1900              		.loc 1 255 0
 1901              		.cfi_startproc
 1902              		@ args = 0, pretend = 0, frame = 8
 1903              		@ frame_needed = 1, uses_anonymous_args = 0
 1904 0000 80B5     		push	{r7, lr}
 1905              		.cfi_def_cfa_offset 8
 1906              		.cfi_offset 7, -8
 1907              		.cfi_offset 14, -4
 1908 0002 82B0     		sub	sp, sp, #8
 1909              		.cfi_def_cfa_offset 16
 1910 0004 00AF     		add	r7, sp, #0
 1911              		.cfi_def_cfa_register 7
 1912 0006 0346     		mov	r3, r0
 1913 0008 FB71     		strb	r3, [r7, #7]
 256:source\bsw\tft/tft.c ****     if(b>100)
 1914              		.loc 1 256 0
 1915 000a FB79     		ldrb	r3, [r7, #7]	@ zero_extendqisi2
 1916 000c 642B     		cmp	r3, #100
 1917 000e 01D9     		bls	.L25
 257:source\bsw\tft/tft.c ****         b=100;
 1918              		.loc 1 257 0
 1919 0010 6423     		movs	r3, #100
 1920 0012 FB71     		strb	r3, [r7, #7]
 1921              	.L25:
 258:source\bsw\tft/tft.c ****     MODULE_PWM(WriteCompare)(b);
 1922              		.loc 1 258 0
 1923 0014 FB79     		ldrb	r3, [r7, #7]	@ zero_extendqisi2
 1924 0016 1846     		mov	r0, r3
 1925 0018 FFF7FEFF 		bl	TFT_BackLight_WriteCompare
 259:source\bsw\tft/tft.c **** }
 1926              		.loc 1 259 0
 1927 001c 00BF     		nop
 1928 001e 0837     		adds	r7, r7, #8
 1929              		.cfi_def_cfa_offset 8
 1930 0020 BD46     		mov	sp, r7
 1931              		.cfi_def_cfa_register 13
 1932              		@ sp needed
 1933 0022 80BD     		pop	{r7, pc}
 1934              		.cfi_endproc
 1935              	.LFE119:
 1936              		.size	TFT_setBacklight, .-TFT_setBacklight
 1937              		.section	.text.TFT_getBacklight,"ax",%progbits
 1938              		.align	2
 1939              		.global	TFT_getBacklight
 1940              		.thumb
 1941              		.thumb_func
 1942              		.type	TFT_getBacklight, %function
 1943              	TFT_getBacklight:
 1944              	.LFB120:
 260:source\bsw\tft/tft.c **** 
 261:source\bsw\tft/tft.c **** uint8_t TFT_getBacklight(){
 1945              		.loc 1 261 0
 1946              		.cfi_startproc
 1947              		@ args = 0, pretend = 0, frame = 0
 1948              		@ frame_needed = 1, uses_anonymous_args = 0
ARM GAS  C:\Users\schmi\AppData\Local\Temp\ccA9az4I.s 			page 40


 1949 0000 80B5     		push	{r7, lr}
 1950              		.cfi_def_cfa_offset 8
 1951              		.cfi_offset 7, -8
 1952              		.cfi_offset 14, -4
 1953 0002 00AF     		add	r7, sp, #0
 1954              		.cfi_def_cfa_register 7
 262:source\bsw\tft/tft.c ****     return MODULE_PWM(ReadCompare)();
 1955              		.loc 1 262 0
 1956 0004 FFF7FEFF 		bl	TFT_BackLight_ReadCompare
 1957 0008 0346     		mov	r3, r0
 263:source\bsw\tft/tft.c **** };
 1958              		.loc 1 263 0
 1959 000a 1846     		mov	r0, r3
 1960 000c 80BD     		pop	{r7, pc}
 1961              		.cfi_endproc
 1962              	.LFE120:
 1963              		.size	TFT_getBacklight, .-TFT_getBacklight
 1964 000e 00BF     		.section	.text.setAddrWindow,"ax",%progbits
 1965              		.align	2
 1966              		.thumb
 1967              		.thumb_func
 1968              		.type	setAddrWindow, %function
 1969              	setAddrWindow:
 1970              	.LFB121:
 264:source\bsw\tft/tft.c **** 
 265:source\bsw\tft/tft.c **** void setAddrWindow(uint8_t x0, uint8_t y0, uint8_t x1, uint8_t y1) {
 1971              		.loc 1 265 0
 1972              		.cfi_startproc
 1973              		@ args = 0, pretend = 0, frame = 8
 1974              		@ frame_needed = 1, uses_anonymous_args = 0
 1975 0000 90B5     		push	{r4, r7, lr}
 1976              		.cfi_def_cfa_offset 12
 1977              		.cfi_offset 4, -12
 1978              		.cfi_offset 7, -8
 1979              		.cfi_offset 14, -4
 1980 0002 83B0     		sub	sp, sp, #12
 1981              		.cfi_def_cfa_offset 24
 1982 0004 00AF     		add	r7, sp, #0
 1983              		.cfi_def_cfa_register 7
 1984 0006 0446     		mov	r4, r0
 1985 0008 0846     		mov	r0, r1
 1986 000a 1146     		mov	r1, r2
 1987 000c 1A46     		mov	r2, r3
 1988 000e 2346     		mov	r3, r4
 1989 0010 FB71     		strb	r3, [r7, #7]
 1990 0012 0346     		mov	r3, r0
 1991 0014 BB71     		strb	r3, [r7, #6]
 1992 0016 0B46     		mov	r3, r1
 1993 0018 7B71     		strb	r3, [r7, #5]
 1994 001a 1346     		mov	r3, r2
 1995 001c 3B71     		strb	r3, [r7, #4]
 266:source\bsw\tft/tft.c **** 
 267:source\bsw\tft/tft.c ****     TFT_write_cmd(ST7735_CASET);   // Column addr set
 1996              		.loc 1 267 0
 1997 001e 2A21     		movs	r1, #42
 1998 0020 0020     		movs	r0, #0
 1999 0022 FFF7FEFF 		bl	TFT_send
ARM GAS  C:\Users\schmi\AppData\Local\Temp\ccA9az4I.s 			page 41


 268:source\bsw\tft/tft.c ****     TFT_write_data(0x00);
 2000              		.loc 1 268 0
 2001 0026 0021     		movs	r1, #0
 2002 0028 0120     		movs	r0, #1
 2003 002a FFF7FEFF 		bl	TFT_send
 269:source\bsw\tft/tft.c ****     TFT_write_data(x0+xstart);         // XSTART 
 2004              		.loc 1 269 0
 2005 002e 1E4B     		ldr	r3, .L29
 2006 0030 1A78     		ldrb	r2, [r3]	@ zero_extendqisi2
 2007 0032 FB79     		ldrb	r3, [r7, #7]
 2008 0034 1344     		add	r3, r3, r2
 2009 0036 DBB2     		uxtb	r3, r3
 2010 0038 1946     		mov	r1, r3
 2011 003a 0120     		movs	r0, #1
 2012 003c FFF7FEFF 		bl	TFT_send
 270:source\bsw\tft/tft.c ****     TFT_write_data(0x00);
 2013              		.loc 1 270 0
 2014 0040 0021     		movs	r1, #0
 2015 0042 0120     		movs	r0, #1
 2016 0044 FFF7FEFF 		bl	TFT_send
 271:source\bsw\tft/tft.c ****     TFT_write_data(x1+xstart);         // XEND
 2017              		.loc 1 271 0
 2018 0048 174B     		ldr	r3, .L29
 2019 004a 1A78     		ldrb	r2, [r3]	@ zero_extendqisi2
 2020 004c 7B79     		ldrb	r3, [r7, #5]
 2021 004e 1344     		add	r3, r3, r2
 2022 0050 DBB2     		uxtb	r3, r3
 2023 0052 1946     		mov	r1, r3
 2024 0054 0120     		movs	r0, #1
 2025 0056 FFF7FEFF 		bl	TFT_send
 272:source\bsw\tft/tft.c **** 
 273:source\bsw\tft/tft.c ****     TFT_write_cmd(ST7735_RASET);   // Row addr set
 2026              		.loc 1 273 0
 2027 005a 2B21     		movs	r1, #43
 2028 005c 0020     		movs	r0, #0
 2029 005e FFF7FEFF 		bl	TFT_send
 274:source\bsw\tft/tft.c ****     TFT_write_data(0x00);
 2030              		.loc 1 274 0
 2031 0062 0021     		movs	r1, #0
 2032 0064 0120     		movs	r0, #1
 2033 0066 FFF7FEFF 		bl	TFT_send
 275:source\bsw\tft/tft.c ****     TFT_write_data(y0+ystart);         // YSTART
 2034              		.loc 1 275 0
 2035 006a 104B     		ldr	r3, .L29+4
 2036 006c 1A78     		ldrb	r2, [r3]	@ zero_extendqisi2
 2037 006e BB79     		ldrb	r3, [r7, #6]
 2038 0070 1344     		add	r3, r3, r2
 2039 0072 DBB2     		uxtb	r3, r3
 2040 0074 1946     		mov	r1, r3
 2041 0076 0120     		movs	r0, #1
 2042 0078 FFF7FEFF 		bl	TFT_send
 276:source\bsw\tft/tft.c ****     TFT_write_data(0x00);
 2043              		.loc 1 276 0
 2044 007c 0021     		movs	r1, #0
 2045 007e 0120     		movs	r0, #1
 2046 0080 FFF7FEFF 		bl	TFT_send
 277:source\bsw\tft/tft.c ****     TFT_write_data(y1+ystart);         // YEND
ARM GAS  C:\Users\schmi\AppData\Local\Temp\ccA9az4I.s 			page 42


 2047              		.loc 1 277 0
 2048 0084 094B     		ldr	r3, .L29+4
 2049 0086 1A78     		ldrb	r2, [r3]	@ zero_extendqisi2
 2050 0088 3B79     		ldrb	r3, [r7, #4]
 2051 008a 1344     		add	r3, r3, r2
 2052 008c DBB2     		uxtb	r3, r3
 2053 008e 1946     		mov	r1, r3
 2054 0090 0120     		movs	r0, #1
 2055 0092 FFF7FEFF 		bl	TFT_send
 278:source\bsw\tft/tft.c **** 
 279:source\bsw\tft/tft.c ****     TFT_write_cmd(ST7735_RAMWR);   // write to RAM
 2056              		.loc 1 279 0
 2057 0096 2C21     		movs	r1, #44
 2058 0098 0020     		movs	r0, #0
 2059 009a FFF7FEFF 		bl	TFT_send
 280:source\bsw\tft/tft.c **** }
 2060              		.loc 1 280 0
 2061 009e 00BF     		nop
 2062 00a0 0C37     		adds	r7, r7, #12
 2063              		.cfi_def_cfa_offset 12
 2064 00a2 BD46     		mov	sp, r7
 2065              		.cfi_def_cfa_register 13
 2066              		@ sp needed
 2067 00a4 90BD     		pop	{r4, r7, pc}
 2068              	.L30:
 2069 00a6 00BF     		.align	2
 2070              	.L29:
 2071 00a8 02000000 		.word	xstart
 2072 00ac 03000000 		.word	ystart
 2073              		.cfi_endproc
 2074              	.LFE121:
 2075              		.size	setAddrWindow, .-setAddrWindow
 2076              		.section	.text.TFT_setRotation,"ax",%progbits
 2077              		.align	2
 2078              		.global	TFT_setRotation
 2079              		.thumb
 2080              		.thumb_func
 2081              		.type	TFT_setRotation, %function
 2082              	TFT_setRotation:
 2083              	.LFB122:
 281:source\bsw\tft/tft.c **** 
 282:source\bsw\tft/tft.c **** void TFT_setRotation(TFT_rotation_t m) {
 2084              		.loc 1 282 0
 2085              		.cfi_startproc
 2086              		@ args = 0, pretend = 0, frame = 8
 2087              		@ frame_needed = 1, uses_anonymous_args = 0
 2088 0000 80B5     		push	{r7, lr}
 2089              		.cfi_def_cfa_offset 8
 2090              		.cfi_offset 7, -8
 2091              		.cfi_offset 14, -4
 2092 0002 82B0     		sub	sp, sp, #8
 2093              		.cfi_def_cfa_offset 16
 2094 0004 00AF     		add	r7, sp, #0
 2095              		.cfi_def_cfa_register 7
 2096 0006 0346     		mov	r3, r0
 2097 0008 FB71     		strb	r3, [r7, #7]
 283:source\bsw\tft/tft.c **** 
ARM GAS  C:\Users\schmi\AppData\Local\Temp\ccA9az4I.s 			page 43


 284:source\bsw\tft/tft.c ****     //Memory data access control entry
 285:source\bsw\tft/tft.c ****     TFT_write_cmd(ST7735_MADCTL);
 2098              		.loc 1 285 0
 2099 000a 3621     		movs	r1, #54
 2100 000c 0020     		movs	r0, #0
 2101 000e FFF7FEFF 		bl	TFT_send
 286:source\bsw\tft/tft.c ****     rotation = m % 4; // can't be higher than 3
 2102              		.loc 1 286 0
 2103 0012 FB79     		ldrb	r3, [r7, #7]
 2104 0014 03F00303 		and	r3, r3, #3
 2105 0018 DAB2     		uxtb	r2, r3
 2106 001a 304B     		ldr	r3, .L39
 2107 001c 1A70     		strb	r2, [r3]
 287:source\bsw\tft/tft.c ****     switch (rotation) {
 2108              		.loc 1 287 0
 2109 001e 2F4B     		ldr	r3, .L39
 2110 0020 1B78     		ldrb	r3, [r3]	@ zero_extendqisi2
 2111 0022 032B     		cmp	r3, #3
 2112 0024 56D8     		bhi	.L38
 2113 0026 01A2     		adr	r2, .L34
 2114 0028 52F823F0 		ldr	pc, [r2, r3, lsl #2]
 2115              		.p2align 2
 2116              	.L34:
 2117 002c 3D000000 		.word	.L33+1
 2118 0030 63000000 		.word	.L35+1
 2119 0034 89000000 		.word	.L36+1
 2120 0038 AF000000 		.word	.L37+1
 2121              		.p2align 1
 2122              	.L33:
 288:source\bsw\tft/tft.c ****         case 0:
 289:source\bsw\tft/tft.c ****             TFT_write_data(ST7735_MADCTL_MX | ST7735_MADCTL_MY | ST7735_MADCTL_RGB);
 2123              		.loc 1 289 0
 2124 003c C221     		movs	r1, #194
 2125 003e 0120     		movs	r0, #1
 2126 0040 FFF7FEFF 		bl	TFT_send
 290:source\bsw\tft/tft.c ****             _height = CFG_TFT_HEIGHT;
 2127              		.loc 1 290 0
 2128 0044 264B     		ldr	r3, .L39+4
 2129 0046 A022     		movs	r2, #160
 2130 0048 1A80     		strh	r2, [r3]	@ movhi
 291:source\bsw\tft/tft.c ****             _width  = CFG_TFT_WIDTH;
 2131              		.loc 1 291 0
 2132 004a 264B     		ldr	r3, .L39+8
 2133 004c 8022     		movs	r2, #128
 2134 004e 1A80     		strh	r2, [r3]	@ movhi
 292:source\bsw\tft/tft.c ****             xstart = colstart;
 2135              		.loc 1 292 0
 2136 0050 254B     		ldr	r3, .L39+12
 2137 0052 1A78     		ldrb	r2, [r3]	@ zero_extendqisi2
 2138 0054 254B     		ldr	r3, .L39+16
 2139 0056 1A70     		strb	r2, [r3]
 293:source\bsw\tft/tft.c ****             ystart = rowstart;
 2140              		.loc 1 293 0
 2141 0058 254B     		ldr	r3, .L39+20
 2142 005a 1A78     		ldrb	r2, [r3]	@ zero_extendqisi2
 2143 005c 254B     		ldr	r3, .L39+24
 2144 005e 1A70     		strb	r2, [r3]
ARM GAS  C:\Users\schmi\AppData\Local\Temp\ccA9az4I.s 			page 44


 294:source\bsw\tft/tft.c ****             break;
 2145              		.loc 1 294 0
 2146 0060 38E0     		b	.L32
 2147              	.L35:
 295:source\bsw\tft/tft.c ****         case 1:
 296:source\bsw\tft/tft.c ****             TFT_write_data(ST7735_MADCTL_MY | ST7735_MADCTL_MV | ST7735_MADCTL_RGB);
 2148              		.loc 1 296 0
 2149 0062 A221     		movs	r1, #162
 2150 0064 0120     		movs	r0, #1
 2151 0066 FFF7FEFF 		bl	TFT_send
 297:source\bsw\tft/tft.c ****             _width = CFG_TFT_HEIGHT;
 2152              		.loc 1 297 0
 2153 006a 1E4B     		ldr	r3, .L39+8
 2154 006c A022     		movs	r2, #160
 2155 006e 1A80     		strh	r2, [r3]	@ movhi
 298:source\bsw\tft/tft.c ****             _height = CFG_TFT_WIDTH;
 2156              		.loc 1 298 0
 2157 0070 1B4B     		ldr	r3, .L39+4
 2158 0072 8022     		movs	r2, #128
 2159 0074 1A80     		strh	r2, [r3]	@ movhi
 299:source\bsw\tft/tft.c ****             ystart = colstart;
 2160              		.loc 1 299 0
 2161 0076 1C4B     		ldr	r3, .L39+12
 2162 0078 1A78     		ldrb	r2, [r3]	@ zero_extendqisi2
 2163 007a 1E4B     		ldr	r3, .L39+24
 2164 007c 1A70     		strb	r2, [r3]
 300:source\bsw\tft/tft.c ****             xstart = rowstart;
 2165              		.loc 1 300 0
 2166 007e 1C4B     		ldr	r3, .L39+20
 2167 0080 1A78     		ldrb	r2, [r3]	@ zero_extendqisi2
 2168 0082 1A4B     		ldr	r3, .L39+16
 2169 0084 1A70     		strb	r2, [r3]
 301:source\bsw\tft/tft.c ****             break;
 2170              		.loc 1 301 0
 2171 0086 25E0     		b	.L32
 2172              	.L36:
 302:source\bsw\tft/tft.c ****         case 2:
 303:source\bsw\tft/tft.c ****             TFT_write_data(ST7735_MADCTL_BGR);
 2173              		.loc 1 303 0
 2174 0088 0821     		movs	r1, #8
 2175 008a 0120     		movs	r0, #1
 2176 008c FFF7FEFF 		bl	TFT_send
 304:source\bsw\tft/tft.c ****             _height = CFG_TFT_HEIGHT;
 2177              		.loc 1 304 0
 2178 0090 134B     		ldr	r3, .L39+4
 2179 0092 A022     		movs	r2, #160
 2180 0094 1A80     		strh	r2, [r3]	@ movhi
 305:source\bsw\tft/tft.c ****             _width  = CFG_TFT_WIDTH;
 2181              		.loc 1 305 0
 2182 0096 134B     		ldr	r3, .L39+8
 2183 0098 8022     		movs	r2, #128
 2184 009a 1A80     		strh	r2, [r3]	@ movhi
 306:source\bsw\tft/tft.c ****             xstart = colstart;
 2185              		.loc 1 306 0
 2186 009c 124B     		ldr	r3, .L39+12
 2187 009e 1A78     		ldrb	r2, [r3]	@ zero_extendqisi2
 2188 00a0 124B     		ldr	r3, .L39+16
ARM GAS  C:\Users\schmi\AppData\Local\Temp\ccA9az4I.s 			page 45


 2189 00a2 1A70     		strb	r2, [r3]
 307:source\bsw\tft/tft.c ****             ystart = rowstart;
 2190              		.loc 1 307 0
 2191 00a4 124B     		ldr	r3, .L39+20
 2192 00a6 1A78     		ldrb	r2, [r3]	@ zero_extendqisi2
 2193 00a8 124B     		ldr	r3, .L39+24
 2194 00aa 1A70     		strb	r2, [r3]
 308:source\bsw\tft/tft.c ****             break;
 2195              		.loc 1 308 0
 2196 00ac 12E0     		b	.L32
 2197              	.L37:
 309:source\bsw\tft/tft.c ****         case 3:
 310:source\bsw\tft/tft.c ****             TFT_write_data(ST7735_MADCTL_MX | ST7735_MADCTL_MV | ST7735_MADCTL_RGB);
 2198              		.loc 1 310 0
 2199 00ae 6221     		movs	r1, #98
 2200 00b0 0120     		movs	r0, #1
 2201 00b2 FFF7FEFF 		bl	TFT_send
 311:source\bsw\tft/tft.c ****             _width = CFG_TFT_HEIGHT;
 2202              		.loc 1 311 0
 2203 00b6 0B4B     		ldr	r3, .L39+8
 2204 00b8 A022     		movs	r2, #160
 2205 00ba 1A80     		strh	r2, [r3]	@ movhi
 312:source\bsw\tft/tft.c ****             _height = CFG_TFT_WIDTH;
 2206              		.loc 1 312 0
 2207 00bc 084B     		ldr	r3, .L39+4
 2208 00be 8022     		movs	r2, #128
 2209 00c0 1A80     		strh	r2, [r3]	@ movhi
 313:source\bsw\tft/tft.c ****             ystart = colstart;
 2210              		.loc 1 313 0
 2211 00c2 094B     		ldr	r3, .L39+12
 2212 00c4 1A78     		ldrb	r2, [r3]	@ zero_extendqisi2
 2213 00c6 0B4B     		ldr	r3, .L39+24
 2214 00c8 1A70     		strb	r2, [r3]
 314:source\bsw\tft/tft.c ****             xstart = rowstart;
 2215              		.loc 1 314 0
 2216 00ca 094B     		ldr	r3, .L39+20
 2217 00cc 1A78     		ldrb	r2, [r3]	@ zero_extendqisi2
 2218 00ce 074B     		ldr	r3, .L39+16
 2219 00d0 1A70     		strb	r2, [r3]
 315:source\bsw\tft/tft.c ****             break;
 2220              		.loc 1 315 0
 2221 00d2 00BF     		nop
 2222              	.L32:
 2223              	.L38:
 316:source\bsw\tft/tft.c ****     }
 317:source\bsw\tft/tft.c **** }
 2224              		.loc 1 317 0
 2225 00d4 00BF     		nop
 2226 00d6 0837     		adds	r7, r7, #8
 2227              		.cfi_def_cfa_offset 8
 2228 00d8 BD46     		mov	sp, r7
 2229              		.cfi_def_cfa_register 13
 2230              		@ sp needed
 2231 00da 80BD     		pop	{r7, pc}
 2232              	.L40:
 2233              		.align	2
 2234              	.L39:
ARM GAS  C:\Users\schmi\AppData\Local\Temp\ccA9az4I.s 			page 46


 2235 00dc 05000000 		.word	rotation
 2236 00e0 08000000 		.word	_height
 2237 00e4 06000000 		.word	_width
 2238 00e8 00000000 		.word	colstart
 2239 00ec 02000000 		.word	xstart
 2240 00f0 01000000 		.word	rowstart
 2241 00f4 03000000 		.word	ystart
 2242              		.cfi_endproc
 2243              	.LFE122:
 2244              		.size	TFT_setRotation, .-TFT_setRotation
 2245              		.section	.text.TFT_setCursor,"ax",%progbits
 2246              		.align	2
 2247              		.global	TFT_setCursor
 2248              		.thumb
 2249              		.thumb_func
 2250              		.type	TFT_setCursor, %function
 2251              	TFT_setCursor:
 2252              	.LFB123:
 318:source\bsw\tft/tft.c **** 
 319:source\bsw\tft/tft.c **** //----------------- USR CTRL
 320:source\bsw\tft/tft.c **** 
 321:source\bsw\tft/tft.c **** void TFT_setCursor(int16_t x, int16_t y) {
 2253              		.loc 1 321 0
 2254              		.cfi_startproc
 2255              		@ args = 0, pretend = 0, frame = 8
 2256              		@ frame_needed = 1, uses_anonymous_args = 0
 2257              		@ link register save eliminated.
 2258 0000 80B4     		push	{r7}
 2259              		.cfi_def_cfa_offset 4
 2260              		.cfi_offset 7, -4
 2261 0002 83B0     		sub	sp, sp, #12
 2262              		.cfi_def_cfa_offset 16
 2263 0004 00AF     		add	r7, sp, #0
 2264              		.cfi_def_cfa_register 7
 2265 0006 0346     		mov	r3, r0
 2266 0008 0A46     		mov	r2, r1
 2267 000a FB80     		strh	r3, [r7, #6]	@ movhi
 2268 000c 1346     		mov	r3, r2	@ movhi
 2269 000e BB80     		strh	r3, [r7, #4]	@ movhi
 322:source\bsw\tft/tft.c ****     cursor_x = x;
 2270              		.loc 1 322 0
 2271 0010 FA88     		ldrh	r2, [r7, #6]
 2272 0012 054B     		ldr	r3, .L42
 2273 0014 1A80     		strh	r2, [r3]	@ movhi
 323:source\bsw\tft/tft.c ****     cursor_y = y;
 2274              		.loc 1 323 0
 2275 0016 BA88     		ldrh	r2, [r7, #4]
 2276 0018 044B     		ldr	r3, .L42+4
 2277 001a 1A80     		strh	r2, [r3]	@ movhi
 324:source\bsw\tft/tft.c **** }
 2278              		.loc 1 324 0
 2279 001c 00BF     		nop
 2280 001e 0C37     		adds	r7, r7, #12
 2281              		.cfi_def_cfa_offset 4
 2282 0020 BD46     		mov	sp, r7
 2283              		.cfi_def_cfa_register 13
 2284              		@ sp needed
ARM GAS  C:\Users\schmi\AppData\Local\Temp\ccA9az4I.s 			page 47


 2285 0022 80BC     		pop	{r7}
 2286              		.cfi_restore 7
 2287              		.cfi_def_cfa_offset 0
 2288 0024 7047     		bx	lr
 2289              	.L43:
 2290 0026 00BF     		.align	2
 2291              	.L42:
 2292 0028 0A000000 		.word	cursor_x
 2293 002c 0C000000 		.word	cursor_y
 2294              		.cfi_endproc
 2295              	.LFE123:
 2296              		.size	TFT_setCursor, .-TFT_setCursor
 2297              		.section	.text.TFT_setTextColor,"ax",%progbits
 2298              		.align	2
 2299              		.global	TFT_setTextColor
 2300              		.thumb
 2301              		.thumb_func
 2302              		.type	TFT_setTextColor, %function
 2303              	TFT_setTextColor:
 2304              	.LFB124:
 325:source\bsw\tft/tft.c **** 
 326:source\bsw\tft/tft.c **** void TFT_setTextColor(uint16_t c){
 2305              		.loc 1 326 0
 2306              		.cfi_startproc
 2307              		@ args = 0, pretend = 0, frame = 8
 2308              		@ frame_needed = 1, uses_anonymous_args = 0
 2309              		@ link register save eliminated.
 2310 0000 80B4     		push	{r7}
 2311              		.cfi_def_cfa_offset 4
 2312              		.cfi_offset 7, -4
 2313 0002 83B0     		sub	sp, sp, #12
 2314              		.cfi_def_cfa_offset 16
 2315 0004 00AF     		add	r7, sp, #0
 2316              		.cfi_def_cfa_register 7
 2317 0006 0346     		mov	r3, r0
 2318 0008 FB80     		strh	r3, [r7, #6]	@ movhi
 327:source\bsw\tft/tft.c ****     color   = c;
 2319              		.loc 1 327 0
 2320 000a 044A     		ldr	r2, .L45
 2321 000c FB88     		ldrh	r3, [r7, #6]	@ movhi
 2322 000e 1380     		strh	r3, [r2]	@ movhi
 328:source\bsw\tft/tft.c **** }
 2323              		.loc 1 328 0
 2324 0010 00BF     		nop
 2325 0012 0C37     		adds	r7, r7, #12
 2326              		.cfi_def_cfa_offset 4
 2327 0014 BD46     		mov	sp, r7
 2328              		.cfi_def_cfa_register 13
 2329              		@ sp needed
 2330 0016 80BC     		pop	{r7}
 2331              		.cfi_restore 7
 2332              		.cfi_def_cfa_offset 0
 2333 0018 7047     		bx	lr
 2334              	.L46:
 2335 001a 00BF     		.align	2
 2336              	.L45:
 2337 001c 0E000000 		.word	color
ARM GAS  C:\Users\schmi\AppData\Local\Temp\ccA9az4I.s 			page 48


 2338              		.cfi_endproc
 2339              	.LFE124:
 2340              		.size	TFT_setTextColor, .-TFT_setTextColor
 2341              		.section	.text.TFT_setcolor,"ax",%progbits
 2342              		.align	2
 2343              		.global	TFT_setcolor
 2344              		.thumb
 2345              		.thumb_func
 2346              		.type	TFT_setcolor, %function
 2347              	TFT_setcolor:
 2348              	.LFB125:
 329:source\bsw\tft/tft.c **** 
 330:source\bsw\tft/tft.c **** void TFT_setcolor(uint16_t c) {
 2349              		.loc 1 330 0
 2350              		.cfi_startproc
 2351              		@ args = 0, pretend = 0, frame = 8
 2352              		@ frame_needed = 1, uses_anonymous_args = 0
 2353              		@ link register save eliminated.
 2354 0000 80B4     		push	{r7}
 2355              		.cfi_def_cfa_offset 4
 2356              		.cfi_offset 7, -4
 2357 0002 83B0     		sub	sp, sp, #12
 2358              		.cfi_def_cfa_offset 16
 2359 0004 00AF     		add	r7, sp, #0
 2360              		.cfi_def_cfa_register 7
 2361 0006 0346     		mov	r3, r0
 2362 0008 FB80     		strh	r3, [r7, #6]	@ movhi
 331:source\bsw\tft/tft.c ****     // For 'transparent' background, we'll set the bg
 332:source\bsw\tft/tft.c ****     // to the same as fg instead of using a flag
 333:source\bsw\tft/tft.c ****     color = bgcolor = c;
 2363              		.loc 1 333 0
 2364 000a 064A     		ldr	r2, .L48
 2365 000c FB88     		ldrh	r3, [r7, #6]	@ movhi
 2366 000e 1380     		strh	r3, [r2]	@ movhi
 2367 0010 044B     		ldr	r3, .L48
 2368 0012 1A88     		ldrh	r2, [r3]
 2369 0014 044B     		ldr	r3, .L48+4
 2370 0016 1A80     		strh	r2, [r3]	@ movhi
 334:source\bsw\tft/tft.c **** }
 2371              		.loc 1 334 0
 2372 0018 00BF     		nop
 2373 001a 0C37     		adds	r7, r7, #12
 2374              		.cfi_def_cfa_offset 4
 2375 001c BD46     		mov	sp, r7
 2376              		.cfi_def_cfa_register 13
 2377              		@ sp needed
 2378 001e 80BC     		pop	{r7}
 2379              		.cfi_restore 7
 2380              		.cfi_def_cfa_offset 0
 2381 0020 7047     		bx	lr
 2382              	.L49:
 2383 0022 00BF     		.align	2
 2384              	.L48:
 2385 0024 10000000 		.word	bgcolor
 2386 0028 0E000000 		.word	color
 2387              		.cfi_endproc
 2388              	.LFE125:
ARM GAS  C:\Users\schmi\AppData\Local\Temp\ccA9az4I.s 			page 49


 2389              		.size	TFT_setcolor, .-TFT_setcolor
 2390              		.section	.text.TFT_setColors,"ax",%progbits
 2391              		.align	2
 2392              		.global	TFT_setColors
 2393              		.thumb
 2394              		.thumb_func
 2395              		.type	TFT_setColors, %function
 2396              	TFT_setColors:
 2397              	.LFB126:
 335:source\bsw\tft/tft.c **** 
 336:source\bsw\tft/tft.c **** void TFT_setColors(uint16_t c, uint16_t b) {
 2398              		.loc 1 336 0
 2399              		.cfi_startproc
 2400              		@ args = 0, pretend = 0, frame = 8
 2401              		@ frame_needed = 1, uses_anonymous_args = 0
 2402              		@ link register save eliminated.
 2403 0000 80B4     		push	{r7}
 2404              		.cfi_def_cfa_offset 4
 2405              		.cfi_offset 7, -4
 2406 0002 83B0     		sub	sp, sp, #12
 2407              		.cfi_def_cfa_offset 16
 2408 0004 00AF     		add	r7, sp, #0
 2409              		.cfi_def_cfa_register 7
 2410 0006 0346     		mov	r3, r0
 2411 0008 0A46     		mov	r2, r1
 2412 000a FB80     		strh	r3, [r7, #6]	@ movhi
 2413 000c 1346     		mov	r3, r2	@ movhi
 2414 000e BB80     		strh	r3, [r7, #4]	@ movhi
 337:source\bsw\tft/tft.c ****     color   = c;
 2415              		.loc 1 337 0
 2416 0010 054A     		ldr	r2, .L51
 2417 0012 FB88     		ldrh	r3, [r7, #6]	@ movhi
 2418 0014 1380     		strh	r3, [r2]	@ movhi
 338:source\bsw\tft/tft.c ****     bgcolor = b;
 2419              		.loc 1 338 0
 2420 0016 054A     		ldr	r2, .L51+4
 2421 0018 BB88     		ldrh	r3, [r7, #4]	@ movhi
 2422 001a 1380     		strh	r3, [r2]	@ movhi
 339:source\bsw\tft/tft.c **** }
 2423              		.loc 1 339 0
 2424 001c 00BF     		nop
 2425 001e 0C37     		adds	r7, r7, #12
 2426              		.cfi_def_cfa_offset 4
 2427 0020 BD46     		mov	sp, r7
 2428              		.cfi_def_cfa_register 13
 2429              		@ sp needed
 2430 0022 80BC     		pop	{r7}
 2431              		.cfi_restore 7
 2432              		.cfi_def_cfa_offset 0
 2433 0024 7047     		bx	lr
 2434              	.L52:
 2435 0026 00BF     		.align	2
 2436              	.L51:
 2437 0028 0E000000 		.word	color
 2438 002c 10000000 		.word	bgcolor
 2439              		.cfi_endproc
 2440              	.LFE126:
ARM GAS  C:\Users\schmi\AppData\Local\Temp\ccA9az4I.s 			page 50


 2441              		.size	TFT_setColors, .-TFT_setColors
 2442              		.section	.text.TFT_getFGcolor,"ax",%progbits
 2443              		.align	2
 2444              		.global	TFT_getFGcolor
 2445              		.thumb
 2446              		.thumb_func
 2447              		.type	TFT_getFGcolor, %function
 2448              	TFT_getFGcolor:
 2449              	.LFB127:
 340:source\bsw\tft/tft.c **** 
 341:source\bsw\tft/tft.c **** 
 342:source\bsw\tft/tft.c **** TFT_color_t TFT_getFGcolor(void){return color;};
 2450              		.loc 1 342 0
 2451              		.cfi_startproc
 2452              		@ args = 0, pretend = 0, frame = 0
 2453              		@ frame_needed = 1, uses_anonymous_args = 0
 2454              		@ link register save eliminated.
 2455 0000 80B4     		push	{r7}
 2456              		.cfi_def_cfa_offset 4
 2457              		.cfi_offset 7, -4
 2458 0002 00AF     		add	r7, sp, #0
 2459              		.cfi_def_cfa_register 7
 2460              		.loc 1 342 0
 2461 0004 024B     		ldr	r3, .L55
 2462 0006 1B88     		ldrh	r3, [r3]
 2463 0008 1846     		mov	r0, r3
 2464 000a BD46     		mov	sp, r7
 2465              		.cfi_def_cfa_register 13
 2466              		@ sp needed
 2467 000c 80BC     		pop	{r7}
 2468              		.cfi_restore 7
 2469              		.cfi_def_cfa_offset 0
 2470 000e 7047     		bx	lr
 2471              	.L56:
 2472              		.align	2
 2473              	.L55:
 2474 0010 0E000000 		.word	color
 2475              		.cfi_endproc
 2476              	.LFE127:
 2477              		.size	TFT_getFGcolor, .-TFT_getFGcolor
 2478              		.section	.text.TFT_getBGcolor,"ax",%progbits
 2479              		.align	2
 2480              		.global	TFT_getBGcolor
 2481              		.thumb
 2482              		.thumb_func
 2483              		.type	TFT_getBGcolor, %function
 2484              	TFT_getBGcolor:
 2485              	.LFB128:
 343:source\bsw\tft/tft.c **** 
 344:source\bsw\tft/tft.c **** TFT_color_t TFT_getBGcolor(void){return bgcolor;};
 2486              		.loc 1 344 0
 2487              		.cfi_startproc
 2488              		@ args = 0, pretend = 0, frame = 0
 2489              		@ frame_needed = 1, uses_anonymous_args = 0
 2490              		@ link register save eliminated.
 2491 0000 80B4     		push	{r7}
 2492              		.cfi_def_cfa_offset 4
ARM GAS  C:\Users\schmi\AppData\Local\Temp\ccA9az4I.s 			page 51


 2493              		.cfi_offset 7, -4
 2494 0002 00AF     		add	r7, sp, #0
 2495              		.cfi_def_cfa_register 7
 2496              		.loc 1 344 0
 2497 0004 024B     		ldr	r3, .L59
 2498 0006 1B88     		ldrh	r3, [r3]
 2499 0008 1846     		mov	r0, r3
 2500 000a BD46     		mov	sp, r7
 2501              		.cfi_def_cfa_register 13
 2502              		@ sp needed
 2503 000c 80BC     		pop	{r7}
 2504              		.cfi_restore 7
 2505              		.cfi_def_cfa_offset 0
 2506 000e 7047     		bx	lr
 2507              	.L60:
 2508              		.align	2
 2509              	.L59:
 2510 0010 10000000 		.word	bgcolor
 2511              		.cfi_endproc
 2512              	.LFE128:
 2513              		.size	TFT_getBGcolor, .-TFT_getBGcolor
 2514              		.section	.text.TFT_setTextWrap,"ax",%progbits
 2515              		.align	2
 2516              		.global	TFT_setTextWrap
 2517              		.thumb
 2518              		.thumb_func
 2519              		.type	TFT_setTextWrap, %function
 2520              	TFT_setTextWrap:
 2521              	.LFB129:
 345:source\bsw\tft/tft.c **** 
 346:source\bsw\tft/tft.c **** 
 347:source\bsw\tft/tft.c **** void TFT_setTextWrap(boolean_t w) {
 2522              		.loc 1 347 0
 2523              		.cfi_startproc
 2524              		@ args = 0, pretend = 0, frame = 8
 2525              		@ frame_needed = 1, uses_anonymous_args = 0
 2526              		@ link register save eliminated.
 2527 0000 80B4     		push	{r7}
 2528              		.cfi_def_cfa_offset 4
 2529              		.cfi_offset 7, -4
 2530 0002 83B0     		sub	sp, sp, #12
 2531              		.cfi_def_cfa_offset 16
 2532 0004 00AF     		add	r7, sp, #0
 2533              		.cfi_def_cfa_register 7
 2534 0006 0346     		mov	r3, r0
 2535 0008 FB71     		strb	r3, [r7, #7]
 348:source\bsw\tft/tft.c ****     wrap = w;
 2536              		.loc 1 348 0
 2537 000a 044A     		ldr	r2, .L62
 2538 000c FB79     		ldrb	r3, [r7, #7]
 2539 000e 1370     		strb	r3, [r2]
 349:source\bsw\tft/tft.c **** }
 2540              		.loc 1 349 0
 2541 0010 00BF     		nop
 2542 0012 0C37     		adds	r7, r7, #12
 2543              		.cfi_def_cfa_offset 4
 2544 0014 BD46     		mov	sp, r7
ARM GAS  C:\Users\schmi\AppData\Local\Temp\ccA9az4I.s 			page 52


 2545              		.cfi_def_cfa_register 13
 2546              		@ sp needed
 2547 0016 80BC     		pop	{r7}
 2548              		.cfi_restore 7
 2549              		.cfi_def_cfa_offset 0
 2550 0018 7047     		bx	lr
 2551              	.L63:
 2552 001a 00BF     		.align	2
 2553              	.L62:
 2554 001c 12000000 		.word	wrap
 2555              		.cfi_endproc
 2556              	.LFE129:
 2557              		.size	TFT_setTextWrap, .-TFT_setTextWrap
 2558              		.section	.text.TFT_setTextSize,"ax",%progbits
 2559              		.align	2
 2560              		.global	TFT_setTextSize
 2561              		.thumb
 2562              		.thumb_func
 2563              		.type	TFT_setTextSize, %function
 2564              	TFT_setTextSize:
 2565              	.LFB130:
 350:source\bsw\tft/tft.c **** 
 351:source\bsw\tft/tft.c **** void TFT_setTextSize(uint8_t s) {
 2566              		.loc 1 351 0
 2567              		.cfi_startproc
 2568              		@ args = 0, pretend = 0, frame = 8
 2569              		@ frame_needed = 1, uses_anonymous_args = 0
 2570              		@ link register save eliminated.
 2571 0000 80B4     		push	{r7}
 2572              		.cfi_def_cfa_offset 4
 2573              		.cfi_offset 7, -4
 2574 0002 83B0     		sub	sp, sp, #12
 2575              		.cfi_def_cfa_offset 16
 2576 0004 00AF     		add	r7, sp, #0
 2577              		.cfi_def_cfa_register 7
 2578 0006 0346     		mov	r3, r0
 2579 0008 FB71     		strb	r3, [r7, #7]
 352:source\bsw\tft/tft.c ****     textsize = (s > 0) ? s : 1;
 2580              		.loc 1 352 0
 2581 000a FB79     		ldrb	r3, [r7, #7]	@ zero_extendqisi2
 2582 000c 002B     		cmp	r3, #0
 2583 000e 01D0     		beq	.L65
 2584              		.loc 1 352 0 is_stmt 0 discriminator 1
 2585 0010 FB79     		ldrb	r3, [r7, #7]	@ zero_extendqisi2
 2586 0012 00E0     		b	.L66
 2587              	.L65:
 2588              		.loc 1 352 0 discriminator 2
 2589 0014 0123     		movs	r3, #1
 2590              	.L66:
 2591              		.loc 1 352 0 discriminator 4
 2592 0016 034A     		ldr	r2, .L67
 2593 0018 1370     		strb	r3, [r2]
 353:source\bsw\tft/tft.c **** }
 2594              		.loc 1 353 0 is_stmt 1 discriminator 4
 2595 001a 00BF     		nop
 2596 001c 0C37     		adds	r7, r7, #12
 2597              		.cfi_def_cfa_offset 4
ARM GAS  C:\Users\schmi\AppData\Local\Temp\ccA9az4I.s 			page 53


 2598 001e BD46     		mov	sp, r7
 2599              		.cfi_def_cfa_register 13
 2600              		@ sp needed
 2601 0020 80BC     		pop	{r7}
 2602              		.cfi_restore 7
 2603              		.cfi_def_cfa_offset 0
 2604 0022 7047     		bx	lr
 2605              	.L68:
 2606              		.align	2
 2607              	.L67:
 2608 0024 04000000 		.word	textsize
 2609              		.cfi_endproc
 2610              	.LFE130:
 2611              		.size	TFT_setTextSize, .-TFT_setTextSize
 2612              		.section	.text.TFT_setFont,"ax",%progbits
 2613              		.align	2
 2614              		.global	TFT_setFont
 2615              		.thumb
 2616              		.thumb_func
 2617              		.type	TFT_setFont, %function
 2618              	TFT_setFont:
 2619              	.LFB131:
 354:source\bsw\tft/tft.c **** 
 355:source\bsw\tft/tft.c **** void TFT_setFont(const GFXfont *f) {
 2620              		.loc 1 355 0
 2621              		.cfi_startproc
 2622              		@ args = 0, pretend = 0, frame = 8
 2623              		@ frame_needed = 1, uses_anonymous_args = 0
 2624              		@ link register save eliminated.
 2625 0000 80B4     		push	{r7}
 2626              		.cfi_def_cfa_offset 4
 2627              		.cfi_offset 7, -4
 2628 0002 83B0     		sub	sp, sp, #12
 2629              		.cfi_def_cfa_offset 16
 2630 0004 00AF     		add	r7, sp, #0
 2631              		.cfi_def_cfa_register 7
 2632 0006 7860     		str	r0, [r7, #4]
 356:source\bsw\tft/tft.c ****     if(f) {            // Font struct pointer passed in?
 2633              		.loc 1 356 0
 2634 0008 7B68     		ldr	r3, [r7, #4]
 2635 000a 002B     		cmp	r3, #0
 2636 000c 0AD0     		beq	.L70
 357:source\bsw\tft/tft.c ****         if(!gfxFont) { // And no current font struct?
 2637              		.loc 1 357 0
 2638 000e 0E4B     		ldr	r3, .L73
 2639 0010 1B68     		ldr	r3, [r3]
 2640 0012 002B     		cmp	r3, #0
 2641 0014 10D1     		bne	.L72
 358:source\bsw\tft/tft.c ****             // Switching from classic to new font behavior.
 359:source\bsw\tft/tft.c ****             // Move cursor pos down 6 pixels so it's on baseline.
 360:source\bsw\tft/tft.c ****             cursor_y += 6;
 2642              		.loc 1 360 0
 2643 0016 0D4B     		ldr	r3, .L73+4
 2644 0018 1B88     		ldrh	r3, [r3]
 2645 001a 0633     		adds	r3, r3, #6
 2646 001c 9AB2     		uxth	r2, r3
 2647 001e 0B4B     		ldr	r3, .L73+4
ARM GAS  C:\Users\schmi\AppData\Local\Temp\ccA9az4I.s 			page 54


 2648 0020 1A80     		strh	r2, [r3]	@ movhi
 2649 0022 09E0     		b	.L72
 2650              	.L70:
 361:source\bsw\tft/tft.c ****         }
 362:source\bsw\tft/tft.c ****     } else if(gfxFont) { // NULL passed.  Current font struct defined?
 2651              		.loc 1 362 0
 2652 0024 084B     		ldr	r3, .L73
 2653 0026 1B68     		ldr	r3, [r3]
 2654 0028 002B     		cmp	r3, #0
 2655 002a 05D0     		beq	.L72
 363:source\bsw\tft/tft.c ****         // Switching from new to classic font behavior.
 364:source\bsw\tft/tft.c ****         // Move cursor pos up 6 pixels so it's at top-left of char.
 365:source\bsw\tft/tft.c ****         cursor_y -= 6;
 2656              		.loc 1 365 0
 2657 002c 074B     		ldr	r3, .L73+4
 2658 002e 1B88     		ldrh	r3, [r3]
 2659 0030 063B     		subs	r3, r3, #6
 2660 0032 9AB2     		uxth	r2, r3
 2661 0034 054B     		ldr	r3, .L73+4
 2662 0036 1A80     		strh	r2, [r3]	@ movhi
 2663              	.L72:
 366:source\bsw\tft/tft.c ****     }
 367:source\bsw\tft/tft.c ****     gfxFont = (GFXfont *)f;
 2664              		.loc 1 367 0
 2665 0038 034A     		ldr	r2, .L73
 2666 003a 7B68     		ldr	r3, [r7, #4]
 2667 003c 1360     		str	r3, [r2]
 368:source\bsw\tft/tft.c **** }
 2668              		.loc 1 368 0
 2669 003e 00BF     		nop
 2670 0040 0C37     		adds	r7, r7, #12
 2671              		.cfi_def_cfa_offset 4
 2672 0042 BD46     		mov	sp, r7
 2673              		.cfi_def_cfa_register 13
 2674              		@ sp needed
 2675 0044 80BC     		pop	{r7}
 2676              		.cfi_restore 7
 2677              		.cfi_def_cfa_offset 0
 2678 0046 7047     		bx	lr
 2679              	.L74:
 2680              		.align	2
 2681              	.L73:
 2682 0048 14000000 		.word	gfxFont
 2683 004c 0C000000 		.word	cursor_y
 2684              		.cfi_endproc
 2685              	.LFE131:
 2686              		.size	TFT_setFont, .-TFT_setFont
 2687              		.section	.text.TFT_getTextBounds,"ax",%progbits
 2688              		.align	2
 2689              		.global	TFT_getTextBounds
 2690              		.thumb
 2691              		.thumb_func
 2692              		.type	TFT_getTextBounds, %function
 2693              	TFT_getTextBounds:
 2694              	.LFB132:
 369:source\bsw\tft/tft.c **** 
 370:source\bsw\tft/tft.c **** // Pass string and a cursor position, returns UL corner and W,H.
ARM GAS  C:\Users\schmi\AppData\Local\Temp\ccA9az4I.s 			page 55


 371:source\bsw\tft/tft.c **** void TFT_getTextBounds(char *str, int16_t x, int16_t y, int16_t *x1, int16_t *y1, uint16_t *w, uint
 2695              		.loc 1 371 0
 2696              		.cfi_startproc
 2697              		@ args = 12, pretend = 0, frame = 32
 2698              		@ frame_needed = 1, uses_anonymous_args = 0
 2699 0000 90B5     		push	{r4, r7, lr}
 2700              		.cfi_def_cfa_offset 12
 2701              		.cfi_offset 4, -12
 2702              		.cfi_offset 7, -8
 2703              		.cfi_offset 14, -4
 2704 0002 8DB0     		sub	sp, sp, #52
 2705              		.cfi_def_cfa_offset 64
 2706 0004 04AF     		add	r7, sp, #16
 2707              		.cfi_def_cfa 7, 48
 2708 0006 F860     		str	r0, [r7, #12]
 2709 0008 7B60     		str	r3, [r7, #4]
 2710 000a 0B46     		mov	r3, r1	@ movhi
 2711 000c 7B81     		strh	r3, [r7, #10]	@ movhi
 2712 000e 1346     		mov	r3, r2	@ movhi
 2713 0010 3B81     		strh	r3, [r7, #8]	@ movhi
 372:source\bsw\tft/tft.c ****     uint8_t c; // Current character
 373:source\bsw\tft/tft.c **** 
 374:source\bsw\tft/tft.c ****     *x1 = x;
 2714              		.loc 1 374 0
 2715 0012 B7F90A20 		ldrsh	r2, [r7, #10]
 2716 0016 7B68     		ldr	r3, [r7, #4]
 2717 0018 1A80     		strh	r2, [r3]	@ movhi
 375:source\bsw\tft/tft.c ****     *y1 = y;
 2718              		.loc 1 375 0
 2719 001a B7F90820 		ldrsh	r2, [r7, #8]
 2720 001e 3B6B     		ldr	r3, [r7, #48]
 2721 0020 1A80     		strh	r2, [r3]	@ movhi
 376:source\bsw\tft/tft.c ****     *w  = *h = 0;
 2722              		.loc 1 376 0
 2723 0022 BB6B     		ldr	r3, [r7, #56]
 2724 0024 0022     		movs	r2, #0
 2725 0026 1A80     		strh	r2, [r3]	@ movhi
 2726 0028 BB6B     		ldr	r3, [r7, #56]
 2727 002a 1A88     		ldrh	r2, [r3]
 2728 002c 7B6B     		ldr	r3, [r7, #52]
 2729 002e 1A80     		strh	r2, [r3]	@ movhi
 377:source\bsw\tft/tft.c **** 
 378:source\bsw\tft/tft.c ****     int16_t minx = _width, miny = _height, maxx = -1, maxy = -1;
 2730              		.loc 1 378 0
 2731 0030 2C4B     		ldr	r3, .L81
 2732 0032 B3F90030 		ldrsh	r3, [r3]
 2733 0036 BB83     		strh	r3, [r7, #28]	@ movhi
 2734 0038 2B4B     		ldr	r3, .L81+4
 2735 003a 1B88     		ldrh	r3, [r3]
 2736 003c 1BB2     		sxth	r3, r3
 2737 003e 7B83     		strh	r3, [r7, #26]	@ movhi
 2738 0040 4FF6FF73 		movw	r3, #65535
 2739 0044 3B83     		strh	r3, [r7, #24]	@ movhi
 2740 0046 4FF6FF73 		movw	r3, #65535
 2741 004a FB82     		strh	r3, [r7, #22]	@ movhi
 379:source\bsw\tft/tft.c **** 
 380:source\bsw\tft/tft.c ****     while((c = *str++))
ARM GAS  C:\Users\schmi\AppData\Local\Temp\ccA9az4I.s 			page 56


 2742              		.loc 1 380 0
 2743 004c 12E0     		b	.L76
 2744              	.L77:
 381:source\bsw\tft/tft.c ****         charBounds(c, &x, &y, &minx, &miny, &maxx, &maxy);
 2745              		.loc 1 381 0
 2746 004e 07F11C04 		add	r4, r7, #28
 2747 0052 07F10802 		add	r2, r7, #8
 2748 0056 07F10A01 		add	r1, r7, #10
 2749 005a F87F     		ldrb	r0, [r7, #31]	@ zero_extendqisi2
 2750 005c 07F11603 		add	r3, r7, #22
 2751 0060 0293     		str	r3, [sp, #8]
 2752 0062 07F11803 		add	r3, r7, #24
 2753 0066 0193     		str	r3, [sp, #4]
 2754 0068 07F11A03 		add	r3, r7, #26
 2755 006c 0093     		str	r3, [sp]
 2756 006e 2346     		mov	r3, r4
 2757 0070 FFF7FEFF 		bl	charBounds
 2758              	.L76:
 380:source\bsw\tft/tft.c ****         charBounds(c, &x, &y, &minx, &miny, &maxx, &maxy);
 2759              		.loc 1 380 0
 2760 0074 FB68     		ldr	r3, [r7, #12]
 2761 0076 5A1C     		adds	r2, r3, #1
 2762 0078 FA60     		str	r2, [r7, #12]
 2763 007a 1B78     		ldrb	r3, [r3]
 2764 007c FB77     		strb	r3, [r7, #31]
 2765 007e FB7F     		ldrb	r3, [r7, #31]	@ zero_extendqisi2
 2766 0080 002B     		cmp	r3, #0
 2767 0082 E4D1     		bne	.L77
 382:source\bsw\tft/tft.c **** 
 383:source\bsw\tft/tft.c ****     if(maxx >= minx) {
 2768              		.loc 1 383 0
 2769 0084 B7F91820 		ldrsh	r2, [r7, #24]
 2770 0088 B7F91C30 		ldrsh	r3, [r7, #28]
 2771 008c 9A42     		cmp	r2, r3
 2772 008e 0FDB     		blt	.L78
 384:source\bsw\tft/tft.c ****         *x1 = minx;
 2773              		.loc 1 384 0
 2774 0090 B7F91C20 		ldrsh	r2, [r7, #28]
 2775 0094 7B68     		ldr	r3, [r7, #4]
 2776 0096 1A80     		strh	r2, [r3]	@ movhi
 385:source\bsw\tft/tft.c ****         *w  = maxx - minx + 1;
 2777              		.loc 1 385 0
 2778 0098 B7F91830 		ldrsh	r3, [r7, #24]
 2779 009c 9AB2     		uxth	r2, r3
 2780 009e B7F91C30 		ldrsh	r3, [r7, #28]
 2781 00a2 9BB2     		uxth	r3, r3
 2782 00a4 D31A     		subs	r3, r2, r3
 2783 00a6 9BB2     		uxth	r3, r3
 2784 00a8 0133     		adds	r3, r3, #1
 2785 00aa 9AB2     		uxth	r2, r3
 2786 00ac 7B6B     		ldr	r3, [r7, #52]
 2787 00ae 1A80     		strh	r2, [r3]	@ movhi
 2788              	.L78:
 386:source\bsw\tft/tft.c ****     }
 387:source\bsw\tft/tft.c ****     if(maxy >= miny) {
 2789              		.loc 1 387 0
 2790 00b0 B7F91620 		ldrsh	r2, [r7, #22]
ARM GAS  C:\Users\schmi\AppData\Local\Temp\ccA9az4I.s 			page 57


 2791 00b4 B7F91A30 		ldrsh	r3, [r7, #26]
 2792 00b8 9A42     		cmp	r2, r3
 2793 00ba 0FDB     		blt	.L80
 388:source\bsw\tft/tft.c ****         *y1 = miny;
 2794              		.loc 1 388 0
 2795 00bc B7F91A20 		ldrsh	r2, [r7, #26]
 2796 00c0 3B6B     		ldr	r3, [r7, #48]
 2797 00c2 1A80     		strh	r2, [r3]	@ movhi
 389:source\bsw\tft/tft.c ****         *h  = maxy - miny + 1;
 2798              		.loc 1 389 0
 2799 00c4 B7F91630 		ldrsh	r3, [r7, #22]
 2800 00c8 9AB2     		uxth	r2, r3
 2801 00ca B7F91A30 		ldrsh	r3, [r7, #26]
 2802 00ce 9BB2     		uxth	r3, r3
 2803 00d0 D31A     		subs	r3, r2, r3
 2804 00d2 9BB2     		uxth	r3, r3
 2805 00d4 0133     		adds	r3, r3, #1
 2806 00d6 9AB2     		uxth	r2, r3
 2807 00d8 BB6B     		ldr	r3, [r7, #56]
 2808 00da 1A80     		strh	r2, [r3]	@ movhi
 2809              	.L80:
 390:source\bsw\tft/tft.c ****     }
 391:source\bsw\tft/tft.c **** }
 2810              		.loc 1 391 0
 2811 00dc 00BF     		nop
 2812 00de 2437     		adds	r7, r7, #36
 2813              		.cfi_def_cfa_offset 12
 2814 00e0 BD46     		mov	sp, r7
 2815              		.cfi_def_cfa_register 13
 2816              		@ sp needed
 2817 00e2 90BD     		pop	{r4, r7, pc}
 2818              	.L82:
 2819              		.align	2
 2820              	.L81:
 2821 00e4 06000000 		.word	_width
 2822 00e8 08000000 		.word	_height
 2823              		.cfi_endproc
 2824              	.LFE132:
 2825              		.size	TFT_getTextBounds, .-TFT_getTextBounds
 2826              		.section	.text.charBounds,"ax",%progbits
 2827              		.align	2
 2828              		.thumb
 2829              		.thumb_func
 2830              		.type	charBounds, %function
 2831              	charBounds:
 2832              	.LFB133:
 392:source\bsw\tft/tft.c **** 
 393:source\bsw\tft/tft.c **** void charBounds(char c, int16_t *x, int16_t *y,  int16_t *minx, int16_t *miny, int16_t *maxx, int16
 2833              		.loc 1 393 0
 2834              		.cfi_startproc
 2835              		@ args = 12, pretend = 0, frame = 48
 2836              		@ frame_needed = 1, uses_anonymous_args = 0
 2837              		@ link register save eliminated.
 2838 0000 80B4     		push	{r7}
 2839              		.cfi_def_cfa_offset 4
 2840              		.cfi_offset 7, -4
 2841 0002 8DB0     		sub	sp, sp, #52
ARM GAS  C:\Users\schmi\AppData\Local\Temp\ccA9az4I.s 			page 58


 2842              		.cfi_def_cfa_offset 56
 2843 0004 00AF     		add	r7, sp, #0
 2844              		.cfi_def_cfa_register 7
 2845 0006 B960     		str	r1, [r7, #8]
 2846 0008 7A60     		str	r2, [r7, #4]
 2847 000a 3B60     		str	r3, [r7]
 2848 000c 0346     		mov	r3, r0
 2849 000e FB73     		strb	r3, [r7, #15]
 394:source\bsw\tft/tft.c **** 
 395:source\bsw\tft/tft.c ****     if(gfxFont) {
 2850              		.loc 1 395 0
 2851 0010 874B     		ldr	r3, .L100
 2852 0012 1B68     		ldr	r3, [r3]
 2853 0014 002B     		cmp	r3, #0
 2854 0016 00F0F680 		beq	.L84
 396:source\bsw\tft/tft.c **** 
 397:source\bsw\tft/tft.c ****         if(c == '\n') { // Newline?
 2855              		.loc 1 397 0
 2856 001a FB7B     		ldrb	r3, [r7, #15]	@ zero_extendqisi2
 2857 001c 0A2B     		cmp	r3, #10
 2858 001e 17D1     		bne	.L85
 398:source\bsw\tft/tft.c ****             *x  = 0;    // Reset x to zero, advance y by one line
 2859              		.loc 1 398 0
 2860 0020 BB68     		ldr	r3, [r7, #8]
 2861 0022 0022     		movs	r2, #0
 2862 0024 1A80     		strh	r2, [r3]	@ movhi
 399:source\bsw\tft/tft.c ****             *y += textsize * (uint8_t)pgm_read_byte(&gfxFont->yAdvance);
 2863              		.loc 1 399 0
 2864 0026 7B68     		ldr	r3, [r7, #4]
 2865 0028 B3F90030 		ldrsh	r3, [r3]
 2866 002c 9AB2     		uxth	r2, r3
 2867 002e 814B     		ldr	r3, .L100+4
 2868 0030 1B78     		ldrb	r3, [r3]	@ zero_extendqisi2
 2869 0032 9BB2     		uxth	r3, r3
 2870 0034 7E49     		ldr	r1, .L100
 2871 0036 0968     		ldr	r1, [r1]
 2872 0038 0A31     		adds	r1, r1, #10
 2873 003a 0978     		ldrb	r1, [r1]	@ zero_extendqisi2
 2874 003c 89B2     		uxth	r1, r1
 2875 003e 01FB03F3 		mul	r3, r1, r3
 2876 0042 9BB2     		uxth	r3, r3
 2877 0044 1344     		add	r3, r3, r2
 2878 0046 9BB2     		uxth	r3, r3
 2879 0048 1AB2     		sxth	r2, r3
 2880 004a 7B68     		ldr	r3, [r7, #4]
 2881 004c 1A80     		strh	r2, [r3]	@ movhi
 400:source\bsw\tft/tft.c ****         } else if(c != '\r') { // Not a carriage return; is normal char
 401:source\bsw\tft/tft.c ****             uint8_t first = pgm_read_byte(&gfxFont->first),
 402:source\bsw\tft/tft.c ****                     last  = pgm_read_byte(&gfxFont->last);
 403:source\bsw\tft/tft.c ****             if((c >= first) && (c <= last)) { // Char present in this font?
 404:source\bsw\tft/tft.c ****                 GFXglyph *glyph = &(((GFXglyph *)pgm_read_pointer(
 405:source\bsw\tft/tft.c ****                   &gfxFont->glyph))[c - first]);
 406:source\bsw\tft/tft.c ****                 uint8_t gw = pgm_read_byte(&glyph->width),
 407:source\bsw\tft/tft.c ****                         gh = pgm_read_byte(&glyph->height),
 408:source\bsw\tft/tft.c ****                         xa = pgm_read_byte(&glyph->xAdvance);
 409:source\bsw\tft/tft.c ****                 int8_t  xo = pgm_read_byte(&glyph->xOffset),
 410:source\bsw\tft/tft.c ****                         yo = pgm_read_byte(&glyph->yOffset);
ARM GAS  C:\Users\schmi\AppData\Local\Temp\ccA9az4I.s 			page 59


 411:source\bsw\tft/tft.c ****                 if(wrap && ((*x+(((int16_t)xo+gw)*textsize)) > _width)) {
 412:source\bsw\tft/tft.c ****                     *x  = 0; // Reset x to zero, advance y by one line
 413:source\bsw\tft/tft.c ****                     *y += textsize * (uint8_t)pgm_read_byte(&gfxFont->yAdvance);
 414:source\bsw\tft/tft.c ****                 }
 415:source\bsw\tft/tft.c ****                 int16_t ts = (int16_t)textsize,
 416:source\bsw\tft/tft.c ****                         x1 = *x + xo * ts,
 417:source\bsw\tft/tft.c ****                         y1 = *y + yo * ts,
 418:source\bsw\tft/tft.c ****                         x2 = x1 + gw * ts - 1,
 419:source\bsw\tft/tft.c ****                         y2 = y1 + gh * ts - 1;
 420:source\bsw\tft/tft.c ****                 if(x1 < *minx) *minx = x1;
 421:source\bsw\tft/tft.c ****                 if(y1 < *miny) *miny = y1;
 422:source\bsw\tft/tft.c ****                 if(x2 > *maxx) *maxx = x2;
 423:source\bsw\tft/tft.c ****                 if(y2 > *maxy) *maxy = y2;
 424:source\bsw\tft/tft.c ****                 *x += xa * ts;
 425:source\bsw\tft/tft.c ****             }
 426:source\bsw\tft/tft.c ****         }
 427:source\bsw\tft/tft.c **** 
 428:source\bsw\tft/tft.c ****     } else { // Default font
 429:source\bsw\tft/tft.c **** 
 430:source\bsw\tft/tft.c ****         if(c == '\n') {                     // Newline?
 431:source\bsw\tft/tft.c ****             *x  = 0;                        // Reset x to zero,
 432:source\bsw\tft/tft.c ****             *y += textsize * 8;             // advance y one line
 433:source\bsw\tft/tft.c ****             // min/max x/y unchaged -- that waits for next 'normal' character
 434:source\bsw\tft/tft.c ****         } else if(c != '\r') {  // Normal char; ignore carriage returns
 435:source\bsw\tft/tft.c ****             if(wrap && ((*x + textsize * 6) > _width)) { // Off right?
 436:source\bsw\tft/tft.c ****                 *x  = 0;                    // Reset x to zero,
 437:source\bsw\tft/tft.c ****                 *y += textsize * 8;         // advance y one line
 438:source\bsw\tft/tft.c ****             }
 439:source\bsw\tft/tft.c ****             int x2 = *x + textsize * 6 - 1, // Lower-right pixel of char
 440:source\bsw\tft/tft.c ****                 y2 = *y + textsize * 8 - 1;
 441:source\bsw\tft/tft.c ****             if(x2 > *maxx) *maxx = x2;      // Track max x, y
 442:source\bsw\tft/tft.c ****             if(y2 > *maxy) *maxy = y2;
 443:source\bsw\tft/tft.c ****             if(*x < *minx) *minx = *x;      // Track min x, y
 444:source\bsw\tft/tft.c ****             if(*y < *miny) *miny = *y;
 445:source\bsw\tft/tft.c ****             *x += textsize * 6;             // Advance x one char
 446:source\bsw\tft/tft.c ****         }
 447:source\bsw\tft/tft.c ****     }
 448:source\bsw\tft/tft.c **** }
 2882              		.loc 1 448 0
 2883 004e 79E1     		b	.L99
 2884              	.L85:
 400:source\bsw\tft/tft.c ****         } else if(c != '\r') { // Not a carriage return; is normal char
 2885              		.loc 1 400 0
 2886 0050 FB7B     		ldrb	r3, [r7, #15]	@ zero_extendqisi2
 2887 0052 0D2B     		cmp	r3, #13
 2888 0054 00F07681 		beq	.L99
 2889              	.LBB3:
 401:source\bsw\tft/tft.c ****                     last  = pgm_read_byte(&gfxFont->last);
 2890              		.loc 1 401 0
 2891 0058 754B     		ldr	r3, .L100
 2892 005a 1B68     		ldr	r3, [r3]
 2893 005c 1B7A     		ldrb	r3, [r3, #8]
 2894 005e 87F82F30 		strb	r3, [r7, #47]
 402:source\bsw\tft/tft.c ****             if((c >= first) && (c <= last)) { // Char present in this font?
 2895              		.loc 1 402 0
 2896 0062 734B     		ldr	r3, .L100
 2897 0064 1B68     		ldr	r3, [r3]
ARM GAS  C:\Users\schmi\AppData\Local\Temp\ccA9az4I.s 			page 60


 2898 0066 5B7A     		ldrb	r3, [r3, #9]
 2899 0068 87F82E30 		strb	r3, [r7, #46]
 403:source\bsw\tft/tft.c ****                 GFXglyph *glyph = &(((GFXglyph *)pgm_read_pointer(
 2900              		.loc 1 403 0
 2901 006c FA7B     		ldrb	r2, [r7, #15]	@ zero_extendqisi2
 2902 006e 97F82F30 		ldrb	r3, [r7, #47]	@ zero_extendqisi2
 2903 0072 9A42     		cmp	r2, r3
 2904 0074 C0F06681 		bcc	.L99
 403:source\bsw\tft/tft.c ****                 GFXglyph *glyph = &(((GFXglyph *)pgm_read_pointer(
 2905              		.loc 1 403 0 is_stmt 0 discriminator 1
 2906 0078 FA7B     		ldrb	r2, [r7, #15]	@ zero_extendqisi2
 2907 007a 97F82E30 		ldrb	r3, [r7, #46]	@ zero_extendqisi2
 2908 007e 9A42     		cmp	r2, r3
 2909 0080 00F26081 		bhi	.L99
 2910              	.LBB4:
 405:source\bsw\tft/tft.c ****                 uint8_t gw = pgm_read_byte(&glyph->width),
 2911              		.loc 1 405 0 is_stmt 1
 2912 0084 FA7B     		ldrb	r2, [r7, #15]	@ zero_extendqisi2
 2913 0086 97F82F30 		ldrb	r3, [r7, #47]	@ zero_extendqisi2
 2914 008a D31A     		subs	r3, r2, r3
 2915 008c DA00     		lsls	r2, r3, #3
 404:source\bsw\tft/tft.c ****                   &gfxFont->glyph))[c - first]);
 2916              		.loc 1 404 0
 2917 008e 684B     		ldr	r3, .L100
 2918 0090 1B68     		ldr	r3, [r3]
 2919 0092 0433     		adds	r3, r3, #4
 405:source\bsw\tft/tft.c ****                 uint8_t gw = pgm_read_byte(&glyph->width),
 2920              		.loc 1 405 0
 2921 0094 1B68     		ldr	r3, [r3]
 2922 0096 1344     		add	r3, r3, r2
 404:source\bsw\tft/tft.c ****                   &gfxFont->glyph))[c - first]);
 2923              		.loc 1 404 0
 2924 0098 BB62     		str	r3, [r7, #40]
 406:source\bsw\tft/tft.c ****                         gh = pgm_read_byte(&glyph->height),
 2925              		.loc 1 406 0
 2926 009a BB6A     		ldr	r3, [r7, #40]
 2927 009c 9B78     		ldrb	r3, [r3, #2]
 2928 009e 87F82730 		strb	r3, [r7, #39]
 407:source\bsw\tft/tft.c ****                         xa = pgm_read_byte(&glyph->xAdvance);
 2929              		.loc 1 407 0
 2930 00a2 BB6A     		ldr	r3, [r7, #40]
 2931 00a4 DB78     		ldrb	r3, [r3, #3]
 2932 00a6 87F82630 		strb	r3, [r7, #38]
 408:source\bsw\tft/tft.c ****                 int8_t  xo = pgm_read_byte(&glyph->xOffset),
 2933              		.loc 1 408 0
 2934 00aa BB6A     		ldr	r3, [r7, #40]
 2935 00ac 1B79     		ldrb	r3, [r3, #4]
 2936 00ae 87F82530 		strb	r3, [r7, #37]
 409:source\bsw\tft/tft.c ****                         yo = pgm_read_byte(&glyph->yOffset);
 2937              		.loc 1 409 0
 2938 00b2 BB6A     		ldr	r3, [r7, #40]
 2939 00b4 0533     		adds	r3, r3, #5
 2940 00b6 1B78     		ldrb	r3, [r3]	@ zero_extendqisi2
 2941 00b8 87F82430 		strb	r3, [r7, #36]
 410:source\bsw\tft/tft.c ****                 if(wrap && ((*x+(((int16_t)xo+gw)*textsize)) > _width)) {
 2942              		.loc 1 410 0
 2943 00bc BB6A     		ldr	r3, [r7, #40]
ARM GAS  C:\Users\schmi\AppData\Local\Temp\ccA9az4I.s 			page 61


 2944 00be 0633     		adds	r3, r3, #6
 2945 00c0 1B78     		ldrb	r3, [r3]	@ zero_extendqisi2
 2946 00c2 87F82330 		strb	r3, [r7, #35]
 411:source\bsw\tft/tft.c ****                     *x  = 0; // Reset x to zero, advance y by one line
 2947              		.loc 1 411 0
 2948 00c6 5C4B     		ldr	r3, .L100+8
 2949 00c8 1B78     		ldrb	r3, [r3]	@ zero_extendqisi2
 2950 00ca 002B     		cmp	r3, #0
 2951 00cc 29D0     		beq	.L87
 411:source\bsw\tft/tft.c ****                     *x  = 0; // Reset x to zero, advance y by one line
 2952              		.loc 1 411 0 is_stmt 0 discriminator 1
 2953 00ce BB68     		ldr	r3, [r7, #8]
 2954 00d0 B3F90030 		ldrsh	r3, [r3]
 2955 00d4 1946     		mov	r1, r3
 2956 00d6 97F92420 		ldrsb	r2, [r7, #36]
 2957 00da 97F82730 		ldrb	r3, [r7, #39]	@ zero_extendqisi2
 2958 00de 1344     		add	r3, r3, r2
 2959 00e0 544A     		ldr	r2, .L100+4
 2960 00e2 1278     		ldrb	r2, [r2]	@ zero_extendqisi2
 2961 00e4 02FB03F3 		mul	r3, r2, r3
 2962 00e8 0B44     		add	r3, r3, r1
 2963 00ea 544A     		ldr	r2, .L100+12
 2964 00ec B2F90020 		ldrsh	r2, [r2]
 2965 00f0 9342     		cmp	r3, r2
 2966 00f2 16DD     		ble	.L87
 412:source\bsw\tft/tft.c ****                     *y += textsize * (uint8_t)pgm_read_byte(&gfxFont->yAdvance);
 2967              		.loc 1 412 0 is_stmt 1
 2968 00f4 BB68     		ldr	r3, [r7, #8]
 2969 00f6 0022     		movs	r2, #0
 2970 00f8 1A80     		strh	r2, [r3]	@ movhi
 413:source\bsw\tft/tft.c ****                 }
 2971              		.loc 1 413 0
 2972 00fa 7B68     		ldr	r3, [r7, #4]
 2973 00fc B3F90030 		ldrsh	r3, [r3]
 2974 0100 9AB2     		uxth	r2, r3
 2975 0102 4C4B     		ldr	r3, .L100+4
 2976 0104 1B78     		ldrb	r3, [r3]	@ zero_extendqisi2
 2977 0106 9BB2     		uxth	r3, r3
 2978 0108 4949     		ldr	r1, .L100
 2979 010a 0968     		ldr	r1, [r1]
 2980 010c 0A31     		adds	r1, r1, #10
 2981 010e 0978     		ldrb	r1, [r1]	@ zero_extendqisi2
 2982 0110 89B2     		uxth	r1, r1
 2983 0112 01FB03F3 		mul	r3, r1, r3
 2984 0116 9BB2     		uxth	r3, r3
 2985 0118 1344     		add	r3, r3, r2
 2986 011a 9BB2     		uxth	r3, r3
 2987 011c 1AB2     		sxth	r2, r3
 2988 011e 7B68     		ldr	r3, [r7, #4]
 2989 0120 1A80     		strh	r2, [r3]	@ movhi
 2990              	.L87:
 415:source\bsw\tft/tft.c ****                         x1 = *x + xo * ts,
 2991              		.loc 1 415 0
 2992 0122 444B     		ldr	r3, .L100+4
 2993 0124 1B78     		ldrb	r3, [r3]	@ zero_extendqisi2
 2994 0126 3B84     		strh	r3, [r7, #32]	@ movhi
 416:source\bsw\tft/tft.c ****                         y1 = *y + yo * ts,
ARM GAS  C:\Users\schmi\AppData\Local\Temp\ccA9az4I.s 			page 62


 2995              		.loc 1 416 0
 2996 0128 BB68     		ldr	r3, [r7, #8]
 2997 012a B3F90030 		ldrsh	r3, [r3]
 2998 012e 9AB2     		uxth	r2, r3
 2999 0130 97F92430 		ldrsb	r3, [r7, #36]
 3000 0134 9BB2     		uxth	r3, r3
 3001 0136 398C     		ldrh	r1, [r7, #32]
 3002 0138 01FB03F3 		mul	r3, r1, r3
 3003 013c 9BB2     		uxth	r3, r3
 3004 013e 1344     		add	r3, r3, r2
 3005 0140 9BB2     		uxth	r3, r3
 3006 0142 FB83     		strh	r3, [r7, #30]	@ movhi
 417:source\bsw\tft/tft.c ****                         x2 = x1 + gw * ts - 1,
 3007              		.loc 1 417 0
 3008 0144 7B68     		ldr	r3, [r7, #4]
 3009 0146 B3F90030 		ldrsh	r3, [r3]
 3010 014a 9AB2     		uxth	r2, r3
 3011 014c 97F92330 		ldrsb	r3, [r7, #35]
 3012 0150 9BB2     		uxth	r3, r3
 3013 0152 398C     		ldrh	r1, [r7, #32]
 3014 0154 01FB03F3 		mul	r3, r1, r3
 3015 0158 9BB2     		uxth	r3, r3
 3016 015a 1344     		add	r3, r3, r2
 3017 015c 9BB2     		uxth	r3, r3
 3018 015e BB83     		strh	r3, [r7, #28]	@ movhi
 418:source\bsw\tft/tft.c ****                         y2 = y1 + gh * ts - 1;
 3019              		.loc 1 418 0
 3020 0160 97F82730 		ldrb	r3, [r7, #39]	@ zero_extendqisi2
 3021 0164 9BB2     		uxth	r3, r3
 3022 0166 3A8C     		ldrh	r2, [r7, #32]
 3023 0168 02FB03F3 		mul	r3, r2, r3
 3024 016c 9AB2     		uxth	r2, r3
 3025 016e FB8B     		ldrh	r3, [r7, #30]
 3026 0170 1344     		add	r3, r3, r2
 3027 0172 9BB2     		uxth	r3, r3
 3028 0174 013B     		subs	r3, r3, #1
 3029 0176 9BB2     		uxth	r3, r3
 3030 0178 7B83     		strh	r3, [r7, #26]	@ movhi
 419:source\bsw\tft/tft.c ****                 if(x1 < *minx) *minx = x1;
 3031              		.loc 1 419 0
 3032 017a 97F82630 		ldrb	r3, [r7, #38]	@ zero_extendqisi2
 3033 017e 9BB2     		uxth	r3, r3
 3034 0180 3A8C     		ldrh	r2, [r7, #32]
 3035 0182 02FB03F3 		mul	r3, r2, r3
 3036 0186 9AB2     		uxth	r2, r3
 3037 0188 BB8B     		ldrh	r3, [r7, #28]
 3038 018a 1344     		add	r3, r3, r2
 3039 018c 9BB2     		uxth	r3, r3
 3040 018e 013B     		subs	r3, r3, #1
 3041 0190 9BB2     		uxth	r3, r3
 3042 0192 3B83     		strh	r3, [r7, #24]	@ movhi
 420:source\bsw\tft/tft.c ****                 if(y1 < *miny) *miny = y1;
 3043              		.loc 1 420 0
 3044 0194 3B68     		ldr	r3, [r7]
 3045 0196 B3F90030 		ldrsh	r3, [r3]
 3046 019a B7F91E20 		ldrsh	r2, [r7, #30]
 3047 019e 9A42     		cmp	r2, r3
ARM GAS  C:\Users\schmi\AppData\Local\Temp\ccA9az4I.s 			page 63


 3048 01a0 02DA     		bge	.L88
 420:source\bsw\tft/tft.c ****                 if(y1 < *miny) *miny = y1;
 3049              		.loc 1 420 0 is_stmt 0 discriminator 1
 3050 01a2 3B68     		ldr	r3, [r7]
 3051 01a4 FA8B     		ldrh	r2, [r7, #30]	@ movhi
 3052 01a6 1A80     		strh	r2, [r3]	@ movhi
 3053              	.L88:
 421:source\bsw\tft/tft.c ****                 if(x2 > *maxx) *maxx = x2;
 3054              		.loc 1 421 0 is_stmt 1
 3055 01a8 BB6B     		ldr	r3, [r7, #56]
 3056 01aa B3F90030 		ldrsh	r3, [r3]
 3057 01ae B7F91C20 		ldrsh	r2, [r7, #28]
 3058 01b2 9A42     		cmp	r2, r3
 3059 01b4 02DA     		bge	.L89
 421:source\bsw\tft/tft.c ****                 if(x2 > *maxx) *maxx = x2;
 3060              		.loc 1 421 0 is_stmt 0 discriminator 1
 3061 01b6 BB6B     		ldr	r3, [r7, #56]
 3062 01b8 BA8B     		ldrh	r2, [r7, #28]	@ movhi
 3063 01ba 1A80     		strh	r2, [r3]	@ movhi
 3064              	.L89:
 422:source\bsw\tft/tft.c ****                 if(y2 > *maxy) *maxy = y2;
 3065              		.loc 1 422 0 is_stmt 1
 3066 01bc FB6B     		ldr	r3, [r7, #60]
 3067 01be B3F90030 		ldrsh	r3, [r3]
 3068 01c2 B7F91A20 		ldrsh	r2, [r7, #26]
 3069 01c6 9A42     		cmp	r2, r3
 3070 01c8 02DD     		ble	.L90
 422:source\bsw\tft/tft.c ****                 if(y2 > *maxy) *maxy = y2;
 3071              		.loc 1 422 0 is_stmt 0 discriminator 1
 3072 01ca FB6B     		ldr	r3, [r7, #60]
 3073 01cc 7A8B     		ldrh	r2, [r7, #26]	@ movhi
 3074 01ce 1A80     		strh	r2, [r3]	@ movhi
 3075              	.L90:
 423:source\bsw\tft/tft.c ****                 *x += xa * ts;
 3076              		.loc 1 423 0 is_stmt 1
 3077 01d0 3B6C     		ldr	r3, [r7, #64]
 3078 01d2 B3F90030 		ldrsh	r3, [r3]
 3079 01d6 B7F91820 		ldrsh	r2, [r7, #24]
 3080 01da 9A42     		cmp	r2, r3
 3081 01dc 02DD     		ble	.L91
 423:source\bsw\tft/tft.c ****                 *x += xa * ts;
 3082              		.loc 1 423 0 is_stmt 0 discriminator 1
 3083 01de 3B6C     		ldr	r3, [r7, #64]
 3084 01e0 3A8B     		ldrh	r2, [r7, #24]	@ movhi
 3085 01e2 1A80     		strh	r2, [r3]	@ movhi
 3086              	.L91:
 424:source\bsw\tft/tft.c ****             }
 3087              		.loc 1 424 0 is_stmt 1
 3088 01e4 BB68     		ldr	r3, [r7, #8]
 3089 01e6 B3F90030 		ldrsh	r3, [r3]
 3090 01ea 9AB2     		uxth	r2, r3
 3091 01ec 97F82530 		ldrb	r3, [r7, #37]	@ zero_extendqisi2
 3092 01f0 9BB2     		uxth	r3, r3
 3093 01f2 398C     		ldrh	r1, [r7, #32]
 3094 01f4 01FB03F3 		mul	r3, r1, r3
 3095 01f8 9BB2     		uxth	r3, r3
 3096 01fa 1344     		add	r3, r3, r2
ARM GAS  C:\Users\schmi\AppData\Local\Temp\ccA9az4I.s 			page 64


 3097 01fc 9BB2     		uxth	r3, r3
 3098 01fe 1AB2     		sxth	r2, r3
 3099 0200 BB68     		ldr	r3, [r7, #8]
 3100 0202 1A80     		strh	r2, [r3]	@ movhi
 3101              	.LBE4:
 3102              	.LBE3:
 3103              		.loc 1 448 0
 3104 0204 9EE0     		b	.L99
 3105              	.L84:
 430:source\bsw\tft/tft.c ****             *x  = 0;                        // Reset x to zero,
 3106              		.loc 1 430 0
 3107 0206 FB7B     		ldrb	r3, [r7, #15]	@ zero_extendqisi2
 3108 0208 0A2B     		cmp	r3, #10
 3109 020a 19D1     		bne	.L93
 431:source\bsw\tft/tft.c ****             *y += textsize * 8;             // advance y one line
 3110              		.loc 1 431 0
 3111 020c BB68     		ldr	r3, [r7, #8]
 3112 020e 0022     		movs	r2, #0
 3113 0210 1A80     		strh	r2, [r3]	@ movhi
 432:source\bsw\tft/tft.c ****             // min/max x/y unchaged -- that waits for next 'normal' character
 3114              		.loc 1 432 0
 3115 0212 7B68     		ldr	r3, [r7, #4]
 3116 0214 B3F90030 		ldrsh	r3, [r3]
 3117 0218 9AB2     		uxth	r2, r3
 3118 021a 064B     		ldr	r3, .L100+4
 3119 021c 1B78     		ldrb	r3, [r3]	@ zero_extendqisi2
 3120 021e 9BB2     		uxth	r3, r3
 3121 0220 DB00     		lsls	r3, r3, #3
 3122 0222 9BB2     		uxth	r3, r3
 3123 0224 1344     		add	r3, r3, r2
 3124 0226 9BB2     		uxth	r3, r3
 3125 0228 1AB2     		sxth	r2, r3
 3126 022a 7B68     		ldr	r3, [r7, #4]
 3127 022c 1A80     		strh	r2, [r3]	@ movhi
 3128              		.loc 1 448 0
 3129 022e 89E0     		b	.L99
 3130              	.L101:
 3131              		.align	2
 3132              	.L100:
 3133 0230 14000000 		.word	gfxFont
 3134 0234 04000000 		.word	textsize
 3135 0238 12000000 		.word	wrap
 3136 023c 06000000 		.word	_width
 3137              	.L93:
 434:source\bsw\tft/tft.c ****             if(wrap && ((*x + textsize * 6) > _width)) { // Off right?
 3138              		.loc 1 434 0
 3139 0240 FB7B     		ldrb	r3, [r7, #15]	@ zero_extendqisi2
 3140 0242 0D2B     		cmp	r3, #13
 3141 0244 7ED0     		beq	.L99
 3142              	.LBB5:
 435:source\bsw\tft/tft.c ****                 *x  = 0;                    // Reset x to zero,
 3143              		.loc 1 435 0
 3144 0246 424B     		ldr	r3, .L102
 3145 0248 1B78     		ldrb	r3, [r3]	@ zero_extendqisi2
 3146 024a 002B     		cmp	r3, #0
 3147 024c 21D0     		beq	.L94
 435:source\bsw\tft/tft.c ****                 *x  = 0;                    // Reset x to zero,
ARM GAS  C:\Users\schmi\AppData\Local\Temp\ccA9az4I.s 			page 65


 3148              		.loc 1 435 0 is_stmt 0 discriminator 1
 3149 024e BB68     		ldr	r3, [r7, #8]
 3150 0250 B3F90030 		ldrsh	r3, [r3]
 3151 0254 1946     		mov	r1, r3
 3152 0256 3F4B     		ldr	r3, .L102+4
 3153 0258 1B78     		ldrb	r3, [r3]	@ zero_extendqisi2
 3154 025a 1A46     		mov	r2, r3
 3155 025c 1346     		mov	r3, r2
 3156 025e 5B00     		lsls	r3, r3, #1
 3157 0260 1344     		add	r3, r3, r2
 3158 0262 5B00     		lsls	r3, r3, #1
 3159 0264 0B44     		add	r3, r3, r1
 3160 0266 3C4A     		ldr	r2, .L102+8
 3161 0268 B2F90020 		ldrsh	r2, [r2]
 3162 026c 9342     		cmp	r3, r2
 3163 026e 10DD     		ble	.L94
 436:source\bsw\tft/tft.c ****                 *y += textsize * 8;         // advance y one line
 3164              		.loc 1 436 0 is_stmt 1
 3165 0270 BB68     		ldr	r3, [r7, #8]
 3166 0272 0022     		movs	r2, #0
 3167 0274 1A80     		strh	r2, [r3]	@ movhi
 437:source\bsw\tft/tft.c ****             }
 3168              		.loc 1 437 0
 3169 0276 7B68     		ldr	r3, [r7, #4]
 3170 0278 B3F90030 		ldrsh	r3, [r3]
 3171 027c 9AB2     		uxth	r2, r3
 3172 027e 354B     		ldr	r3, .L102+4
 3173 0280 1B78     		ldrb	r3, [r3]	@ zero_extendqisi2
 3174 0282 9BB2     		uxth	r3, r3
 3175 0284 DB00     		lsls	r3, r3, #3
 3176 0286 9BB2     		uxth	r3, r3
 3177 0288 1344     		add	r3, r3, r2
 3178 028a 9BB2     		uxth	r3, r3
 3179 028c 1AB2     		sxth	r2, r3
 3180 028e 7B68     		ldr	r3, [r7, #4]
 3181 0290 1A80     		strh	r2, [r3]	@ movhi
 3182              	.L94:
 439:source\bsw\tft/tft.c ****                 y2 = *y + textsize * 8 - 1;
 3183              		.loc 1 439 0
 3184 0292 BB68     		ldr	r3, [r7, #8]
 3185 0294 B3F90030 		ldrsh	r3, [r3]
 3186 0298 1946     		mov	r1, r3
 3187 029a 2E4B     		ldr	r3, .L102+4
 3188 029c 1B78     		ldrb	r3, [r3]	@ zero_extendqisi2
 3189 029e 1A46     		mov	r2, r3
 3190 02a0 1346     		mov	r3, r2
 3191 02a2 5B00     		lsls	r3, r3, #1
 3192 02a4 1344     		add	r3, r3, r2
 3193 02a6 5B00     		lsls	r3, r3, #1
 3194 02a8 0B44     		add	r3, r3, r1
 3195 02aa 013B     		subs	r3, r3, #1
 3196 02ac 7B61     		str	r3, [r7, #20]
 440:source\bsw\tft/tft.c ****             if(x2 > *maxx) *maxx = x2;      // Track max x, y
 3197              		.loc 1 440 0
 3198 02ae 7B68     		ldr	r3, [r7, #4]
 3199 02b0 B3F90030 		ldrsh	r3, [r3]
 3200 02b4 1A46     		mov	r2, r3
ARM GAS  C:\Users\schmi\AppData\Local\Temp\ccA9az4I.s 			page 66


 3201 02b6 274B     		ldr	r3, .L102+4
 3202 02b8 1B78     		ldrb	r3, [r3]	@ zero_extendqisi2
 3203 02ba DB00     		lsls	r3, r3, #3
 3204 02bc 1344     		add	r3, r3, r2
 3205 02be 013B     		subs	r3, r3, #1
 3206 02c0 3B61     		str	r3, [r7, #16]
 441:source\bsw\tft/tft.c ****             if(y2 > *maxy) *maxy = y2;
 3207              		.loc 1 441 0
 3208 02c2 FB6B     		ldr	r3, [r7, #60]
 3209 02c4 B3F90030 		ldrsh	r3, [r3]
 3210 02c8 1A46     		mov	r2, r3
 3211 02ca 7B69     		ldr	r3, [r7, #20]
 3212 02cc 9A42     		cmp	r2, r3
 3213 02ce 03DA     		bge	.L95
 441:source\bsw\tft/tft.c ****             if(y2 > *maxy) *maxy = y2;
 3214              		.loc 1 441 0 is_stmt 0 discriminator 1
 3215 02d0 7B69     		ldr	r3, [r7, #20]
 3216 02d2 1AB2     		sxth	r2, r3
 3217 02d4 FB6B     		ldr	r3, [r7, #60]
 3218 02d6 1A80     		strh	r2, [r3]	@ movhi
 3219              	.L95:
 442:source\bsw\tft/tft.c ****             if(*x < *minx) *minx = *x;      // Track min x, y
 3220              		.loc 1 442 0 is_stmt 1
 3221 02d8 3B6C     		ldr	r3, [r7, #64]
 3222 02da B3F90030 		ldrsh	r3, [r3]
 3223 02de 1A46     		mov	r2, r3
 3224 02e0 3B69     		ldr	r3, [r7, #16]
 3225 02e2 9A42     		cmp	r2, r3
 3226 02e4 03DA     		bge	.L96
 442:source\bsw\tft/tft.c ****             if(*x < *minx) *minx = *x;      // Track min x, y
 3227              		.loc 1 442 0 is_stmt 0 discriminator 1
 3228 02e6 3B69     		ldr	r3, [r7, #16]
 3229 02e8 1AB2     		sxth	r2, r3
 3230 02ea 3B6C     		ldr	r3, [r7, #64]
 3231 02ec 1A80     		strh	r2, [r3]	@ movhi
 3232              	.L96:
 443:source\bsw\tft/tft.c ****             if(*y < *miny) *miny = *y;
 3233              		.loc 1 443 0 is_stmt 1
 3234 02ee BB68     		ldr	r3, [r7, #8]
 3235 02f0 B3F90020 		ldrsh	r2, [r3]
 3236 02f4 3B68     		ldr	r3, [r7]
 3237 02f6 B3F90030 		ldrsh	r3, [r3]
 3238 02fa 9A42     		cmp	r2, r3
 3239 02fc 04DA     		bge	.L97
 443:source\bsw\tft/tft.c ****             if(*y < *miny) *miny = *y;
 3240              		.loc 1 443 0 is_stmt 0 discriminator 1
 3241 02fe BB68     		ldr	r3, [r7, #8]
 3242 0300 B3F90020 		ldrsh	r2, [r3]
 3243 0304 3B68     		ldr	r3, [r7]
 3244 0306 1A80     		strh	r2, [r3]	@ movhi
 3245              	.L97:
 444:source\bsw\tft/tft.c ****             *x += textsize * 6;             // Advance x one char
 3246              		.loc 1 444 0 is_stmt 1
 3247 0308 7B68     		ldr	r3, [r7, #4]
 3248 030a B3F90020 		ldrsh	r2, [r3]
 3249 030e BB6B     		ldr	r3, [r7, #56]
 3250 0310 B3F90030 		ldrsh	r3, [r3]
ARM GAS  C:\Users\schmi\AppData\Local\Temp\ccA9az4I.s 			page 67


 3251 0314 9A42     		cmp	r2, r3
 3252 0316 04DA     		bge	.L98
 444:source\bsw\tft/tft.c ****             *x += textsize * 6;             // Advance x one char
 3253              		.loc 1 444 0 is_stmt 0 discriminator 1
 3254 0318 7B68     		ldr	r3, [r7, #4]
 3255 031a B3F90020 		ldrsh	r2, [r3]
 3256 031e BB6B     		ldr	r3, [r7, #56]
 3257 0320 1A80     		strh	r2, [r3]	@ movhi
 3258              	.L98:
 445:source\bsw\tft/tft.c ****         }
 3259              		.loc 1 445 0 is_stmt 1
 3260 0322 BB68     		ldr	r3, [r7, #8]
 3261 0324 B3F90030 		ldrsh	r3, [r3]
 3262 0328 9AB2     		uxth	r2, r3
 3263 032a 0A4B     		ldr	r3, .L102+4
 3264 032c 1B78     		ldrb	r3, [r3]	@ zero_extendqisi2
 3265 032e 9BB2     		uxth	r3, r3
 3266 0330 1946     		mov	r1, r3	@ movhi
 3267 0332 4900     		lsls	r1, r1, #1
 3268 0334 0B44     		add	r3, r3, r1
 3269 0336 5B00     		lsls	r3, r3, #1
 3270 0338 9BB2     		uxth	r3, r3
 3271 033a 1344     		add	r3, r3, r2
 3272 033c 9BB2     		uxth	r3, r3
 3273 033e 1AB2     		sxth	r2, r3
 3274 0340 BB68     		ldr	r3, [r7, #8]
 3275 0342 1A80     		strh	r2, [r3]	@ movhi
 3276              	.L99:
 3277              	.LBE5:
 3278              		.loc 1 448 0
 3279 0344 00BF     		nop
 3280 0346 3437     		adds	r7, r7, #52
 3281              		.cfi_def_cfa_offset 4
 3282 0348 BD46     		mov	sp, r7
 3283              		.cfi_def_cfa_register 13
 3284              		@ sp needed
 3285 034a 80BC     		pop	{r7}
 3286              		.cfi_restore 7
 3287              		.cfi_def_cfa_offset 0
 3288 034c 7047     		bx	lr
 3289              	.L103:
 3290 034e 00BF     		.align	2
 3291              	.L102:
 3292 0350 12000000 		.word	wrap
 3293 0354 04000000 		.word	textsize
 3294 0358 06000000 		.word	_width
 3295              		.cfi_endproc
 3296              	.LFE133:
 3297              		.size	charBounds, .-charBounds
 3298              		.section	.text.TFT_print,"ax",%progbits
 3299              		.align	2
 3300              		.global	TFT_print
 3301              		.thumb
 3302              		.thumb_func
 3303              		.type	TFT_print, %function
 3304              	TFT_print:
 3305              	.LFB134:
ARM GAS  C:\Users\schmi\AppData\Local\Temp\ccA9az4I.s 			page 68


 449:source\bsw\tft/tft.c ****         
 450:source\bsw\tft/tft.c **** //----------------- USER FCT
 451:source\bsw\tft/tft.c **** 
 452:source\bsw\tft/tft.c **** void TFT_print(char* txt){
 3306              		.loc 1 452 0
 3307              		.cfi_startproc
 3308              		@ args = 0, pretend = 0, frame = 8
 3309              		@ frame_needed = 1, uses_anonymous_args = 0
 3310 0000 80B5     		push	{r7, lr}
 3311              		.cfi_def_cfa_offset 8
 3312              		.cfi_offset 7, -8
 3313              		.cfi_offset 14, -4
 3314 0002 82B0     		sub	sp, sp, #8
 3315              		.cfi_def_cfa_offset 16
 3316 0004 00AF     		add	r7, sp, #0
 3317              		.cfi_def_cfa_register 7
 3318 0006 7860     		str	r0, [r7, #4]
 453:source\bsw\tft/tft.c ****     while(*(txt)!=0){
 3319              		.loc 1 453 0
 3320 0008 06E0     		b	.L105
 3321              	.L106:
 454:source\bsw\tft/tft.c ****         TFT_write(*(txt++));
 3322              		.loc 1 454 0
 3323 000a 7B68     		ldr	r3, [r7, #4]
 3324 000c 5A1C     		adds	r2, r3, #1
 3325 000e 7A60     		str	r2, [r7, #4]
 3326 0010 1B78     		ldrb	r3, [r3]	@ zero_extendqisi2
 3327 0012 1846     		mov	r0, r3
 3328 0014 FFF7FEFF 		bl	TFT_write
 3329              	.L105:
 453:source\bsw\tft/tft.c ****     while(*(txt)!=0){
 3330              		.loc 1 453 0
 3331 0018 7B68     		ldr	r3, [r7, #4]
 3332 001a 1B78     		ldrb	r3, [r3]	@ zero_extendqisi2
 3333 001c 002B     		cmp	r3, #0
 3334 001e F4D1     		bne	.L106
 455:source\bsw\tft/tft.c ****     }
 456:source\bsw\tft/tft.c **** }
 3335              		.loc 1 456 0
 3336 0020 00BF     		nop
 3337 0022 0837     		adds	r7, r7, #8
 3338              		.cfi_def_cfa_offset 8
 3339 0024 BD46     		mov	sp, r7
 3340              		.cfi_def_cfa_register 13
 3341              		@ sp needed
 3342 0026 80BD     		pop	{r7, pc}
 3343              		.cfi_endproc
 3344              	.LFE134:
 3345              		.size	TFT_print, .-TFT_print
 3346              		.section	.text.TFT_println,"ax",%progbits
 3347              		.align	2
 3348              		.global	TFT_println
 3349              		.thumb
 3350              		.thumb_func
 3351              		.type	TFT_println, %function
 3352              	TFT_println:
 3353              	.LFB135:
ARM GAS  C:\Users\schmi\AppData\Local\Temp\ccA9az4I.s 			page 69


 457:source\bsw\tft/tft.c **** 
 458:source\bsw\tft/tft.c **** void TFT_println(char* txt){
 3354              		.loc 1 458 0
 3355              		.cfi_startproc
 3356              		@ args = 0, pretend = 0, frame = 8
 3357              		@ frame_needed = 1, uses_anonymous_args = 0
 3358 0000 80B5     		push	{r7, lr}
 3359              		.cfi_def_cfa_offset 8
 3360              		.cfi_offset 7, -8
 3361              		.cfi_offset 14, -4
 3362 0002 82B0     		sub	sp, sp, #8
 3363              		.cfi_def_cfa_offset 16
 3364 0004 00AF     		add	r7, sp, #0
 3365              		.cfi_def_cfa_register 7
 3366 0006 7860     		str	r0, [r7, #4]
 459:source\bsw\tft/tft.c ****     while(*(txt)!=0){
 3367              		.loc 1 459 0
 3368 0008 06E0     		b	.L108
 3369              	.L109:
 460:source\bsw\tft/tft.c ****         TFT_write(*(txt++));
 3370              		.loc 1 460 0
 3371 000a 7B68     		ldr	r3, [r7, #4]
 3372 000c 5A1C     		adds	r2, r3, #1
 3373 000e 7A60     		str	r2, [r7, #4]
 3374 0010 1B78     		ldrb	r3, [r3]	@ zero_extendqisi2
 3375 0012 1846     		mov	r0, r3
 3376 0014 FFF7FEFF 		bl	TFT_write
 3377              	.L108:
 459:source\bsw\tft/tft.c ****     while(*(txt)!=0){
 3378              		.loc 1 459 0
 3379 0018 7B68     		ldr	r3, [r7, #4]
 3380 001a 1B78     		ldrb	r3, [r3]	@ zero_extendqisi2
 3381 001c 002B     		cmp	r3, #0
 3382 001e F4D1     		bne	.L109
 461:source\bsw\tft/tft.c ****     }
 462:source\bsw\tft/tft.c ****     TFT_write('\n');
 3383              		.loc 1 462 0
 3384 0020 0A20     		movs	r0, #10
 3385 0022 FFF7FEFF 		bl	TFT_write
 463:source\bsw\tft/tft.c **** }
 3386              		.loc 1 463 0
 3387 0026 00BF     		nop
 3388 0028 0837     		adds	r7, r7, #8
 3389              		.cfi_def_cfa_offset 8
 3390 002a BD46     		mov	sp, r7
 3391              		.cfi_def_cfa_register 13
 3392              		@ sp needed
 3393 002c 80BD     		pop	{r7, pc}
 3394              		.cfi_endproc
 3395              	.LFE135:
 3396              		.size	TFT_println, .-TFT_println
 3397 002e 00BF     		.section	.text.TFT_write,"ax",%progbits
 3398              		.align	2
 3399              		.global	TFT_write
 3400              		.thumb
 3401              		.thumb_func
 3402              		.type	TFT_write, %function
ARM GAS  C:\Users\schmi\AppData\Local\Temp\ccA9az4I.s 			page 70


 3403              	TFT_write:
 3404              	.LFB136:
 464:source\bsw\tft/tft.c **** 
 465:source\bsw\tft/tft.c **** void TFT_write(uint8_t c) {
 3405              		.loc 1 465 0
 3406              		.cfi_startproc
 3407              		@ args = 0, pretend = 0, frame = 24
 3408              		@ frame_needed = 1, uses_anonymous_args = 0
 3409 0000 B0B5     		push	{r4, r5, r7, lr}
 3410              		.cfi_def_cfa_offset 16
 3411              		.cfi_offset 4, -16
 3412              		.cfi_offset 5, -12
 3413              		.cfi_offset 7, -8
 3414              		.cfi_offset 14, -4
 3415 0002 88B0     		sub	sp, sp, #32
 3416              		.cfi_def_cfa_offset 48
 3417 0004 02AF     		add	r7, sp, #8
 3418              		.cfi_def_cfa 7, 40
 3419 0006 0346     		mov	r3, r0
 3420 0008 FB71     		strb	r3, [r7, #7]
 466:source\bsw\tft/tft.c **** 
 467:source\bsw\tft/tft.c ****     if(!gfxFont) {                              // 'Classic' built-in font
 3421              		.loc 1 467 0
 3422 000a 7A4B     		ldr	r3, .L120
 3423 000c 1B68     		ldr	r3, [r3]
 3424 000e 002B     		cmp	r3, #0
 3425 0010 59D1     		bne	.L111
 468:source\bsw\tft/tft.c **** 
 469:source\bsw\tft/tft.c ****         if(c == '\n') {                         // Newline?
 3426              		.loc 1 469 0
 3427 0012 FB79     		ldrb	r3, [r7, #7]	@ zero_extendqisi2
 3428 0014 0A2B     		cmp	r3, #10
 3429 0016 0ED1     		bne	.L112
 470:source\bsw\tft/tft.c ****             cursor_x  = 0;                      // Reset x to zero,
 3430              		.loc 1 470 0
 3431 0018 774B     		ldr	r3, .L120+4
 3432 001a 0022     		movs	r2, #0
 3433 001c 1A80     		strh	r2, [r3]	@ movhi
 471:source\bsw\tft/tft.c ****             cursor_y += textsize * 8;           // advance y one line
 3434              		.loc 1 471 0
 3435 001e 774B     		ldr	r3, .L120+8
 3436 0020 1B78     		ldrb	r3, [r3]	@ zero_extendqisi2
 3437 0022 9BB2     		uxth	r3, r3
 3438 0024 DB00     		lsls	r3, r3, #3
 3439 0026 9AB2     		uxth	r2, r3
 3440 0028 754B     		ldr	r3, .L120+12
 3441 002a 1B88     		ldrh	r3, [r3]
 3442 002c 1344     		add	r3, r3, r2
 3443 002e 9AB2     		uxth	r2, r3
 3444 0030 734B     		ldr	r3, .L120+12
 3445 0032 1A80     		strh	r2, [r3]	@ movhi
 472:source\bsw\tft/tft.c ****         } else if(c != '\r') {                  // Ignore carriage returns
 473:source\bsw\tft/tft.c ****             if(wrap && ((cursor_x + textsize * 6) > _width)) { // Off right?
 474:source\bsw\tft/tft.c ****                 cursor_x  = 0;                  // Reset x to zero,
 475:source\bsw\tft/tft.c ****                 cursor_y += textsize * 8;       // advance y one line
 476:source\bsw\tft/tft.c ****             }
 477:source\bsw\tft/tft.c ****             TFT_drawChar(cursor_x, cursor_y, c, color, bgcolor, textsize);
ARM GAS  C:\Users\schmi\AppData\Local\Temp\ccA9az4I.s 			page 71


 478:source\bsw\tft/tft.c ****             cursor_x += textsize * 6;          // Advance x one char
 479:source\bsw\tft/tft.c ****         }
 480:source\bsw\tft/tft.c **** 
 481:source\bsw\tft/tft.c ****     } else { // Custom font
 482:source\bsw\tft/tft.c **** 
 483:source\bsw\tft/tft.c ****         if(c == '\n') {
 484:source\bsw\tft/tft.c ****             cursor_x  = 0;
 485:source\bsw\tft/tft.c ****             cursor_y += (int16_t)textsize *
 486:source\bsw\tft/tft.c ****                         (uint8_t)pgm_read_byte(&gfxFont->yAdvance);
 487:source\bsw\tft/tft.c ****         } else if(c != '\r') {
 488:source\bsw\tft/tft.c ****             uint8_t first = pgm_read_byte(&gfxFont->first);
 489:source\bsw\tft/tft.c ****             if((c >= first) && (c <= (uint8_t)pgm_read_byte(&gfxFont->last))) {
 490:source\bsw\tft/tft.c ****                 GFXglyph *glyph = &(((GFXglyph *)pgm_read_pointer(
 491:source\bsw\tft/tft.c ****                   &gfxFont->glyph))[c - first]);
 492:source\bsw\tft/tft.c ****                 uint8_t   w     = pgm_read_byte(&glyph->width),
 493:source\bsw\tft/tft.c ****                           h     = pgm_read_byte(&glyph->height);
 494:source\bsw\tft/tft.c ****                 if((w > 0) && (h > 0)) { // Is there an associated bitmap?
 495:source\bsw\tft/tft.c ****                     int16_t xo = (int8_t)pgm_read_byte(&glyph->xOffset); // sic
 496:source\bsw\tft/tft.c ****                     if(wrap && ((cursor_x + textsize * (xo + w)) > _width)) {
 497:source\bsw\tft/tft.c ****                         cursor_x  = 0;
 498:source\bsw\tft/tft.c ****                         cursor_y += (int16_t)textsize *
 499:source\bsw\tft/tft.c ****                           (uint8_t)pgm_read_byte(&gfxFont->yAdvance);
 500:source\bsw\tft/tft.c ****                     }
 501:source\bsw\tft/tft.c ****                     TFT_drawChar(cursor_x, cursor_y, c, color, bgcolor, textsize);
 502:source\bsw\tft/tft.c ****                 }
 503:source\bsw\tft/tft.c ****                 cursor_x += (uint8_t)pgm_read_byte(&glyph->xAdvance) * (int16_t)textsize;
 504:source\bsw\tft/tft.c ****             }
 505:source\bsw\tft/tft.c ****         }
 506:source\bsw\tft/tft.c **** 
 507:source\bsw\tft/tft.c ****     }
 508:source\bsw\tft/tft.c **** }
 3446              		.loc 1 508 0
 3447 0034 D9E0     		b	.L119
 3448              	.L112:
 472:source\bsw\tft/tft.c ****         } else if(c != '\r') {                  // Ignore carriage returns
 3449              		.loc 1 472 0
 3450 0036 FB79     		ldrb	r3, [r7, #7]	@ zero_extendqisi2
 3451 0038 0D2B     		cmp	r3, #13
 3452 003a 00F0D680 		beq	.L119
 473:source\bsw\tft/tft.c ****                 cursor_x  = 0;                  // Reset x to zero,
 3453              		.loc 1 473 0
 3454 003e 714B     		ldr	r3, .L120+16
 3455 0040 1B78     		ldrb	r3, [r3]	@ zero_extendqisi2
 3456 0042 002B     		cmp	r3, #0
 3457 0044 1DD0     		beq	.L114
 473:source\bsw\tft/tft.c ****                 cursor_x  = 0;                  // Reset x to zero,
 3458              		.loc 1 473 0 is_stmt 0 discriminator 1
 3459 0046 6C4B     		ldr	r3, .L120+4
 3460 0048 1B88     		ldrh	r3, [r3]
 3461 004a 1946     		mov	r1, r3
 3462 004c 6B4B     		ldr	r3, .L120+8
 3463 004e 1B78     		ldrb	r3, [r3]	@ zero_extendqisi2
 3464 0050 1A46     		mov	r2, r3
 3465 0052 1346     		mov	r3, r2
 3466 0054 5B00     		lsls	r3, r3, #1
 3467 0056 1344     		add	r3, r3, r2
 3468 0058 5B00     		lsls	r3, r3, #1
ARM GAS  C:\Users\schmi\AppData\Local\Temp\ccA9az4I.s 			page 72


 3469 005a 0B44     		add	r3, r3, r1
 3470 005c 6A4A     		ldr	r2, .L120+20
 3471 005e B2F90020 		ldrsh	r2, [r2]
 3472 0062 9342     		cmp	r3, r2
 3473 0064 0DDD     		ble	.L114
 474:source\bsw\tft/tft.c ****                 cursor_y += textsize * 8;       // advance y one line
 3474              		.loc 1 474 0 is_stmt 1
 3475 0066 644B     		ldr	r3, .L120+4
 3476 0068 0022     		movs	r2, #0
 3477 006a 1A80     		strh	r2, [r3]	@ movhi
 475:source\bsw\tft/tft.c ****             }
 3478              		.loc 1 475 0
 3479 006c 634B     		ldr	r3, .L120+8
 3480 006e 1B78     		ldrb	r3, [r3]	@ zero_extendqisi2
 3481 0070 9BB2     		uxth	r3, r3
 3482 0072 DB00     		lsls	r3, r3, #3
 3483 0074 9AB2     		uxth	r2, r3
 3484 0076 624B     		ldr	r3, .L120+12
 3485 0078 1B88     		ldrh	r3, [r3]
 3486 007a 1344     		add	r3, r3, r2
 3487 007c 9AB2     		uxth	r2, r3
 3488 007e 604B     		ldr	r3, .L120+12
 3489 0080 1A80     		strh	r2, [r3]	@ movhi
 3490              	.L114:
 477:source\bsw\tft/tft.c ****             cursor_x += textsize * 6;          // Advance x one char
 3491              		.loc 1 477 0
 3492 0082 5D4B     		ldr	r3, .L120+4
 3493 0084 1B88     		ldrh	r3, [r3]
 3494 0086 18B2     		sxth	r0, r3
 3495 0088 5D4B     		ldr	r3, .L120+12
 3496 008a 1B88     		ldrh	r3, [r3]
 3497 008c 19B2     		sxth	r1, r3
 3498 008e 5F4B     		ldr	r3, .L120+24
 3499 0090 1D88     		ldrh	r5, [r3]
 3500 0092 5F4B     		ldr	r3, .L120+28
 3501 0094 1B88     		ldrh	r3, [r3]
 3502 0096 594A     		ldr	r2, .L120+8
 3503 0098 1278     		ldrb	r2, [r2]	@ zero_extendqisi2
 3504 009a FC79     		ldrb	r4, [r7, #7]	@ zero_extendqisi2
 3505 009c 0192     		str	r2, [sp, #4]
 3506 009e 0093     		str	r3, [sp]
 3507 00a0 2B46     		mov	r3, r5
 3508 00a2 2246     		mov	r2, r4
 3509 00a4 FFF7FEFF 		bl	TFT_drawChar
 478:source\bsw\tft/tft.c ****         }
 3510              		.loc 1 478 0
 3511 00a8 544B     		ldr	r3, .L120+8
 3512 00aa 1B78     		ldrb	r3, [r3]	@ zero_extendqisi2
 3513 00ac 9BB2     		uxth	r3, r3
 3514 00ae 1A46     		mov	r2, r3	@ movhi
 3515 00b0 5200     		lsls	r2, r2, #1
 3516 00b2 1344     		add	r3, r3, r2
 3517 00b4 5B00     		lsls	r3, r3, #1
 3518 00b6 9AB2     		uxth	r2, r3
 3519 00b8 4F4B     		ldr	r3, .L120+4
 3520 00ba 1B88     		ldrh	r3, [r3]
 3521 00bc 1344     		add	r3, r3, r2
ARM GAS  C:\Users\schmi\AppData\Local\Temp\ccA9az4I.s 			page 73


 3522 00be 9AB2     		uxth	r2, r3
 3523 00c0 4D4B     		ldr	r3, .L120+4
 3524 00c2 1A80     		strh	r2, [r3]	@ movhi
 3525              		.loc 1 508 0
 3526 00c4 91E0     		b	.L119
 3527              	.L111:
 483:source\bsw\tft/tft.c ****             cursor_x  = 0;
 3528              		.loc 1 483 0
 3529 00c6 FB79     		ldrb	r3, [r7, #7]	@ zero_extendqisi2
 3530 00c8 0A2B     		cmp	r3, #10
 3531 00ca 14D1     		bne	.L116
 484:source\bsw\tft/tft.c ****             cursor_y += (int16_t)textsize *
 3532              		.loc 1 484 0
 3533 00cc 4A4B     		ldr	r3, .L120+4
 3534 00ce 0022     		movs	r2, #0
 3535 00d0 1A80     		strh	r2, [r3]	@ movhi
 485:source\bsw\tft/tft.c ****                         (uint8_t)pgm_read_byte(&gfxFont->yAdvance);
 3536              		.loc 1 485 0
 3537 00d2 4A4B     		ldr	r3, .L120+8
 3538 00d4 1B78     		ldrb	r3, [r3]	@ zero_extendqisi2
 3539 00d6 9BB2     		uxth	r3, r3
 486:source\bsw\tft/tft.c ****         } else if(c != '\r') {
 3540              		.loc 1 486 0
 3541 00d8 464A     		ldr	r2, .L120
 3542 00da 1268     		ldr	r2, [r2]
 3543 00dc 0A32     		adds	r2, r2, #10
 3544 00de 1278     		ldrb	r2, [r2]	@ zero_extendqisi2
 485:source\bsw\tft/tft.c ****                         (uint8_t)pgm_read_byte(&gfxFont->yAdvance);
 3545              		.loc 1 485 0
 3546 00e0 92B2     		uxth	r2, r2
 3547 00e2 02FB03F3 		mul	r3, r2, r3
 3548 00e6 9AB2     		uxth	r2, r3
 3549 00e8 454B     		ldr	r3, .L120+12
 3550 00ea 1B88     		ldrh	r3, [r3]
 3551 00ec 1344     		add	r3, r3, r2
 3552 00ee 9AB2     		uxth	r2, r3
 3553 00f0 434B     		ldr	r3, .L120+12
 3554 00f2 1A80     		strh	r2, [r3]	@ movhi
 3555              		.loc 1 508 0
 3556 00f4 79E0     		b	.L119
 3557              	.L116:
 487:source\bsw\tft/tft.c ****             uint8_t first = pgm_read_byte(&gfxFont->first);
 3558              		.loc 1 487 0
 3559 00f6 FB79     		ldrb	r3, [r7, #7]	@ zero_extendqisi2
 3560 00f8 0D2B     		cmp	r3, #13
 3561 00fa 76D0     		beq	.L119
 3562              	.LBB6:
 488:source\bsw\tft/tft.c ****             if((c >= first) && (c <= (uint8_t)pgm_read_byte(&gfxFont->last))) {
 3563              		.loc 1 488 0
 3564 00fc 3D4B     		ldr	r3, .L120
 3565 00fe 1B68     		ldr	r3, [r3]
 3566 0100 1B7A     		ldrb	r3, [r3, #8]
 3567 0102 FB75     		strb	r3, [r7, #23]
 489:source\bsw\tft/tft.c ****                 GFXglyph *glyph = &(((GFXglyph *)pgm_read_pointer(
 3568              		.loc 1 489 0
 3569 0104 FA79     		ldrb	r2, [r7, #7]	@ zero_extendqisi2
 3570 0106 FB7D     		ldrb	r3, [r7, #23]	@ zero_extendqisi2
ARM GAS  C:\Users\schmi\AppData\Local\Temp\ccA9az4I.s 			page 74


 3571 0108 9A42     		cmp	r2, r3
 3572 010a 6ED3     		bcc	.L119
 489:source\bsw\tft/tft.c ****                 GFXglyph *glyph = &(((GFXglyph *)pgm_read_pointer(
 3573              		.loc 1 489 0 is_stmt 0 discriminator 1
 3574 010c 394B     		ldr	r3, .L120
 3575 010e 1B68     		ldr	r3, [r3]
 3576 0110 0933     		adds	r3, r3, #9
 3577 0112 1B78     		ldrb	r3, [r3]	@ zero_extendqisi2
 3578 0114 FA79     		ldrb	r2, [r7, #7]	@ zero_extendqisi2
 3579 0116 9A42     		cmp	r2, r3
 3580 0118 67D8     		bhi	.L119
 3581              	.LBB7:
 491:source\bsw\tft/tft.c ****                 uint8_t   w     = pgm_read_byte(&glyph->width),
 3582              		.loc 1 491 0 is_stmt 1
 3583 011a FA79     		ldrb	r2, [r7, #7]	@ zero_extendqisi2
 3584 011c FB7D     		ldrb	r3, [r7, #23]	@ zero_extendqisi2
 3585 011e D31A     		subs	r3, r2, r3
 3586 0120 DA00     		lsls	r2, r3, #3
 490:source\bsw\tft/tft.c ****                   &gfxFont->glyph))[c - first]);
 3587              		.loc 1 490 0
 3588 0122 344B     		ldr	r3, .L120
 3589 0124 1B68     		ldr	r3, [r3]
 3590 0126 0433     		adds	r3, r3, #4
 491:source\bsw\tft/tft.c ****                 uint8_t   w     = pgm_read_byte(&glyph->width),
 3591              		.loc 1 491 0
 3592 0128 1B68     		ldr	r3, [r3]
 3593 012a 1344     		add	r3, r3, r2
 490:source\bsw\tft/tft.c ****                   &gfxFont->glyph))[c - first]);
 3594              		.loc 1 490 0
 3595 012c 3B61     		str	r3, [r7, #16]
 492:source\bsw\tft/tft.c ****                           h     = pgm_read_byte(&glyph->height);
 3596              		.loc 1 492 0
 3597 012e 3B69     		ldr	r3, [r7, #16]
 3598 0130 9B78     		ldrb	r3, [r3, #2]
 3599 0132 FB73     		strb	r3, [r7, #15]
 493:source\bsw\tft/tft.c ****                 if((w > 0) && (h > 0)) { // Is there an associated bitmap?
 3600              		.loc 1 493 0
 3601 0134 3B69     		ldr	r3, [r7, #16]
 3602 0136 DB78     		ldrb	r3, [r3, #3]
 3603 0138 BB73     		strb	r3, [r7, #14]
 494:source\bsw\tft/tft.c ****                     int16_t xo = (int8_t)pgm_read_byte(&glyph->xOffset); // sic
 3604              		.loc 1 494 0
 3605 013a FB7B     		ldrb	r3, [r7, #15]	@ zero_extendqisi2
 3606 013c 002B     		cmp	r3, #0
 3607 013e 44D0     		beq	.L117
 494:source\bsw\tft/tft.c ****                     int16_t xo = (int8_t)pgm_read_byte(&glyph->xOffset); // sic
 3608              		.loc 1 494 0 is_stmt 0 discriminator 1
 3609 0140 BB7B     		ldrb	r3, [r7, #14]	@ zero_extendqisi2
 3610 0142 002B     		cmp	r3, #0
 3611 0144 41D0     		beq	.L117
 3612              	.LBB8:
 495:source\bsw\tft/tft.c ****                     if(wrap && ((cursor_x + textsize * (xo + w)) > _width)) {
 3613              		.loc 1 495 0 is_stmt 1
 3614 0146 3B69     		ldr	r3, [r7, #16]
 3615 0148 0533     		adds	r3, r3, #5
 3616 014a 1B78     		ldrb	r3, [r3]	@ zero_extendqisi2
 3617 014c 5BB2     		sxtb	r3, r3
ARM GAS  C:\Users\schmi\AppData\Local\Temp\ccA9az4I.s 			page 75


 3618 014e BB81     		strh	r3, [r7, #12]	@ movhi
 496:source\bsw\tft/tft.c ****                         cursor_x  = 0;
 3619              		.loc 1 496 0
 3620 0150 2C4B     		ldr	r3, .L120+16
 3621 0152 1B78     		ldrb	r3, [r3]	@ zero_extendqisi2
 3622 0154 002B     		cmp	r3, #0
 3623 0156 25D0     		beq	.L118
 496:source\bsw\tft/tft.c ****                         cursor_x  = 0;
 3624              		.loc 1 496 0 is_stmt 0 discriminator 1
 3625 0158 274B     		ldr	r3, .L120+4
 3626 015a 1B88     		ldrh	r3, [r3]
 3627 015c 1946     		mov	r1, r3
 3628 015e 274B     		ldr	r3, .L120+8
 3629 0160 1B78     		ldrb	r3, [r3]	@ zero_extendqisi2
 3630 0162 1846     		mov	r0, r3
 3631 0164 B7F90C20 		ldrsh	r2, [r7, #12]
 3632 0168 FB7B     		ldrb	r3, [r7, #15]	@ zero_extendqisi2
 3633 016a 1344     		add	r3, r3, r2
 3634 016c 03FB00F3 		mul	r3, r3, r0
 3635 0170 0B44     		add	r3, r3, r1
 3636 0172 254A     		ldr	r2, .L120+20
 3637 0174 B2F90020 		ldrsh	r2, [r2]
 3638 0178 9342     		cmp	r3, r2
 3639 017a 13DD     		ble	.L118
 497:source\bsw\tft/tft.c ****                         cursor_y += (int16_t)textsize *
 3640              		.loc 1 497 0 is_stmt 1
 3641 017c 1E4B     		ldr	r3, .L120+4
 3642 017e 0022     		movs	r2, #0
 3643 0180 1A80     		strh	r2, [r3]	@ movhi
 498:source\bsw\tft/tft.c ****                           (uint8_t)pgm_read_byte(&gfxFont->yAdvance);
 3644              		.loc 1 498 0
 3645 0182 1E4B     		ldr	r3, .L120+8
 3646 0184 1B78     		ldrb	r3, [r3]	@ zero_extendqisi2
 3647 0186 9BB2     		uxth	r3, r3
 499:source\bsw\tft/tft.c ****                     }
 3648              		.loc 1 499 0
 3649 0188 1A4A     		ldr	r2, .L120
 3650 018a 1268     		ldr	r2, [r2]
 3651 018c 0A32     		adds	r2, r2, #10
 3652 018e 1278     		ldrb	r2, [r2]	@ zero_extendqisi2
 498:source\bsw\tft/tft.c ****                           (uint8_t)pgm_read_byte(&gfxFont->yAdvance);
 3653              		.loc 1 498 0
 3654 0190 92B2     		uxth	r2, r2
 3655 0192 02FB03F3 		mul	r3, r2, r3
 3656 0196 9AB2     		uxth	r2, r3
 3657 0198 194B     		ldr	r3, .L120+12
 3658 019a 1B88     		ldrh	r3, [r3]
 3659 019c 1344     		add	r3, r3, r2
 3660 019e 9AB2     		uxth	r2, r3
 3661 01a0 174B     		ldr	r3, .L120+12
 3662 01a2 1A80     		strh	r2, [r3]	@ movhi
 3663              	.L118:
 501:source\bsw\tft/tft.c ****                 }
 3664              		.loc 1 501 0
 3665 01a4 144B     		ldr	r3, .L120+4
 3666 01a6 1B88     		ldrh	r3, [r3]
 3667 01a8 18B2     		sxth	r0, r3
ARM GAS  C:\Users\schmi\AppData\Local\Temp\ccA9az4I.s 			page 76


 3668 01aa 154B     		ldr	r3, .L120+12
 3669 01ac 1B88     		ldrh	r3, [r3]
 3670 01ae 19B2     		sxth	r1, r3
 3671 01b0 164B     		ldr	r3, .L120+24
 3672 01b2 1D88     		ldrh	r5, [r3]
 3673 01b4 164B     		ldr	r3, .L120+28
 3674 01b6 1B88     		ldrh	r3, [r3]
 3675 01b8 104A     		ldr	r2, .L120+8
 3676 01ba 1278     		ldrb	r2, [r2]	@ zero_extendqisi2
 3677 01bc FC79     		ldrb	r4, [r7, #7]	@ zero_extendqisi2
 3678 01be 0192     		str	r2, [sp, #4]
 3679 01c0 0093     		str	r3, [sp]
 3680 01c2 2B46     		mov	r3, r5
 3681 01c4 2246     		mov	r2, r4
 3682 01c6 FFF7FEFF 		bl	TFT_drawChar
 3683              	.L117:
 3684              	.LBE8:
 503:source\bsw\tft/tft.c ****             }
 3685              		.loc 1 503 0
 3686 01ca 3B69     		ldr	r3, [r7, #16]
 3687 01cc 0433     		adds	r3, r3, #4
 3688 01ce 1B78     		ldrb	r3, [r3]	@ zero_extendqisi2
 3689 01d0 9BB2     		uxth	r3, r3
 3690 01d2 0A4A     		ldr	r2, .L120+8
 3691 01d4 1278     		ldrb	r2, [r2]	@ zero_extendqisi2
 3692 01d6 92B2     		uxth	r2, r2
 3693 01d8 02FB03F3 		mul	r3, r2, r3
 3694 01dc 9AB2     		uxth	r2, r3
 3695 01de 064B     		ldr	r3, .L120+4
 3696 01e0 1B88     		ldrh	r3, [r3]
 3697 01e2 1344     		add	r3, r3, r2
 3698 01e4 9AB2     		uxth	r2, r3
 3699 01e6 044B     		ldr	r3, .L120+4
 3700 01e8 1A80     		strh	r2, [r3]	@ movhi
 3701              	.L119:
 3702              	.LBE7:
 3703              	.LBE6:
 3704              		.loc 1 508 0
 3705 01ea 00BF     		nop
 3706 01ec 1837     		adds	r7, r7, #24
 3707              		.cfi_def_cfa_offset 16
 3708 01ee BD46     		mov	sp, r7
 3709              		.cfi_def_cfa_register 13
 3710              		@ sp needed
 3711 01f0 B0BD     		pop	{r4, r5, r7, pc}
 3712              	.L121:
 3713 01f2 00BF     		.align	2
 3714              	.L120:
 3715 01f4 14000000 		.word	gfxFont
 3716 01f8 0A000000 		.word	cursor_x
 3717 01fc 04000000 		.word	textsize
 3718 0200 0C000000 		.word	cursor_y
 3719 0204 12000000 		.word	wrap
 3720 0208 06000000 		.word	_width
 3721 020c 0E000000 		.word	color
 3722 0210 10000000 		.word	bgcolor
 3723              		.cfi_endproc
ARM GAS  C:\Users\schmi\AppData\Local\Temp\ccA9az4I.s 			page 77


 3724              	.LFE136:
 3725              		.size	TFT_write, .-TFT_write
 3726              		.section	.text.TFT_fillScreen,"ax",%progbits
 3727              		.align	2
 3728              		.global	TFT_fillScreen
 3729              		.thumb
 3730              		.thumb_func
 3731              		.type	TFT_fillScreen, %function
 3732              	TFT_fillScreen:
 3733              	.LFB137:
 509:source\bsw\tft/tft.c **** 
 510:source\bsw\tft/tft.c **** void TFT_fillScreen(TFT_color_t color) {
 3734              		.loc 1 510 0
 3735              		.cfi_startproc
 3736              		@ args = 0, pretend = 0, frame = 8
 3737              		@ frame_needed = 1, uses_anonymous_args = 0
 3738 0000 80B5     		push	{r7, lr}
 3739              		.cfi_def_cfa_offset 8
 3740              		.cfi_offset 7, -8
 3741              		.cfi_offset 14, -4
 3742 0002 84B0     		sub	sp, sp, #16
 3743              		.cfi_def_cfa_offset 24
 3744 0004 02AF     		add	r7, sp, #8
 3745              		.cfi_def_cfa 7, 16
 3746 0006 0346     		mov	r3, r0
 3747 0008 FB80     		strh	r3, [r7, #6]	@ movhi
 511:source\bsw\tft/tft.c ****   TFT_fillRect(0, 0,  _width, _height, color);
 3748              		.loc 1 511 0
 3749 000a 084B     		ldr	r3, .L123
 3750 000c B3F90020 		ldrsh	r2, [r3]
 3751 0010 074B     		ldr	r3, .L123+4
 3752 0012 1B88     		ldrh	r3, [r3]
 3753 0014 19B2     		sxth	r1, r3
 3754 0016 FB88     		ldrh	r3, [r7, #6]
 3755 0018 0093     		str	r3, [sp]
 3756 001a 0B46     		mov	r3, r1
 3757 001c 0021     		movs	r1, #0
 3758 001e 0020     		movs	r0, #0
 3759 0020 FFF7FEFF 		bl	TFT_fillRect
 512:source\bsw\tft/tft.c **** }
 3760              		.loc 1 512 0
 3761 0024 00BF     		nop
 3762 0026 0837     		adds	r7, r7, #8
 3763              		.cfi_def_cfa_offset 8
 3764 0028 BD46     		mov	sp, r7
 3765              		.cfi_def_cfa_register 13
 3766              		@ sp needed
 3767 002a 80BD     		pop	{r7, pc}
 3768              	.L124:
 3769              		.align	2
 3770              	.L123:
 3771 002c 06000000 		.word	_width
 3772 0030 08000000 		.word	_height
 3773              		.cfi_endproc
 3774              	.LFE137:
 3775              		.size	TFT_fillScreen, .-TFT_fillScreen
 3776              		.section	.text.TFT_clearScreen,"ax",%progbits
ARM GAS  C:\Users\schmi\AppData\Local\Temp\ccA9az4I.s 			page 78


 3777              		.align	2
 3778              		.global	TFT_clearScreen
 3779              		.thumb
 3780              		.thumb_func
 3781              		.type	TFT_clearScreen, %function
 3782              	TFT_clearScreen:
 3783              	.LFB138:
 513:source\bsw\tft/tft.c **** 
 514:source\bsw\tft/tft.c **** void TFT_clearScreen(void){TFT_fillScreen(TFT_getBGcolor());};
 3784              		.loc 1 514 0
 3785              		.cfi_startproc
 3786              		@ args = 0, pretend = 0, frame = 0
 3787              		@ frame_needed = 1, uses_anonymous_args = 0
 3788 0000 80B5     		push	{r7, lr}
 3789              		.cfi_def_cfa_offset 8
 3790              		.cfi_offset 7, -8
 3791              		.cfi_offset 14, -4
 3792 0002 00AF     		add	r7, sp, #0
 3793              		.cfi_def_cfa_register 7
 3794              		.loc 1 514 0
 3795 0004 FFF7FEFF 		bl	TFT_getBGcolor
 3796 0008 0346     		mov	r3, r0
 3797 000a 1846     		mov	r0, r3
 3798 000c FFF7FEFF 		bl	TFT_fillScreen
 3799 0010 00BF     		nop
 3800 0012 80BD     		pop	{r7, pc}
 3801              		.cfi_endproc
 3802              	.LFE138:
 3803              		.size	TFT_clearScreen, .-TFT_clearScreen
 3804              		.section	.text.TFT_fillRect,"ax",%progbits
 3805              		.align	2
 3806              		.global	TFT_fillRect
 3807              		.thumb
 3808              		.thumb_func
 3809              		.type	TFT_fillRect, %function
 3810              	TFT_fillRect:
 3811              	.LFB139:
 515:source\bsw\tft/tft.c **** 
 516:source\bsw\tft/tft.c **** void TFT_fillRect(int16_t x, int16_t y, int16_t w, int16_t h, TFT_color_t color) {
 3812              		.loc 1 516 0
 3813              		.cfi_startproc
 3814              		@ args = 4, pretend = 0, frame = 16
 3815              		@ frame_needed = 1, uses_anonymous_args = 0
 3816 0000 90B5     		push	{r4, r7, lr}
 3817              		.cfi_def_cfa_offset 12
 3818              		.cfi_offset 4, -12
 3819              		.cfi_offset 7, -8
 3820              		.cfi_offset 14, -4
 3821 0002 85B0     		sub	sp, sp, #20
 3822              		.cfi_def_cfa_offset 32
 3823 0004 00AF     		add	r7, sp, #0
 3824              		.cfi_def_cfa_register 7
 3825 0006 0446     		mov	r4, r0
 3826 0008 0846     		mov	r0, r1
 3827 000a 1146     		mov	r1, r2
 3828 000c 1A46     		mov	r2, r3
 3829 000e 2346     		mov	r3, r4	@ movhi
ARM GAS  C:\Users\schmi\AppData\Local\Temp\ccA9az4I.s 			page 79


 3830 0010 FB80     		strh	r3, [r7, #6]	@ movhi
 3831 0012 0346     		mov	r3, r0	@ movhi
 3832 0014 BB80     		strh	r3, [r7, #4]	@ movhi
 3833 0016 0B46     		mov	r3, r1	@ movhi
 3834 0018 7B80     		strh	r3, [r7, #2]	@ movhi
 3835 001a 1346     		mov	r3, r2	@ movhi
 3836 001c 3B80     		strh	r3, [r7]	@ movhi
 517:source\bsw\tft/tft.c ****     
 518:source\bsw\tft/tft.c ****     // rudimentary clipping (drawChar w/big text requires this)
 519:source\bsw\tft/tft.c ****     if((x >= _width) || (y >= _height)) return;
 3837              		.loc 1 519 0
 3838 001e 3C4B     		ldr	r3, .L137
 3839 0020 B3F90030 		ldrsh	r3, [r3]
 3840 0024 B7F90620 		ldrsh	r2, [r7, #6]
 3841 0028 9A42     		cmp	r2, r3
 3842 002a 6DDA     		bge	.L136
 3843              		.loc 1 519 0 is_stmt 0 discriminator 1
 3844 002c B7F90430 		ldrsh	r3, [r7, #4]
 3845 0030 384A     		ldr	r2, .L137+4
 3846 0032 1288     		ldrh	r2, [r2]
 3847 0034 9342     		cmp	r3, r2
 3848 0036 67DA     		bge	.L136
 520:source\bsw\tft/tft.c ****     
 521:source\bsw\tft/tft.c ****     if((x + w - 1) >= _width)  w = _width  - x;
 3849              		.loc 1 521 0 is_stmt 1
 3850 0038 B7F90620 		ldrsh	r2, [r7, #6]
 3851 003c B7F90230 		ldrsh	r3, [r7, #2]
 3852 0040 1344     		add	r3, r3, r2
 3853 0042 013B     		subs	r3, r3, #1
 3854 0044 324A     		ldr	r2, .L137
 3855 0046 B2F90020 		ldrsh	r2, [r2]
 3856 004a 9342     		cmp	r3, r2
 3857 004c 07DB     		blt	.L130
 3858              		.loc 1 521 0 is_stmt 0 discriminator 1
 3859 004e 304B     		ldr	r3, .L137
 3860 0050 B3F90030 		ldrsh	r3, [r3]
 3861 0054 9AB2     		uxth	r2, r3
 3862 0056 FB88     		ldrh	r3, [r7, #6]
 3863 0058 D31A     		subs	r3, r2, r3
 3864 005a 9BB2     		uxth	r3, r3
 3865 005c 7B80     		strh	r3, [r7, #2]	@ movhi
 3866              	.L130:
 522:source\bsw\tft/tft.c ****     if((y + h - 1) >= _height) h = _height - y;
 3867              		.loc 1 522 0 is_stmt 1
 3868 005e B7F90420 		ldrsh	r2, [r7, #4]
 3869 0062 B7F90030 		ldrsh	r3, [r7]
 3870 0066 1344     		add	r3, r3, r2
 3871 0068 013B     		subs	r3, r3, #1
 3872 006a 2A4A     		ldr	r2, .L137+4
 3873 006c 1288     		ldrh	r2, [r2]
 3874 006e 9342     		cmp	r3, r2
 3875 0070 05DB     		blt	.L131
 3876              		.loc 1 522 0 is_stmt 0 discriminator 1
 3877 0072 284B     		ldr	r3, .L137+4
 3878 0074 1A88     		ldrh	r2, [r3]
 3879 0076 BB88     		ldrh	r3, [r7, #4]
 3880 0078 D31A     		subs	r3, r2, r3
ARM GAS  C:\Users\schmi\AppData\Local\Temp\ccA9az4I.s 			page 80


 3881 007a 9BB2     		uxth	r3, r3
 3882 007c 3B80     		strh	r3, [r7]	@ movhi
 3883              	.L131:
 523:source\bsw\tft/tft.c ****     
 524:source\bsw\tft/tft.c ****     setAddrWindow(x, y, x+w-1, y+h-1);
 3884              		.loc 1 524 0 is_stmt 1
 3885 007e FB88     		ldrh	r3, [r7, #6]	@ movhi
 3886 0080 D8B2     		uxtb	r0, r3
 3887 0082 BB88     		ldrh	r3, [r7, #4]	@ movhi
 3888 0084 D9B2     		uxtb	r1, r3
 3889 0086 FB88     		ldrh	r3, [r7, #6]	@ movhi
 3890 0088 DAB2     		uxtb	r2, r3
 3891 008a 7B88     		ldrh	r3, [r7, #2]	@ movhi
 3892 008c DBB2     		uxtb	r3, r3
 3893 008e 1344     		add	r3, r3, r2
 3894 0090 DBB2     		uxtb	r3, r3
 3895 0092 013B     		subs	r3, r3, #1
 3896 0094 DCB2     		uxtb	r4, r3
 3897 0096 BB88     		ldrh	r3, [r7, #4]	@ movhi
 3898 0098 DAB2     		uxtb	r2, r3
 3899 009a 3B88     		ldrh	r3, [r7]	@ movhi
 3900 009c DBB2     		uxtb	r3, r3
 3901 009e 1344     		add	r3, r3, r2
 3902 00a0 DBB2     		uxtb	r3, r3
 3903 00a2 013B     		subs	r3, r3, #1
 3904 00a4 DBB2     		uxtb	r3, r3
 3905 00a6 2246     		mov	r2, r4
 3906 00a8 FFF7FEFF 		bl	setAddrWindow
 525:source\bsw\tft/tft.c **** 
 526:source\bsw\tft/tft.c ****     uint8_t hi = color >> 8, lo = color;
 3907              		.loc 1 526 0
 3908 00ac 3B8C     		ldrh	r3, [r7, #32]
 3909 00ae 1B0A     		lsrs	r3, r3, #8
 3910 00b0 9BB2     		uxth	r3, r3
 3911 00b2 FB73     		strb	r3, [r7, #15]
 3912 00b4 3B8C     		ldrh	r3, [r7, #32]	@ movhi
 3913 00b6 BB73     		strb	r3, [r7, #14]
 527:source\bsw\tft/tft.c ****     
 528:source\bsw\tft/tft.c ****     TFT_DC_HIGH;
 3914              		.loc 1 528 0
 3915 00b8 0120     		movs	r0, #1
 3916 00ba FFF7FEFF 		bl	TFT_DC_Write
 529:source\bsw\tft/tft.c ****     for(y=h; y>0; y--) {
 3917              		.loc 1 529 0
 3918 00be 3B88     		ldrh	r3, [r7]	@ movhi
 3919 00c0 BB80     		strh	r3, [r7, #4]	@ movhi
 3920 00c2 1CE0     		b	.L132
 3921              	.L135:
 530:source\bsw\tft/tft.c ****         for(x=w; x>0; x--) {
 3922              		.loc 1 530 0
 3923 00c4 7B88     		ldrh	r3, [r7, #2]	@ movhi
 3924 00c6 FB80     		strh	r3, [r7, #6]	@ movhi
 3925 00c8 0FE0     		b	.L133
 3926              	.L134:
 531:source\bsw\tft/tft.c ****           TFT_write_stream(hi);
 3927              		.loc 1 531 0 discriminator 3
 3928 00ca FB7B     		ldrb	r3, [r7, #15]	@ zero_extendqisi2
ARM GAS  C:\Users\schmi\AppData\Local\Temp\ccA9az4I.s 			page 81


 3929 00cc 1946     		mov	r1, r3
 3930 00ce 0220     		movs	r0, #2
 3931 00d0 FFF7FEFF 		bl	TFT_send
 532:source\bsw\tft/tft.c ****           TFT_write_stream(lo);
 3932              		.loc 1 532 0 discriminator 3
 3933 00d4 BB7B     		ldrb	r3, [r7, #14]	@ zero_extendqisi2
 3934 00d6 1946     		mov	r1, r3
 3935 00d8 0220     		movs	r0, #2
 3936 00da FFF7FEFF 		bl	TFT_send
 530:source\bsw\tft/tft.c ****         for(x=w; x>0; x--) {
 3937              		.loc 1 530 0 discriminator 3
 3938 00de B7F90630 		ldrsh	r3, [r7, #6]
 3939 00e2 9BB2     		uxth	r3, r3
 3940 00e4 013B     		subs	r3, r3, #1
 3941 00e6 9BB2     		uxth	r3, r3
 3942 00e8 FB80     		strh	r3, [r7, #6]	@ movhi
 3943              	.L133:
 530:source\bsw\tft/tft.c ****         for(x=w; x>0; x--) {
 3944              		.loc 1 530 0 is_stmt 0 discriminator 1
 3945 00ea B7F90630 		ldrsh	r3, [r7, #6]
 3946 00ee 002B     		cmp	r3, #0
 3947 00f0 EBDC     		bgt	.L134
 529:source\bsw\tft/tft.c ****         for(x=w; x>0; x--) {
 3948              		.loc 1 529 0 is_stmt 1 discriminator 2
 3949 00f2 B7F90430 		ldrsh	r3, [r7, #4]
 3950 00f6 9BB2     		uxth	r3, r3
 3951 00f8 013B     		subs	r3, r3, #1
 3952 00fa 9BB2     		uxth	r3, r3
 3953 00fc BB80     		strh	r3, [r7, #4]	@ movhi
 3954              	.L132:
 529:source\bsw\tft/tft.c ****         for(x=w; x>0; x--) {
 3955              		.loc 1 529 0 is_stmt 0 discriminator 1
 3956 00fe B7F90430 		ldrsh	r3, [r7, #4]
 3957 0102 002B     		cmp	r3, #0
 3958 0104 DEDC     		bgt	.L135
 3959 0106 00E0     		b	.L126
 3960              	.L136:
 519:source\bsw\tft/tft.c ****     
 3961              		.loc 1 519 0 is_stmt 1
 3962 0108 00BF     		nop
 3963              	.L126:
 533:source\bsw\tft/tft.c ****         }
 534:source\bsw\tft/tft.c ****     }
 535:source\bsw\tft/tft.c **** }
 3964              		.loc 1 535 0
 3965 010a 1437     		adds	r7, r7, #20
 3966              		.cfi_def_cfa_offset 12
 3967 010c BD46     		mov	sp, r7
 3968              		.cfi_def_cfa_register 13
 3969              		@ sp needed
 3970 010e 90BD     		pop	{r4, r7, pc}
 3971              	.L138:
 3972              		.align	2
 3973              	.L137:
 3974 0110 06000000 		.word	_width
 3975 0114 08000000 		.word	_height
 3976              		.cfi_endproc
ARM GAS  C:\Users\schmi\AppData\Local\Temp\ccA9az4I.s 			page 82


 3977              	.LFE139:
 3978              		.size	TFT_fillRect, .-TFT_fillRect
 3979              		.section	.text.TFT_drawPixel,"ax",%progbits
 3980              		.align	2
 3981              		.global	TFT_drawPixel
 3982              		.thumb
 3983              		.thumb_func
 3984              		.type	TFT_drawPixel, %function
 3985              	TFT_drawPixel:
 3986              	.LFB140:
 536:source\bsw\tft/tft.c **** 
 537:source\bsw\tft/tft.c **** void TFT_drawPixel(int16_t x, int16_t y, TFT_color_t color) {
 3987              		.loc 1 537 0
 3988              		.cfi_startproc
 3989              		@ args = 0, pretend = 0, frame = 8
 3990              		@ frame_needed = 1, uses_anonymous_args = 0
 3991 0000 80B5     		push	{r7, lr}
 3992              		.cfi_def_cfa_offset 8
 3993              		.cfi_offset 7, -8
 3994              		.cfi_offset 14, -4
 3995 0002 82B0     		sub	sp, sp, #8
 3996              		.cfi_def_cfa_offset 16
 3997 0004 00AF     		add	r7, sp, #0
 3998              		.cfi_def_cfa_register 7
 3999 0006 0346     		mov	r3, r0
 4000 0008 FB80     		strh	r3, [r7, #6]	@ movhi
 4001 000a 0B46     		mov	r3, r1	@ movhi
 4002 000c BB80     		strh	r3, [r7, #4]	@ movhi
 4003 000e 1346     		mov	r3, r2	@ movhi
 4004 0010 7B80     		strh	r3, [r7, #2]	@ movhi
 538:source\bsw\tft/tft.c **** 
 539:source\bsw\tft/tft.c ****     if((x < 0) ||(x >= _width) || (y < 0) || (y >= _height)) return;
 4005              		.loc 1 539 0
 4006 0012 B7F90630 		ldrsh	r3, [r7, #6]
 4007 0016 002B     		cmp	r3, #0
 4008 0018 30DB     		blt	.L143
 4009              		.loc 1 539 0 is_stmt 0 discriminator 1
 4010 001a 1A4B     		ldr	r3, .L144
 4011 001c B3F90030 		ldrsh	r3, [r3]
 4012 0020 B7F90620 		ldrsh	r2, [r7, #6]
 4013 0024 9A42     		cmp	r2, r3
 4014 0026 29DA     		bge	.L143
 4015              		.loc 1 539 0 discriminator 2
 4016 0028 B7F90430 		ldrsh	r3, [r7, #4]
 4017 002c 002B     		cmp	r3, #0
 4018 002e 25DB     		blt	.L143
 4019              		.loc 1 539 0 discriminator 3
 4020 0030 B7F90430 		ldrsh	r3, [r7, #4]
 4021 0034 144A     		ldr	r2, .L144+4
 4022 0036 1288     		ldrh	r2, [r2]
 4023 0038 9342     		cmp	r3, r2
 4024 003a 1FDA     		bge	.L143
 540:source\bsw\tft/tft.c ****     setAddrWindow(x,y,x+1,y+1);
 4025              		.loc 1 540 0 is_stmt 1
 4026 003c FB88     		ldrh	r3, [r7, #6]	@ movhi
 4027 003e D8B2     		uxtb	r0, r3
 4028 0040 BB88     		ldrh	r3, [r7, #4]	@ movhi
ARM GAS  C:\Users\schmi\AppData\Local\Temp\ccA9az4I.s 			page 83


 4029 0042 D9B2     		uxtb	r1, r3
 4030 0044 FB88     		ldrh	r3, [r7, #6]	@ movhi
 4031 0046 DBB2     		uxtb	r3, r3
 4032 0048 0133     		adds	r3, r3, #1
 4033 004a DAB2     		uxtb	r2, r3
 4034 004c BB88     		ldrh	r3, [r7, #4]	@ movhi
 4035 004e DBB2     		uxtb	r3, r3
 4036 0050 0133     		adds	r3, r3, #1
 4037 0052 DBB2     		uxtb	r3, r3
 4038 0054 FFF7FEFF 		bl	setAddrWindow
 541:source\bsw\tft/tft.c **** 
 542:source\bsw\tft/tft.c ****     TFT_DC_HIGH;
 4039              		.loc 1 542 0
 4040 0058 0120     		movs	r0, #1
 4041 005a FFF7FEFF 		bl	TFT_DC_Write
 543:source\bsw\tft/tft.c ****     TFT_write_stream(color >> 8);
 4042              		.loc 1 543 0
 4043 005e 7B88     		ldrh	r3, [r7, #2]
 4044 0060 1B0A     		lsrs	r3, r3, #8
 4045 0062 9BB2     		uxth	r3, r3
 4046 0064 DBB2     		uxtb	r3, r3
 4047 0066 1946     		mov	r1, r3
 4048 0068 0220     		movs	r0, #2
 4049 006a FFF7FEFF 		bl	TFT_send
 544:source\bsw\tft/tft.c ****     TFT_write_stream(color);
 4050              		.loc 1 544 0
 4051 006e 7B88     		ldrh	r3, [r7, #2]	@ movhi
 4052 0070 DBB2     		uxtb	r3, r3
 4053 0072 1946     		mov	r1, r3
 4054 0074 0220     		movs	r0, #2
 4055 0076 FFF7FEFF 		bl	TFT_send
 4056 007a 00E0     		b	.L139
 4057              	.L143:
 539:source\bsw\tft/tft.c ****     setAddrWindow(x,y,x+1,y+1);
 4058              		.loc 1 539 0
 4059 007c 00BF     		nop
 4060              	.L139:
 545:source\bsw\tft/tft.c **** 
 546:source\bsw\tft/tft.c **** }
 4061              		.loc 1 546 0
 4062 007e 0837     		adds	r7, r7, #8
 4063              		.cfi_def_cfa_offset 8
 4064 0080 BD46     		mov	sp, r7
 4065              		.cfi_def_cfa_register 13
 4066              		@ sp needed
 4067 0082 80BD     		pop	{r7, pc}
 4068              	.L145:
 4069              		.align	2
 4070              	.L144:
 4071 0084 06000000 		.word	_width
 4072 0088 08000000 		.word	_height
 4073              		.cfi_endproc
 4074              	.LFE140:
 4075              		.size	TFT_drawPixel, .-TFT_drawPixel
 4076              		.section	.text.TFT_fastVLine,"ax",%progbits
 4077              		.align	2
 4078              		.global	TFT_fastVLine
ARM GAS  C:\Users\schmi\AppData\Local\Temp\ccA9az4I.s 			page 84


 4079              		.thumb
 4080              		.thumb_func
 4081              		.type	TFT_fastVLine, %function
 4082              	TFT_fastVLine:
 4083              	.LFB141:
 547:source\bsw\tft/tft.c **** 
 548:source\bsw\tft/tft.c **** void TFT_fastVLine(int16_t x, int16_t y, int16_t h, TFT_color_t color) {
 4084              		.loc 1 548 0
 4085              		.cfi_startproc
 4086              		@ args = 0, pretend = 0, frame = 16
 4087              		@ frame_needed = 1, uses_anonymous_args = 0
 4088 0000 90B5     		push	{r4, r7, lr}
 4089              		.cfi_def_cfa_offset 12
 4090              		.cfi_offset 4, -12
 4091              		.cfi_offset 7, -8
 4092              		.cfi_offset 14, -4
 4093 0002 85B0     		sub	sp, sp, #20
 4094              		.cfi_def_cfa_offset 32
 4095 0004 00AF     		add	r7, sp, #0
 4096              		.cfi_def_cfa_register 7
 4097 0006 0446     		mov	r4, r0
 4098 0008 0846     		mov	r0, r1
 4099 000a 1146     		mov	r1, r2
 4100 000c 1A46     		mov	r2, r3
 4101 000e 2346     		mov	r3, r4	@ movhi
 4102 0010 FB80     		strh	r3, [r7, #6]	@ movhi
 4103 0012 0346     		mov	r3, r0	@ movhi
 4104 0014 BB80     		strh	r3, [r7, #4]	@ movhi
 4105 0016 0B46     		mov	r3, r1	@ movhi
 4106 0018 7B80     		strh	r3, [r7, #2]	@ movhi
 4107 001a 1346     		mov	r3, r2	@ movhi
 4108 001c 3B80     		strh	r3, [r7]	@ movhi
 549:source\bsw\tft/tft.c **** 
 550:source\bsw\tft/tft.c ****   // Rudimentary clipping
 551:source\bsw\tft/tft.c ****   if((x >= _width) || (y >= _height)) return;
 4109              		.loc 1 551 0
 4110 001e 274B     		ldr	r3, .L154
 4111 0020 B3F90030 		ldrsh	r3, [r3]
 4112 0024 B7F90620 		ldrsh	r2, [r7, #6]
 4113 0028 9A42     		cmp	r2, r3
 4114 002a 43DA     		bge	.L153
 4115              		.loc 1 551 0 is_stmt 0 discriminator 1
 4116 002c B7F90430 		ldrsh	r3, [r7, #4]
 4117 0030 234A     		ldr	r2, .L154+4
 4118 0032 1288     		ldrh	r2, [r2]
 4119 0034 9342     		cmp	r3, r2
 4120 0036 3DDA     		bge	.L153
 552:source\bsw\tft/tft.c ****   if((y+h-1) >= _height) h = _height-y;
 4121              		.loc 1 552 0 is_stmt 1
 4122 0038 B7F90420 		ldrsh	r2, [r7, #4]
 4123 003c B7F90230 		ldrsh	r3, [r7, #2]
 4124 0040 1344     		add	r3, r3, r2
 4125 0042 013B     		subs	r3, r3, #1
 4126 0044 1E4A     		ldr	r2, .L154+4
 4127 0046 1288     		ldrh	r2, [r2]
 4128 0048 9342     		cmp	r3, r2
 4129 004a 05DB     		blt	.L150
ARM GAS  C:\Users\schmi\AppData\Local\Temp\ccA9az4I.s 			page 85


 4130              		.loc 1 552 0 is_stmt 0 discriminator 1
 4131 004c 1C4B     		ldr	r3, .L154+4
 4132 004e 1A88     		ldrh	r2, [r3]
 4133 0050 BB88     		ldrh	r3, [r7, #4]
 4134 0052 D31A     		subs	r3, r2, r3
 4135 0054 9BB2     		uxth	r3, r3
 4136 0056 7B80     		strh	r3, [r7, #2]	@ movhi
 4137              	.L150:
 553:source\bsw\tft/tft.c ****   setAddrWindow(x, y, x, y+h-1);
 4138              		.loc 1 553 0 is_stmt 1
 4139 0058 FB88     		ldrh	r3, [r7, #6]	@ movhi
 4140 005a D8B2     		uxtb	r0, r3
 4141 005c BB88     		ldrh	r3, [r7, #4]	@ movhi
 4142 005e D9B2     		uxtb	r1, r3
 4143 0060 FB88     		ldrh	r3, [r7, #6]	@ movhi
 4144 0062 DCB2     		uxtb	r4, r3
 4145 0064 BB88     		ldrh	r3, [r7, #4]	@ movhi
 4146 0066 DAB2     		uxtb	r2, r3
 4147 0068 7B88     		ldrh	r3, [r7, #2]	@ movhi
 4148 006a DBB2     		uxtb	r3, r3
 4149 006c 1344     		add	r3, r3, r2
 4150 006e DBB2     		uxtb	r3, r3
 4151 0070 013B     		subs	r3, r3, #1
 4152 0072 DBB2     		uxtb	r3, r3
 4153 0074 2246     		mov	r2, r4
 4154 0076 FFF7FEFF 		bl	setAddrWindow
 554:source\bsw\tft/tft.c **** 
 555:source\bsw\tft/tft.c ****   uint8_t hi = color >> 8, lo = color;
 4155              		.loc 1 555 0
 4156 007a 3B88     		ldrh	r3, [r7]
 4157 007c 1B0A     		lsrs	r3, r3, #8
 4158 007e 9BB2     		uxth	r3, r3
 4159 0080 FB73     		strb	r3, [r7, #15]
 4160 0082 3B88     		ldrh	r3, [r7]	@ movhi
 4161 0084 BB73     		strb	r3, [r7, #14]
 556:source\bsw\tft/tft.c ****     
 557:source\bsw\tft/tft.c ****   TFT_DC_HIGH;
 4162              		.loc 1 557 0
 4163 0086 0120     		movs	r0, #1
 4164 0088 FFF7FEFF 		bl	TFT_DC_Write
 558:source\bsw\tft/tft.c ****   while (h--) {
 4165              		.loc 1 558 0
 4166 008c 09E0     		b	.L151
 4167              	.L152:
 559:source\bsw\tft/tft.c ****     TFT_write_stream(hi);
 4168              		.loc 1 559 0
 4169 008e FB7B     		ldrb	r3, [r7, #15]	@ zero_extendqisi2
 4170 0090 1946     		mov	r1, r3
 4171 0092 0220     		movs	r0, #2
 4172 0094 FFF7FEFF 		bl	TFT_send
 560:source\bsw\tft/tft.c ****     TFT_write_stream(lo);
 4173              		.loc 1 560 0
 4174 0098 BB7B     		ldrb	r3, [r7, #14]	@ zero_extendqisi2
 4175 009a 1946     		mov	r1, r3
 4176 009c 0220     		movs	r0, #2
 4177 009e FFF7FEFF 		bl	TFT_send
 4178              	.L151:
ARM GAS  C:\Users\schmi\AppData\Local\Temp\ccA9az4I.s 			page 86


 558:source\bsw\tft/tft.c ****   while (h--) {
 4179              		.loc 1 558 0
 4180 00a2 B7F90230 		ldrsh	r3, [r7, #2]
 4181 00a6 9AB2     		uxth	r2, r3
 4182 00a8 013A     		subs	r2, r2, #1
 4183 00aa 92B2     		uxth	r2, r2
 4184 00ac 7A80     		strh	r2, [r7, #2]	@ movhi
 4185 00ae 002B     		cmp	r3, #0
 4186 00b0 EDD1     		bne	.L152
 4187 00b2 00E0     		b	.L146
 4188              	.L153:
 551:source\bsw\tft/tft.c ****   if((y+h-1) >= _height) h = _height-y;
 4189              		.loc 1 551 0
 4190 00b4 00BF     		nop
 4191              	.L146:
 561:source\bsw\tft/tft.c ****   }
 562:source\bsw\tft/tft.c **** }
 4192              		.loc 1 562 0
 4193 00b6 1437     		adds	r7, r7, #20
 4194              		.cfi_def_cfa_offset 12
 4195 00b8 BD46     		mov	sp, r7
 4196              		.cfi_def_cfa_register 13
 4197              		@ sp needed
 4198 00ba 90BD     		pop	{r4, r7, pc}
 4199              	.L155:
 4200              		.align	2
 4201              	.L154:
 4202 00bc 06000000 		.word	_width
 4203 00c0 08000000 		.word	_height
 4204              		.cfi_endproc
 4205              	.LFE141:
 4206              		.size	TFT_fastVLine, .-TFT_fastVLine
 4207              		.section	.text.TFT_fastHLine,"ax",%progbits
 4208              		.align	2
 4209              		.global	TFT_fastHLine
 4210              		.thumb
 4211              		.thumb_func
 4212              		.type	TFT_fastHLine, %function
 4213              	TFT_fastHLine:
 4214              	.LFB142:
 563:source\bsw\tft/tft.c **** 
 564:source\bsw\tft/tft.c **** void TFT_fastHLine(int16_t x, int16_t y, int16_t w,  TFT_color_t color) {
 4215              		.loc 1 564 0
 4216              		.cfi_startproc
 4217              		@ args = 0, pretend = 0, frame = 16
 4218              		@ frame_needed = 1, uses_anonymous_args = 0
 4219 0000 90B5     		push	{r4, r7, lr}
 4220              		.cfi_def_cfa_offset 12
 4221              		.cfi_offset 4, -12
 4222              		.cfi_offset 7, -8
 4223              		.cfi_offset 14, -4
 4224 0002 85B0     		sub	sp, sp, #20
 4225              		.cfi_def_cfa_offset 32
 4226 0004 00AF     		add	r7, sp, #0
 4227              		.cfi_def_cfa_register 7
 4228 0006 0446     		mov	r4, r0
 4229 0008 0846     		mov	r0, r1
ARM GAS  C:\Users\schmi\AppData\Local\Temp\ccA9az4I.s 			page 87


 4230 000a 1146     		mov	r1, r2
 4231 000c 1A46     		mov	r2, r3
 4232 000e 2346     		mov	r3, r4	@ movhi
 4233 0010 FB80     		strh	r3, [r7, #6]	@ movhi
 4234 0012 0346     		mov	r3, r0	@ movhi
 4235 0014 BB80     		strh	r3, [r7, #4]	@ movhi
 4236 0016 0B46     		mov	r3, r1	@ movhi
 4237 0018 7B80     		strh	r3, [r7, #2]	@ movhi
 4238 001a 1346     		mov	r3, r2	@ movhi
 4239 001c 3B80     		strh	r3, [r7]	@ movhi
 565:source\bsw\tft/tft.c **** 
 566:source\bsw\tft/tft.c ****     // Rudimentary clipping
 567:source\bsw\tft/tft.c ****     if((x >= _width) || (y >= _height)) return;
 4240              		.loc 1 567 0
 4241 001e 284B     		ldr	r3, .L164
 4242 0020 B3F90030 		ldrsh	r3, [r3]
 4243 0024 B7F90620 		ldrsh	r2, [r7, #6]
 4244 0028 9A42     		cmp	r2, r3
 4245 002a 45DA     		bge	.L163
 4246              		.loc 1 567 0 is_stmt 0 discriminator 1
 4247 002c B7F90430 		ldrsh	r3, [r7, #4]
 4248 0030 244A     		ldr	r2, .L164+4
 4249 0032 1288     		ldrh	r2, [r2]
 4250 0034 9342     		cmp	r3, r2
 4251 0036 3FDA     		bge	.L163
 568:source\bsw\tft/tft.c ****     if((x+w-1) >= _width)  w = _width-x;
 4252              		.loc 1 568 0 is_stmt 1
 4253 0038 B7F90620 		ldrsh	r2, [r7, #6]
 4254 003c B7F90230 		ldrsh	r3, [r7, #2]
 4255 0040 1344     		add	r3, r3, r2
 4256 0042 013B     		subs	r3, r3, #1
 4257 0044 1E4A     		ldr	r2, .L164
 4258 0046 B2F90020 		ldrsh	r2, [r2]
 4259 004a 9342     		cmp	r3, r2
 4260 004c 07DB     		blt	.L160
 4261              		.loc 1 568 0 is_stmt 0 discriminator 1
 4262 004e 1C4B     		ldr	r3, .L164
 4263 0050 B3F90030 		ldrsh	r3, [r3]
 4264 0054 9AB2     		uxth	r2, r3
 4265 0056 FB88     		ldrh	r3, [r7, #6]
 4266 0058 D31A     		subs	r3, r2, r3
 4267 005a 9BB2     		uxth	r3, r3
 4268 005c 7B80     		strh	r3, [r7, #2]	@ movhi
 4269              	.L160:
 569:source\bsw\tft/tft.c ****     setAddrWindow(x, y, x+w-1, y);
 4270              		.loc 1 569 0 is_stmt 1
 4271 005e FB88     		ldrh	r3, [r7, #6]	@ movhi
 4272 0060 D8B2     		uxtb	r0, r3
 4273 0062 BB88     		ldrh	r3, [r7, #4]	@ movhi
 4274 0064 D9B2     		uxtb	r1, r3
 4275 0066 FB88     		ldrh	r3, [r7, #6]	@ movhi
 4276 0068 DAB2     		uxtb	r2, r3
 4277 006a 7B88     		ldrh	r3, [r7, #2]	@ movhi
 4278 006c DBB2     		uxtb	r3, r3
 4279 006e 1344     		add	r3, r3, r2
 4280 0070 DBB2     		uxtb	r3, r3
 4281 0072 013B     		subs	r3, r3, #1
ARM GAS  C:\Users\schmi\AppData\Local\Temp\ccA9az4I.s 			page 88


 4282 0074 DAB2     		uxtb	r2, r3
 4283 0076 BB88     		ldrh	r3, [r7, #4]	@ movhi
 4284 0078 DBB2     		uxtb	r3, r3
 4285 007a FFF7FEFF 		bl	setAddrWindow
 570:source\bsw\tft/tft.c **** 
 571:source\bsw\tft/tft.c ****     uint8_t hi = color >> 8, lo = color;
 4286              		.loc 1 571 0
 4287 007e 3B88     		ldrh	r3, [r7]
 4288 0080 1B0A     		lsrs	r3, r3, #8
 4289 0082 9BB2     		uxth	r3, r3
 4290 0084 FB73     		strb	r3, [r7, #15]
 4291 0086 3B88     		ldrh	r3, [r7]	@ movhi
 4292 0088 BB73     		strb	r3, [r7, #14]
 572:source\bsw\tft/tft.c **** 
 573:source\bsw\tft/tft.c ****     TFT_DC_HIGH;
 4293              		.loc 1 573 0
 4294 008a 0120     		movs	r0, #1
 4295 008c FFF7FEFF 		bl	TFT_DC_Write
 574:source\bsw\tft/tft.c **** 
 575:source\bsw\tft/tft.c ****     while (w--) {
 4296              		.loc 1 575 0
 4297 0090 09E0     		b	.L161
 4298              	.L162:
 576:source\bsw\tft/tft.c ****         TFT_write_stream(hi);
 4299              		.loc 1 576 0
 4300 0092 FB7B     		ldrb	r3, [r7, #15]	@ zero_extendqisi2
 4301 0094 1946     		mov	r1, r3
 4302 0096 0220     		movs	r0, #2
 4303 0098 FFF7FEFF 		bl	TFT_send
 577:source\bsw\tft/tft.c ****         TFT_write_stream(lo);
 4304              		.loc 1 577 0
 4305 009c BB7B     		ldrb	r3, [r7, #14]	@ zero_extendqisi2
 4306 009e 1946     		mov	r1, r3
 4307 00a0 0220     		movs	r0, #2
 4308 00a2 FFF7FEFF 		bl	TFT_send
 4309              	.L161:
 575:source\bsw\tft/tft.c ****         TFT_write_stream(hi);
 4310              		.loc 1 575 0
 4311 00a6 B7F90230 		ldrsh	r3, [r7, #2]
 4312 00aa 9AB2     		uxth	r2, r3
 4313 00ac 013A     		subs	r2, r2, #1
 4314 00ae 92B2     		uxth	r2, r2
 4315 00b0 7A80     		strh	r2, [r7, #2]	@ movhi
 4316 00b2 002B     		cmp	r3, #0
 4317 00b4 EDD1     		bne	.L162
 4318 00b6 00E0     		b	.L156
 4319              	.L163:
 567:source\bsw\tft/tft.c ****     if((x+w-1) >= _width)  w = _width-x;
 4320              		.loc 1 567 0
 4321 00b8 00BF     		nop
 4322              	.L156:
 578:source\bsw\tft/tft.c ****     }
 579:source\bsw\tft/tft.c **** }
 4323              		.loc 1 579 0
 4324 00ba 1437     		adds	r7, r7, #20
 4325              		.cfi_def_cfa_offset 12
 4326 00bc BD46     		mov	sp, r7
ARM GAS  C:\Users\schmi\AppData\Local\Temp\ccA9az4I.s 			page 89


 4327              		.cfi_def_cfa_register 13
 4328              		@ sp needed
 4329 00be 90BD     		pop	{r4, r7, pc}
 4330              	.L165:
 4331              		.align	2
 4332              	.L164:
 4333 00c0 06000000 		.word	_width
 4334 00c4 08000000 		.word	_height
 4335              		.cfi_endproc
 4336              	.LFE142:
 4337              		.size	TFT_fastHLine, .-TFT_fastHLine
 4338              		.section	.text.TFT_writeLine,"ax",%progbits
 4339              		.align	2
 4340              		.global	TFT_writeLine
 4341              		.thumb
 4342              		.thumb_func
 4343              		.type	TFT_writeLine, %function
 4344              	TFT_writeLine:
 4345              	.LFB143:
 580:source\bsw\tft/tft.c **** 
 581:source\bsw\tft/tft.c **** // Bresenham's algorithm - thx wikpedia
 582:source\bsw\tft/tft.c **** void TFT_writeLine(int16_t x0, int16_t y0, int16_t x1, int16_t y1,  TFT_color_t color) {
 4346              		.loc 1 582 0
 4347              		.cfi_startproc
 4348              		@ args = 4, pretend = 0, frame = 32
 4349              		@ frame_needed = 1, uses_anonymous_args = 0
 4350 0000 90B5     		push	{r4, r7, lr}
 4351              		.cfi_def_cfa_offset 12
 4352              		.cfi_offset 4, -12
 4353              		.cfi_offset 7, -8
 4354              		.cfi_offset 14, -4
 4355 0002 89B0     		sub	sp, sp, #36
 4356              		.cfi_def_cfa_offset 48
 4357 0004 00AF     		add	r7, sp, #0
 4358              		.cfi_def_cfa_register 7
 4359 0006 0446     		mov	r4, r0
 4360 0008 0846     		mov	r0, r1
 4361 000a 1146     		mov	r1, r2
 4362 000c 1A46     		mov	r2, r3
 4363 000e 2346     		mov	r3, r4	@ movhi
 4364 0010 FB80     		strh	r3, [r7, #6]	@ movhi
 4365 0012 0346     		mov	r3, r0	@ movhi
 4366 0014 BB80     		strh	r3, [r7, #4]	@ movhi
 4367 0016 0B46     		mov	r3, r1	@ movhi
 4368 0018 7B80     		strh	r3, [r7, #2]	@ movhi
 4369 001a 1346     		mov	r3, r2	@ movhi
 4370 001c 3B80     		strh	r3, [r7]	@ movhi
 583:source\bsw\tft/tft.c ****     int16_t steep = _abs(y1 - y0) > _abs(x1 - x0);
 4371              		.loc 1 583 0
 4372 001e B7F90020 		ldrsh	r2, [r7]
 4373 0022 B7F90430 		ldrsh	r3, [r7, #4]
 4374 0026 D31A     		subs	r3, r2, r3
 4375 0028 83EAE372 		eor	r2, r3, r3, asr #31
 4376 002c A2EBE372 		sub	r2, r2, r3, asr #31
 4377 0030 B7F90210 		ldrsh	r1, [r7, #2]
 4378 0034 B7F90630 		ldrsh	r3, [r7, #6]
 4379 0038 CB1A     		subs	r3, r1, r3
ARM GAS  C:\Users\schmi\AppData\Local\Temp\ccA9az4I.s 			page 90


 4380 003a 002B     		cmp	r3, #0
 4381 003c B8BF     		it	lt
 4382 003e 5B42     		rsblt	r3, r3, #0
 4383 0040 9A42     		cmp	r2, r3
 4384 0042 CCBF     		ite	gt
 4385 0044 0123     		movgt	r3, #1
 4386 0046 0023     		movle	r3, #0
 4387 0048 DBB2     		uxtb	r3, r3
 4388 004a 7B83     		strh	r3, [r7, #26]	@ movhi
 584:source\bsw\tft/tft.c ****     if (steep) {
 4389              		.loc 1 584 0
 4390 004c B7F91A30 		ldrsh	r3, [r7, #26]
 4391 0050 002B     		cmp	r3, #0
 4392 0052 0BD0     		beq	.L167
 4393              	.LBB9:
 585:source\bsw\tft/tft.c ****         _swap_int16_t(x0, y0);
 4394              		.loc 1 585 0
 4395 0054 FB88     		ldrh	r3, [r7, #6]	@ movhi
 4396 0056 3B83     		strh	r3, [r7, #24]	@ movhi
 4397 0058 BB88     		ldrh	r3, [r7, #4]	@ movhi
 4398 005a FB80     		strh	r3, [r7, #6]	@ movhi
 4399 005c 3B8B     		ldrh	r3, [r7, #24]	@ movhi
 4400 005e BB80     		strh	r3, [r7, #4]	@ movhi
 4401              	.LBE9:
 4402              	.LBB10:
 586:source\bsw\tft/tft.c ****         _swap_int16_t(x1, y1);
 4403              		.loc 1 586 0
 4404 0060 7B88     		ldrh	r3, [r7, #2]	@ movhi
 4405 0062 FB82     		strh	r3, [r7, #22]	@ movhi
 4406 0064 3B88     		ldrh	r3, [r7]	@ movhi
 4407 0066 7B80     		strh	r3, [r7, #2]	@ movhi
 4408 0068 FB8A     		ldrh	r3, [r7, #22]	@ movhi
 4409 006a 3B80     		strh	r3, [r7]	@ movhi
 4410              	.L167:
 4411              	.LBE10:
 587:source\bsw\tft/tft.c ****     }
 588:source\bsw\tft/tft.c **** 
 589:source\bsw\tft/tft.c ****     if (x0 > x1) {
 4412              		.loc 1 589 0
 4413 006c B7F90620 		ldrsh	r2, [r7, #6]
 4414 0070 B7F90230 		ldrsh	r3, [r7, #2]
 4415 0074 9A42     		cmp	r2, r3
 4416 0076 0BDD     		ble	.L168
 4417              	.LBB11:
 590:source\bsw\tft/tft.c ****         _swap_int16_t(x0, x1);
 4418              		.loc 1 590 0
 4419 0078 FB88     		ldrh	r3, [r7, #6]	@ movhi
 4420 007a BB82     		strh	r3, [r7, #20]	@ movhi
 4421 007c 7B88     		ldrh	r3, [r7, #2]	@ movhi
 4422 007e FB80     		strh	r3, [r7, #6]	@ movhi
 4423 0080 BB8A     		ldrh	r3, [r7, #20]	@ movhi
 4424 0082 7B80     		strh	r3, [r7, #2]	@ movhi
 4425              	.LBE11:
 4426              	.LBB12:
 591:source\bsw\tft/tft.c ****         _swap_int16_t(y0, y1);
 4427              		.loc 1 591 0
 4428 0084 BB88     		ldrh	r3, [r7, #4]	@ movhi
ARM GAS  C:\Users\schmi\AppData\Local\Temp\ccA9az4I.s 			page 91


 4429 0086 7B82     		strh	r3, [r7, #18]	@ movhi
 4430 0088 3B88     		ldrh	r3, [r7]	@ movhi
 4431 008a BB80     		strh	r3, [r7, #4]	@ movhi
 4432 008c 7B8A     		ldrh	r3, [r7, #18]	@ movhi
 4433 008e 3B80     		strh	r3, [r7]	@ movhi
 4434              	.L168:
 4435              	.LBE12:
 592:source\bsw\tft/tft.c ****     }
 593:source\bsw\tft/tft.c **** 
 594:source\bsw\tft/tft.c ****     int16_t dx, dy;
 595:source\bsw\tft/tft.c ****     dx = x1 - x0;
 4436              		.loc 1 595 0
 4437 0090 7A88     		ldrh	r2, [r7, #2]
 4438 0092 FB88     		ldrh	r3, [r7, #6]
 4439 0094 D31A     		subs	r3, r2, r3
 4440 0096 9BB2     		uxth	r3, r3
 4441 0098 3B82     		strh	r3, [r7, #16]	@ movhi
 596:source\bsw\tft/tft.c ****     dy = _abs(y1 - y0);
 4442              		.loc 1 596 0
 4443 009a B7F90020 		ldrsh	r2, [r7]
 4444 009e B7F90430 		ldrsh	r3, [r7, #4]
 4445 00a2 D31A     		subs	r3, r2, r3
 4446 00a4 002B     		cmp	r3, #0
 4447 00a6 B8BF     		it	lt
 4448 00a8 5B42     		rsblt	r3, r3, #0
 4449 00aa FB81     		strh	r3, [r7, #14]	@ movhi
 597:source\bsw\tft/tft.c **** 
 598:source\bsw\tft/tft.c ****     int16_t err = dx / 2;
 4450              		.loc 1 598 0
 4451 00ac B7F91030 		ldrsh	r3, [r7, #16]
 4452 00b0 DA0F     		lsrs	r2, r3, #31
 4453 00b2 1344     		add	r3, r3, r2
 4454 00b4 5B10     		asrs	r3, r3, #1
 4455 00b6 FB83     		strh	r3, [r7, #30]	@ movhi
 599:source\bsw\tft/tft.c ****     int16_t ystep;
 600:source\bsw\tft/tft.c **** 
 601:source\bsw\tft/tft.c ****     if (y0 < y1) {
 4456              		.loc 1 601 0
 4457 00b8 B7F90420 		ldrsh	r2, [r7, #4]
 4458 00bc B7F90030 		ldrsh	r3, [r7]
 4459 00c0 9A42     		cmp	r2, r3
 4460 00c2 02DA     		bge	.L169
 602:source\bsw\tft/tft.c ****         ystep = 1;
 4461              		.loc 1 602 0
 4462 00c4 0123     		movs	r3, #1
 4463 00c6 BB83     		strh	r3, [r7, #28]	@ movhi
 4464 00c8 31E0     		b	.L171
 4465              	.L169:
 603:source\bsw\tft/tft.c ****     } else {
 604:source\bsw\tft/tft.c ****         ystep = -1;
 4466              		.loc 1 604 0
 4467 00ca 4FF6FF73 		movw	r3, #65535
 4468 00ce BB83     		strh	r3, [r7, #28]	@ movhi
 605:source\bsw\tft/tft.c ****     }
 606:source\bsw\tft/tft.c **** 
 607:source\bsw\tft/tft.c ****     for (; x0<=x1; x0++) {
 4469              		.loc 1 607 0
ARM GAS  C:\Users\schmi\AppData\Local\Temp\ccA9az4I.s 			page 92


 4470 00d0 2DE0     		b	.L171
 4471              	.L175:
 608:source\bsw\tft/tft.c ****         if (steep) {
 4472              		.loc 1 608 0
 4473 00d2 B7F91A30 		ldrsh	r3, [r7, #26]
 4474 00d6 002B     		cmp	r3, #0
 4475 00d8 08D0     		beq	.L172
 609:source\bsw\tft/tft.c ****             TFT_drawPixel(y0, x0, color);
 4476              		.loc 1 609 0
 4477 00da 3A8E     		ldrh	r2, [r7, #48]
 4478 00dc B7F90610 		ldrsh	r1, [r7, #6]
 4479 00e0 B7F90430 		ldrsh	r3, [r7, #4]
 4480 00e4 1846     		mov	r0, r3
 4481 00e6 FFF7FEFF 		bl	TFT_drawPixel
 4482 00ea 07E0     		b	.L173
 4483              	.L172:
 610:source\bsw\tft/tft.c ****         } else {
 611:source\bsw\tft/tft.c ****             TFT_drawPixel(x0, y0, color);
 4484              		.loc 1 611 0
 4485 00ec 3A8E     		ldrh	r2, [r7, #48]
 4486 00ee B7F90410 		ldrsh	r1, [r7, #4]
 4487 00f2 B7F90630 		ldrsh	r3, [r7, #6]
 4488 00f6 1846     		mov	r0, r3
 4489 00f8 FFF7FEFF 		bl	TFT_drawPixel
 4490              	.L173:
 612:source\bsw\tft/tft.c ****         }
 613:source\bsw\tft/tft.c ****         err -= dy;
 4491              		.loc 1 613 0
 4492 00fc FA8B     		ldrh	r2, [r7, #30]
 4493 00fe FB89     		ldrh	r3, [r7, #14]
 4494 0100 D31A     		subs	r3, r2, r3
 4495 0102 9BB2     		uxth	r3, r3
 4496 0104 FB83     		strh	r3, [r7, #30]	@ movhi
 614:source\bsw\tft/tft.c ****         if (err < 0) {
 4497              		.loc 1 614 0
 4498 0106 B7F91E30 		ldrsh	r3, [r7, #30]
 4499 010a 002B     		cmp	r3, #0
 4500 010c 09DA     		bge	.L174
 615:source\bsw\tft/tft.c ****             y0 += ystep;
 4501              		.loc 1 615 0
 4502 010e BA88     		ldrh	r2, [r7, #4]
 4503 0110 BB8B     		ldrh	r3, [r7, #28]
 4504 0112 1344     		add	r3, r3, r2
 4505 0114 9BB2     		uxth	r3, r3
 4506 0116 BB80     		strh	r3, [r7, #4]	@ movhi
 616:source\bsw\tft/tft.c ****             err += dx;
 4507              		.loc 1 616 0
 4508 0118 FA8B     		ldrh	r2, [r7, #30]
 4509 011a 3B8A     		ldrh	r3, [r7, #16]
 4510 011c 1344     		add	r3, r3, r2
 4511 011e 9BB2     		uxth	r3, r3
 4512 0120 FB83     		strh	r3, [r7, #30]	@ movhi
 4513              	.L174:
 607:source\bsw\tft/tft.c ****         if (steep) {
 4514              		.loc 1 607 0
 4515 0122 B7F90630 		ldrsh	r3, [r7, #6]
 4516 0126 9BB2     		uxth	r3, r3
ARM GAS  C:\Users\schmi\AppData\Local\Temp\ccA9az4I.s 			page 93


 4517 0128 0133     		adds	r3, r3, #1
 4518 012a 9BB2     		uxth	r3, r3
 4519 012c FB80     		strh	r3, [r7, #6]	@ movhi
 4520              	.L171:
 607:source\bsw\tft/tft.c ****         if (steep) {
 4521              		.loc 1 607 0 is_stmt 0 discriminator 1
 4522 012e B7F90620 		ldrsh	r2, [r7, #6]
 4523 0132 B7F90230 		ldrsh	r3, [r7, #2]
 4524 0136 9A42     		cmp	r2, r3
 4525 0138 CBDD     		ble	.L175
 617:source\bsw\tft/tft.c ****         }
 618:source\bsw\tft/tft.c ****     }
 619:source\bsw\tft/tft.c **** }
 4526              		.loc 1 619 0 is_stmt 1
 4527 013a 00BF     		nop
 4528 013c 2437     		adds	r7, r7, #36
 4529              		.cfi_def_cfa_offset 12
 4530 013e BD46     		mov	sp, r7
 4531              		.cfi_def_cfa_register 13
 4532              		@ sp needed
 4533 0140 90BD     		pop	{r4, r7, pc}
 4534              		.cfi_endproc
 4535              	.LFE143:
 4536              		.size	TFT_writeLine, .-TFT_writeLine
 4537 0142 00BF     		.section	.text.TFT_invertDisplay,"ax",%progbits
 4538              		.align	2
 4539              		.global	TFT_invertDisplay
 4540              		.thumb
 4541              		.thumb_func
 4542              		.type	TFT_invertDisplay, %function
 4543              	TFT_invertDisplay:
 4544              	.LFB144:
 620:source\bsw\tft/tft.c **** 
 621:source\bsw\tft/tft.c **** void TFT_invertDisplay(boolean_t i) {
 4545              		.loc 1 621 0
 4546              		.cfi_startproc
 4547              		@ args = 0, pretend = 0, frame = 8
 4548              		@ frame_needed = 1, uses_anonymous_args = 0
 4549 0000 80B5     		push	{r7, lr}
 4550              		.cfi_def_cfa_offset 8
 4551              		.cfi_offset 7, -8
 4552              		.cfi_offset 14, -4
 4553 0002 82B0     		sub	sp, sp, #8
 4554              		.cfi_def_cfa_offset 16
 4555 0004 00AF     		add	r7, sp, #0
 4556              		.cfi_def_cfa_register 7
 4557 0006 0346     		mov	r3, r0
 4558 0008 FB71     		strb	r3, [r7, #7]
 622:source\bsw\tft/tft.c ****   TFT_write_cmd(i ? ST7735_INVON : ST7735_INVOFF);
 4559              		.loc 1 622 0
 4560 000a FB79     		ldrb	r3, [r7, #7]	@ zero_extendqisi2
 4561 000c 002B     		cmp	r3, #0
 4562 000e 01D0     		beq	.L177
 4563              		.loc 1 622 0 is_stmt 0 discriminator 1
 4564 0010 2123     		movs	r3, #33
 4565 0012 00E0     		b	.L178
 4566              	.L177:
ARM GAS  C:\Users\schmi\AppData\Local\Temp\ccA9az4I.s 			page 94


 4567              		.loc 1 622 0 discriminator 2
 4568 0014 2023     		movs	r3, #32
 4569              	.L178:
 4570              		.loc 1 622 0 discriminator 4
 4571 0016 1946     		mov	r1, r3
 4572 0018 0020     		movs	r0, #0
 4573 001a FFF7FEFF 		bl	TFT_send
 623:source\bsw\tft/tft.c **** }
 4574              		.loc 1 623 0 is_stmt 1 discriminator 4
 4575 001e 00BF     		nop
 4576 0020 0837     		adds	r7, r7, #8
 4577              		.cfi_def_cfa_offset 8
 4578 0022 BD46     		mov	sp, r7
 4579              		.cfi_def_cfa_register 13
 4580              		@ sp needed
 4581 0024 80BD     		pop	{r7, pc}
 4582              		.cfi_endproc
 4583              	.LFE144:
 4584              		.size	TFT_invertDisplay, .-TFT_invertDisplay
 4585 0026 00BF     		.section	.text.TFT_drawCircle,"ax",%progbits
 4586              		.align	2
 4587              		.global	TFT_drawCircle
 4588              		.thumb
 4589              		.thumb_func
 4590              		.type	TFT_drawCircle, %function
 4591              	TFT_drawCircle:
 4592              	.LFB145:
 624:source\bsw\tft/tft.c **** 
 625:source\bsw\tft/tft.c **** // Draw a circle outline
 626:source\bsw\tft/tft.c **** void TFT_drawCircle(int16_t x0, int16_t y0, int16_t r, TFT_color_t color) {
 4593              		.loc 1 626 0
 4594              		.cfi_startproc
 4595              		@ args = 0, pretend = 0, frame = 24
 4596              		@ frame_needed = 1, uses_anonymous_args = 0
 4597 0000 90B5     		push	{r4, r7, lr}
 4598              		.cfi_def_cfa_offset 12
 4599              		.cfi_offset 4, -12
 4600              		.cfi_offset 7, -8
 4601              		.cfi_offset 14, -4
 4602 0002 87B0     		sub	sp, sp, #28
 4603              		.cfi_def_cfa_offset 40
 4604 0004 00AF     		add	r7, sp, #0
 4605              		.cfi_def_cfa_register 7
 4606 0006 0446     		mov	r4, r0
 4607 0008 0846     		mov	r0, r1
 4608 000a 1146     		mov	r1, r2
 4609 000c 1A46     		mov	r2, r3
 4610 000e 2346     		mov	r3, r4	@ movhi
 4611 0010 FB80     		strh	r3, [r7, #6]	@ movhi
 4612 0012 0346     		mov	r3, r0	@ movhi
 4613 0014 BB80     		strh	r3, [r7, #4]	@ movhi
 4614 0016 0B46     		mov	r3, r1	@ movhi
 4615 0018 7B80     		strh	r3, [r7, #2]	@ movhi
 4616 001a 1346     		mov	r3, r2	@ movhi
 4617 001c 3B80     		strh	r3, [r7]	@ movhi
 627:source\bsw\tft/tft.c ****     int16_t f = 1 - r;
 4618              		.loc 1 627 0
ARM GAS  C:\Users\schmi\AppData\Local\Temp\ccA9az4I.s 			page 95


 4619 001e 7B88     		ldrh	r3, [r7, #2]
 4620 0020 C3F10103 		rsb	r3, r3, #1
 4621 0024 9BB2     		uxth	r3, r3
 4622 0026 FB82     		strh	r3, [r7, #22]	@ movhi
 628:source\bsw\tft/tft.c ****     int16_t ddF_x = 1;
 4623              		.loc 1 628 0
 4624 0028 0123     		movs	r3, #1
 4625 002a BB82     		strh	r3, [r7, #20]	@ movhi
 629:source\bsw\tft/tft.c ****     int16_t ddF_y = -2 * r;
 4626              		.loc 1 629 0
 4627 002c 7B88     		ldrh	r3, [r7, #2]
 4628 002e 1A46     		mov	r2, r3	@ movhi
 4629 0030 D203     		lsls	r2, r2, #15
 4630 0032 D31A     		subs	r3, r2, r3
 4631 0034 5B00     		lsls	r3, r3, #1
 4632 0036 9BB2     		uxth	r3, r3
 4633 0038 7B82     		strh	r3, [r7, #18]	@ movhi
 630:source\bsw\tft/tft.c ****     int16_t x = 0;
 4634              		.loc 1 630 0
 4635 003a 0023     		movs	r3, #0
 4636 003c 3B82     		strh	r3, [r7, #16]	@ movhi
 631:source\bsw\tft/tft.c ****     int16_t y = r;
 4637              		.loc 1 631 0
 4638 003e 7B88     		ldrh	r3, [r7, #2]	@ movhi
 4639 0040 FB81     		strh	r3, [r7, #14]	@ movhi
 632:source\bsw\tft/tft.c **** 
 633:source\bsw\tft/tft.c ****     TFT_drawPixel(x0  , y0+r, color);
 4640              		.loc 1 633 0
 4641 0042 BA88     		ldrh	r2, [r7, #4]
 4642 0044 7B88     		ldrh	r3, [r7, #2]
 4643 0046 1344     		add	r3, r3, r2
 4644 0048 9BB2     		uxth	r3, r3
 4645 004a 19B2     		sxth	r1, r3
 4646 004c 3A88     		ldrh	r2, [r7]
 4647 004e B7F90630 		ldrsh	r3, [r7, #6]
 4648 0052 1846     		mov	r0, r3
 4649 0054 FFF7FEFF 		bl	TFT_drawPixel
 634:source\bsw\tft/tft.c ****     TFT_drawPixel(x0  , y0-r, color);
 4650              		.loc 1 634 0
 4651 0058 BA88     		ldrh	r2, [r7, #4]
 4652 005a 7B88     		ldrh	r3, [r7, #2]
 4653 005c D31A     		subs	r3, r2, r3
 4654 005e 9BB2     		uxth	r3, r3
 4655 0060 19B2     		sxth	r1, r3
 4656 0062 3A88     		ldrh	r2, [r7]
 4657 0064 B7F90630 		ldrsh	r3, [r7, #6]
 4658 0068 1846     		mov	r0, r3
 4659 006a FFF7FEFF 		bl	TFT_drawPixel
 635:source\bsw\tft/tft.c ****     TFT_drawPixel(x0+r, y0  , color);
 4660              		.loc 1 635 0
 4661 006e FA88     		ldrh	r2, [r7, #6]
 4662 0070 7B88     		ldrh	r3, [r7, #2]
 4663 0072 1344     		add	r3, r3, r2
 4664 0074 9BB2     		uxth	r3, r3
 4665 0076 1BB2     		sxth	r3, r3
 4666 0078 3A88     		ldrh	r2, [r7]
 4667 007a B7F90410 		ldrsh	r1, [r7, #4]
ARM GAS  C:\Users\schmi\AppData\Local\Temp\ccA9az4I.s 			page 96


 4668 007e 1846     		mov	r0, r3
 4669 0080 FFF7FEFF 		bl	TFT_drawPixel
 636:source\bsw\tft/tft.c ****     TFT_drawPixel(x0-r, y0  , color);
 4670              		.loc 1 636 0
 4671 0084 FA88     		ldrh	r2, [r7, #6]
 4672 0086 7B88     		ldrh	r3, [r7, #2]
 4673 0088 D31A     		subs	r3, r2, r3
 4674 008a 9BB2     		uxth	r3, r3
 4675 008c 1BB2     		sxth	r3, r3
 4676 008e 3A88     		ldrh	r2, [r7]
 4677 0090 B7F90410 		ldrsh	r1, [r7, #4]
 4678 0094 1846     		mov	r0, r3
 4679 0096 FFF7FEFF 		bl	TFT_drawPixel
 637:source\bsw\tft/tft.c **** 
 638:source\bsw\tft/tft.c ****     while (x<y) {
 4680              		.loc 1 638 0
 4681 009a 91E0     		b	.L180
 4682              	.L182:
 639:source\bsw\tft/tft.c ****         if (f >= 0) {
 4683              		.loc 1 639 0
 4684 009c B7F91630 		ldrsh	r3, [r7, #22]
 4685 00a0 002B     		cmp	r3, #0
 4686 00a2 0EDB     		blt	.L181
 640:source\bsw\tft/tft.c ****             y--;
 4687              		.loc 1 640 0
 4688 00a4 B7F90E30 		ldrsh	r3, [r7, #14]
 4689 00a8 9BB2     		uxth	r3, r3
 4690 00aa 013B     		subs	r3, r3, #1
 4691 00ac 9BB2     		uxth	r3, r3
 4692 00ae FB81     		strh	r3, [r7, #14]	@ movhi
 641:source\bsw\tft/tft.c ****             ddF_y += 2;
 4693              		.loc 1 641 0
 4694 00b0 7B8A     		ldrh	r3, [r7, #18]
 4695 00b2 0233     		adds	r3, r3, #2
 4696 00b4 9BB2     		uxth	r3, r3
 4697 00b6 7B82     		strh	r3, [r7, #18]	@ movhi
 642:source\bsw\tft/tft.c ****             f += ddF_y;
 4698              		.loc 1 642 0
 4699 00b8 FA8A     		ldrh	r2, [r7, #22]
 4700 00ba 7B8A     		ldrh	r3, [r7, #18]
 4701 00bc 1344     		add	r3, r3, r2
 4702 00be 9BB2     		uxth	r3, r3
 4703 00c0 FB82     		strh	r3, [r7, #22]	@ movhi
 4704              	.L181:
 643:source\bsw\tft/tft.c ****         }
 644:source\bsw\tft/tft.c ****         x++;
 4705              		.loc 1 644 0
 4706 00c2 B7F91030 		ldrsh	r3, [r7, #16]
 4707 00c6 9BB2     		uxth	r3, r3
 4708 00c8 0133     		adds	r3, r3, #1
 4709 00ca 9BB2     		uxth	r3, r3
 4710 00cc 3B82     		strh	r3, [r7, #16]	@ movhi
 645:source\bsw\tft/tft.c ****         ddF_x += 2;
 4711              		.loc 1 645 0
 4712 00ce BB8A     		ldrh	r3, [r7, #20]
 4713 00d0 0233     		adds	r3, r3, #2
 4714 00d2 9BB2     		uxth	r3, r3
ARM GAS  C:\Users\schmi\AppData\Local\Temp\ccA9az4I.s 			page 97


 4715 00d4 BB82     		strh	r3, [r7, #20]	@ movhi
 646:source\bsw\tft/tft.c ****         f += ddF_x;
 4716              		.loc 1 646 0
 4717 00d6 FA8A     		ldrh	r2, [r7, #22]
 4718 00d8 BB8A     		ldrh	r3, [r7, #20]
 4719 00da 1344     		add	r3, r3, r2
 4720 00dc 9BB2     		uxth	r3, r3
 4721 00de FB82     		strh	r3, [r7, #22]	@ movhi
 647:source\bsw\tft/tft.c **** 
 648:source\bsw\tft/tft.c ****         TFT_drawPixel(x0 + x, y0 + y, color);
 4722              		.loc 1 648 0
 4723 00e0 FA88     		ldrh	r2, [r7, #6]
 4724 00e2 3B8A     		ldrh	r3, [r7, #16]
 4725 00e4 1344     		add	r3, r3, r2
 4726 00e6 9BB2     		uxth	r3, r3
 4727 00e8 18B2     		sxth	r0, r3
 4728 00ea BA88     		ldrh	r2, [r7, #4]
 4729 00ec FB89     		ldrh	r3, [r7, #14]
 4730 00ee 1344     		add	r3, r3, r2
 4731 00f0 9BB2     		uxth	r3, r3
 4732 00f2 1BB2     		sxth	r3, r3
 4733 00f4 3A88     		ldrh	r2, [r7]
 4734 00f6 1946     		mov	r1, r3
 4735 00f8 FFF7FEFF 		bl	TFT_drawPixel
 649:source\bsw\tft/tft.c ****         TFT_drawPixel(x0 - x, y0 + y, color);
 4736              		.loc 1 649 0
 4737 00fc FA88     		ldrh	r2, [r7, #6]
 4738 00fe 3B8A     		ldrh	r3, [r7, #16]
 4739 0100 D31A     		subs	r3, r2, r3
 4740 0102 9BB2     		uxth	r3, r3
 4741 0104 18B2     		sxth	r0, r3
 4742 0106 BA88     		ldrh	r2, [r7, #4]
 4743 0108 FB89     		ldrh	r3, [r7, #14]
 4744 010a 1344     		add	r3, r3, r2
 4745 010c 9BB2     		uxth	r3, r3
 4746 010e 1BB2     		sxth	r3, r3
 4747 0110 3A88     		ldrh	r2, [r7]
 4748 0112 1946     		mov	r1, r3
 4749 0114 FFF7FEFF 		bl	TFT_drawPixel
 650:source\bsw\tft/tft.c ****         TFT_drawPixel(x0 + x, y0 - y, color);
 4750              		.loc 1 650 0
 4751 0118 FA88     		ldrh	r2, [r7, #6]
 4752 011a 3B8A     		ldrh	r3, [r7, #16]
 4753 011c 1344     		add	r3, r3, r2
 4754 011e 9BB2     		uxth	r3, r3
 4755 0120 18B2     		sxth	r0, r3
 4756 0122 BA88     		ldrh	r2, [r7, #4]
 4757 0124 FB89     		ldrh	r3, [r7, #14]
 4758 0126 D31A     		subs	r3, r2, r3
 4759 0128 9BB2     		uxth	r3, r3
 4760 012a 1BB2     		sxth	r3, r3
 4761 012c 3A88     		ldrh	r2, [r7]
 4762 012e 1946     		mov	r1, r3
 4763 0130 FFF7FEFF 		bl	TFT_drawPixel
 651:source\bsw\tft/tft.c ****         TFT_drawPixel(x0 - x, y0 - y, color);
 4764              		.loc 1 651 0
 4765 0134 FA88     		ldrh	r2, [r7, #6]
ARM GAS  C:\Users\schmi\AppData\Local\Temp\ccA9az4I.s 			page 98


 4766 0136 3B8A     		ldrh	r3, [r7, #16]
 4767 0138 D31A     		subs	r3, r2, r3
 4768 013a 9BB2     		uxth	r3, r3
 4769 013c 18B2     		sxth	r0, r3
 4770 013e BA88     		ldrh	r2, [r7, #4]
 4771 0140 FB89     		ldrh	r3, [r7, #14]
 4772 0142 D31A     		subs	r3, r2, r3
 4773 0144 9BB2     		uxth	r3, r3
 4774 0146 1BB2     		sxth	r3, r3
 4775 0148 3A88     		ldrh	r2, [r7]
 4776 014a 1946     		mov	r1, r3
 4777 014c FFF7FEFF 		bl	TFT_drawPixel
 652:source\bsw\tft/tft.c ****         TFT_drawPixel(x0 + y, y0 + x, color);
 4778              		.loc 1 652 0
 4779 0150 FA88     		ldrh	r2, [r7, #6]
 4780 0152 FB89     		ldrh	r3, [r7, #14]
 4781 0154 1344     		add	r3, r3, r2
 4782 0156 9BB2     		uxth	r3, r3
 4783 0158 18B2     		sxth	r0, r3
 4784 015a BA88     		ldrh	r2, [r7, #4]
 4785 015c 3B8A     		ldrh	r3, [r7, #16]
 4786 015e 1344     		add	r3, r3, r2
 4787 0160 9BB2     		uxth	r3, r3
 4788 0162 1BB2     		sxth	r3, r3
 4789 0164 3A88     		ldrh	r2, [r7]
 4790 0166 1946     		mov	r1, r3
 4791 0168 FFF7FEFF 		bl	TFT_drawPixel
 653:source\bsw\tft/tft.c ****         TFT_drawPixel(x0 - y, y0 + x, color);
 4792              		.loc 1 653 0
 4793 016c FA88     		ldrh	r2, [r7, #6]
 4794 016e FB89     		ldrh	r3, [r7, #14]
 4795 0170 D31A     		subs	r3, r2, r3
 4796 0172 9BB2     		uxth	r3, r3
 4797 0174 18B2     		sxth	r0, r3
 4798 0176 BA88     		ldrh	r2, [r7, #4]
 4799 0178 3B8A     		ldrh	r3, [r7, #16]
 4800 017a 1344     		add	r3, r3, r2
 4801 017c 9BB2     		uxth	r3, r3
 4802 017e 1BB2     		sxth	r3, r3
 4803 0180 3A88     		ldrh	r2, [r7]
 4804 0182 1946     		mov	r1, r3
 4805 0184 FFF7FEFF 		bl	TFT_drawPixel
 654:source\bsw\tft/tft.c ****         TFT_drawPixel(x0 + y, y0 - x, color);
 4806              		.loc 1 654 0
 4807 0188 FA88     		ldrh	r2, [r7, #6]
 4808 018a FB89     		ldrh	r3, [r7, #14]
 4809 018c 1344     		add	r3, r3, r2
 4810 018e 9BB2     		uxth	r3, r3
 4811 0190 18B2     		sxth	r0, r3
 4812 0192 BA88     		ldrh	r2, [r7, #4]
 4813 0194 3B8A     		ldrh	r3, [r7, #16]
 4814 0196 D31A     		subs	r3, r2, r3
 4815 0198 9BB2     		uxth	r3, r3
 4816 019a 1BB2     		sxth	r3, r3
 4817 019c 3A88     		ldrh	r2, [r7]
 4818 019e 1946     		mov	r1, r3
 4819 01a0 FFF7FEFF 		bl	TFT_drawPixel
ARM GAS  C:\Users\schmi\AppData\Local\Temp\ccA9az4I.s 			page 99


 655:source\bsw\tft/tft.c ****         TFT_drawPixel(x0 - y, y0 - x, color);
 4820              		.loc 1 655 0
 4821 01a4 FA88     		ldrh	r2, [r7, #6]
 4822 01a6 FB89     		ldrh	r3, [r7, #14]
 4823 01a8 D31A     		subs	r3, r2, r3
 4824 01aa 9BB2     		uxth	r3, r3
 4825 01ac 18B2     		sxth	r0, r3
 4826 01ae BA88     		ldrh	r2, [r7, #4]
 4827 01b0 3B8A     		ldrh	r3, [r7, #16]
 4828 01b2 D31A     		subs	r3, r2, r3
 4829 01b4 9BB2     		uxth	r3, r3
 4830 01b6 1BB2     		sxth	r3, r3
 4831 01b8 3A88     		ldrh	r2, [r7]
 4832 01ba 1946     		mov	r1, r3
 4833 01bc FFF7FEFF 		bl	TFT_drawPixel
 4834              	.L180:
 638:source\bsw\tft/tft.c ****         if (f >= 0) {
 4835              		.loc 1 638 0
 4836 01c0 B7F91020 		ldrsh	r2, [r7, #16]
 4837 01c4 B7F90E30 		ldrsh	r3, [r7, #14]
 4838 01c8 9A42     		cmp	r2, r3
 4839 01ca FFF667AF 		blt	.L182
 656:source\bsw\tft/tft.c ****     }
 657:source\bsw\tft/tft.c **** 
 658:source\bsw\tft/tft.c **** }
 4840              		.loc 1 658 0
 4841 01ce 00BF     		nop
 4842 01d0 1C37     		adds	r7, r7, #28
 4843              		.cfi_def_cfa_offset 12
 4844 01d2 BD46     		mov	sp, r7
 4845              		.cfi_def_cfa_register 13
 4846              		@ sp needed
 4847 01d4 90BD     		pop	{r4, r7, pc}
 4848              		.cfi_endproc
 4849              	.LFE145:
 4850              		.size	TFT_drawCircle, .-TFT_drawCircle
 4851 01d6 00BF     		.section	.text.TFT_drawCircleHelper,"ax",%progbits
 4852              		.align	2
 4853              		.thumb
 4854              		.thumb_func
 4855              		.type	TFT_drawCircleHelper, %function
 4856              	TFT_drawCircleHelper:
 4857              	.LFB146:
 659:source\bsw\tft/tft.c **** 
 660:source\bsw\tft/tft.c **** void TFT_drawCircleHelper( int16_t x0, int16_t y0, int16_t r, uint8_t cornername, TFT_color_t color
 4858              		.loc 1 660 0
 4859              		.cfi_startproc
 4860              		@ args = 4, pretend = 0, frame = 24
 4861              		@ frame_needed = 1, uses_anonymous_args = 0
 4862 0000 90B5     		push	{r4, r7, lr}
 4863              		.cfi_def_cfa_offset 12
 4864              		.cfi_offset 4, -12
 4865              		.cfi_offset 7, -8
 4866              		.cfi_offset 14, -4
 4867 0002 87B0     		sub	sp, sp, #28
 4868              		.cfi_def_cfa_offset 40
 4869 0004 00AF     		add	r7, sp, #0
ARM GAS  C:\Users\schmi\AppData\Local\Temp\ccA9az4I.s 			page 100


 4870              		.cfi_def_cfa_register 7
 4871 0006 0446     		mov	r4, r0
 4872 0008 0846     		mov	r0, r1
 4873 000a 1146     		mov	r1, r2
 4874 000c 1A46     		mov	r2, r3
 4875 000e 2346     		mov	r3, r4	@ movhi
 4876 0010 FB80     		strh	r3, [r7, #6]	@ movhi
 4877 0012 0346     		mov	r3, r0	@ movhi
 4878 0014 BB80     		strh	r3, [r7, #4]	@ movhi
 4879 0016 0B46     		mov	r3, r1	@ movhi
 4880 0018 7B80     		strh	r3, [r7, #2]	@ movhi
 4881 001a 1346     		mov	r3, r2
 4882 001c 7B70     		strb	r3, [r7, #1]
 661:source\bsw\tft/tft.c ****     int16_t f     = 1 - r;
 4883              		.loc 1 661 0
 4884 001e 7B88     		ldrh	r3, [r7, #2]
 4885 0020 C3F10103 		rsb	r3, r3, #1
 4886 0024 9BB2     		uxth	r3, r3
 4887 0026 FB82     		strh	r3, [r7, #22]	@ movhi
 662:source\bsw\tft/tft.c ****     int16_t ddF_x = 1;
 4888              		.loc 1 662 0
 4889 0028 0123     		movs	r3, #1
 4890 002a BB82     		strh	r3, [r7, #20]	@ movhi
 663:source\bsw\tft/tft.c ****     int16_t ddF_y = -2 * r;
 4891              		.loc 1 663 0
 4892 002c 7B88     		ldrh	r3, [r7, #2]
 4893 002e 1A46     		mov	r2, r3	@ movhi
 4894 0030 D203     		lsls	r2, r2, #15
 4895 0032 D31A     		subs	r3, r2, r3
 4896 0034 5B00     		lsls	r3, r3, #1
 4897 0036 9BB2     		uxth	r3, r3
 4898 0038 7B82     		strh	r3, [r7, #18]	@ movhi
 664:source\bsw\tft/tft.c ****     int16_t x     = 0;
 4899              		.loc 1 664 0
 4900 003a 0023     		movs	r3, #0
 4901 003c 3B82     		strh	r3, [r7, #16]	@ movhi
 665:source\bsw\tft/tft.c ****     int16_t y     = r;
 4902              		.loc 1 665 0
 4903 003e 7B88     		ldrh	r3, [r7, #2]	@ movhi
 4904 0040 FB81     		strh	r3, [r7, #14]	@ movhi
 666:source\bsw\tft/tft.c **** 
 667:source\bsw\tft/tft.c ****     while (x<y) {
 4905              		.loc 1 667 0
 4906 0042 A5E0     		b	.L184
 4907              	.L189:
 668:source\bsw\tft/tft.c ****         if (f >= 0) {
 4908              		.loc 1 668 0
 4909 0044 B7F91630 		ldrsh	r3, [r7, #22]
 4910 0048 002B     		cmp	r3, #0
 4911 004a 0EDB     		blt	.L185
 669:source\bsw\tft/tft.c ****             y--;
 4912              		.loc 1 669 0
 4913 004c B7F90E30 		ldrsh	r3, [r7, #14]
 4914 0050 9BB2     		uxth	r3, r3
 4915 0052 013B     		subs	r3, r3, #1
 4916 0054 9BB2     		uxth	r3, r3
 4917 0056 FB81     		strh	r3, [r7, #14]	@ movhi
ARM GAS  C:\Users\schmi\AppData\Local\Temp\ccA9az4I.s 			page 101


 670:source\bsw\tft/tft.c ****             ddF_y += 2;
 4918              		.loc 1 670 0
 4919 0058 7B8A     		ldrh	r3, [r7, #18]
 4920 005a 0233     		adds	r3, r3, #2
 4921 005c 9BB2     		uxth	r3, r3
 4922 005e 7B82     		strh	r3, [r7, #18]	@ movhi
 671:source\bsw\tft/tft.c ****             f     += ddF_y;
 4923              		.loc 1 671 0
 4924 0060 FA8A     		ldrh	r2, [r7, #22]
 4925 0062 7B8A     		ldrh	r3, [r7, #18]
 4926 0064 1344     		add	r3, r3, r2
 4927 0066 9BB2     		uxth	r3, r3
 4928 0068 FB82     		strh	r3, [r7, #22]	@ movhi
 4929              	.L185:
 672:source\bsw\tft/tft.c ****         }
 673:source\bsw\tft/tft.c ****         x++;
 4930              		.loc 1 673 0
 4931 006a B7F91030 		ldrsh	r3, [r7, #16]
 4932 006e 9BB2     		uxth	r3, r3
 4933 0070 0133     		adds	r3, r3, #1
 4934 0072 9BB2     		uxth	r3, r3
 4935 0074 3B82     		strh	r3, [r7, #16]	@ movhi
 674:source\bsw\tft/tft.c ****         ddF_x += 2;
 4936              		.loc 1 674 0
 4937 0076 BB8A     		ldrh	r3, [r7, #20]
 4938 0078 0233     		adds	r3, r3, #2
 4939 007a 9BB2     		uxth	r3, r3
 4940 007c BB82     		strh	r3, [r7, #20]	@ movhi
 675:source\bsw\tft/tft.c ****         f     += ddF_x;
 4941              		.loc 1 675 0
 4942 007e FA8A     		ldrh	r2, [r7, #22]
 4943 0080 BB8A     		ldrh	r3, [r7, #20]
 4944 0082 1344     		add	r3, r3, r2
 4945 0084 9BB2     		uxth	r3, r3
 4946 0086 FB82     		strh	r3, [r7, #22]	@ movhi
 676:source\bsw\tft/tft.c ****         if (cornername & 0x4) {
 4947              		.loc 1 676 0
 4948 0088 7B78     		ldrb	r3, [r7, #1]	@ zero_extendqisi2
 4949 008a 03F00403 		and	r3, r3, #4
 4950 008e 002B     		cmp	r3, #0
 4951 0090 1BD0     		beq	.L186
 677:source\bsw\tft/tft.c ****             TFT_drawPixel(x0 + x, y0 + y, color);
 4952              		.loc 1 677 0
 4953 0092 FA88     		ldrh	r2, [r7, #6]
 4954 0094 3B8A     		ldrh	r3, [r7, #16]
 4955 0096 1344     		add	r3, r3, r2
 4956 0098 9BB2     		uxth	r3, r3
 4957 009a 18B2     		sxth	r0, r3
 4958 009c BA88     		ldrh	r2, [r7, #4]
 4959 009e FB89     		ldrh	r3, [r7, #14]
 4960 00a0 1344     		add	r3, r3, r2
 4961 00a2 9BB2     		uxth	r3, r3
 4962 00a4 1BB2     		sxth	r3, r3
 4963 00a6 3A8D     		ldrh	r2, [r7, #40]
 4964 00a8 1946     		mov	r1, r3
 4965 00aa FFF7FEFF 		bl	TFT_drawPixel
 678:source\bsw\tft/tft.c ****             TFT_drawPixel(x0 + y, y0 + x, color);
ARM GAS  C:\Users\schmi\AppData\Local\Temp\ccA9az4I.s 			page 102


 4966              		.loc 1 678 0
 4967 00ae FA88     		ldrh	r2, [r7, #6]
 4968 00b0 FB89     		ldrh	r3, [r7, #14]
 4969 00b2 1344     		add	r3, r3, r2
 4970 00b4 9BB2     		uxth	r3, r3
 4971 00b6 18B2     		sxth	r0, r3
 4972 00b8 BA88     		ldrh	r2, [r7, #4]
 4973 00ba 3B8A     		ldrh	r3, [r7, #16]
 4974 00bc 1344     		add	r3, r3, r2
 4975 00be 9BB2     		uxth	r3, r3
 4976 00c0 1BB2     		sxth	r3, r3
 4977 00c2 3A8D     		ldrh	r2, [r7, #40]
 4978 00c4 1946     		mov	r1, r3
 4979 00c6 FFF7FEFF 		bl	TFT_drawPixel
 4980              	.L186:
 679:source\bsw\tft/tft.c ****         }
 680:source\bsw\tft/tft.c ****         if (cornername & 0x2) {
 4981              		.loc 1 680 0
 4982 00ca 7B78     		ldrb	r3, [r7, #1]	@ zero_extendqisi2
 4983 00cc 03F00203 		and	r3, r3, #2
 4984 00d0 002B     		cmp	r3, #0
 4985 00d2 1BD0     		beq	.L187
 681:source\bsw\tft/tft.c ****             TFT_drawPixel(x0 + x, y0 - y, color);
 4986              		.loc 1 681 0
 4987 00d4 FA88     		ldrh	r2, [r7, #6]
 4988 00d6 3B8A     		ldrh	r3, [r7, #16]
 4989 00d8 1344     		add	r3, r3, r2
 4990 00da 9BB2     		uxth	r3, r3
 4991 00dc 18B2     		sxth	r0, r3
 4992 00de BA88     		ldrh	r2, [r7, #4]
 4993 00e0 FB89     		ldrh	r3, [r7, #14]
 4994 00e2 D31A     		subs	r3, r2, r3
 4995 00e4 9BB2     		uxth	r3, r3
 4996 00e6 1BB2     		sxth	r3, r3
 4997 00e8 3A8D     		ldrh	r2, [r7, #40]
 4998 00ea 1946     		mov	r1, r3
 4999 00ec FFF7FEFF 		bl	TFT_drawPixel
 682:source\bsw\tft/tft.c ****             TFT_drawPixel(x0 + y, y0 - x, color);
 5000              		.loc 1 682 0
 5001 00f0 FA88     		ldrh	r2, [r7, #6]
 5002 00f2 FB89     		ldrh	r3, [r7, #14]
 5003 00f4 1344     		add	r3, r3, r2
 5004 00f6 9BB2     		uxth	r3, r3
 5005 00f8 18B2     		sxth	r0, r3
 5006 00fa BA88     		ldrh	r2, [r7, #4]
 5007 00fc 3B8A     		ldrh	r3, [r7, #16]
 5008 00fe D31A     		subs	r3, r2, r3
 5009 0100 9BB2     		uxth	r3, r3
 5010 0102 1BB2     		sxth	r3, r3
 5011 0104 3A8D     		ldrh	r2, [r7, #40]
 5012 0106 1946     		mov	r1, r3
 5013 0108 FFF7FEFF 		bl	TFT_drawPixel
 5014              	.L187:
 683:source\bsw\tft/tft.c ****         }
 684:source\bsw\tft/tft.c ****         if (cornername & 0x8) {
 5015              		.loc 1 684 0
 5016 010c 7B78     		ldrb	r3, [r7, #1]	@ zero_extendqisi2
ARM GAS  C:\Users\schmi\AppData\Local\Temp\ccA9az4I.s 			page 103


 5017 010e 03F00803 		and	r3, r3, #8
 5018 0112 002B     		cmp	r3, #0
 5019 0114 1BD0     		beq	.L188
 685:source\bsw\tft/tft.c ****             TFT_drawPixel(x0 - y, y0 + x, color);
 5020              		.loc 1 685 0
 5021 0116 FA88     		ldrh	r2, [r7, #6]
 5022 0118 FB89     		ldrh	r3, [r7, #14]
 5023 011a D31A     		subs	r3, r2, r3
 5024 011c 9BB2     		uxth	r3, r3
 5025 011e 18B2     		sxth	r0, r3
 5026 0120 BA88     		ldrh	r2, [r7, #4]
 5027 0122 3B8A     		ldrh	r3, [r7, #16]
 5028 0124 1344     		add	r3, r3, r2
 5029 0126 9BB2     		uxth	r3, r3
 5030 0128 1BB2     		sxth	r3, r3
 5031 012a 3A8D     		ldrh	r2, [r7, #40]
 5032 012c 1946     		mov	r1, r3
 5033 012e FFF7FEFF 		bl	TFT_drawPixel
 686:source\bsw\tft/tft.c ****             TFT_drawPixel(x0 - x, y0 + y, color);
 5034              		.loc 1 686 0
 5035 0132 FA88     		ldrh	r2, [r7, #6]
 5036 0134 3B8A     		ldrh	r3, [r7, #16]
 5037 0136 D31A     		subs	r3, r2, r3
 5038 0138 9BB2     		uxth	r3, r3
 5039 013a 18B2     		sxth	r0, r3
 5040 013c BA88     		ldrh	r2, [r7, #4]
 5041 013e FB89     		ldrh	r3, [r7, #14]
 5042 0140 1344     		add	r3, r3, r2
 5043 0142 9BB2     		uxth	r3, r3
 5044 0144 1BB2     		sxth	r3, r3
 5045 0146 3A8D     		ldrh	r2, [r7, #40]
 5046 0148 1946     		mov	r1, r3
 5047 014a FFF7FEFF 		bl	TFT_drawPixel
 5048              	.L188:
 687:source\bsw\tft/tft.c ****         }
 688:source\bsw\tft/tft.c ****         if (cornername & 0x1) {
 5049              		.loc 1 688 0
 5050 014e 7B78     		ldrb	r3, [r7, #1]	@ zero_extendqisi2
 5051 0150 03F00103 		and	r3, r3, #1
 5052 0154 002B     		cmp	r3, #0
 5053 0156 1BD0     		beq	.L184
 689:source\bsw\tft/tft.c ****             TFT_drawPixel(x0 - y, y0 - x, color);
 5054              		.loc 1 689 0
 5055 0158 FA88     		ldrh	r2, [r7, #6]
 5056 015a FB89     		ldrh	r3, [r7, #14]
 5057 015c D31A     		subs	r3, r2, r3
 5058 015e 9BB2     		uxth	r3, r3
 5059 0160 18B2     		sxth	r0, r3
 5060 0162 BA88     		ldrh	r2, [r7, #4]
 5061 0164 3B8A     		ldrh	r3, [r7, #16]
 5062 0166 D31A     		subs	r3, r2, r3
 5063 0168 9BB2     		uxth	r3, r3
 5064 016a 1BB2     		sxth	r3, r3
 5065 016c 3A8D     		ldrh	r2, [r7, #40]
 5066 016e 1946     		mov	r1, r3
 5067 0170 FFF7FEFF 		bl	TFT_drawPixel
 690:source\bsw\tft/tft.c ****             TFT_drawPixel(x0 - x, y0 - y, color);
ARM GAS  C:\Users\schmi\AppData\Local\Temp\ccA9az4I.s 			page 104


 5068              		.loc 1 690 0
 5069 0174 FA88     		ldrh	r2, [r7, #6]
 5070 0176 3B8A     		ldrh	r3, [r7, #16]
 5071 0178 D31A     		subs	r3, r2, r3
 5072 017a 9BB2     		uxth	r3, r3
 5073 017c 18B2     		sxth	r0, r3
 5074 017e BA88     		ldrh	r2, [r7, #4]
 5075 0180 FB89     		ldrh	r3, [r7, #14]
 5076 0182 D31A     		subs	r3, r2, r3
 5077 0184 9BB2     		uxth	r3, r3
 5078 0186 1BB2     		sxth	r3, r3
 5079 0188 3A8D     		ldrh	r2, [r7, #40]
 5080 018a 1946     		mov	r1, r3
 5081 018c FFF7FEFF 		bl	TFT_drawPixel
 5082              	.L184:
 667:source\bsw\tft/tft.c ****         if (f >= 0) {
 5083              		.loc 1 667 0
 5084 0190 B7F91020 		ldrsh	r2, [r7, #16]
 5085 0194 B7F90E30 		ldrsh	r3, [r7, #14]
 5086 0198 9A42     		cmp	r2, r3
 5087 019a FFF653AF 		blt	.L189
 691:source\bsw\tft/tft.c ****         }
 692:source\bsw\tft/tft.c ****     }
 693:source\bsw\tft/tft.c **** }
 5088              		.loc 1 693 0
 5089 019e 00BF     		nop
 5090 01a0 1C37     		adds	r7, r7, #28
 5091              		.cfi_def_cfa_offset 12
 5092 01a2 BD46     		mov	sp, r7
 5093              		.cfi_def_cfa_register 13
 5094              		@ sp needed
 5095 01a4 90BD     		pop	{r4, r7, pc}
 5096              		.cfi_endproc
 5097              	.LFE146:
 5098              		.size	TFT_drawCircleHelper, .-TFT_drawCircleHelper
 5099 01a6 00BF     		.section	.text.TFT_fillCircle,"ax",%progbits
 5100              		.align	2
 5101              		.global	TFT_fillCircle
 5102              		.thumb
 5103              		.thumb_func
 5104              		.type	TFT_fillCircle, %function
 5105              	TFT_fillCircle:
 5106              	.LFB147:
 694:source\bsw\tft/tft.c **** 
 695:source\bsw\tft/tft.c **** void TFT_fillCircle(int16_t x0, int16_t y0, int16_t r, TFT_color_t color) {
 5107              		.loc 1 695 0
 5108              		.cfi_startproc
 5109              		@ args = 0, pretend = 0, frame = 8
 5110              		@ frame_needed = 1, uses_anonymous_args = 0
 5111 0000 90B5     		push	{r4, r7, lr}
 5112              		.cfi_def_cfa_offset 12
 5113              		.cfi_offset 4, -12
 5114              		.cfi_offset 7, -8
 5115              		.cfi_offset 14, -4
 5116 0002 85B0     		sub	sp, sp, #20
 5117              		.cfi_def_cfa_offset 32
 5118 0004 02AF     		add	r7, sp, #8
ARM GAS  C:\Users\schmi\AppData\Local\Temp\ccA9az4I.s 			page 105


 5119              		.cfi_def_cfa 7, 24
 5120 0006 0446     		mov	r4, r0
 5121 0008 0846     		mov	r0, r1
 5122 000a 1146     		mov	r1, r2
 5123 000c 1A46     		mov	r2, r3
 5124 000e 2346     		mov	r3, r4	@ movhi
 5125 0010 FB80     		strh	r3, [r7, #6]	@ movhi
 5126 0012 0346     		mov	r3, r0	@ movhi
 5127 0014 BB80     		strh	r3, [r7, #4]	@ movhi
 5128 0016 0B46     		mov	r3, r1	@ movhi
 5129 0018 7B80     		strh	r3, [r7, #2]	@ movhi
 5130 001a 1346     		mov	r3, r2	@ movhi
 5131 001c 3B80     		strh	r3, [r7]	@ movhi
 696:source\bsw\tft/tft.c **** 
 697:source\bsw\tft/tft.c ****     TFT_fastVLine(x0, y0-r, 2*r+1, color);
 5132              		.loc 1 697 0
 5133 001e BA88     		ldrh	r2, [r7, #4]
 5134 0020 7B88     		ldrh	r3, [r7, #2]
 5135 0022 D31A     		subs	r3, r2, r3
 5136 0024 9BB2     		uxth	r3, r3
 5137 0026 19B2     		sxth	r1, r3
 5138 0028 7B88     		ldrh	r3, [r7, #2]
 5139 002a 5B00     		lsls	r3, r3, #1
 5140 002c 9BB2     		uxth	r3, r3
 5141 002e 0133     		adds	r3, r3, #1
 5142 0030 9BB2     		uxth	r3, r3
 5143 0032 1AB2     		sxth	r2, r3
 5144 0034 3B88     		ldrh	r3, [r7]
 5145 0036 B7F90600 		ldrsh	r0, [r7, #6]
 5146 003a FFF7FEFF 		bl	TFT_fastVLine
 698:source\bsw\tft/tft.c ****     TFT_fillCircleHelper(x0, y0, r, 3, 0, color);
 5147              		.loc 1 698 0
 5148 003e B7F90220 		ldrsh	r2, [r7, #2]
 5149 0042 B7F90410 		ldrsh	r1, [r7, #4]
 5150 0046 B7F90600 		ldrsh	r0, [r7, #6]
 5151 004a 3B88     		ldrh	r3, [r7]
 5152 004c 0193     		str	r3, [sp, #4]
 5153 004e 0023     		movs	r3, #0
 5154 0050 0093     		str	r3, [sp]
 5155 0052 0323     		movs	r3, #3
 5156 0054 FFF7FEFF 		bl	TFT_fillCircleHelper
 699:source\bsw\tft/tft.c **** }
 5157              		.loc 1 699 0
 5158 0058 00BF     		nop
 5159 005a 0C37     		adds	r7, r7, #12
 5160              		.cfi_def_cfa_offset 12
 5161 005c BD46     		mov	sp, r7
 5162              		.cfi_def_cfa_register 13
 5163              		@ sp needed
 5164 005e 90BD     		pop	{r4, r7, pc}
 5165              		.cfi_endproc
 5166              	.LFE147:
 5167              		.size	TFT_fillCircle, .-TFT_fillCircle
 5168              		.section	.text.TFT_fillCircleHelper,"ax",%progbits
 5169              		.align	2
 5170              		.thumb
 5171              		.thumb_func
ARM GAS  C:\Users\schmi\AppData\Local\Temp\ccA9az4I.s 			page 106


 5172              		.type	TFT_fillCircleHelper, %function
 5173              	TFT_fillCircleHelper:
 5174              	.LFB148:
 700:source\bsw\tft/tft.c **** 
 701:source\bsw\tft/tft.c **** // Used to do circles and roundrects
 702:source\bsw\tft/tft.c **** void TFT_fillCircleHelper(int16_t x0, int16_t y0, int16_t r, uint8_t cornername, int16_t delta, TFT
 5175              		.loc 1 702 0
 5176              		.cfi_startproc
 5177              		@ args = 8, pretend = 0, frame = 24
 5178              		@ frame_needed = 1, uses_anonymous_args = 0
 5179 0000 90B5     		push	{r4, r7, lr}
 5180              		.cfi_def_cfa_offset 12
 5181              		.cfi_offset 4, -12
 5182              		.cfi_offset 7, -8
 5183              		.cfi_offset 14, -4
 5184 0002 87B0     		sub	sp, sp, #28
 5185              		.cfi_def_cfa_offset 40
 5186 0004 00AF     		add	r7, sp, #0
 5187              		.cfi_def_cfa_register 7
 5188 0006 0446     		mov	r4, r0
 5189 0008 0846     		mov	r0, r1
 5190 000a 1146     		mov	r1, r2
 5191 000c 1A46     		mov	r2, r3
 5192 000e 2346     		mov	r3, r4	@ movhi
 5193 0010 FB80     		strh	r3, [r7, #6]	@ movhi
 5194 0012 0346     		mov	r3, r0	@ movhi
 5195 0014 BB80     		strh	r3, [r7, #4]	@ movhi
 5196 0016 0B46     		mov	r3, r1	@ movhi
 5197 0018 7B80     		strh	r3, [r7, #2]	@ movhi
 5198 001a 1346     		mov	r3, r2
 5199 001c 7B70     		strb	r3, [r7, #1]
 703:source\bsw\tft/tft.c **** 
 704:source\bsw\tft/tft.c ****     int16_t f     = 1 - r;
 5200              		.loc 1 704 0
 5201 001e 7B88     		ldrh	r3, [r7, #2]
 5202 0020 C3F10103 		rsb	r3, r3, #1
 5203 0024 9BB2     		uxth	r3, r3
 5204 0026 FB82     		strh	r3, [r7, #22]	@ movhi
 705:source\bsw\tft/tft.c ****     int16_t ddF_x = 1;
 5205              		.loc 1 705 0
 5206 0028 0123     		movs	r3, #1
 5207 002a BB82     		strh	r3, [r7, #20]	@ movhi
 706:source\bsw\tft/tft.c ****     int16_t ddF_y = -2 * r;
 5208              		.loc 1 706 0
 5209 002c 7B88     		ldrh	r3, [r7, #2]
 5210 002e 1A46     		mov	r2, r3	@ movhi
 5211 0030 D203     		lsls	r2, r2, #15
 5212 0032 D31A     		subs	r3, r2, r3
 5213 0034 5B00     		lsls	r3, r3, #1
 5214 0036 9BB2     		uxth	r3, r3
 5215 0038 7B82     		strh	r3, [r7, #18]	@ movhi
 707:source\bsw\tft/tft.c ****     int16_t x     = 0;
 5216              		.loc 1 707 0
 5217 003a 0023     		movs	r3, #0
 5218 003c 3B82     		strh	r3, [r7, #16]	@ movhi
 708:source\bsw\tft/tft.c ****     int16_t y     = r;
 5219              		.loc 1 708 0
ARM GAS  C:\Users\schmi\AppData\Local\Temp\ccA9az4I.s 			page 107


 5220 003e 7B88     		ldrh	r3, [r7, #2]	@ movhi
 5221 0040 FB81     		strh	r3, [r7, #14]	@ movhi
 709:source\bsw\tft/tft.c **** 
 710:source\bsw\tft/tft.c ****     while (x<y) {
 5222              		.loc 1 710 0
 5223 0042 83E0     		b	.L192
 5224              	.L195:
 711:source\bsw\tft/tft.c ****         if (f >= 0) {
 5225              		.loc 1 711 0
 5226 0044 B7F91630 		ldrsh	r3, [r7, #22]
 5227 0048 002B     		cmp	r3, #0
 5228 004a 0EDB     		blt	.L193
 712:source\bsw\tft/tft.c ****             y--;
 5229              		.loc 1 712 0
 5230 004c B7F90E30 		ldrsh	r3, [r7, #14]
 5231 0050 9BB2     		uxth	r3, r3
 5232 0052 013B     		subs	r3, r3, #1
 5233 0054 9BB2     		uxth	r3, r3
 5234 0056 FB81     		strh	r3, [r7, #14]	@ movhi
 713:source\bsw\tft/tft.c ****             ddF_y += 2;
 5235              		.loc 1 713 0
 5236 0058 7B8A     		ldrh	r3, [r7, #18]
 5237 005a 0233     		adds	r3, r3, #2
 5238 005c 9BB2     		uxth	r3, r3
 5239 005e 7B82     		strh	r3, [r7, #18]	@ movhi
 714:source\bsw\tft/tft.c ****             f     += ddF_y;
 5240              		.loc 1 714 0
 5241 0060 FA8A     		ldrh	r2, [r7, #22]
 5242 0062 7B8A     		ldrh	r3, [r7, #18]
 5243 0064 1344     		add	r3, r3, r2
 5244 0066 9BB2     		uxth	r3, r3
 5245 0068 FB82     		strh	r3, [r7, #22]	@ movhi
 5246              	.L193:
 715:source\bsw\tft/tft.c ****         }
 716:source\bsw\tft/tft.c ****         x++;
 5247              		.loc 1 716 0
 5248 006a B7F91030 		ldrsh	r3, [r7, #16]
 5249 006e 9BB2     		uxth	r3, r3
 5250 0070 0133     		adds	r3, r3, #1
 5251 0072 9BB2     		uxth	r3, r3
 5252 0074 3B82     		strh	r3, [r7, #16]	@ movhi
 717:source\bsw\tft/tft.c ****         ddF_x += 2;
 5253              		.loc 1 717 0
 5254 0076 BB8A     		ldrh	r3, [r7, #20]
 5255 0078 0233     		adds	r3, r3, #2
 5256 007a 9BB2     		uxth	r3, r3
 5257 007c BB82     		strh	r3, [r7, #20]	@ movhi
 718:source\bsw\tft/tft.c ****         f     += ddF_x;
 5258              		.loc 1 718 0
 5259 007e FA8A     		ldrh	r2, [r7, #22]
 5260 0080 BB8A     		ldrh	r3, [r7, #20]
 5261 0082 1344     		add	r3, r3, r2
 5262 0084 9BB2     		uxth	r3, r3
 5263 0086 FB82     		strh	r3, [r7, #22]	@ movhi
 719:source\bsw\tft/tft.c **** 
 720:source\bsw\tft/tft.c ****         if (cornername & 0x1) {
